   1              		.cpu cortex-m0
   2              		.fpu softvfp
   3              		.eabi_attribute 20, 1
   4              		.eabi_attribute 21, 1
   5              		.eabi_attribute 23, 3
   6              		.eabi_attribute 24, 1
   7              		.eabi_attribute 25, 1
   8              		.eabi_attribute 26, 1
   9              		.eabi_attribute 30, 6
  10              		.eabi_attribute 34, 0
  11              		.eabi_attribute 18, 4
  12              		.code	16
  13              		.file	"MULTIPLEXER.c"
  14              		.text
  15              	.Ltext0:
  16              		.cfi_sections	.debug_frame
  17              		.section	.text.DAVE_MUX_Init,"ax",%progbits
  18              		.align	2
  19              		.global	DAVE_MUX_Init
  20              		.code	16
  21              		.thumb_func
  23              	DAVE_MUX_Init:
  24              	.LFB38:
  25              		.file 1 "../Dave/Generated/src/DAVESupport/MULTIPLEXER.c"
   1:../Dave/Generated/src/DAVESupport/MULTIPLEXER.c **** /*******************************************************************************
   2:../Dave/Generated/src/DAVESupport/MULTIPLEXER.c **** **  DAVE App Name : DAVESupport       App Version: 1.0.44               
   3:../Dave/Generated/src/DAVESupport/MULTIPLEXER.c **** **  This file is generated by DAVE, User modification to this file will be    **
   4:../Dave/Generated/src/DAVESupport/MULTIPLEXER.c **** **  overwritten at the next code generation.                                  **
   5:../Dave/Generated/src/DAVESupport/MULTIPLEXER.c **** *******************************************************************************/
   6:../Dave/Generated/src/DAVESupport/MULTIPLEXER.c **** 
   7:../Dave/Generated/src/DAVESupport/MULTIPLEXER.c **** 
   8:../Dave/Generated/src/DAVESupport/MULTIPLEXER.c **** /*******************************************************************************
   9:../Dave/Generated/src/DAVESupport/MULTIPLEXER.c ****  Copyright (c) 2014, Infineon Technologies AG                                 **
  10:../Dave/Generated/src/DAVESupport/MULTIPLEXER.c ****  All rights reserved.                                                         **
  11:../Dave/Generated/src/DAVESupport/MULTIPLEXER.c ****                                                                               **
  12:../Dave/Generated/src/DAVESupport/MULTIPLEXER.c ****  Redistribution and use in source and binary forms, with or without           **
  13:../Dave/Generated/src/DAVESupport/MULTIPLEXER.c ****  modification,are permitted provided that the following conditions are met:   **
  14:../Dave/Generated/src/DAVESupport/MULTIPLEXER.c ****                                                                               **
  15:../Dave/Generated/src/DAVESupport/MULTIPLEXER.c ****  *Redistributions of source code must retain the above copyright notice,      **
  16:../Dave/Generated/src/DAVESupport/MULTIPLEXER.c ****  this list of conditions and the following disclaimer.                        **
  17:../Dave/Generated/src/DAVESupport/MULTIPLEXER.c ****  *Redistributions in binary form must reproduce the above copyright notice,   **
  18:../Dave/Generated/src/DAVESupport/MULTIPLEXER.c ****  this list of conditions and the following disclaimer in the documentation    **
  19:../Dave/Generated/src/DAVESupport/MULTIPLEXER.c ****  and/or other materials provided with the distribution.                       **
  20:../Dave/Generated/src/DAVESupport/MULTIPLEXER.c ****  *Neither the name of the copyright holders nor the names of its contributors **
  21:../Dave/Generated/src/DAVESupport/MULTIPLEXER.c ****  may be used to endorse or promote products derived from this software without**
  22:../Dave/Generated/src/DAVESupport/MULTIPLEXER.c ****  specific prior written permission.                                           **
  23:../Dave/Generated/src/DAVESupport/MULTIPLEXER.c ****                                                                               **
  24:../Dave/Generated/src/DAVESupport/MULTIPLEXER.c ****  THIS SOFTWARE IS PROVIDED BY THE COPYRIGHT HOLDERS AND CONTRIBUTORS "AS IS"  **
  25:../Dave/Generated/src/DAVESupport/MULTIPLEXER.c ****  AND ANY EXPRESS OR IMPLIED WARRANTIES, INCLUDING, BUT NOT LIMITED TO, THE    **
  26:../Dave/Generated/src/DAVESupport/MULTIPLEXER.c ****  IMPLIED WARRANTIES OF MERCHANTABILITY AND FITNESS FOR A PARTICULAR PURPOSE   **
  27:../Dave/Generated/src/DAVESupport/MULTIPLEXER.c ****  ARE  DISCLAIMED. IN NO EVENT SHALL THE COPYRIGHT HOLDER OR CONTRIBUTORS BE   **
  28:../Dave/Generated/src/DAVESupport/MULTIPLEXER.c ****  LIABLE  FOR ANY DIRECT, INDIRECT, INCIDENTAL, SPECIAL, EXEMPLARY, OR         **
  29:../Dave/Generated/src/DAVESupport/MULTIPLEXER.c ****  CONSEQUENTIAL DAMAGES (INCLUDING, BUT NOT LIMITED TO, PROCUREMENT OF         **
  30:../Dave/Generated/src/DAVESupport/MULTIPLEXER.c ****  SUBSTITUTE GOODS OR  SERVICES; LOSS OF USE, DATA, OR PROFITS; OR BUSINESS    **
  31:../Dave/Generated/src/DAVESupport/MULTIPLEXER.c ****  INTERRUPTION) HOWEVER CAUSED AND ON ANY THEORY OF LIABILITY, WHETHER IN      **
  32:../Dave/Generated/src/DAVESupport/MULTIPLEXER.c ****  CONTRACT, STRICT LIABILITY,OR TORT (INCLUDING NEGLIGENCE OR OTHERWISE)       **
  33:../Dave/Generated/src/DAVESupport/MULTIPLEXER.c ****  ARISING IN ANY WAY OUT OF THE USE OF THIS SOFTWARE, EVEN IF ADVISED OF THE   **
  34:../Dave/Generated/src/DAVESupport/MULTIPLEXER.c ****  POSSIBILITY OF SUCH DAMAGE.                                                  **
  35:../Dave/Generated/src/DAVESupport/MULTIPLEXER.c ****                                                                               **
  36:../Dave/Generated/src/DAVESupport/MULTIPLEXER.c ****  To improve the quality of the software, users are encouraged to share        **
  37:../Dave/Generated/src/DAVESupport/MULTIPLEXER.c ****  modifications, enhancements or bug fixes with Infineon Technologies AG       **
  38:../Dave/Generated/src/DAVESupport/MULTIPLEXER.c ****  dave@infineon.com).                                                          **
  39:../Dave/Generated/src/DAVESupport/MULTIPLEXER.c ****                                                                               **
  40:../Dave/Generated/src/DAVESupport/MULTIPLEXER.c **** ********************************************************************************
  41:../Dave/Generated/src/DAVESupport/MULTIPLEXER.c **** **                                                                            **
  42:../Dave/Generated/src/DAVESupport/MULTIPLEXER.c **** **                                                                            **
  43:../Dave/Generated/src/DAVESupport/MULTIPLEXER.c **** ** PLATFORM : Infineon <Microcontroller name, step>                           **
  44:../Dave/Generated/src/DAVESupport/MULTIPLEXER.c **** **                                                                            **
  45:../Dave/Generated/src/DAVESupport/MULTIPLEXER.c **** ** COMPILER : Compiler Independent                                            **
  46:../Dave/Generated/src/DAVESupport/MULTIPLEXER.c **** **                                                                            **
  47:../Dave/Generated/src/DAVESupport/MULTIPLEXER.c **** ** MODIFICATION DATE : April 23, 2014                                     **
  48:../Dave/Generated/src/DAVESupport/MULTIPLEXER.c **** **                                                                            **
  49:../Dave/Generated/src/DAVESupport/MULTIPLEXER.c **** *******************************************************************************/
  50:../Dave/Generated/src/DAVESupport/MULTIPLEXER.c **** /**
  51:../Dave/Generated/src/DAVESupport/MULTIPLEXER.c ****  * @file  MULTIPLEXER.c
  52:../Dave/Generated/src/DAVESupport/MULTIPLEXER.c ****  *
  53:../Dave/Generated/src/DAVESupport/MULTIPLEXER.c ****  * @brief This file contains implementation of DAVE Support function which 
  54:../Dave/Generated/src/DAVESupport/MULTIPLEXER.c ****  * uses to configure multiplexer register values.
  55:../Dave/Generated/src/DAVESupport/MULTIPLEXER.c ****  * 24 July 2013 v1.0.34 Initial Version
  56:../Dave/Generated/src/DAVESupport/MULTIPLEXER.c ****  * 06 sep 2013 v1.0.36  UART001 : Mux : One instruction for output pins 
  57:../Dave/Generated/src/DAVESupport/MULTIPLEXER.c ****  *                      initialisation.
  58:../Dave/Generated/src/DAVESupport/MULTIPLEXER.c ****  *                      CAN001 & CAN002 : Avoid twice reset of the INIT bit in 
  59:../Dave/Generated/src/DAVESupport/MULTIPLEXER.c ****  *                      Can001_lNodeInit & DAVE_MUX_Init.
  60:../Dave/Generated/src/DAVESupport/MULTIPLEXER.c ****  *                      WR_REGHIB Macro definition has been changed.
  61:../Dave/Generated/src/DAVESupport/MULTIPLEXER.c ****  * 23 April 2014 v1.0.44 HRPWM MUX configuration supported.                      
  62:../Dave/Generated/src/DAVESupport/MULTIPLEXER.c ****  *                      
  63:../Dave/Generated/src/DAVESupport/MULTIPLEXER.c ****  */
  64:../Dave/Generated/src/DAVESupport/MULTIPLEXER.c **** 
  65:../Dave/Generated/src/DAVESupport/MULTIPLEXER.c **** /*******************************************************************************
  66:../Dave/Generated/src/DAVESupport/MULTIPLEXER.c **** **                      Include Files                                         **
  67:../Dave/Generated/src/DAVESupport/MULTIPLEXER.c **** *******************************************************************************/
  68:../Dave/Generated/src/DAVESupport/MULTIPLEXER.c **** #include "../../inc/DAVESupport/DAVE3.h"
  69:../Dave/Generated/src/DAVESupport/MULTIPLEXER.c **** 
  70:../Dave/Generated/src/DAVESupport/MULTIPLEXER.c **** /*******************************************************************************
  71:../Dave/Generated/src/DAVESupport/MULTIPLEXER.c **** **                 Function declarations                                     **
  72:../Dave/Generated/src/DAVESupport/MULTIPLEXER.c **** *******************************************************************************/
  73:../Dave/Generated/src/DAVESupport/MULTIPLEXER.c **** /*******************************************************************************
  74:../Dave/Generated/src/DAVESupport/MULTIPLEXER.c **** ** Syntax           : void DAVE_MUX_Init(void)                                **
  75:../Dave/Generated/src/DAVESupport/MULTIPLEXER.c **** **                                                                            **
  76:../Dave/Generated/src/DAVESupport/MULTIPLEXER.c **** ** Reentrancy       : None                                                    **
  77:../Dave/Generated/src/DAVESupport/MULTIPLEXER.c **** **                                                                            **
  78:../Dave/Generated/src/DAVESupport/MULTIPLEXER.c **** ** Parameters (in)  : void                                                    **
  79:../Dave/Generated/src/DAVESupport/MULTIPLEXER.c **** **                                                                            **
  80:../Dave/Generated/src/DAVESupport/MULTIPLEXER.c **** ** Parameters (out) : none                                                    **
  81:../Dave/Generated/src/DAVESupport/MULTIPLEXER.c **** **                                                                            **
  82:../Dave/Generated/src/DAVESupport/MULTIPLEXER.c **** ** Return value     : none                                                    **
  83:../Dave/Generated/src/DAVESupport/MULTIPLEXER.c **** **                                                                            **
  84:../Dave/Generated/src/DAVESupport/MULTIPLEXER.c **** ** Description      : This is the Mux configuration                           **
  85:../Dave/Generated/src/DAVESupport/MULTIPLEXER.c **** **                                                                            **
  86:../Dave/Generated/src/DAVESupport/MULTIPLEXER.c **** *******************************************************************************/
  87:../Dave/Generated/src/DAVESupport/MULTIPLEXER.c ****            
  88:../Dave/Generated/src/DAVESupport/MULTIPLEXER.c **** void DAVE_MUX_Init(void)
  89:../Dave/Generated/src/DAVESupport/MULTIPLEXER.c **** {  
  26              		.loc 1 89 0
  27              		.cfi_startproc
  28 0000 80B5     		push	{r7, lr}
  29              	.LCFI0:
  30              		.cfi_def_cfa_offset 8
  31              		.cfi_offset 7, -8
  32              		.cfi_offset 14, -4
  33 0002 86B0     		sub	sp, sp, #24
  34              	.LCFI1:
  35              		.cfi_def_cfa_offset 32
  36 0004 00AF     		add	r7, sp, #0
  37              	.LCFI2:
  38              		.cfi_def_cfa_register 7
  90:../Dave/Generated/src/DAVESupport/MULTIPLEXER.c ****    	 
  91:../Dave/Generated/src/DAVESupport/MULTIPLEXER.c ****             	         
  92:../Dave/Generated/src/DAVESupport/MULTIPLEXER.c ****                                      
  93:../Dave/Generated/src/DAVESupport/MULTIPLEXER.c ****        /*        SCU Macro definitions     */                  
  94:../Dave/Generated/src/DAVESupport/MULTIPLEXER.c ****    	 
  95:../Dave/Generated/src/DAVESupport/MULTIPLEXER.c ****       
  96:../Dave/Generated/src/DAVESupport/MULTIPLEXER.c **** //********* MODULE USIC CONFIGURATIONS *************************	        
  97:../Dave/Generated/src/DAVESupport/MULTIPLEXER.c ****         
  98:../Dave/Generated/src/DAVESupport/MULTIPLEXER.c ****            
  99:../Dave/Generated/src/DAVESupport/MULTIPLEXER.c ****    /* Disable mode before configuring all USIC registers to avoid unintended edges */   
 100:../Dave/Generated/src/DAVESupport/MULTIPLEXER.c ****       /* Variable to store the CCR_MODE values for various USIC channels */ 
 101:../Dave/Generated/src/DAVESupport/MULTIPLEXER.c ****       uint32_t UsicCcrMode[6] = {0};
  39              		.loc 1 101 0
  40 0006 3B1C     		mov	r3, r7
  41 0008 0022     		mov	r2, #0
  42 000a 1A60     		str	r2, [r3]
  43 000c 0433     		add	r3, r3, #4
  44 000e 0022     		mov	r2, #0
  45 0010 1A60     		str	r2, [r3]
  46 0012 0433     		add	r3, r3, #4
  47 0014 0022     		mov	r2, #0
  48 0016 1A60     		str	r2, [r3]
  49 0018 0433     		add	r3, r3, #4
  50 001a 0022     		mov	r2, #0
  51 001c 1A60     		str	r2, [r3]
  52 001e 0433     		add	r3, r3, #4
  53 0020 0022     		mov	r2, #0
  54 0022 1A60     		str	r2, [r3]
  55 0024 0433     		add	r3, r3, #4
  56 0026 0022     		mov	r2, #0
  57 0028 1A60     		str	r2, [r3]
  58 002a 0433     		add	r3, r3, #4
 102:../Dave/Generated/src/DAVESupport/MULTIPLEXER.c ****            
 103:../Dave/Generated/src/DAVESupport/MULTIPLEXER.c ****     UsicCcrMode[0] |= (uint32_t) RD_REG(USIC0_CH0->CCR, USIC_CH_CCR_MODE_Msk, USIC_CH_CCR_MODE_Pos)
  59              		.loc 1 103 0
  60 002c 3B1C     		mov	r3, r7
  61 002e 1A68     		ldr	r2, [r3]
  62 0030 9023     		mov	r3, #144
  63 0032 DB05     		lsl	r3, r3, #23
  64 0034 196C     		ldr	r1, [r3, #64]
  65 0036 0F23     		mov	r3, #15
  66 0038 0B40     		and	r3, r1
  67 003a 1A43     		orr	r2, r3
  68 003c 3B1C     		mov	r3, r7
  69 003e 1A60     		str	r2, [r3]
 104:../Dave/Generated/src/DAVESupport/MULTIPLEXER.c ****     WR_REG(USIC0_CH0->CCR, USIC_CH_CCR_MODE_Msk, USIC_CH_CCR_MODE_Pos,0);  
  70              		.loc 1 104 0
  71 0040 9023     		mov	r3, #144
  72 0042 DB05     		lsl	r3, r3, #23
  73 0044 9022     		mov	r2, #144
  74 0046 D205     		lsl	r2, r2, #23
  75 0048 126C     		ldr	r2, [r2, #64]
  76 004a 0F21     		mov	r1, #15
  77 004c 8A43     		bic	r2, r1
  78 004e 1A64     		str	r2, [r3, #64]
 105:../Dave/Generated/src/DAVESupport/MULTIPLEXER.c ****                         
 106:../Dave/Generated/src/DAVESupport/MULTIPLEXER.c ****       
 107:../Dave/Generated/src/DAVESupport/MULTIPLEXER.c ****     						
 108:../Dave/Generated/src/DAVESupport/MULTIPLEXER.c ****    /*USIC 0 Channel 0 Mux Related SFR/Bitfields Configurations*/ 						         
 109:../Dave/Generated/src/DAVESupport/MULTIPLEXER.c ****  WR_REG(USIC0_CH0->DX0CR, USIC_CH_DX0CR_DSEL_Msk, USIC_CH_DX0CR_DSEL_Pos,6); 
  79              		.loc 1 109 0
  80 0050 9023     		mov	r3, #144
  81 0052 DB05     		lsl	r3, r3, #23
  82 0054 9022     		mov	r2, #144
  83 0056 D205     		lsl	r2, r2, #23
  84 0058 D269     		ldr	r2, [r2, #28]
  85 005a 0721     		mov	r1, #7
  86 005c 8A43     		bic	r2, r1
  87 005e 0621     		mov	r1, #6
  88 0060 0A43     		orr	r2, r1
  89 0062 DA61     		str	r2, [r3, #28]
 110:../Dave/Generated/src/DAVESupport/MULTIPLEXER.c ****   			  					 				   
 111:../Dave/Generated/src/DAVESupport/MULTIPLEXER.c ****  WR_REG(USIC0_CH0->DX3CR, USIC_CH_DX3CR_DSEL_Msk, USIC_CH_DX3CR_DSEL_Pos,5);
  90              		.loc 1 111 0
  91 0064 9023     		mov	r3, #144
  92 0066 DB05     		lsl	r3, r3, #23
  93 0068 9022     		mov	r2, #144
  94 006a D205     		lsl	r2, r2, #23
  95 006c 926A     		ldr	r2, [r2, #40]
  96 006e 0721     		mov	r1, #7
  97 0070 8A43     		bic	r2, r1
  98 0072 0521     		mov	r1, #5
  99 0074 0A43     		orr	r2, r1
 100 0076 9A62     		str	r2, [r3, #40]
 112:../Dave/Generated/src/DAVESupport/MULTIPLEXER.c ****     				 		         
 113:../Dave/Generated/src/DAVESupport/MULTIPLEXER.c ****  WR_REG(USIC0_CH0->DX5CR, USIC_CH_DX5CR_DSEL_Msk, USIC_CH_DX5CR_DSEL_Pos,4);  
 101              		.loc 1 113 0
 102 0078 9023     		mov	r3, #144
 103 007a DB05     		lsl	r3, r3, #23
 104 007c 9022     		mov	r2, #144
 105 007e D205     		lsl	r2, r2, #23
 106 0080 126B     		ldr	r2, [r2, #48]
 107 0082 0721     		mov	r1, #7
 108 0084 8A43     		bic	r2, r1
 109 0086 0421     		mov	r1, #4
 110 0088 0A43     		orr	r2, r1
 111 008a 1A63     		str	r2, [r3, #48]
 114:../Dave/Generated/src/DAVESupport/MULTIPLEXER.c ****   				              				  					    					 					   				  					 				 				       				  					    
 115:../Dave/Generated/src/DAVESupport/MULTIPLEXER.c ****  //Standard receive buffer event is enabled.                 
 116:../Dave/Generated/src/DAVESupport/MULTIPLEXER.c ****  WR_REG(USIC0_CH0->RBCTR, USIC_CH_RBCTR_SRBIEN_Msk, USIC_CH_RBCTR_SRBIEN_Pos,1);  
 112              		.loc 1 116 0
 113 008c 9023     		mov	r3, #144
 114 008e DA05     		lsl	r2, r3, #23
 115 0090 9023     		mov	r3, #144
 116 0092 D905     		lsl	r1, r3, #23
 117 0094 8623     		mov	r3, #134
 118 0096 5B00     		lsl	r3, r3, #1
 119 0098 CB58     		ldr	r3, [r1, r3]
 120 009a 8021     		mov	r1, #128
 121 009c C905     		lsl	r1, r1, #23
 122 009e 1943     		orr	r1, r3
 123 00a0 8623     		mov	r3, #134
 124 00a2 5B00     		lsl	r3, r3, #1
 125 00a4 D150     		str	r1, [r2, r3]
 117:../Dave/Generated/src/DAVESupport/MULTIPLEXER.c ****  					 									 					 					  									      					              					  						    					      
 118:../Dave/Generated/src/DAVESupport/MULTIPLEXER.c ****                  
 119:../Dave/Generated/src/DAVESupport/MULTIPLEXER.c ****    // Data Pointer & Buffer Size for Transmitter Buffer Control  
 120:../Dave/Generated/src/DAVESupport/MULTIPLEXER.c ****  WR_REG(USIC0_CH0->TBCTR, USIC_CH_TBCTR_DPTRSIZE_Msk, USIC_CH_TBCTR_DPTRSIZE_Pos,0x05000020);		/*  
 126              		.loc 1 120 0
 127 00a6 9023     		mov	r3, #144
 128 00a8 DA05     		lsl	r2, r3, #23
 129 00aa 9023     		mov	r3, #144
 130 00ac D905     		lsl	r1, r3, #23
 131 00ae 8423     		mov	r3, #132
 132 00b0 5B00     		lsl	r3, r3, #1
 133 00b2 C958     		ldr	r1, [r1, r3]
 134 00b4 1D4B     		ldr	r3, .L2
 135 00b6 0B40     		and	r3, r1
 136 00b8 1D49     		ldr	r1, .L2+4
 137 00ba 1943     		orr	r1, r3
 138 00bc 8423     		mov	r3, #132
 139 00be 5B00     		lsl	r3, r3, #1
 140 00c0 D150     		str	r1, [r2, r3]
 121:../Dave/Generated/src/DAVESupport/MULTIPLEXER.c ****          
 122:../Dave/Generated/src/DAVESupport/MULTIPLEXER.c ****   // Data Pointer & Buffer Size for Receiver Buffer Control  
 123:../Dave/Generated/src/DAVESupport/MULTIPLEXER.c ****  WR_REG(USIC0_CH0->RBCTR, USIC_CH_RBCTR_DPTRSIZE_Msk, USIC_CH_RBCTR_DPTRSIZE_Pos,0x05000000);		/*  
 141              		.loc 1 123 0
 142 00c2 9023     		mov	r3, #144
 143 00c4 DA05     		lsl	r2, r3, #23
 144 00c6 9023     		mov	r3, #144
 145 00c8 D905     		lsl	r1, r3, #23
 146 00ca 8623     		mov	r3, #134
 147 00cc 5B00     		lsl	r3, r3, #1
 148 00ce C958     		ldr	r1, [r1, r3]
 149 00d0 164B     		ldr	r3, .L2
 150 00d2 0B40     		and	r3, r1
 151 00d4 A021     		mov	r1, #160
 152 00d6 C904     		lsl	r1, r1, #19
 153 00d8 1943     		orr	r1, r3
 154 00da 8623     		mov	r3, #134
 155 00dc 5B00     		lsl	r3, r3, #1
 156 00de D150     		str	r1, [r2, r3]
 124:../Dave/Generated/src/DAVESupport/MULTIPLEXER.c ****  						
 125:../Dave/Generated/src/DAVESupport/MULTIPLEXER.c ****    /*USIC 0 Channel 1 Mux Related SFR/Bitfields Configurations*/ 									  					 				 				 		     
 126:../Dave/Generated/src/DAVESupport/MULTIPLEXER.c ****          						
 127:../Dave/Generated/src/DAVESupport/MULTIPLEXER.c ****    /*USIC 1 Channel 0 Mux Related SFR/Bitfields Configurations*/ 									  					 				 				 		     
 128:../Dave/Generated/src/DAVESupport/MULTIPLEXER.c ****        						
 129:../Dave/Generated/src/DAVESupport/MULTIPLEXER.c ****    /*USIC 1 Channel 1 Mux Related SFR/Bitfields Configurations*/ 									  					 				 				 		     
 130:../Dave/Generated/src/DAVESupport/MULTIPLEXER.c ****          						
 131:../Dave/Generated/src/DAVESupport/MULTIPLEXER.c ****    /*USIC 2 Channel 0 Mux Related SFR/Bitfields Configurations*/ 									  					 				 				 		     
 132:../Dave/Generated/src/DAVESupport/MULTIPLEXER.c ****        						
 133:../Dave/Generated/src/DAVESupport/MULTIPLEXER.c ****    /*USIC 2 Channel 1 Mux Related SFR/Bitfields Configurations*/ 									  					 				 				 		     
 134:../Dave/Generated/src/DAVESupport/MULTIPLEXER.c ****          
 135:../Dave/Generated/src/DAVESupport/MULTIPLEXER.c ****   
 136:../Dave/Generated/src/DAVESupport/MULTIPLEXER.c ****   /* Enable mode after configuring all USIC registers to avoid unintended edges */  
 137:../Dave/Generated/src/DAVESupport/MULTIPLEXER.c ****             
 138:../Dave/Generated/src/DAVESupport/MULTIPLEXER.c ****    WR_REG(USIC0_CH0->CCR, USIC_CH_CCR_MODE_Msk, USIC_CH_CCR_MODE_Pos,UsicCcrMode[0]); 
 157              		.loc 1 138 0
 158 00e0 9023     		mov	r3, #144
 159 00e2 DB05     		lsl	r3, r3, #23
 160 00e4 3A1C     		mov	r2, r7
 161 00e6 1168     		ldr	r1, [r2]
 162 00e8 0F22     		mov	r2, #15
 163 00ea 1140     		and	r1, r2
 164 00ec 9022     		mov	r2, #144
 165 00ee D205     		lsl	r2, r2, #23
 166 00f0 126C     		ldr	r2, [r2, #64]
 167 00f2 0F20     		mov	r0, #15
 168 00f4 8243     		bic	r2, r0
 169 00f6 0A43     		orr	r2, r1
 170 00f8 1A64     		str	r2, [r3, #64]
 139:../Dave/Generated/src/DAVESupport/MULTIPLEXER.c ****                    	         
 140:../Dave/Generated/src/DAVESupport/MULTIPLEXER.c ****                                                      
 141:../Dave/Generated/src/DAVESupport/MULTIPLEXER.c ****         //********* Capture/Compare Unit 4 (CAPCOM4) CONFIGURATIONS ************************* 
 142:../Dave/Generated/src/DAVESupport/MULTIPLEXER.c ****    	 
 143:../Dave/Generated/src/DAVESupport/MULTIPLEXER.c ****             	         
 144:../Dave/Generated/src/DAVESupport/MULTIPLEXER.c ****                                                      
 145:../Dave/Generated/src/DAVESupport/MULTIPLEXER.c ****    	 
 146:../Dave/Generated/src/DAVESupport/MULTIPLEXER.c ****             	         
 147:../Dave/Generated/src/DAVESupport/MULTIPLEXER.c ****                                                      
 148:../Dave/Generated/src/DAVESupport/MULTIPLEXER.c ****    	 
 149:../Dave/Generated/src/DAVESupport/MULTIPLEXER.c ****             	         
 150:../Dave/Generated/src/DAVESupport/MULTIPLEXER.c ****                                                  
 151:../Dave/Generated/src/DAVESupport/MULTIPLEXER.c **** 
 152:../Dave/Generated/src/DAVESupport/MULTIPLEXER.c **** /*        PORT Macro definitions for IOCR_OE, IOCR_PCR & HWSEL_HW     */                           
 153:../Dave/Generated/src/DAVESupport/MULTIPLEXER.c ****   WR_REG(PORT1->IOCR0, PORT_IOCR_PC0_OE_Msk, PORT_IOCR_PC0_OE_Pos, PORT_IOCR_OE1);                /
 171              		.loc 1 153 0
 172 00fa 0E4B     		ldr	r3, .L2+8
 173 00fc 0D4A     		ldr	r2, .L2+8
 174 00fe 1269     		ldr	r2, [r2, #16]
 175 0100 8021     		mov	r1, #128
 176 0102 0A43     		orr	r2, r1
 177 0104 1A61     		str	r2, [r3, #16]
 154:../Dave/Generated/src/DAVESupport/MULTIPLEXER.c **** 					                         
 155:../Dave/Generated/src/DAVESupport/MULTIPLEXER.c ****   WR_REG(PORT1->IOCR0, PORT_IOCR_PC1_OE_Msk, PORT_IOCR_PC1_OE_Pos, PORT_IOCR_OE1);                /
 178              		.loc 1 155 0
 179 0106 0B4B     		ldr	r3, .L2+8
 180 0108 0A4A     		ldr	r2, .L2+8
 181 010a 1269     		ldr	r2, [r2, #16]
 182 010c 8021     		mov	r1, #128
 183 010e 0902     		lsl	r1, r1, #8
 184 0110 0A43     		orr	r2, r1
 185 0112 1A61     		str	r2, [r3, #16]
 156:../Dave/Generated/src/DAVESupport/MULTIPLEXER.c **** 					                         
 157:../Dave/Generated/src/DAVESupport/MULTIPLEXER.c ****   WR_REG(PORT1->IOCR4, 0xb800U, PORT_IOCR_PC1_PCR_Pos, 0x12U);                /*P1.5 : PORT1_IOCR4_
 186              		.loc 1 157 0
 187 0114 074B     		ldr	r3, .L2+8
 188 0116 074A     		ldr	r2, .L2+8
 189 0118 5169     		ldr	r1, [r2, #20]
 190 011a 074A     		ldr	r2, .L2+12
 191 011c 0A40     		and	r2, r1
 192 011e 9021     		mov	r1, #144
 193 0120 0902     		lsl	r1, r1, #8
 194 0122 0A43     		orr	r2, r1
 195 0124 5A61     		str	r2, [r3, #20]
 158:../Dave/Generated/src/DAVESupport/MULTIPLEXER.c **** 					      
 159:../Dave/Generated/src/DAVESupport/MULTIPLEXER.c ****         //********* Capture/Compare Unit 8 (CAPCOM8) CONFIGURATIONS *************************
 160:../Dave/Generated/src/DAVESupport/MULTIPLEXER.c ****    	 
 161:../Dave/Generated/src/DAVESupport/MULTIPLEXER.c ****             	         
 162:../Dave/Generated/src/DAVESupport/MULTIPLEXER.c ****                                                      
 163:../Dave/Generated/src/DAVESupport/MULTIPLEXER.c ****    	 
 164:../Dave/Generated/src/DAVESupport/MULTIPLEXER.c ****             	         
 165:../Dave/Generated/src/DAVESupport/MULTIPLEXER.c ****                                   
 166:../Dave/Generated/src/DAVESupport/MULTIPLEXER.c ****                   /*VADC GROUP0 Mux Related SFR/Bitfields Configurations*/  						                 
 167:../Dave/Generated/src/DAVESupport/MULTIPLEXER.c **** 
 168:../Dave/Generated/src/DAVESupport/MULTIPLEXER.c **** 					 						          						          						          						          						          						       
 169:../Dave/Generated/src/DAVESupport/MULTIPLEXER.c ****                                                                                                    
 170:../Dave/Generated/src/DAVESupport/MULTIPLEXER.c ****                   /*VADC GROUP1 Mux Related SFR/Bitfields Configurations*/  						                 
 171:../Dave/Generated/src/DAVESupport/MULTIPLEXER.c **** 
 172:../Dave/Generated/src/DAVESupport/MULTIPLEXER.c **** 					 						          						          						          						          						          						       
 173:../Dave/Generated/src/DAVESupport/MULTIPLEXER.c ****                                                                                                    
 174:../Dave/Generated/src/DAVESupport/MULTIPLEXER.c ****                   /*VADC GROUP2 Mux Related SFR/Bitfields Configurations*/  						                 
 175:../Dave/Generated/src/DAVESupport/MULTIPLEXER.c **** 
 176:../Dave/Generated/src/DAVESupport/MULTIPLEXER.c **** 					 						          						          						          						          						          						       
 177:../Dave/Generated/src/DAVESupport/MULTIPLEXER.c ****                                                                                                    
 178:../Dave/Generated/src/DAVESupport/MULTIPLEXER.c ****                   /*VADC GROUP3 Mux Related SFR/Bitfields Configurations*/  						                 
 179:../Dave/Generated/src/DAVESupport/MULTIPLEXER.c **** 
 180:../Dave/Generated/src/DAVESupport/MULTIPLEXER.c **** 					 						          						          						          						          						          						       
 181:../Dave/Generated/src/DAVESupport/MULTIPLEXER.c ****                                                                                                    
 182:../Dave/Generated/src/DAVESupport/MULTIPLEXER.c ****                /*VADC GLOBAL RESULT Mux Related SFR/Bitfields Configurations*/  						             
 183:../Dave/Generated/src/DAVESupport/MULTIPLEXER.c ****                /*VADC BACKGROUND Source Mux Related SFR/Bitfields Configurations*/  						         
 184:../Dave/Generated/src/DAVESupport/MULTIPLEXER.c **** }
 196              		.loc 1 184 0
 197 0126 BD46     		mov	sp, r7
 198 0128 06B0     		add	sp, sp, #24
 199              		@ sp needed for prologue
 200 012a 80BD     		pop	{r7, pc}
 201              	.L3:
 202              		.align	2
 203              	.L2:
 204 012c C0FFFFF8 		.word	-117440576
 205 0130 20000005 		.word	83886112
 206 0134 00010440 		.word	1074004224
 207 0138 FF47FFFF 		.word	-47105
 208              		.cfi_endproc
 209              	.LFE38:
 211              		.section	.text.DAVE_MUX_PreInit,"ax",%progbits
 212              		.align	2
 213              		.global	DAVE_MUX_PreInit
 214              		.code	16
 215              		.thumb_func
 217              	DAVE_MUX_PreInit:
 218              	.LFB39:
 185:../Dave/Generated/src/DAVESupport/MULTIPLEXER.c **** 
 186:../Dave/Generated/src/DAVESupport/MULTIPLEXER.c **** 
 187:../Dave/Generated/src/DAVESupport/MULTIPLEXER.c **** /*******************************************************************************
 188:../Dave/Generated/src/DAVESupport/MULTIPLEXER.c **** ** Syntax           : void DAVE_MUX_PreInit(void)                             **
 189:../Dave/Generated/src/DAVESupport/MULTIPLEXER.c **** **                                                                            **
 190:../Dave/Generated/src/DAVESupport/MULTIPLEXER.c **** ** Reentrancy       : None                                                    **
 191:../Dave/Generated/src/DAVESupport/MULTIPLEXER.c **** **                                                                            **
 192:../Dave/Generated/src/DAVESupport/MULTIPLEXER.c **** ** Parameters (in)  : void                                                    **
 193:../Dave/Generated/src/DAVESupport/MULTIPLEXER.c **** **                                                                            **
 194:../Dave/Generated/src/DAVESupport/MULTIPLEXER.c **** ** Parameters (out) : none                                                    **
 195:../Dave/Generated/src/DAVESupport/MULTIPLEXER.c **** **                                                                            **
 196:../Dave/Generated/src/DAVESupport/MULTIPLEXER.c **** ** Return value     : none                                                    **
 197:../Dave/Generated/src/DAVESupport/MULTIPLEXER.c **** **                                                                            **
 198:../Dave/Generated/src/DAVESupport/MULTIPLEXER.c **** ** Description      : This is the Mux configuration                           **
 199:../Dave/Generated/src/DAVESupport/MULTIPLEXER.c **** **                                                                            **
 200:../Dave/Generated/src/DAVESupport/MULTIPLEXER.c **** *******************************************************************************/
 201:../Dave/Generated/src/DAVESupport/MULTIPLEXER.c ****  
 202:../Dave/Generated/src/DAVESupport/MULTIPLEXER.c **** void DAVE_MUX_PreInit(void)
 203:../Dave/Generated/src/DAVESupport/MULTIPLEXER.c **** {                
 219              		.loc 1 203 0
 220              		.cfi_startproc
 221 0000 80B5     		push	{r7, lr}
 222              	.LCFI3:
 223              		.cfi_def_cfa_offset 8
 224              		.cfi_offset 7, -8
 225              		.cfi_offset 14, -4
 226 0002 00AF     		add	r7, sp, #0
 227              	.LCFI4:
 228              		.cfi_def_cfa_register 7
 204:../Dave/Generated/src/DAVESupport/MULTIPLEXER.c **** 
 205:../Dave/Generated/src/DAVESupport/MULTIPLEXER.c **** /*        PORT Macro definitions for IOCR_OE, IOCR_PCR & HWSEL_HW     */                           
 206:../Dave/Generated/src/DAVESupport/MULTIPLEXER.c **** }
 229              		.loc 1 206 0
 230 0004 BD46     		mov	sp, r7
 231              		@ sp needed for prologue
 232 0006 80BD     		pop	{r7, pc}
 233              		.cfi_endproc
 234              	.LFE39:
 236              		.text
 237              	.Letext0:
 238              		.file 2 "C:\\DAVE-3.1.10\\eclipse\\/../CMSIS/Infineon/XMC1300_series/Include/XMC1300.h"
 239              		.file 3 "c:\\dave-3.1.10\\arm-gcc\\bin\\../lib/gcc/arm-none-eabi/4.7.4/../../../../arm-none-eabi/i