   1              		.syntax unified
   2              		.cpu cortex-m4
   3              		.eabi_attribute 27, 3
   4              		.fpu fpv4-sp-d16
   5              		.eabi_attribute 20, 1
   6              		.eabi_attribute 21, 1
   7              		.eabi_attribute 23, 3
   8              		.eabi_attribute 24, 1
   9              		.eabi_attribute 25, 1
  10              		.eabi_attribute 26, 1
  11              		.eabi_attribute 30, 6
  12              		.eabi_attribute 34, 1
  13              		.eabi_attribute 18, 4
  14              		.thumb
  15              		.file	"util.c"
  16              		.text
  17              	.Ltext0:
  18              		.cfi_sections	.debug_frame
  19              		.global	timer_cnt
  20              		.bss
  21              		.align	2
  24              	timer_cnt:
  25 0000 00000000 		.space	4
  26              		.section	.text.CCU41_1_IRQHandler,"ax",%progbits
  27              		.align	2
  28              		.global	CCU41_1_IRQHandler
  29              		.thumb
  30              		.thumb_func
  32              	CCU41_1_IRQHandler:
  33              	.LFB135:
  34              		.file 1 "../_Quadrocopter/HAL/Delay/util.c"
   1:../_Quadrocopter/HAL/Delay/util.c **** /*
   2:../_Quadrocopter/HAL/Delay/util.c ****  * util.c
   3:../_Quadrocopter/HAL/Delay/util.c ****  *
   4:../_Quadrocopter/HAL/Delay/util.c ****  *  Created on: 04.04.2015
   5:../_Quadrocopter/HAL/Delay/util.c ****  *      Author: maan
   6:../_Quadrocopter/HAL/Delay/util.c ****  */
   7:../_Quadrocopter/HAL/Delay/util.c **** 
   8:../_Quadrocopter/HAL/Delay/util.c **** #include "util.h"
   9:../_Quadrocopter/HAL/Delay/util.c **** 
  10:../_Quadrocopter/HAL/Delay/util.c **** volatile uint32_t timer_cnt = 0U;
  11:../_Quadrocopter/HAL/Delay/util.c **** 
  12:../_Quadrocopter/HAL/Delay/util.c **** void Timer_CompareMatch_Int_Handler(void)
  13:../_Quadrocopter/HAL/Delay/util.c **** {
  35              		.loc 1 13 0
  36              		.cfi_startproc
  37              		@ args = 0, pretend = 0, frame = 0
  38              		@ frame_needed = 1, uses_anonymous_args = 0
  39              		@ link register save eliminated.
  40 0000 80B4     		push	{r7}
  41              	.LCFI0:
  42              		.cfi_def_cfa_offset 4
  43              		.cfi_offset 7, -4
  44 0002 00AF     		add	r7, sp, #0
  45              	.LCFI1:
  46              		.cfi_def_cfa_register 7
  14:../_Quadrocopter/HAL/Delay/util.c **** 	timer_cnt++;
  47              		.loc 1 14 0
  48 0004 40F20003 		movw	r3, #:lower16:timer_cnt
  49 0008 C0F20003 		movt	r3, #:upper16:timer_cnt
  50 000c 1B68     		ldr	r3, [r3, #0]
  51 000e 03F10102 		add	r2, r3, #1
  52 0012 40F20003 		movw	r3, #:lower16:timer_cnt
  53 0016 C0F20003 		movt	r3, #:upper16:timer_cnt
  54 001a 1A60     		str	r2, [r3, #0]
  15:../_Quadrocopter/HAL/Delay/util.c **** }
  55              		.loc 1 15 0
  56 001c BD46     		mov	sp, r7
  57 001e 80BC     		pop	{r7}
  58 0020 7047     		bx	lr
  59              		.cfi_endproc
  60              	.LFE135:
  62 0022 00BF     		.section	.text.delay,"ax",%progbits
  63              		.align	2
  64              		.global	delay
  65              		.thumb
  66              		.thumb_func
  68              	delay:
  69              	.LFB136:
  16:../_Quadrocopter/HAL/Delay/util.c **** 
  17:../_Quadrocopter/HAL/Delay/util.c **** void delay(uint32_t pause)
  18:../_Quadrocopter/HAL/Delay/util.c **** {
  70              		.loc 1 18 0
  71              		.cfi_startproc
  72              		@ args = 0, pretend = 0, frame = 16
  73              		@ frame_needed = 1, uses_anonymous_args = 0
  74              		@ link register save eliminated.
  75 0000 80B4     		push	{r7}
  76              	.LCFI2:
  77              		.cfi_def_cfa_offset 4
  78              		.cfi_offset 7, -4
  79 0002 85B0     		sub	sp, sp, #20
  80              	.LCFI3:
  81              		.cfi_def_cfa_offset 24
  82 0004 00AF     		add	r7, sp, #0
  83              	.LCFI4:
  84              		.cfi_def_cfa_register 7
  85 0006 7860     		str	r0, [r7, #4]
  19:../_Quadrocopter/HAL/Delay/util.c **** 	uint32_t now = timer_cnt;
  86              		.loc 1 19 0
  87 0008 40F20003 		movw	r3, #:lower16:timer_cnt
  88 000c C0F20003 		movt	r3, #:upper16:timer_cnt
  89 0010 1B68     		ldr	r3, [r3, #0]
  90 0012 FB60     		str	r3, [r7, #12]
  20:../_Quadrocopter/HAL/Delay/util.c **** 	while((now+pause)>timer_cnt);
  91              		.loc 1 20 0
  92 0014 00BF     		nop
  93              	.L3:
  94              		.loc 1 20 0 is_stmt 0 discriminator 1
  95 0016 FA68     		ldr	r2, [r7, #12]
  96 0018 7B68     		ldr	r3, [r7, #4]
  97 001a D218     		adds	r2, r2, r3
  98 001c 40F20003 		movw	r3, #:lower16:timer_cnt
  99 0020 C0F20003 		movt	r3, #:upper16:timer_cnt
 100 0024 1B68     		ldr	r3, [r3, #0]
 101 0026 9A42     		cmp	r2, r3
 102 0028 F5D8     		bhi	.L3
  21:../_Quadrocopter/HAL/Delay/util.c **** }
 103              		.loc 1 21 0 is_stmt 1
 104 002a 07F11407 		add	r7, r7, #20
 105 002e BD46     		mov	sp, r7
 106 0030 80BC     		pop	{r7}
 107 0032 7047     		bx	lr
 108              		.cfi_endproc
 109              	.LFE136:
 111              		.section	.text.millis,"ax",%progbits
 112              		.align	2
 113              		.global	millis
 114              		.thumb
 115              		.thumb_func
 117              	millis:
 118              	.LFB137:
  22:../_Quadrocopter/HAL/Delay/util.c **** 
  23:../_Quadrocopter/HAL/Delay/util.c **** uint32_t millis()
  24:../_Quadrocopter/HAL/Delay/util.c **** {
 119              		.loc 1 24 0
 120              		.cfi_startproc
 121              		@ args = 0, pretend = 0, frame = 0
 122              		@ frame_needed = 1, uses_anonymous_args = 0
 123              		@ link register save eliminated.
 124 0000 80B4     		push	{r7}
 125              	.LCFI5:
 126              		.cfi_def_cfa_offset 4
 127              		.cfi_offset 7, -4
 128 0002 00AF     		add	r7, sp, #0
 129              	.LCFI6:
 130              		.cfi_def_cfa_register 7
  25:../_Quadrocopter/HAL/Delay/util.c **** 	return timer_cnt;
 131              		.loc 1 25 0
 132 0004 40F20003 		movw	r3, #:lower16:timer_cnt
 133 0008 C0F20003 		movt	r3, #:upper16:timer_cnt
 134 000c 1B68     		ldr	r3, [r3, #0]
  26:../_Quadrocopter/HAL/Delay/util.c **** }
 135              		.loc 1 26 0
 136 000e 1846     		mov	r0, r3
 137 0010 BD46     		mov	sp, r7
 138 0012 80BC     		pop	{r7}
 139 0014 7047     		bx	lr
 140              		.cfi_endproc
 141              	.LFE137:
 143 0016 00BF     		.text
 144              	.Letext0:
 145              		.file 2 "c:\\dave-3.1.10\\arm-gcc\\bin\\../lib/gcc/arm-none-eabi/4.7.4/../../../../arm-none-eabi/i
 146              		.file 3 "C:\\DAVE3_workspace\\ws3.1.10\\LARIX_Software_150907\\Dave\\Generated\\inc\\DAVESupport/.
 147              		.file 4 "C:\\DAVE3_workspace\\ws3.1.10\\LARIX_Software_150907\\Dave\\Generated\\inc\\DAVESupport/.
 148              		.file 5 "C:\\DAVE3_workspace\\ws3.1.10\\LARIX_Software_150907\\Dave\\Generated\\inc\\DAVESupport/.
 149              		.file 6 "C:\\DAVE-3.1.10\\eclipse\\/../CMSIS/Include/core_cm4.h"