   1              		.syntax unified
   2              		.cpu cortex-m4
   3              		.eabi_attribute 27, 3
   4              		.fpu fpv4-sp-d16
   5              		.eabi_attribute 20, 1
   6              		.eabi_attribute 21, 1
   7              		.eabi_attribute 23, 3
   8              		.eabi_attribute 24, 1
   9              		.eabi_attribute 25, 1
  10              		.eabi_attribute 26, 1
  11              		.eabi_attribute 30, 6
  12              		.eabi_attribute 34, 1
  13              		.eabi_attribute 18, 4
  14              		.thumb
  15              		.file	"MULTIPLEXER.c"
  16              		.text
  17              	.Ltext0:
  18              		.cfi_sections	.debug_frame
  19              		.section	.text.DAVE_MUX_Init,"ax",%progbits
  20              		.align	2
  21              		.global	DAVE_MUX_Init
  22              		.thumb
  23              		.thumb_func
  25              	DAVE_MUX_Init:
  26              	.LFB135:
  27              		.file 1 "../Dave/Generated/src/DAVESupport/MULTIPLEXER.c"
   1:../Dave/Generated/src/DAVESupport/MULTIPLEXER.c **** /*******************************************************************************
   2:../Dave/Generated/src/DAVESupport/MULTIPLEXER.c **** **  DAVE App Name : DAVESupport       App Version: 1.0.44               
   3:../Dave/Generated/src/DAVESupport/MULTIPLEXER.c **** **  This file is generated by DAVE, User modification to this file will be    **
   4:../Dave/Generated/src/DAVESupport/MULTIPLEXER.c **** **  overwritten at the next code generation.                                  **
   5:../Dave/Generated/src/DAVESupport/MULTIPLEXER.c **** *******************************************************************************/
   6:../Dave/Generated/src/DAVESupport/MULTIPLEXER.c **** 
   7:../Dave/Generated/src/DAVESupport/MULTIPLEXER.c **** 
   8:../Dave/Generated/src/DAVESupport/MULTIPLEXER.c **** /*******************************************************************************
   9:../Dave/Generated/src/DAVESupport/MULTIPLEXER.c ****  Copyright (c) 2014, Infineon Technologies AG                                 **
  10:../Dave/Generated/src/DAVESupport/MULTIPLEXER.c ****  All rights reserved.                                                         **
  11:../Dave/Generated/src/DAVESupport/MULTIPLEXER.c ****                                                                               **
  12:../Dave/Generated/src/DAVESupport/MULTIPLEXER.c ****  Redistribution and use in source and binary forms, with or without           **
  13:../Dave/Generated/src/DAVESupport/MULTIPLEXER.c ****  modification,are permitted provided that the following conditions are met:   **
  14:../Dave/Generated/src/DAVESupport/MULTIPLEXER.c ****                                                                               **
  15:../Dave/Generated/src/DAVESupport/MULTIPLEXER.c ****  *Redistributions of source code must retain the above copyright notice,      **
  16:../Dave/Generated/src/DAVESupport/MULTIPLEXER.c ****  this list of conditions and the following disclaimer.                        **
  17:../Dave/Generated/src/DAVESupport/MULTIPLEXER.c ****  *Redistributions in binary form must reproduce the above copyright notice,   **
  18:../Dave/Generated/src/DAVESupport/MULTIPLEXER.c ****  this list of conditions and the following disclaimer in the documentation    **
  19:../Dave/Generated/src/DAVESupport/MULTIPLEXER.c ****  and/or other materials provided with the distribution.                       **
  20:../Dave/Generated/src/DAVESupport/MULTIPLEXER.c ****  *Neither the name of the copyright holders nor the names of its contributors **
  21:../Dave/Generated/src/DAVESupport/MULTIPLEXER.c ****  may be used to endorse or promote products derived from this software without**
  22:../Dave/Generated/src/DAVESupport/MULTIPLEXER.c ****  specific prior written permission.                                           **
  23:../Dave/Generated/src/DAVESupport/MULTIPLEXER.c ****                                                                               **
  24:../Dave/Generated/src/DAVESupport/MULTIPLEXER.c ****  THIS SOFTWARE IS PROVIDED BY THE COPYRIGHT HOLDERS AND CONTRIBUTORS "AS IS"  **
  25:../Dave/Generated/src/DAVESupport/MULTIPLEXER.c ****  AND ANY EXPRESS OR IMPLIED WARRANTIES, INCLUDING, BUT NOT LIMITED TO, THE    **
  26:../Dave/Generated/src/DAVESupport/MULTIPLEXER.c ****  IMPLIED WARRANTIES OF MERCHANTABILITY AND FITNESS FOR A PARTICULAR PURPOSE   **
  27:../Dave/Generated/src/DAVESupport/MULTIPLEXER.c ****  ARE  DISCLAIMED. IN NO EVENT SHALL THE COPYRIGHT HOLDER OR CONTRIBUTORS BE   **
  28:../Dave/Generated/src/DAVESupport/MULTIPLEXER.c ****  LIABLE  FOR ANY DIRECT, INDIRECT, INCIDENTAL, SPECIAL, EXEMPLARY, OR         **
  29:../Dave/Generated/src/DAVESupport/MULTIPLEXER.c ****  CONSEQUENTIAL DAMAGES (INCLUDING, BUT NOT LIMITED TO, PROCUREMENT OF         **
  30:../Dave/Generated/src/DAVESupport/MULTIPLEXER.c ****  SUBSTITUTE GOODS OR  SERVICES; LOSS OF USE, DATA, OR PROFITS; OR BUSINESS    **
  31:../Dave/Generated/src/DAVESupport/MULTIPLEXER.c ****  INTERRUPTION) HOWEVER CAUSED AND ON ANY THEORY OF LIABILITY, WHETHER IN      **
  32:../Dave/Generated/src/DAVESupport/MULTIPLEXER.c ****  CONTRACT, STRICT LIABILITY,OR TORT (INCLUDING NEGLIGENCE OR OTHERWISE)       **
  33:../Dave/Generated/src/DAVESupport/MULTIPLEXER.c ****  ARISING IN ANY WAY OUT OF THE USE OF THIS SOFTWARE, EVEN IF ADVISED OF THE   **
  34:../Dave/Generated/src/DAVESupport/MULTIPLEXER.c ****  POSSIBILITY OF SUCH DAMAGE.                                                  **
  35:../Dave/Generated/src/DAVESupport/MULTIPLEXER.c ****                                                                               **
  36:../Dave/Generated/src/DAVESupport/MULTIPLEXER.c ****  To improve the quality of the software, users are encouraged to share        **
  37:../Dave/Generated/src/DAVESupport/MULTIPLEXER.c ****  modifications, enhancements or bug fixes with Infineon Technologies AG       **
  38:../Dave/Generated/src/DAVESupport/MULTIPLEXER.c ****  dave@infineon.com).                                                          **
  39:../Dave/Generated/src/DAVESupport/MULTIPLEXER.c ****                                                                               **
  40:../Dave/Generated/src/DAVESupport/MULTIPLEXER.c **** ********************************************************************************
  41:../Dave/Generated/src/DAVESupport/MULTIPLEXER.c **** **                                                                            **
  42:../Dave/Generated/src/DAVESupport/MULTIPLEXER.c **** **                                                                            **
  43:../Dave/Generated/src/DAVESupport/MULTIPLEXER.c **** ** PLATFORM : Infineon <Microcontroller name, step>                           **
  44:../Dave/Generated/src/DAVESupport/MULTIPLEXER.c **** **                                                                            **
  45:../Dave/Generated/src/DAVESupport/MULTIPLEXER.c **** ** COMPILER : Compiler Independent                                            **
  46:../Dave/Generated/src/DAVESupport/MULTIPLEXER.c **** **                                                                            **
  47:../Dave/Generated/src/DAVESupport/MULTIPLEXER.c **** ** MODIFICATION DATE : April 23, 2014                                     **
  48:../Dave/Generated/src/DAVESupport/MULTIPLEXER.c **** **                                                                            **
  49:../Dave/Generated/src/DAVESupport/MULTIPLEXER.c **** *******************************************************************************/
  50:../Dave/Generated/src/DAVESupport/MULTIPLEXER.c **** /**
  51:../Dave/Generated/src/DAVESupport/MULTIPLEXER.c ****  * @file  MULTIPLEXER.c
  52:../Dave/Generated/src/DAVESupport/MULTIPLEXER.c ****  *
  53:../Dave/Generated/src/DAVESupport/MULTIPLEXER.c ****  * @brief This file contains implementation of DAVE Support function which 
  54:../Dave/Generated/src/DAVESupport/MULTIPLEXER.c ****  * uses to configure multiplexer register values.
  55:../Dave/Generated/src/DAVESupport/MULTIPLEXER.c ****  * 24 July 2013 v1.0.34 Initial Version
  56:../Dave/Generated/src/DAVESupport/MULTIPLEXER.c ****  * 06 sep 2013 v1.0.36  UART001 : Mux : One instruction for output pins 
  57:../Dave/Generated/src/DAVESupport/MULTIPLEXER.c ****  *                      initialisation.
  58:../Dave/Generated/src/DAVESupport/MULTIPLEXER.c ****  *                      CAN001 & CAN002 : Avoid twice reset of the INIT bit in 
  59:../Dave/Generated/src/DAVESupport/MULTIPLEXER.c ****  *                      Can001_lNodeInit & DAVE_MUX_Init.
  60:../Dave/Generated/src/DAVESupport/MULTIPLEXER.c ****  *                      WR_REGHIB Macro definition has been changed.
  61:../Dave/Generated/src/DAVESupport/MULTIPLEXER.c ****  * 23 April 2014 v1.0.44 HRPWM MUX configuration supported.                      
  62:../Dave/Generated/src/DAVESupport/MULTIPLEXER.c ****  *                      
  63:../Dave/Generated/src/DAVESupport/MULTIPLEXER.c ****  */
  64:../Dave/Generated/src/DAVESupport/MULTIPLEXER.c **** 
  65:../Dave/Generated/src/DAVESupport/MULTIPLEXER.c **** /*******************************************************************************
  66:../Dave/Generated/src/DAVESupport/MULTIPLEXER.c **** **                      Include Files                                         **
  67:../Dave/Generated/src/DAVESupport/MULTIPLEXER.c **** *******************************************************************************/
  68:../Dave/Generated/src/DAVESupport/MULTIPLEXER.c **** #include "../../inc/DAVESupport/DAVE3.h"
  69:../Dave/Generated/src/DAVESupport/MULTIPLEXER.c **** 
  70:../Dave/Generated/src/DAVESupport/MULTIPLEXER.c **** /*******************************************************************************
  71:../Dave/Generated/src/DAVESupport/MULTIPLEXER.c **** **                 Function declarations                                     **
  72:../Dave/Generated/src/DAVESupport/MULTIPLEXER.c **** *******************************************************************************/
  73:../Dave/Generated/src/DAVESupport/MULTIPLEXER.c **** /*******************************************************************************
  74:../Dave/Generated/src/DAVESupport/MULTIPLEXER.c **** ** Syntax           : void DAVE_MUX_Init(void)                                **
  75:../Dave/Generated/src/DAVESupport/MULTIPLEXER.c **** **                                                                            **
  76:../Dave/Generated/src/DAVESupport/MULTIPLEXER.c **** ** Reentrancy       : None                                                    **
  77:../Dave/Generated/src/DAVESupport/MULTIPLEXER.c **** **                                                                            **
  78:../Dave/Generated/src/DAVESupport/MULTIPLEXER.c **** ** Parameters (in)  : void                                                    **
  79:../Dave/Generated/src/DAVESupport/MULTIPLEXER.c **** **                                                                            **
  80:../Dave/Generated/src/DAVESupport/MULTIPLEXER.c **** ** Parameters (out) : none                                                    **
  81:../Dave/Generated/src/DAVESupport/MULTIPLEXER.c **** **                                                                            **
  82:../Dave/Generated/src/DAVESupport/MULTIPLEXER.c **** ** Return value     : none                                                    **
  83:../Dave/Generated/src/DAVESupport/MULTIPLEXER.c **** **                                                                            **
  84:../Dave/Generated/src/DAVESupport/MULTIPLEXER.c **** ** Description      : This is the Mux configuration                           **
  85:../Dave/Generated/src/DAVESupport/MULTIPLEXER.c **** **                                                                            **
  86:../Dave/Generated/src/DAVESupport/MULTIPLEXER.c **** *******************************************************************************/
  87:../Dave/Generated/src/DAVESupport/MULTIPLEXER.c ****            
  88:../Dave/Generated/src/DAVESupport/MULTIPLEXER.c **** void DAVE_MUX_Init(void)
  89:../Dave/Generated/src/DAVESupport/MULTIPLEXER.c **** {  
  28              		.loc 1 89 0
  29              		.cfi_startproc
  30              		@ args = 0, pretend = 0, frame = 24
  31              		@ frame_needed = 1, uses_anonymous_args = 0
  32              		@ link register save eliminated.
  33 0000 80B4     		push	{r7}
  34              	.LCFI0:
  35              		.cfi_def_cfa_offset 4
  36              		.cfi_offset 7, -4
  37 0002 87B0     		sub	sp, sp, #28
  38              	.LCFI1:
  39              		.cfi_def_cfa_offset 32
  40 0004 00AF     		add	r7, sp, #0
  41              	.LCFI2:
  42              		.cfi_def_cfa_register 7
  90:../Dave/Generated/src/DAVESupport/MULTIPLEXER.c ****    	 
  91:../Dave/Generated/src/DAVESupport/MULTIPLEXER.c ****             	         
  92:../Dave/Generated/src/DAVESupport/MULTIPLEXER.c ****                                      
  93:../Dave/Generated/src/DAVESupport/MULTIPLEXER.c ****        /*        SCU Macro definitions     */                        
  94:../Dave/Generated/src/DAVESupport/MULTIPLEXER.c ****    	 
  95:../Dave/Generated/src/DAVESupport/MULTIPLEXER.c ****             	         
  96:../Dave/Generated/src/DAVESupport/MULTIPLEXER.c ****                                             
  97:../Dave/Generated/src/DAVESupport/MULTIPLEXER.c **** /*        ERU0 Macro definitions:         */    
  98:../Dave/Generated/src/DAVESupport/MULTIPLEXER.c **** /*        ERU1 Macro definitions:         */  
  99:../Dave/Generated/src/DAVESupport/MULTIPLEXER.c **** 
 100:../Dave/Generated/src/DAVESupport/MULTIPLEXER.c ****   WR_REG(ERU1->EXICON[1], ERU_EXICON_PE_Msk, ERU_EXICON_PE_Pos, SIGNAL_TR1);                       
  43              		.loc 1 100 0
  44 0006 4FF48043 		mov	r3, #16384
  45 000a C4F20403 		movt	r3, 16388
  46 000e 4FF48042 		mov	r2, #16384
  47 0012 C4F20402 		movt	r2, 16388
  48 0016 5269     		ldr	r2, [r2, #20]
  49 0018 42F00102 		orr	r2, r2, #1
  50 001c 5A61     		str	r2, [r3, #20]
 101:../Dave/Generated/src/DAVESupport/MULTIPLEXER.c **** 
 102:../Dave/Generated/src/DAVESupport/MULTIPLEXER.c ****   WR_REG(ERU1->EXICON[1], ERU_EXICON_OCS_Msk, ERU_EXICON_OCS_Pos, SIGNAL_TRx3);                    
  51              		.loc 1 102 0
  52 001e 4FF48043 		mov	r3, #16384
  53 0022 C4F20403 		movt	r3, 16388
  54 0026 4FF48042 		mov	r2, #16384
  55 002a C4F20402 		movt	r2, 16388
  56 002e 5269     		ldr	r2, [r2, #20]
  57 0030 22F07002 		bic	r2, r2, #112
  58 0034 42F03002 		orr	r2, r2, #48
  59 0038 5A61     		str	r2, [r3, #20]
 103:../Dave/Generated/src/DAVESupport/MULTIPLEXER.c **** 
 104:../Dave/Generated/src/DAVESupport/MULTIPLEXER.c ****   WR_REG(ERU1->EXICON[3], ERU_EXICON_PE_Msk, ERU_EXICON_PE_Pos, SIGNAL_TR1);                       
  60              		.loc 1 104 0
  61 003a 4FF48043 		mov	r3, #16384
  62 003e C4F20403 		movt	r3, 16388
  63 0042 4FF48042 		mov	r2, #16384
  64 0046 C4F20402 		movt	r2, 16388
  65 004a D269     		ldr	r2, [r2, #28]
  66 004c 42F00102 		orr	r2, r2, #1
  67 0050 DA61     		str	r2, [r3, #28]
 105:../Dave/Generated/src/DAVESupport/MULTIPLEXER.c ****    	 
 106:../Dave/Generated/src/DAVESupport/MULTIPLEXER.c ****       
 107:../Dave/Generated/src/DAVESupport/MULTIPLEXER.c **** //********* MODULE USIC CONFIGURATIONS *************************	        
 108:../Dave/Generated/src/DAVESupport/MULTIPLEXER.c ****         
 109:../Dave/Generated/src/DAVESupport/MULTIPLEXER.c ****            
 110:../Dave/Generated/src/DAVESupport/MULTIPLEXER.c ****    /* Disable mode before configuring all USIC registers to avoid unintended edges */   
 111:../Dave/Generated/src/DAVESupport/MULTIPLEXER.c ****       /* Variable to store the CCR_MODE values for various USIC channels */ 
 112:../Dave/Generated/src/DAVESupport/MULTIPLEXER.c ****       uint32_t UsicCcrMode[6] = {0};
  68              		.loc 1 112 0
  69 0052 3B46     		mov	r3, r7
  70 0054 4FF00002 		mov	r2, #0
  71 0058 1A60     		str	r2, [r3, #0]
  72 005a 03F10403 		add	r3, r3, #4
  73 005e 4FF00002 		mov	r2, #0
  74 0062 1A60     		str	r2, [r3, #0]
  75 0064 03F10403 		add	r3, r3, #4
  76 0068 4FF00002 		mov	r2, #0
  77 006c 1A60     		str	r2, [r3, #0]
  78 006e 03F10403 		add	r3, r3, #4
  79 0072 4FF00002 		mov	r2, #0
  80 0076 1A60     		str	r2, [r3, #0]
  81 0078 03F10403 		add	r3, r3, #4
  82 007c 4FF00002 		mov	r2, #0
  83 0080 1A60     		str	r2, [r3, #0]
  84 0082 03F10403 		add	r3, r3, #4
  85 0086 4FF00002 		mov	r2, #0
  86 008a 1A60     		str	r2, [r3, #0]
  87 008c 03F10403 		add	r3, r3, #4
 113:../Dave/Generated/src/DAVESupport/MULTIPLEXER.c ****            
 114:../Dave/Generated/src/DAVESupport/MULTIPLEXER.c ****     UsicCcrMode[0] |= (uint32_t) RD_REG(USIC0_CH0->CCR, USIC_CH_CCR_MODE_Msk, USIC_CH_CCR_MODE_Pos)
  88              		.loc 1 114 0
  89 0090 3A68     		ldr	r2, [r7, #0]
  90 0092 4FF00003 		mov	r3, #0
  91 0096 C4F20303 		movt	r3, 16387
  92 009a 1B6C     		ldr	r3, [r3, #64]
  93 009c 03F00F03 		and	r3, r3, #15
  94 00a0 1343     		orrs	r3, r3, r2
  95 00a2 3B60     		str	r3, [r7, #0]
 115:../Dave/Generated/src/DAVESupport/MULTIPLEXER.c ****     WR_REG(USIC0_CH0->CCR, USIC_CH_CCR_MODE_Msk, USIC_CH_CCR_MODE_Pos,0);  
  96              		.loc 1 115 0
  97 00a4 4FF00003 		mov	r3, #0
  98 00a8 C4F20303 		movt	r3, 16387
  99 00ac 4FF00002 		mov	r2, #0
 100 00b0 C4F20302 		movt	r2, 16387
 101 00b4 126C     		ldr	r2, [r2, #64]
 102 00b6 22F00F02 		bic	r2, r2, #15
 103 00ba 1A64     		str	r2, [r3, #64]
 116:../Dave/Generated/src/DAVESupport/MULTIPLEXER.c ****                         
 117:../Dave/Generated/src/DAVESupport/MULTIPLEXER.c ****     UsicCcrMode[1] |= (uint32_t) RD_REG(USIC0_CH1->CCR, USIC_CH_CCR_MODE_Msk, USIC_CH_CCR_MODE_Pos)
 104              		.loc 1 117 0
 105 00bc 7A68     		ldr	r2, [r7, #4]
 106 00be 4FF40073 		mov	r3, #512
 107 00c2 C4F20303 		movt	r3, 16387
 108 00c6 1B6C     		ldr	r3, [r3, #64]
 109 00c8 03F00F03 		and	r3, r3, #15
 110 00cc 1343     		orrs	r3, r3, r2
 111 00ce 7B60     		str	r3, [r7, #4]
 118:../Dave/Generated/src/DAVESupport/MULTIPLEXER.c ****     WR_REG(USIC0_CH1->CCR, USIC_CH_CCR_MODE_Msk, USIC_CH_CCR_MODE_Pos,0);   
 112              		.loc 1 118 0
 113 00d0 4FF40073 		mov	r3, #512
 114 00d4 C4F20303 		movt	r3, 16387
 115 00d8 4FF40072 		mov	r2, #512
 116 00dc C4F20302 		movt	r2, 16387
 117 00e0 126C     		ldr	r2, [r2, #64]
 118 00e2 22F00F02 		bic	r2, r2, #15
 119 00e6 1A64     		str	r2, [r3, #64]
 119:../Dave/Generated/src/DAVESupport/MULTIPLEXER.c ****                   
 120:../Dave/Generated/src/DAVESupport/MULTIPLEXER.c ****     UsicCcrMode[2] |= (uint32_t) RD_REG(USIC1_CH0->CCR, USIC_CH_CCR_MODE_Msk, USIC_CH_CCR_MODE_Pos)
 120              		.loc 1 120 0
 121 00e8 BA68     		ldr	r2, [r7, #8]
 122 00ea 4FF00003 		mov	r3, #0
 123 00ee C4F60203 		movt	r3, 18434
 124 00f2 1B6C     		ldr	r3, [r3, #64]
 125 00f4 03F00F03 		and	r3, r3, #15
 126 00f8 1343     		orrs	r3, r3, r2
 127 00fa BB60     		str	r3, [r7, #8]
 121:../Dave/Generated/src/DAVESupport/MULTIPLEXER.c ****     WR_REG(USIC1_CH0->CCR, USIC_CH_CCR_MODE_Msk, USIC_CH_CCR_MODE_Pos,0);
 128              		.loc 1 121 0
 129 00fc 4FF00003 		mov	r3, #0
 130 0100 C4F60203 		movt	r3, 18434
 131 0104 4FF00002 		mov	r2, #0
 132 0108 C4F60202 		movt	r2, 18434
 133 010c 126C     		ldr	r2, [r2, #64]
 134 010e 22F00F02 		bic	r2, r2, #15
 135 0112 1A64     		str	r2, [r3, #64]
 122:../Dave/Generated/src/DAVESupport/MULTIPLEXER.c ****                     
 123:../Dave/Generated/src/DAVESupport/MULTIPLEXER.c ****     UsicCcrMode[3] |= (uint32_t) RD_REG(USIC1_CH1->CCR, USIC_CH_CCR_MODE_Msk, USIC_CH_CCR_MODE_Pos)
 136              		.loc 1 123 0
 137 0114 FA68     		ldr	r2, [r7, #12]
 138 0116 4FF40073 		mov	r3, #512
 139 011a C4F60203 		movt	r3, 18434
 140 011e 1B6C     		ldr	r3, [r3, #64]
 141 0120 03F00F03 		and	r3, r3, #15
 142 0124 1343     		orrs	r3, r3, r2
 143 0126 FB60     		str	r3, [r7, #12]
 124:../Dave/Generated/src/DAVESupport/MULTIPLEXER.c ****     WR_REG(USIC1_CH1->CCR, USIC_CH_CCR_MODE_Msk, USIC_CH_CCR_MODE_Pos,0);
 144              		.loc 1 124 0
 145 0128 4FF40073 		mov	r3, #512
 146 012c C4F60203 		movt	r3, 18434
 147 0130 4FF40072 		mov	r2, #512
 148 0134 C4F60202 		movt	r2, 18434
 149 0138 126C     		ldr	r2, [r2, #64]
 150 013a 22F00F02 		bic	r2, r2, #15
 151 013e 1A64     		str	r2, [r3, #64]
 125:../Dave/Generated/src/DAVESupport/MULTIPLEXER.c ****            
 126:../Dave/Generated/src/DAVESupport/MULTIPLEXER.c ****     UsicCcrMode[4] |= (uint32_t) RD_REG(USIC2_CH0->CCR, USIC_CH_CCR_MODE_Msk, USIC_CH_CCR_MODE_Pos)
 152              		.loc 1 126 0
 153 0140 3A69     		ldr	r2, [r7, #16]
 154 0142 4FF48043 		mov	r3, #16384
 155 0146 C4F60203 		movt	r3, 18434
 156 014a 1B6C     		ldr	r3, [r3, #64]
 157 014c 03F00F03 		and	r3, r3, #15
 158 0150 1343     		orrs	r3, r3, r2
 159 0152 3B61     		str	r3, [r7, #16]
 127:../Dave/Generated/src/DAVESupport/MULTIPLEXER.c ****     WR_REG(USIC2_CH0->CCR, USIC_CH_CCR_MODE_Msk, USIC_CH_CCR_MODE_Pos,0);
 160              		.loc 1 127 0
 161 0154 4FF48043 		mov	r3, #16384
 162 0158 C4F60203 		movt	r3, 18434
 163 015c 4FF48042 		mov	r2, #16384
 164 0160 C4F60202 		movt	r2, 18434
 165 0164 126C     		ldr	r2, [r2, #64]
 166 0166 22F00F02 		bic	r2, r2, #15
 167 016a 1A64     		str	r2, [r3, #64]
 128:../Dave/Generated/src/DAVESupport/MULTIPLEXER.c ****       
 129:../Dave/Generated/src/DAVESupport/MULTIPLEXER.c ****       
 130:../Dave/Generated/src/DAVESupport/MULTIPLEXER.c ****     						
 131:../Dave/Generated/src/DAVESupport/MULTIPLEXER.c ****    /*USIC 0 Channel 0 Mux Related SFR/Bitfields Configurations*/ 									  					 				 				 		     
 132:../Dave/Generated/src/DAVESupport/MULTIPLEXER.c ****  //Standard receive buffer event is enabled.                 
 133:../Dave/Generated/src/DAVESupport/MULTIPLEXER.c ****  WR_REG(USIC0_CH0->RBCTR, USIC_CH_RBCTR_SRBIEN_Msk, USIC_CH_RBCTR_SRBIEN_Pos,1);  
 168              		.loc 1 133 0
 169 016c 4FF00003 		mov	r3, #0
 170 0170 C4F20303 		movt	r3, 16387
 171 0174 4FF00002 		mov	r2, #0
 172 0178 C4F20302 		movt	r2, 16387
 173 017c D2F80C21 		ldr	r2, [r2, #268]
 174 0180 42F08042 		orr	r2, r2, #1073741824
 175 0184 C3F80C21 		str	r2, [r3, #268]
 134:../Dave/Generated/src/DAVESupport/MULTIPLEXER.c ****  					 									 					 					  									      					              					  						       
 135:../Dave/Generated/src/DAVESupport/MULTIPLEXER.c ****  //Interrupt node 5 is selected for Standard receive buffer event                 
 136:../Dave/Generated/src/DAVESupport/MULTIPLEXER.c ****  WR_REG(USIC0_CH0->RBCTR, USIC_CH_RBCTR_SRBINP_Msk, USIC_CH_RBCTR_SRBINP_Pos,5);  
 176              		.loc 1 136 0
 177 0188 4FF00003 		mov	r3, #0
 178 018c C4F20303 		movt	r3, 16387
 179 0190 4FF00002 		mov	r2, #0
 180 0194 C4F20302 		movt	r2, 16387
 181 0198 D2F80C21 		ldr	r2, [r2, #268]
 182 019c 22F4E022 		bic	r2, r2, #458752
 183 01a0 42F4A022 		orr	r2, r2, #327680
 184 01a4 C3F80C21 		str	r2, [r3, #268]
 137:../Dave/Generated/src/DAVESupport/MULTIPLEXER.c ****  					      
 138:../Dave/Generated/src/DAVESupport/MULTIPLEXER.c ****                  
 139:../Dave/Generated/src/DAVESupport/MULTIPLEXER.c ****    // Data Pointer & Buffer Size for Transmitter Buffer Control  
 140:../Dave/Generated/src/DAVESupport/MULTIPLEXER.c ****  WR_REG(USIC0_CH0->TBCTR, USIC_CH_TBCTR_DPTRSIZE_Msk, USIC_CH_TBCTR_DPTRSIZE_Pos,0x03000020);		/*  
 185              		.loc 1 140 0
 186 01a8 4FF00003 		mov	r3, #0
 187 01ac C4F20303 		movt	r3, 16387
 188 01b0 4FF00002 		mov	r2, #0
 189 01b4 C4F20302 		movt	r2, 16387
 190 01b8 D2F80821 		ldr	r2, [r2, #264]
 191 01bc 22F0E062 		bic	r2, r2, #117440512
 192 01c0 22F03F02 		bic	r2, r2, #63
 193 01c4 42F04072 		orr	r2, r2, #50331648
 194 01c8 42F02002 		orr	r2, r2, #32
 195 01cc C3F80821 		str	r2, [r3, #264]
 141:../Dave/Generated/src/DAVESupport/MULTIPLEXER.c ****          
 142:../Dave/Generated/src/DAVESupport/MULTIPLEXER.c ****   // Data Pointer & Buffer Size for Receiver Buffer Control  
 143:../Dave/Generated/src/DAVESupport/MULTIPLEXER.c ****  WR_REG(USIC0_CH0->RBCTR, USIC_CH_RBCTR_DPTRSIZE_Msk, USIC_CH_RBCTR_DPTRSIZE_Pos,0x05000000);		/*  
 196              		.loc 1 143 0
 197 01d0 4FF00003 		mov	r3, #0
 198 01d4 C4F20303 		movt	r3, 16387
 199 01d8 4FF00002 		mov	r2, #0
 200 01dc C4F20302 		movt	r2, 16387
 201 01e0 D2F80C21 		ldr	r2, [r2, #268]
 202 01e4 22F0E062 		bic	r2, r2, #117440512
 203 01e8 22F03F02 		bic	r2, r2, #63
 204 01ec 42F0A062 		orr	r2, r2, #83886080
 205 01f0 C3F80C21 		str	r2, [r3, #268]
 144:../Dave/Generated/src/DAVESupport/MULTIPLEXER.c ****  						
 145:../Dave/Generated/src/DAVESupport/MULTIPLEXER.c ****    /*USIC 0 Channel 1 Mux Related SFR/Bitfields Configurations*/ 						         
 146:../Dave/Generated/src/DAVESupport/MULTIPLEXER.c ****  WR_REG(USIC0_CH1->DX0CR, USIC_CH_DX0CR_DSEL_Msk, USIC_CH_DX0CR_DSEL_Pos,1); 
 206              		.loc 1 146 0
 207 01f4 4FF40073 		mov	r3, #512
 208 01f8 C4F20303 		movt	r3, 16387
 209 01fc 4FF40072 		mov	r2, #512
 210 0200 C4F20302 		movt	r2, 16387
 211 0204 D269     		ldr	r2, [r2, #28]
 212 0206 22F00702 		bic	r2, r2, #7
 213 020a 42F00102 		orr	r2, r2, #1
 214 020e DA61     		str	r2, [r3, #28]
 147:../Dave/Generated/src/DAVESupport/MULTIPLEXER.c ****   			  					 				 				 		       				              				  					    					 					   				  					 				 			
 148:../Dave/Generated/src/DAVESupport/MULTIPLEXER.c ****  //Interrupt node 3 is selected for Protocol specific event             
 149:../Dave/Generated/src/DAVESupport/MULTIPLEXER.c ****  WR_REG(USIC0_CH1->INPR, USIC_CH_INPR_PINP_Msk, USIC_CH_INPR_PINP_Pos,3);  
 215              		.loc 1 149 0
 216 0210 4FF40073 		mov	r3, #512
 217 0214 C4F20303 		movt	r3, 16387
 218 0218 4FF40072 		mov	r2, #512
 219 021c C4F20302 		movt	r2, 16387
 220 0220 9269     		ldr	r2, [r2, #24]
 221 0222 22F4E022 		bic	r2, r2, #458752
 222 0226 42F44032 		orr	r2, r2, #196608
 223 022a 9A61     		str	r2, [r3, #24]
 150:../Dave/Generated/src/DAVESupport/MULTIPLEXER.c ****  					              					  						    					      
 151:../Dave/Generated/src/DAVESupport/MULTIPLEXER.c ****                  
 152:../Dave/Generated/src/DAVESupport/MULTIPLEXER.c ****    // Data Pointer & Buffer Size for Transmitter Buffer Control  
 153:../Dave/Generated/src/DAVESupport/MULTIPLEXER.c ****  WR_REG(USIC0_CH1->TBCTR, USIC_CH_TBCTR_DPTRSIZE_Msk, USIC_CH_TBCTR_DPTRSIZE_Pos,0x0100002a);		/*  
 224              		.loc 1 153 0
 225 022c 4FF40073 		mov	r3, #512
 226 0230 C4F20303 		movt	r3, 16387
 227 0234 4FF40072 		mov	r2, #512
 228 0238 C4F20302 		movt	r2, 16387
 229 023c D2F80821 		ldr	r2, [r2, #264]
 230 0240 22F0E062 		bic	r2, r2, #117440512
 231 0244 22F03F02 		bic	r2, r2, #63
 232 0248 42F08072 		orr	r2, r2, #16777216
 233 024c 42F02A02 		orr	r2, r2, #42
 234 0250 C3F80821 		str	r2, [r3, #264]
 154:../Dave/Generated/src/DAVESupport/MULTIPLEXER.c ****            
 155:../Dave/Generated/src/DAVESupport/MULTIPLEXER.c ****   // Data Pointer & Buffer Size for Receiver Buffer Control  
 156:../Dave/Generated/src/DAVESupport/MULTIPLEXER.c ****  WR_REG(USIC0_CH1->RBCTR, USIC_CH_RBCTR_DPTRSIZE_Msk, USIC_CH_RBCTR_DPTRSIZE_Pos,0x01000028);		/*  
 235              		.loc 1 156 0
 236 0254 4FF40073 		mov	r3, #512
 237 0258 C4F20303 		movt	r3, 16387
 238 025c 4FF40072 		mov	r2, #512
 239 0260 C4F20302 		movt	r2, 16387
 240 0264 D2F80C21 		ldr	r2, [r2, #268]
 241 0268 22F0E062 		bic	r2, r2, #117440512
 242 026c 22F03F02 		bic	r2, r2, #63
 243 0270 42F08072 		orr	r2, r2, #16777216
 244 0274 42F02802 		orr	r2, r2, #40
 245 0278 C3F80C21 		str	r2, [r3, #268]
 157:../Dave/Generated/src/DAVESupport/MULTIPLEXER.c ****    						
 158:../Dave/Generated/src/DAVESupport/MULTIPLEXER.c ****    /*USIC 1 Channel 0 Mux Related SFR/Bitfields Configurations*/ 									  					 				 				 		     
 159:../Dave/Generated/src/DAVESupport/MULTIPLEXER.c ****  //Standard receive buffer event is enabled.                 
 160:../Dave/Generated/src/DAVESupport/MULTIPLEXER.c ****  WR_REG(USIC1_CH0->RBCTR, USIC_CH_RBCTR_SRBIEN_Msk, USIC_CH_RBCTR_SRBIEN_Pos,1);  
 246              		.loc 1 160 0
 247 027c 4FF00003 		mov	r3, #0
 248 0280 C4F60203 		movt	r3, 18434
 249 0284 4FF00002 		mov	r2, #0
 250 0288 C4F60202 		movt	r2, 18434
 251 028c D2F80C21 		ldr	r2, [r2, #268]
 252 0290 42F08042 		orr	r2, r2, #1073741824
 253 0294 C3F80C21 		str	r2, [r3, #268]
 161:../Dave/Generated/src/DAVESupport/MULTIPLEXER.c ****  					 									 					 					  									      					              					  						    					      
 162:../Dave/Generated/src/DAVESupport/MULTIPLEXER.c ****             
 163:../Dave/Generated/src/DAVESupport/MULTIPLEXER.c ****   // Data Pointer & Buffer Size for Receiver Buffer Control  
 164:../Dave/Generated/src/DAVESupport/MULTIPLEXER.c ****  WR_REG(USIC1_CH0->RBCTR, USIC_CH_RBCTR_DPTRSIZE_Msk, USIC_CH_RBCTR_DPTRSIZE_Pos,0x05000000);		/*  
 254              		.loc 1 164 0
 255 0298 4FF00003 		mov	r3, #0
 256 029c C4F60203 		movt	r3, 18434
 257 02a0 4FF00002 		mov	r2, #0
 258 02a4 C4F60202 		movt	r2, 18434
 259 02a8 D2F80C21 		ldr	r2, [r2, #268]
 260 02ac 22F0E062 		bic	r2, r2, #117440512
 261 02b0 22F03F02 		bic	r2, r2, #63
 262 02b4 42F0A062 		orr	r2, r2, #83886080
 263 02b8 C3F80C21 		str	r2, [r3, #268]
 165:../Dave/Generated/src/DAVESupport/MULTIPLEXER.c ****  						
 166:../Dave/Generated/src/DAVESupport/MULTIPLEXER.c ****    /*USIC 1 Channel 1 Mux Related SFR/Bitfields Configurations*/ 						         
 167:../Dave/Generated/src/DAVESupport/MULTIPLEXER.c ****  WR_REG(USIC1_CH1->DX0CR, USIC_CH_DX0CR_DSEL_Msk, USIC_CH_DX0CR_DSEL_Pos,3); 
 264              		.loc 1 167 0
 265 02bc 4FF40073 		mov	r3, #512
 266 02c0 C4F60203 		movt	r3, 18434
 267 02c4 4FF40072 		mov	r2, #512
 268 02c8 C4F60202 		movt	r2, 18434
 269 02cc D269     		ldr	r2, [r2, #28]
 270 02ce 22F00702 		bic	r2, r2, #7
 271 02d2 42F00302 		orr	r2, r2, #3
 272 02d6 DA61     		str	r2, [r3, #28]
 168:../Dave/Generated/src/DAVESupport/MULTIPLEXER.c ****   			  					 				 				 		       				              				  					    					 					   				  					 				 			
 169:../Dave/Generated/src/DAVESupport/MULTIPLEXER.c ****  //Standard receive buffer event is enabled.                 
 170:../Dave/Generated/src/DAVESupport/MULTIPLEXER.c ****  WR_REG(USIC1_CH1->RBCTR, USIC_CH_RBCTR_SRBIEN_Msk, USIC_CH_RBCTR_SRBIEN_Pos,1);  
 273              		.loc 1 170 0
 274 02d8 4FF40073 		mov	r3, #512
 275 02dc C4F60203 		movt	r3, 18434
 276 02e0 4FF40072 		mov	r2, #512
 277 02e4 C4F60202 		movt	r2, 18434
 278 02e8 D2F80C21 		ldr	r2, [r2, #268]
 279 02ec 42F08042 		orr	r2, r2, #1073741824
 280 02f0 C3F80C21 		str	r2, [r3, #268]
 171:../Dave/Generated/src/DAVESupport/MULTIPLEXER.c ****  					 									 					 					  									      					              					  						       
 172:../Dave/Generated/src/DAVESupport/MULTIPLEXER.c ****  //Interrupt node 1 is selected for Standard receive buffer event                 
 173:../Dave/Generated/src/DAVESupport/MULTIPLEXER.c ****  WR_REG(USIC1_CH1->RBCTR, USIC_CH_RBCTR_SRBINP_Msk, USIC_CH_RBCTR_SRBINP_Pos,1);  
 281              		.loc 1 173 0
 282 02f4 4FF40073 		mov	r3, #512
 283 02f8 C4F60203 		movt	r3, 18434
 284 02fc 4FF40072 		mov	r2, #512
 285 0300 C4F60202 		movt	r2, 18434
 286 0304 D2F80C21 		ldr	r2, [r2, #268]
 287 0308 22F4E022 		bic	r2, r2, #458752
 288 030c 42F48032 		orr	r2, r2, #65536
 289 0310 C3F80C21 		str	r2, [r3, #268]
 174:../Dave/Generated/src/DAVESupport/MULTIPLEXER.c ****  					      
 175:../Dave/Generated/src/DAVESupport/MULTIPLEXER.c ****                  
 176:../Dave/Generated/src/DAVESupport/MULTIPLEXER.c ****    // Data Pointer & Buffer Size for Transmitter Buffer Control  
 177:../Dave/Generated/src/DAVESupport/MULTIPLEXER.c ****  WR_REG(USIC1_CH1->TBCTR, USIC_CH_TBCTR_DPTRSIZE_Msk, USIC_CH_TBCTR_DPTRSIZE_Pos,0x04000030);		/*  
 290              		.loc 1 177 0
 291 0314 4FF40073 		mov	r3, #512
 292 0318 C4F60203 		movt	r3, 18434
 293 031c 4FF40072 		mov	r2, #512
 294 0320 C4F60202 		movt	r2, 18434
 295 0324 D2F80821 		ldr	r2, [r2, #264]
 296 0328 22F0E062 		bic	r2, r2, #117440512
 297 032c 22F03F02 		bic	r2, r2, #63
 298 0330 42F08062 		orr	r2, r2, #67108864
 299 0334 42F03002 		orr	r2, r2, #48
 300 0338 C3F80821 		str	r2, [r3, #264]
 178:../Dave/Generated/src/DAVESupport/MULTIPLEXER.c ****            
 179:../Dave/Generated/src/DAVESupport/MULTIPLEXER.c ****   // Data Pointer & Buffer Size for Receiver Buffer Control  
 180:../Dave/Generated/src/DAVESupport/MULTIPLEXER.c ****  WR_REG(USIC1_CH1->RBCTR, USIC_CH_RBCTR_DPTRSIZE_Msk, USIC_CH_RBCTR_DPTRSIZE_Pos,0x04000020);		/*  
 301              		.loc 1 180 0
 302 033c 4FF40073 		mov	r3, #512
 303 0340 C4F60203 		movt	r3, 18434
 304 0344 4FF40072 		mov	r2, #512
 305 0348 C4F60202 		movt	r2, 18434
 306 034c D2F80C21 		ldr	r2, [r2, #268]
 307 0350 22F0E062 		bic	r2, r2, #117440512
 308 0354 22F03F02 		bic	r2, r2, #63
 309 0358 42F08062 		orr	r2, r2, #67108864
 310 035c 42F02002 		orr	r2, r2, #32
 311 0360 C3F80C21 		str	r2, [r3, #268]
 181:../Dave/Generated/src/DAVESupport/MULTIPLEXER.c ****    						
 182:../Dave/Generated/src/DAVESupport/MULTIPLEXER.c ****    /*USIC 2 Channel 0 Mux Related SFR/Bitfields Configurations*/ 						         
 183:../Dave/Generated/src/DAVESupport/MULTIPLEXER.c ****  WR_REG(USIC2_CH0->DX0CR, USIC_CH_DX0CR_DSEL_Msk, USIC_CH_DX0CR_DSEL_Pos,1); 
 312              		.loc 1 183 0
 313 0364 4FF48043 		mov	r3, #16384
 314 0368 C4F60203 		movt	r3, 18434
 315 036c 4FF48042 		mov	r2, #16384
 316 0370 C4F60202 		movt	r2, 18434
 317 0374 D269     		ldr	r2, [r2, #28]
 318 0376 22F00702 		bic	r2, r2, #7
 319 037a 42F00102 		orr	r2, r2, #1
 320 037e DA61     		str	r2, [r3, #28]
 184:../Dave/Generated/src/DAVESupport/MULTIPLEXER.c ****   			  					 				 				 		       				              				  					    					 					   				  					 				 			
 185:../Dave/Generated/src/DAVESupport/MULTIPLEXER.c ****  //Interrupt node 2 is selected for Protocol specific event             
 186:../Dave/Generated/src/DAVESupport/MULTIPLEXER.c ****  WR_REG(USIC2_CH0->INPR, USIC_CH_INPR_PINP_Msk, USIC_CH_INPR_PINP_Pos,2);  
 321              		.loc 1 186 0
 322 0380 4FF48043 		mov	r3, #16384
 323 0384 C4F60203 		movt	r3, 18434
 324 0388 4FF48042 		mov	r2, #16384
 325 038c C4F60202 		movt	r2, 18434
 326 0390 9269     		ldr	r2, [r2, #24]
 327 0392 22F4E022 		bic	r2, r2, #458752
 328 0396 42F40032 		orr	r2, r2, #131072
 329 039a 9A61     		str	r2, [r3, #24]
 187:../Dave/Generated/src/DAVESupport/MULTIPLEXER.c ****  					              					  						    					      
 188:../Dave/Generated/src/DAVESupport/MULTIPLEXER.c ****                  
 189:../Dave/Generated/src/DAVESupport/MULTIPLEXER.c ****    // Data Pointer & Buffer Size for Transmitter Buffer Control  
 190:../Dave/Generated/src/DAVESupport/MULTIPLEXER.c ****  WR_REG(USIC2_CH0->TBCTR, USIC_CH_TBCTR_DPTRSIZE_Msk, USIC_CH_TBCTR_DPTRSIZE_Pos,0x05000020);		/*  
 330              		.loc 1 190 0
 331 039c 4FF48043 		mov	r3, #16384
 332 03a0 C4F60203 		movt	r3, 18434
 333 03a4 4FF48042 		mov	r2, #16384
 334 03a8 C4F60202 		movt	r2, 18434
 335 03ac D2F80821 		ldr	r2, [r2, #264]
 336 03b0 22F0E062 		bic	r2, r2, #117440512
 337 03b4 22F03F02 		bic	r2, r2, #63
 338 03b8 42F0A062 		orr	r2, r2, #83886080
 339 03bc 42F02002 		orr	r2, r2, #32
 340 03c0 C3F80821 		str	r2, [r3, #264]
 191:../Dave/Generated/src/DAVESupport/MULTIPLEXER.c ****          
 192:../Dave/Generated/src/DAVESupport/MULTIPLEXER.c ****   // Data Pointer & Buffer Size for Receiver Buffer Control  
 193:../Dave/Generated/src/DAVESupport/MULTIPLEXER.c ****  WR_REG(USIC2_CH0->RBCTR, USIC_CH_RBCTR_DPTRSIZE_Msk, USIC_CH_RBCTR_DPTRSIZE_Pos,0x05000000);		/*  
 341              		.loc 1 193 0
 342 03c4 4FF48043 		mov	r3, #16384
 343 03c8 C4F60203 		movt	r3, 18434
 344 03cc 4FF48042 		mov	r2, #16384
 345 03d0 C4F60202 		movt	r2, 18434
 346 03d4 D2F80C21 		ldr	r2, [r2, #268]
 347 03d8 22F0E062 		bic	r2, r2, #117440512
 348 03dc 22F03F02 		bic	r2, r2, #63
 349 03e0 42F0A062 		orr	r2, r2, #83886080
 350 03e4 C3F80C21 		str	r2, [r3, #268]
 194:../Dave/Generated/src/DAVESupport/MULTIPLEXER.c ****  						
 195:../Dave/Generated/src/DAVESupport/MULTIPLEXER.c ****    /*USIC 2 Channel 1 Mux Related SFR/Bitfields Configurations*/ 									  					 				 				 		     
 196:../Dave/Generated/src/DAVESupport/MULTIPLEXER.c ****          
 197:../Dave/Generated/src/DAVESupport/MULTIPLEXER.c ****   
 198:../Dave/Generated/src/DAVESupport/MULTIPLEXER.c ****   /* Enable mode after configuring all USIC registers to avoid unintended edges */  
 199:../Dave/Generated/src/DAVESupport/MULTIPLEXER.c ****             
 200:../Dave/Generated/src/DAVESupport/MULTIPLEXER.c ****    WR_REG(USIC0_CH0->CCR, USIC_CH_CCR_MODE_Msk, USIC_CH_CCR_MODE_Pos,UsicCcrMode[0]); 
 351              		.loc 1 200 0
 352 03e8 4FF00003 		mov	r3, #0
 353 03ec C4F20303 		movt	r3, 16387
 354 03f0 3A68     		ldr	r2, [r7, #0]
 355 03f2 02F00F01 		and	r1, r2, #15
 356 03f6 4FF00002 		mov	r2, #0
 357 03fa C4F20302 		movt	r2, 16387
 358 03fe 126C     		ldr	r2, [r2, #64]
 359 0400 22F00F02 		bic	r2, r2, #15
 360 0404 0A43     		orrs	r2, r2, r1
 361 0406 1A64     		str	r2, [r3, #64]
 201:../Dave/Generated/src/DAVESupport/MULTIPLEXER.c ****          
 202:../Dave/Generated/src/DAVESupport/MULTIPLEXER.c ****    WR_REG(USIC0_CH1->CCR, USIC_CH_CCR_MODE_Msk, USIC_CH_CCR_MODE_Pos,UsicCcrMode[1]);   
 362              		.loc 1 202 0
 363 0408 4FF40073 		mov	r3, #512
 364 040c C4F20303 		movt	r3, 16387
 365 0410 7A68     		ldr	r2, [r7, #4]
 366 0412 02F00F01 		and	r1, r2, #15
 367 0416 4FF40072 		mov	r2, #512
 368 041a C4F20302 		movt	r2, 16387
 369 041e 126C     		ldr	r2, [r2, #64]
 370 0420 22F00F02 		bic	r2, r2, #15
 371 0424 0A43     		orrs	r2, r2, r1
 372 0426 1A64     		str	r2, [r3, #64]
 203:../Dave/Generated/src/DAVESupport/MULTIPLEXER.c ****               
 204:../Dave/Generated/src/DAVESupport/MULTIPLEXER.c ****    WR_REG(USIC1_CH0->CCR, USIC_CH_CCR_MODE_Msk, USIC_CH_CCR_MODE_Pos,UsicCcrMode[2]);
 373              		.loc 1 204 0
 374 0428 4FF00003 		mov	r3, #0
 375 042c C4F60203 		movt	r3, 18434
 376 0430 BA68     		ldr	r2, [r7, #8]
 377 0432 02F00F01 		and	r1, r2, #15
 378 0436 4FF00002 		mov	r2, #0
 379 043a C4F60202 		movt	r2, 18434
 380 043e 126C     		ldr	r2, [r2, #64]
 381 0440 22F00F02 		bic	r2, r2, #15
 382 0444 0A43     		orrs	r2, r2, r1
 383 0446 1A64     		str	r2, [r3, #64]
 205:../Dave/Generated/src/DAVESupport/MULTIPLEXER.c ****                   
 206:../Dave/Generated/src/DAVESupport/MULTIPLEXER.c ****    WR_REG(USIC1_CH1->CCR, USIC_CH_CCR_MODE_Msk, USIC_CH_CCR_MODE_Pos,UsicCcrMode[3]);
 384              		.loc 1 206 0
 385 0448 4FF40073 		mov	r3, #512
 386 044c C4F60203 		movt	r3, 18434
 387 0450 FA68     		ldr	r2, [r7, #12]
 388 0452 02F00F01 		and	r1, r2, #15
 389 0456 4FF40072 		mov	r2, #512
 390 045a C4F60202 		movt	r2, 18434
 391 045e 126C     		ldr	r2, [r2, #64]
 392 0460 22F00F02 		bic	r2, r2, #15
 393 0464 0A43     		orrs	r2, r2, r1
 394 0466 1A64     		str	r2, [r3, #64]
 207:../Dave/Generated/src/DAVESupport/MULTIPLEXER.c ****         
 208:../Dave/Generated/src/DAVESupport/MULTIPLEXER.c ****    WR_REG(USIC2_CH0->CCR, USIC_CH_CCR_MODE_Msk, USIC_CH_CCR_MODE_Pos,UsicCcrMode[4]);
 395              		.loc 1 208 0
 396 0468 4FF48043 		mov	r3, #16384
 397 046c C4F60203 		movt	r3, 18434
 398 0470 3A69     		ldr	r2, [r7, #16]
 399 0472 02F00F01 		and	r1, r2, #15
 400 0476 4FF48042 		mov	r2, #16384
 401 047a C4F60202 		movt	r2, 18434
 402 047e 126C     		ldr	r2, [r2, #64]
 403 0480 22F00F02 		bic	r2, r2, #15
 404 0484 0A43     		orrs	r2, r2, r1
 405 0486 1A64     		str	r2, [r3, #64]
 209:../Dave/Generated/src/DAVESupport/MULTIPLEXER.c ****             	         
 210:../Dave/Generated/src/DAVESupport/MULTIPLEXER.c ****                                               
 211:../Dave/Generated/src/DAVESupport/MULTIPLEXER.c ****         //********* Capture/Compare Unit 4 (CAPCOM4) CONFIGURATIONS ************************* 
 212:../Dave/Generated/src/DAVESupport/MULTIPLEXER.c ****                        
 213:../Dave/Generated/src/DAVESupport/MULTIPLEXER.c ****     // Configuring CCU42_CC40SRS  =  Service Request Selector
 214:../Dave/Generated/src/DAVESupport/MULTIPLEXER.c **** 
 215:../Dave/Generated/src/DAVESupport/MULTIPLEXER.c ****     WR_REG(CCU42_CC40->SRS, CCU4_CC4_SRS_POSR_Msk, CCU4_CC4_SRS_POSR_Pos, CCU_SR1);    
 406              		.loc 1 215 0
 407 0488 4FF48243 		mov	r3, #16640
 408 048c C4F20103 		movt	r3, 16385
 409 0490 4FF48242 		mov	r2, #16640
 410 0494 C4F20102 		movt	r2, 16385
 411 0498 D2F8A820 		ldr	r2, [r2, #168]
 412 049c 22F00302 		bic	r2, r2, #3
 413 04a0 42F00102 		orr	r2, r2, #1
 414 04a4 C3F8A820 		str	r2, [r3, #168]
 216:../Dave/Generated/src/DAVESupport/MULTIPLEXER.c ****                        
 217:../Dave/Generated/src/DAVESupport/MULTIPLEXER.c ****     // Configuring CCU42_CC41SRS  =  Service Request Selector
 218:../Dave/Generated/src/DAVESupport/MULTIPLEXER.c **** 
 219:../Dave/Generated/src/DAVESupport/MULTIPLEXER.c ****     WR_REG(CCU42_CC41->SRS, CCU4_CC4_SRS_POSR_Msk, CCU4_CC4_SRS_POSR_Pos, CCU_SR2);    
 415              		.loc 1 219 0
 416 04a8 4FF48443 		mov	r3, #16896
 417 04ac C4F20103 		movt	r3, 16385
 418 04b0 4FF48442 		mov	r2, #16896
 419 04b4 C4F20102 		movt	r2, 16385
 420 04b8 D2F8A820 		ldr	r2, [r2, #168]
 421 04bc 22F00302 		bic	r2, r2, #3
 422 04c0 42F00202 		orr	r2, r2, #2
 423 04c4 C3F8A820 		str	r2, [r3, #168]
 220:../Dave/Generated/src/DAVESupport/MULTIPLEXER.c ****                        
 221:../Dave/Generated/src/DAVESupport/MULTIPLEXER.c ****     // Configuring CCU42_CC42SRS  =  Service Request Selector
 222:../Dave/Generated/src/DAVESupport/MULTIPLEXER.c **** 
 223:../Dave/Generated/src/DAVESupport/MULTIPLEXER.c ****     WR_REG(CCU42_CC42->SRS, CCU4_CC4_SRS_POSR_Msk, CCU4_CC4_SRS_POSR_Pos, CCU_SR3);    
 424              		.loc 1 223 0
 425 04c8 4FF48643 		mov	r3, #17152
 426 04cc C4F20103 		movt	r3, 16385
 427 04d0 4FF48642 		mov	r2, #17152
 428 04d4 C4F20102 		movt	r2, 16385
 429 04d8 D2F8A820 		ldr	r2, [r2, #168]
 430 04dc 42F00302 		orr	r2, r2, #3
 431 04e0 C3F8A820 		str	r2, [r3, #168]
 224:../Dave/Generated/src/DAVESupport/MULTIPLEXER.c ****    	 
 225:../Dave/Generated/src/DAVESupport/MULTIPLEXER.c ****             	         
 226:../Dave/Generated/src/DAVESupport/MULTIPLEXER.c ****                                               
 227:../Dave/Generated/src/DAVESupport/MULTIPLEXER.c ****    	 
 228:../Dave/Generated/src/DAVESupport/MULTIPLEXER.c ****             	         
 229:../Dave/Generated/src/DAVESupport/MULTIPLEXER.c ****                                               
 230:../Dave/Generated/src/DAVESupport/MULTIPLEXER.c ****         //********* Capture/Compare Unit 8 (CAPCOM8) CONFIGURATIONS *************************
 231:../Dave/Generated/src/DAVESupport/MULTIPLEXER.c ****                       
 232:../Dave/Generated/src/DAVESupport/MULTIPLEXER.c ****             // Configuring CCU81 CC81INS - Input Selector Configuration
 233:../Dave/Generated/src/DAVESupport/MULTIPLEXER.c **** 
 234:../Dave/Generated/src/DAVESupport/MULTIPLEXER.c ****     WR_REG(CCU81_CC81->INS, CCU8_CC8_INS_EV0IS_Msk, CCU8_CC8_INS_EV0IS_Pos, CCU8xINyH);            
 432              		.loc 1 234 0
 433 04e4 4FF48443 		mov	r3, #16896
 434 04e8 C4F20203 		movt	r3, 16386
 435 04ec 4FF48442 		mov	r2, #16896
 436 04f0 C4F20202 		movt	r2, 16386
 437 04f4 1268     		ldr	r2, [r2, #0]
 438 04f6 22F00F02 		bic	r2, r2, #15
 439 04fa 42F00702 		orr	r2, r2, #7
 440 04fe 1A60     		str	r2, [r3, #0]
 235:../Dave/Generated/src/DAVESupport/MULTIPLEXER.c ****                       
 236:../Dave/Generated/src/DAVESupport/MULTIPLEXER.c ****             // Configuring CCU81 CC82INS - Input Selector Configuration
 237:../Dave/Generated/src/DAVESupport/MULTIPLEXER.c **** 
 238:../Dave/Generated/src/DAVESupport/MULTIPLEXER.c ****     WR_REG(CCU81_CC82->INS, CCU8_CC8_INS_EV0IS_Msk, CCU8_CC8_INS_EV0IS_Pos, CCU8xINyH);            
 441              		.loc 1 238 0
 442 0500 4FF48643 		mov	r3, #17152
 443 0504 C4F20203 		movt	r3, 16386
 444 0508 4FF48642 		mov	r2, #17152
 445 050c C4F20202 		movt	r2, 16386
 446 0510 1268     		ldr	r2, [r2, #0]
 447 0512 22F00F02 		bic	r2, r2, #15
 448 0516 42F00702 		orr	r2, r2, #7
 449 051a 1A60     		str	r2, [r3, #0]
 239:../Dave/Generated/src/DAVESupport/MULTIPLEXER.c ****    	 
 240:../Dave/Generated/src/DAVESupport/MULTIPLEXER.c ****             	         
 241:../Dave/Generated/src/DAVESupport/MULTIPLEXER.c ****                                               
 242:../Dave/Generated/src/DAVESupport/MULTIPLEXER.c ****    	 
 243:../Dave/Generated/src/DAVESupport/MULTIPLEXER.c ****             	         
 244:../Dave/Generated/src/DAVESupport/MULTIPLEXER.c ****                                           
 245:../Dave/Generated/src/DAVESupport/MULTIPLEXER.c **** 
 246:../Dave/Generated/src/DAVESupport/MULTIPLEXER.c **** /*        PORT Macro definitions for IOCR_OE, IOCR_PCR & HWSEL_HW     */                           
 247:../Dave/Generated/src/DAVESupport/MULTIPLEXER.c ****   WR_REG(PORT0->IOCR0, 0xb800U, PORT_IOCR_PC1_PCR_Pos, 0x12U);                /*P0.1 : PORT0_IOCR0_
 450              		.loc 1 247 0
 451 051c 4FF40043 		mov	r3, #32768
 452 0520 C4F60203 		movt	r3, 18434
 453 0524 4FF40042 		mov	r2, #32768
 454 0528 C4F60202 		movt	r2, 18434
 455 052c 1269     		ldr	r2, [r2, #16]
 456 052e 22F43842 		bic	r2, r2, #47104
 457 0532 42F41042 		orr	r2, r2, #36864
 458 0536 1A61     		str	r2, [r3, #16]
 248:../Dave/Generated/src/DAVESupport/MULTIPLEXER.c **** 					                         
 249:../Dave/Generated/src/DAVESupport/MULTIPLEXER.c ****   WR_REG(PORT1->IOCR0, 0xb8U, PORT_IOCR_PC0_PCR_Pos, 0x13U);                /*P1.0 : PORT1_IOCR0_PC
 459              		.loc 1 249 0
 460 0538 4FF40143 		mov	r3, #33024
 461 053c C4F60203 		movt	r3, 18434
 462 0540 4FF40142 		mov	r2, #33024
 463 0544 C4F60202 		movt	r2, 18434
 464 0548 1269     		ldr	r2, [r2, #16]
 465 054a 22F0B802 		bic	r2, r2, #184
 466 054e 42F09802 		orr	r2, r2, #152
 467 0552 1A61     		str	r2, [r3, #16]
 250:../Dave/Generated/src/DAVESupport/MULTIPLEXER.c **** 					                         
 251:../Dave/Generated/src/DAVESupport/MULTIPLEXER.c ****   WR_REG(PORT1->IOCR0, 0xb800U, PORT_IOCR_PC1_PCR_Pos, 0x13U);                /*P1.1 : PORT1_IOCR0_
 468              		.loc 1 251 0
 469 0554 4FF40143 		mov	r3, #33024
 470 0558 C4F60203 		movt	r3, 18434
 471 055c 4FF40142 		mov	r2, #33024
 472 0560 C4F60202 		movt	r2, 18434
 473 0564 1269     		ldr	r2, [r2, #16]
 474 0566 22F43842 		bic	r2, r2, #47104
 475 056a 42F41842 		orr	r2, r2, #38912
 476 056e 1A61     		str	r2, [r3, #16]
 252:../Dave/Generated/src/DAVESupport/MULTIPLEXER.c **** 					                         
 253:../Dave/Generated/src/DAVESupport/MULTIPLEXER.c ****   WR_REG(PORT1->IOCR0, 0xb80000U, PORT_IOCR_PC2_PCR_Pos, 0x13U);                /*P1.2 : PORT1_IOCR
 477              		.loc 1 253 0
 478 0570 4FF40143 		mov	r3, #33024
 479 0574 C4F60203 		movt	r3, 18434
 480 0578 4FF40142 		mov	r2, #33024
 481 057c C4F60202 		movt	r2, 18434
 482 0580 1269     		ldr	r2, [r2, #16]
 483 0582 22F43802 		bic	r2, r2, #12058624
 484 0586 42F41802 		orr	r2, r2, #9961472
 485 058a 1A61     		str	r2, [r3, #16]
 254:../Dave/Generated/src/DAVESupport/MULTIPLEXER.c **** 					                         
 255:../Dave/Generated/src/DAVESupport/MULTIPLEXER.c ****   WR_REG(PORT1->IOCR0, 0xb8000000U, PORT_IOCR_PC3_PCR_Pos, 0x13U);                /*P1.3 : PORT1_IO
 486              		.loc 1 255 0
 487 058c 4FF40143 		mov	r3, #33024
 488 0590 C4F60203 		movt	r3, 18434
 489 0594 4FF40142 		mov	r2, #33024
 490 0598 C4F60202 		movt	r2, 18434
 491 059c 1269     		ldr	r2, [r2, #16]
 492 059e 22F03842 		bic	r2, r2, #-1207959552
 493 05a2 42F01842 		orr	r2, r2, #-1744830464
 494 05a6 1A61     		str	r2, [r3, #16]
 256:../Dave/Generated/src/DAVESupport/MULTIPLEXER.c **** 					                         
 257:../Dave/Generated/src/DAVESupport/MULTIPLEXER.c ****   WR_REG(PORT1->IOCR4, 0xb8U, PORT_IOCR_PC0_PCR_Pos, 0x14U);                /*P1.4 : PORT1_IOCR4_PC
 495              		.loc 1 257 0
 496 05a8 4FF40143 		mov	r3, #33024
 497 05ac C4F60203 		movt	r3, 18434
 498 05b0 4FF40142 		mov	r2, #33024
 499 05b4 C4F60202 		movt	r2, 18434
 500 05b8 5269     		ldr	r2, [r2, #20]
 501 05ba 22F0B802 		bic	r2, r2, #184
 502 05be 42F0A002 		orr	r2, r2, #160
 503 05c2 5A61     		str	r2, [r3, #20]
 258:../Dave/Generated/src/DAVESupport/MULTIPLEXER.c **** 					                         
 259:../Dave/Generated/src/DAVESupport/MULTIPLEXER.c ****   WR_REG(PORT1->IOCR8, 0xb80000U, PORT_IOCR_PC2_PCR_Pos, 0x13U);                /*P1.10 : PORT1_IOC
 504              		.loc 1 259 0
 505 05c4 4FF40143 		mov	r3, #33024
 506 05c8 C4F60203 		movt	r3, 18434
 507 05cc 4FF40142 		mov	r2, #33024
 508 05d0 C4F60202 		movt	r2, 18434
 509 05d4 9269     		ldr	r2, [r2, #24]
 510 05d6 22F43802 		bic	r2, r2, #12058624
 511 05da 42F41802 		orr	r2, r2, #9961472
 512 05de 9A61     		str	r2, [r3, #24]
 260:../Dave/Generated/src/DAVESupport/MULTIPLEXER.c **** 					                         
 261:../Dave/Generated/src/DAVESupport/MULTIPLEXER.c ****   WR_REG(PORT1->IOCR8, 0xb8000000U, PORT_IOCR_PC3_PCR_Pos, 0x13U);                /*P1.11 : PORT1_I
 513              		.loc 1 261 0
 514 05e0 4FF40143 		mov	r3, #33024
 515 05e4 C4F60203 		movt	r3, 18434
 516 05e8 4FF40142 		mov	r2, #33024
 517 05ec C4F60202 		movt	r2, 18434
 518 05f0 9269     		ldr	r2, [r2, #24]
 519 05f2 22F03842 		bic	r2, r2, #-1207959552
 520 05f6 42F01842 		orr	r2, r2, #-1744830464
 521 05fa 9A61     		str	r2, [r3, #24]
 262:../Dave/Generated/src/DAVESupport/MULTIPLEXER.c **** 					                         
 263:../Dave/Generated/src/DAVESupport/MULTIPLEXER.c ****   WR_REG(PORT1->IOCR12, 0xb80000U, PORT_IOCR_PC2_PCR_Pos, 0x13U);                /*P1.14 : PORT1_IO
 522              		.loc 1 263 0
 523 05fc 4FF40143 		mov	r3, #33024
 524 0600 C4F60203 		movt	r3, 18434
 525 0604 4FF40142 		mov	r2, #33024
 526 0608 C4F60202 		movt	r2, 18434
 527 060c D269     		ldr	r2, [r2, #28]
 528 060e 22F43802 		bic	r2, r2, #12058624
 529 0612 42F41802 		orr	r2, r2, #9961472
 530 0616 DA61     		str	r2, [r3, #28]
 264:../Dave/Generated/src/DAVESupport/MULTIPLEXER.c **** 					                         
 265:../Dave/Generated/src/DAVESupport/MULTIPLEXER.c ****   WR_REG(PORT2->IOCR0, 0xb80000U, PORT_IOCR_PC2_PCR_Pos, 0x13U);                /*P2.2 : PORT2_IOCR
 531              		.loc 1 265 0
 532 0618 4FF40243 		mov	r3, #33280
 533 061c C4F60203 		movt	r3, 18434
 534 0620 4FF40242 		mov	r2, #33280
 535 0624 C4F60202 		movt	r2, 18434
 536 0628 1269     		ldr	r2, [r2, #16]
 537 062a 22F43802 		bic	r2, r2, #12058624
 538 062e 42F41802 		orr	r2, r2, #9961472
 539 0632 1A61     		str	r2, [r3, #16]
 266:../Dave/Generated/src/DAVESupport/MULTIPLEXER.c **** 					                         
 267:../Dave/Generated/src/DAVESupport/MULTIPLEXER.c ****   WR_REG(PORT2->IOCR0, 0xb8000000U, PORT_IOCR_PC3_PCR_Pos, 0x13U);                /*P2.3 : PORT2_IO
 540              		.loc 1 267 0
 541 0634 4FF40243 		mov	r3, #33280
 542 0638 C4F60203 		movt	r3, 18434
 543 063c 4FF40242 		mov	r2, #33280
 544 0640 C4F60202 		movt	r2, 18434
 545 0644 1269     		ldr	r2, [r2, #16]
 546 0646 22F03842 		bic	r2, r2, #-1207959552
 547 064a 42F01842 		orr	r2, r2, #-1744830464
 548 064e 1A61     		str	r2, [r3, #16]
 268:../Dave/Generated/src/DAVESupport/MULTIPLEXER.c **** 					                         
 269:../Dave/Generated/src/DAVESupport/MULTIPLEXER.c ****   WR_REG(PORT2->IOCR4, 0xb8U, PORT_IOCR_PC0_PCR_Pos, 0x12U);                /*P2.4 : PORT2_IOCR4_PC
 549              		.loc 1 269 0
 550 0650 4FF40243 		mov	r3, #33280
 551 0654 C4F60203 		movt	r3, 18434
 552 0658 4FF40242 		mov	r2, #33280
 553 065c C4F60202 		movt	r2, 18434
 554 0660 5269     		ldr	r2, [r2, #20]
 555 0662 22F0B802 		bic	r2, r2, #184
 556 0666 42F09002 		orr	r2, r2, #144
 557 066a 5A61     		str	r2, [r3, #20]
 270:../Dave/Generated/src/DAVESupport/MULTIPLEXER.c **** 					                         
 271:../Dave/Generated/src/DAVESupport/MULTIPLEXER.c ****   WR_REG(PORT2->IOCR4, 0xb800U, PORT_IOCR_PC1_PCR_Pos, 0x12U);                /*P2.5 : PORT2_IOCR4_
 558              		.loc 1 271 0
 559 066c 4FF40243 		mov	r3, #33280
 560 0670 C4F60203 		movt	r3, 18434
 561 0674 4FF40242 		mov	r2, #33280
 562 0678 C4F60202 		movt	r2, 18434
 563 067c 5269     		ldr	r2, [r2, #20]
 564 067e 22F43842 		bic	r2, r2, #47104
 565 0682 42F41042 		orr	r2, r2, #36864
 566 0686 5A61     		str	r2, [r3, #20]
 272:../Dave/Generated/src/DAVESupport/MULTIPLEXER.c **** 					                         
 273:../Dave/Generated/src/DAVESupport/MULTIPLEXER.c ****   WR_REG(PORT2->IOCR12, 0xb80000U, PORT_IOCR_PC2_PCR_Pos, 0x12U);                /*P2.14 : PORT2_IO
 567              		.loc 1 273 0
 568 0688 4FF40243 		mov	r3, #33280
 569 068c C4F60203 		movt	r3, 18434
 570 0690 4FF40242 		mov	r2, #33280
 571 0694 C4F60202 		movt	r2, 18434
 572 0698 D269     		ldr	r2, [r2, #28]
 573 069a 22F43802 		bic	r2, r2, #12058624
 574 069e 42F41002 		orr	r2, r2, #9437184
 575 06a2 DA61     		str	r2, [r3, #28]
 274:../Dave/Generated/src/DAVESupport/MULTIPLEXER.c **** 					                         
 275:../Dave/Generated/src/DAVESupport/MULTIPLEXER.c ****   WR_REG(PORT3->IOCR4, 0xb800U, PORT_IOCR_PC1_PCR_Pos, 0x13U);                /*P3.5 : PORT3_IOCR4_
 576              		.loc 1 275 0
 577 06a4 4FF40343 		mov	r3, #33536
 578 06a8 C4F60203 		movt	r3, 18434
 579 06ac 4FF40342 		mov	r2, #33536
 580 06b0 C4F60202 		movt	r2, 18434
 581 06b4 5269     		ldr	r2, [r2, #20]
 582 06b6 22F43842 		bic	r2, r2, #47104
 583 06ba 42F41842 		orr	r2, r2, #38912
 584 06be 5A61     		str	r2, [r3, #20]
 276:../Dave/Generated/src/DAVESupport/MULTIPLEXER.c **** 					                         
 277:../Dave/Generated/src/DAVESupport/MULTIPLEXER.c ****   WR_REG(PORT5->IOCR0, 0xb8U, PORT_IOCR_PC0_PCR_Pos, 0x11U);                /*P5.0 : PORT5_IOCR0_PC
 585              		.loc 1 277 0
 586 06c0 4FF40543 		mov	r3, #34048
 587 06c4 C4F60203 		movt	r3, 18434
 588 06c8 4FF40542 		mov	r2, #34048
 589 06cc C4F60202 		movt	r2, 18434
 590 06d0 1269     		ldr	r2, [r2, #16]
 591 06d2 22F0B802 		bic	r2, r2, #184
 592 06d6 42F08802 		orr	r2, r2, #136
 593 06da 1A61     		str	r2, [r3, #16]
 278:../Dave/Generated/src/DAVESupport/MULTIPLEXER.c **** 					                         
 279:../Dave/Generated/src/DAVESupport/MULTIPLEXER.c ****   WR_REG(PORT5->IOCR0, 0xb800U, PORT_IOCR_PC1_PCR_Pos, 0x11U);                /*P5.1 : PORT5_IOCR0_
 594              		.loc 1 279 0
 595 06dc 4FF40543 		mov	r3, #34048
 596 06e0 C4F60203 		movt	r3, 18434
 597 06e4 4FF40542 		mov	r2, #34048
 598 06e8 C4F60202 		movt	r2, 18434
 599 06ec 1269     		ldr	r2, [r2, #16]
 600 06ee 22F43842 		bic	r2, r2, #47104
 601 06f2 42F40842 		orr	r2, r2, #34816
 602 06f6 1A61     		str	r2, [r3, #16]
 280:../Dave/Generated/src/DAVESupport/MULTIPLEXER.c **** 					                         
 281:../Dave/Generated/src/DAVESupport/MULTIPLEXER.c ****   WR_REG(PORT5->IOCR0, 0xb80000U, PORT_IOCR_PC2_PCR_Pos, 0x11U);                /*P5.2 : PORT5_IOCR
 603              		.loc 1 281 0
 604 06f8 4FF40543 		mov	r3, #34048
 605 06fc C4F60203 		movt	r3, 18434
 606 0700 4FF40542 		mov	r2, #34048
 607 0704 C4F60202 		movt	r2, 18434
 608 0708 1269     		ldr	r2, [r2, #16]
 609 070a 22F43802 		bic	r2, r2, #12058624
 610 070e 42F40802 		orr	r2, r2, #8912896
 611 0712 1A61     		str	r2, [r3, #16]
 282:../Dave/Generated/src/DAVESupport/MULTIPLEXER.c **** 					      
 283:../Dave/Generated/src/DAVESupport/MULTIPLEXER.c **** }
 612              		.loc 1 283 0
 613 0714 07F11C07 		add	r7, r7, #28
 614 0718 BD46     		mov	sp, r7
 615 071a 80BC     		pop	{r7}
 616 071c 7047     		bx	lr
 617              		.cfi_endproc
 618              	.LFE135:
 620 071e 00BF     		.section	.text.DAVE_MUX_PreInit,"ax",%progbits
 621              		.align	2
 622              		.global	DAVE_MUX_PreInit
 623              		.thumb
 624              		.thumb_func
 626              	DAVE_MUX_PreInit:
 627              	.LFB136:
 284:../Dave/Generated/src/DAVESupport/MULTIPLEXER.c **** 
 285:../Dave/Generated/src/DAVESupport/MULTIPLEXER.c **** 
 286:../Dave/Generated/src/DAVESupport/MULTIPLEXER.c **** /*******************************************************************************
 287:../Dave/Generated/src/DAVESupport/MULTIPLEXER.c **** ** Syntax           : void DAVE_MUX_PreInit(void)                             **
 288:../Dave/Generated/src/DAVESupport/MULTIPLEXER.c **** **                                                                            **
 289:../Dave/Generated/src/DAVESupport/MULTIPLEXER.c **** ** Reentrancy       : None                                                    **
 290:../Dave/Generated/src/DAVESupport/MULTIPLEXER.c **** **                                                                            **
 291:../Dave/Generated/src/DAVESupport/MULTIPLEXER.c **** ** Parameters (in)  : void                                                    **
 292:../Dave/Generated/src/DAVESupport/MULTIPLEXER.c **** **                                                                            **
 293:../Dave/Generated/src/DAVESupport/MULTIPLEXER.c **** ** Parameters (out) : none                                                    **
 294:../Dave/Generated/src/DAVESupport/MULTIPLEXER.c **** **                                                                            **
 295:../Dave/Generated/src/DAVESupport/MULTIPLEXER.c **** ** Return value     : none                                                    **
 296:../Dave/Generated/src/DAVESupport/MULTIPLEXER.c **** **                                                                            **
 297:../Dave/Generated/src/DAVESupport/MULTIPLEXER.c **** ** Description      : This is the Mux configuration                           **
 298:../Dave/Generated/src/DAVESupport/MULTIPLEXER.c **** **                                                                            **
 299:../Dave/Generated/src/DAVESupport/MULTIPLEXER.c **** *******************************************************************************/
 300:../Dave/Generated/src/DAVESupport/MULTIPLEXER.c ****  
 301:../Dave/Generated/src/DAVESupport/MULTIPLEXER.c **** void DAVE_MUX_PreInit(void)
 302:../Dave/Generated/src/DAVESupport/MULTIPLEXER.c **** {                        
 628              		.loc 1 302 0
 629              		.cfi_startproc
 630              		@ args = 0, pretend = 0, frame = 0
 631              		@ frame_needed = 1, uses_anonymous_args = 0
 632              		@ link register save eliminated.
 633 0000 80B4     		push	{r7}
 634              	.LCFI3:
 635              		.cfi_def_cfa_offset 4
 636              		.cfi_offset 7, -4
 637 0002 00AF     		add	r7, sp, #0
 638              	.LCFI4:
 639              		.cfi_def_cfa_register 7
 303:../Dave/Generated/src/DAVESupport/MULTIPLEXER.c **** 
 304:../Dave/Generated/src/DAVESupport/MULTIPLEXER.c **** /*        PORT Macro definitions for IOCR_OE, IOCR_PCR & HWSEL_HW     */                   
 305:../Dave/Generated/src/DAVESupport/MULTIPLEXER.c **** }
 640              		.loc 1 305 0
 641 0004 BD46     		mov	sp, r7
 642 0006 80BC     		pop	{r7}
 643 0008 7047     		bx	lr
 644              		.cfi_endproc
 645              	.LFE136:
 647 000a 00BF     		.text
 648              	.Letext0:
 649              		.file 2 "c:\\dave-3.1.10\\arm-gcc\\bin\\../lib/gcc/arm-none-eabi/4.7.4/../../../../arm-none-eabi/i
 650              		.file 3 "C:\\DAVE-3.1.10\\eclipse\\/../CMSIS/Infineon/XMC4500_series/Include/XMC4500.h"
 651              		.file 4 "../Dave/Generated/src/DAVESupport/../../inc/DAVESupport/../../inc/USBD/../../src/USBD_LLD
 652              		.file 5 "../Dave/Generated/src/DAVESupport/../../inc/DAVESupport/../../inc/USBD/../../src/USBD_LLD
 653              		.file 6 "../Dave/Generated/src/DAVESupport/../../inc/DAVESupport/../../inc/USBD/USBD.h"
 654              		.file 7 "C:\\DAVE-3.1.10\\eclipse\\/../CMSIS/Include/core_cm4.h"