   1              		.syntax unified
   2              		.cpu cortex-m4
   3              		.eabi_attribute 27, 3
   4              		.fpu fpv4-sp-d16
   5              		.eabi_attribute 20, 1
   6              		.eabi_attribute 21, 1
   7              		.eabi_attribute 23, 3
   8              		.eabi_attribute 24, 1
   9              		.eabi_attribute 25, 1
  10              		.eabi_attribute 26, 1
  11              		.eabi_attribute 30, 6
  12              		.eabi_attribute 34, 1
  13              		.eabi_attribute 18, 4
  14              		.thumb
  15              		.file	"CCU4GLOBAL.c"
  16              		.text
  17              	.Ltext0:
  18              		.cfi_sections	.debug_frame
  19              		.section	.text.CCU4GLOBAL_Init,"ax",%progbits
  20              		.align	2
  21              		.global	CCU4GLOBAL_Init
  22              		.thumb
  23              		.thumb_func
  25              	CCU4GLOBAL_Init:
  26              	.LFB112:
  27              		.file 1 "../Dave/Generated/src/CCU4GLOBAL/CCU4GLOBAL.c"
   1:../Dave/Generated/src/CCU4GLOBAL/CCU4GLOBAL.c **** /*CODE_BLOCK_BEGIN[CCU4GLOBAL.c]*/
   2:../Dave/Generated/src/CCU4GLOBAL/CCU4GLOBAL.c **** 
   3:../Dave/Generated/src/CCU4GLOBAL/CCU4GLOBAL.c **** 
   4:../Dave/Generated/src/CCU4GLOBAL/CCU4GLOBAL.c **** /*******************************************************************************
   5:../Dave/Generated/src/CCU4GLOBAL/CCU4GLOBAL.c ****  Copyright (c) 2014, Infineon Technologies AG                                 **
   6:../Dave/Generated/src/CCU4GLOBAL/CCU4GLOBAL.c ****  All rights reserved.                                                         **
   7:../Dave/Generated/src/CCU4GLOBAL/CCU4GLOBAL.c ****                                                                               **
   8:../Dave/Generated/src/CCU4GLOBAL/CCU4GLOBAL.c ****  Redistribution and use in source and binary forms, with or without           **
   9:../Dave/Generated/src/CCU4GLOBAL/CCU4GLOBAL.c ****  modification,are permitted provided that the following conditions are met:   **
  10:../Dave/Generated/src/CCU4GLOBAL/CCU4GLOBAL.c ****                                                                               **
  11:../Dave/Generated/src/CCU4GLOBAL/CCU4GLOBAL.c ****  *Redistributions of source code must retain the above copyright notice,      **
  12:../Dave/Generated/src/CCU4GLOBAL/CCU4GLOBAL.c ****  this list of conditions and the following disclaimer.                        **
  13:../Dave/Generated/src/CCU4GLOBAL/CCU4GLOBAL.c ****  *Redistributions in binary form must reproduce the above copyright notice,   **
  14:../Dave/Generated/src/CCU4GLOBAL/CCU4GLOBAL.c ****  this list of conditions and the following disclaimer in the documentation    **
  15:../Dave/Generated/src/CCU4GLOBAL/CCU4GLOBAL.c ****  and/or other materials provided with the distribution.                       **
  16:../Dave/Generated/src/CCU4GLOBAL/CCU4GLOBAL.c ****  *Neither the name of the copyright holders nor the names of its contributors **
  17:../Dave/Generated/src/CCU4GLOBAL/CCU4GLOBAL.c ****  may be used to endorse or promote products derived from this software without**
  18:../Dave/Generated/src/CCU4GLOBAL/CCU4GLOBAL.c ****  specific prior written permission.                                           **
  19:../Dave/Generated/src/CCU4GLOBAL/CCU4GLOBAL.c ****                                                                               **
  20:../Dave/Generated/src/CCU4GLOBAL/CCU4GLOBAL.c ****  THIS SOFTWARE IS PROVIDED BY THE COPYRIGHT HOLDERS AND CONTRIBUTORS "AS IS"  **
  21:../Dave/Generated/src/CCU4GLOBAL/CCU4GLOBAL.c ****  AND ANY EXPRESS OR IMPLIED WARRANTIES, INCLUDING, BUT NOT LIMITED TO, THE    **
  22:../Dave/Generated/src/CCU4GLOBAL/CCU4GLOBAL.c ****  IMPLIED WARRANTIES OF MERCHANTABILITY AND FITNESS FOR A PARTICULAR PURPOSE   **
  23:../Dave/Generated/src/CCU4GLOBAL/CCU4GLOBAL.c ****  ARE  DISCLAIMED. IN NO EVENT SHALL THE COPYRIGHT HOLDER OR CONTRIBUTORS BE   **
  24:../Dave/Generated/src/CCU4GLOBAL/CCU4GLOBAL.c ****  LIABLE  FOR ANY DIRECT, INDIRECT, INCIDENTAL, SPECIAL, EXEMPLARY, OR         **
  25:../Dave/Generated/src/CCU4GLOBAL/CCU4GLOBAL.c ****  CONSEQUENTIAL DAMAGES (INCLUDING, BUT NOT LIMITED TO, PROCUREMENT OF         **
  26:../Dave/Generated/src/CCU4GLOBAL/CCU4GLOBAL.c ****  SUBSTITUTE GOODS OR  SERVICES; LOSS OF USE, DATA, OR PROFITS; OR BUSINESS    **
  27:../Dave/Generated/src/CCU4GLOBAL/CCU4GLOBAL.c ****  INTERRUPTION) HOWEVER CAUSED AND ON ANY THEORY OF LIABILITY, WHETHER IN      **
  28:../Dave/Generated/src/CCU4GLOBAL/CCU4GLOBAL.c ****  CONTRACT, STRICT LIABILITY,OR TORT (INCLUDING NEGLIGENCE OR OTHERWISE)       **
  29:../Dave/Generated/src/CCU4GLOBAL/CCU4GLOBAL.c ****  ARISING IN ANY WAY OUT OF THE USE OF THIS SOFTWARE, EVEN IF ADVISED OF THE   **
  30:../Dave/Generated/src/CCU4GLOBAL/CCU4GLOBAL.c ****  POSSIBILITY OF SUCH DAMAGE.                                                  **
  31:../Dave/Generated/src/CCU4GLOBAL/CCU4GLOBAL.c ****                                                                               **
  32:../Dave/Generated/src/CCU4GLOBAL/CCU4GLOBAL.c ****  To improve the quality of the software, users are encouraged to share        **
  33:../Dave/Generated/src/CCU4GLOBAL/CCU4GLOBAL.c ****  modifications, enhancements or bug fixes with Infineon Technologies AG       **
  34:../Dave/Generated/src/CCU4GLOBAL/CCU4GLOBAL.c ****  dave@infineon.com).                                                          **
  35:../Dave/Generated/src/CCU4GLOBAL/CCU4GLOBAL.c ****                                                                               **
  36:../Dave/Generated/src/CCU4GLOBAL/CCU4GLOBAL.c **** ********************************************************************************
  37:../Dave/Generated/src/CCU4GLOBAL/CCU4GLOBAL.c **** **                                                                            **
  38:../Dave/Generated/src/CCU4GLOBAL/CCU4GLOBAL.c **** **                                                                            **
  39:../Dave/Generated/src/CCU4GLOBAL/CCU4GLOBAL.c **** ** PLATFORM : Infineon XMC4000/XMC1000 Series                                 **
  40:../Dave/Generated/src/CCU4GLOBAL/CCU4GLOBAL.c **** **                                                                            **
  41:../Dave/Generated/src/CCU4GLOBAL/CCU4GLOBAL.c **** ** COMPILER : Compiler Independent                                            **
  42:../Dave/Generated/src/CCU4GLOBAL/CCU4GLOBAL.c **** **                                                                            **
  43:../Dave/Generated/src/CCU4GLOBAL/CCU4GLOBAL.c **** ** AUTHOR   : App Developer                                                   **
  44:../Dave/Generated/src/CCU4GLOBAL/CCU4GLOBAL.c **** **                                                                            **
  45:../Dave/Generated/src/CCU4GLOBAL/CCU4GLOBAL.c **** ** MAY BE CHANGED BY USER [yes/no]: Yes                                       **
  46:../Dave/Generated/src/CCU4GLOBAL/CCU4GLOBAL.c **** **                                                                            **
  47:../Dave/Generated/src/CCU4GLOBAL/CCU4GLOBAL.c **** ** MODIFICATION DATE : Aug  12, 2014                                          **
  48:../Dave/Generated/src/CCU4GLOBAL/CCU4GLOBAL.c **** **                                                                            **
  49:../Dave/Generated/src/CCU4GLOBAL/CCU4GLOBAL.c **** *******************************************************************************/
  50:../Dave/Generated/src/CCU4GLOBAL/CCU4GLOBAL.c **** /*******************************************************************************
  51:../Dave/Generated/src/CCU4GLOBAL/CCU4GLOBAL.c **** **                      Author(s) Identity                                    **
  52:../Dave/Generated/src/CCU4GLOBAL/CCU4GLOBAL.c **** ********************************************************************************
  53:../Dave/Generated/src/CCU4GLOBAL/CCU4GLOBAL.c **** **                                                                            **
  54:../Dave/Generated/src/CCU4GLOBAL/CCU4GLOBAL.c **** ** Initials     Name                                                          **
  55:../Dave/Generated/src/CCU4GLOBAL/CCU4GLOBAL.c **** ** ---------------------------------------------------------------------------**
  56:../Dave/Generated/src/CCU4GLOBAL/CCU4GLOBAL.c **** ** SNR          App Developer                                                 **
  57:../Dave/Generated/src/CCU4GLOBAL/CCU4GLOBAL.c **** **                                                                            **
  58:../Dave/Generated/src/CCU4GLOBAL/CCU4GLOBAL.c **** *******************************************************************************/
  59:../Dave/Generated/src/CCU4GLOBAL/CCU4GLOBAL.c **** 
  60:../Dave/Generated/src/CCU4GLOBAL/CCU4GLOBAL.c **** /**
  61:../Dave/Generated/src/CCU4GLOBAL/CCU4GLOBAL.c ****  * @file  CCU4GLOBAL.c
  62:../Dave/Generated/src/CCU4GLOBAL/CCU4GLOBAL.c ****  *
  63:../Dave/Generated/src/CCU4GLOBAL/CCU4GLOBAL.c ****  * @brief This file contains implementations of all Public and Private functions
  64:../Dave/Generated/src/CCU4GLOBAL/CCU4GLOBAL.c ****  *        of CCU4GLOBAL App.
  65:../Dave/Generated/src/CCU4GLOBAL/CCU4GLOBAL.c ****  */
  66:../Dave/Generated/src/CCU4GLOBAL/CCU4GLOBAL.c **** /* Revision History
  67:../Dave/Generated/src/CCU4GLOBAL/CCU4GLOBAL.c ****  * 22 March     2012   v1.0.0    Initial version
  68:../Dave/Generated/src/CCU4GLOBAL/CCU4GLOBAL.c ****  * 17 September 2012   v1.0.4    code to disable clock gating for XMC44 devices
  69:../Dave/Generated/src/CCU4GLOBAL/CCU4GLOBAL.c ****  * 25 January   2013   v1.0.10   code to disable clock gating for XMC1  devices
  70:../Dave/Generated/src/CCU4GLOBAL/CCU4GLOBAL.c ****  * 25 November  2013   v1.0.12   Followed coding guidelines  
  71:../Dave/Generated/src/CCU4GLOBAL/CCU4GLOBAL.c ****  * 12 August    2014   v1.0.14   Redundant call to CLK001_Init(); CLK002_Init();
  72:../Dave/Generated/src/CCU4GLOBAL/CCU4GLOBAL.c ****  *                               is removed in CCU4GLOBAL_Init() api. 
  73:../Dave/Generated/src/CCU4GLOBAL/CCU4GLOBAL.c ****  */
  74:../Dave/Generated/src/CCU4GLOBAL/CCU4GLOBAL.c **** /*******************************************************************************
  75:../Dave/Generated/src/CCU4GLOBAL/CCU4GLOBAL.c **** **                      Include Files                                         **
  76:../Dave/Generated/src/CCU4GLOBAL/CCU4GLOBAL.c **** *******************************************************************************/
  77:../Dave/Generated/src/CCU4GLOBAL/CCU4GLOBAL.c **** 
  78:../Dave/Generated/src/CCU4GLOBAL/CCU4GLOBAL.c **** #include "../../inc/CCU4GLOBAL/CCU4GLOBAL.h"
  79:../Dave/Generated/src/CCU4GLOBAL/CCU4GLOBAL.c **** 
  80:../Dave/Generated/src/CCU4GLOBAL/CCU4GLOBAL.c **** static void CCU4Global_lInit(const CCU4Global_HandleType * Handle);
  81:../Dave/Generated/src/CCU4GLOBAL/CCU4GLOBAL.c **** 
  82:../Dave/Generated/src/CCU4GLOBAL/CCU4GLOBAL.c **** /*******************************************************************************
  83:../Dave/Generated/src/CCU4GLOBAL/CCU4GLOBAL.c **** **                 Public Function declarations                              **
  84:../Dave/Generated/src/CCU4GLOBAL/CCU4GLOBAL.c **** *******************************************************************************/
  85:../Dave/Generated/src/CCU4GLOBAL/CCU4GLOBAL.c **** /**
  86:../Dave/Generated/src/CCU4GLOBAL/CCU4GLOBAL.c ****  * @cond INTERNAL_DOCS
  87:../Dave/Generated/src/CCU4GLOBAL/CCU4GLOBAL.c ****  */
  88:../Dave/Generated/src/CCU4GLOBAL/CCU4GLOBAL.c **** 
  89:../Dave/Generated/src/CCU4GLOBAL/CCU4GLOBAL.c **** void CCU4GLOBAL_Init(void)
  90:../Dave/Generated/src/CCU4GLOBAL/CCU4GLOBAL.c **** {
  28              		.loc 1 90 0
  29              		.cfi_startproc
  30              		@ args = 0, pretend = 0, frame = 8
  31              		@ frame_needed = 1, uses_anonymous_args = 0
  32 0000 80B5     		push	{r7, lr}
  33              	.LCFI0:
  34              		.cfi_def_cfa_offset 8
  35              		.cfi_offset 7, -8
  36              		.cfi_offset 14, -4
  37 0002 82B0     		sub	sp, sp, #8
  38              	.LCFI1:
  39              		.cfi_def_cfa_offset 16
  40 0004 00AF     		add	r7, sp, #0
  41              	.LCFI2:
  42              		.cfi_def_cfa_register 7
  91:../Dave/Generated/src/CCU4GLOBAL/CCU4GLOBAL.c ****   static uint32_t CCU4InitCalled = (uint32_t)0U;
  92:../Dave/Generated/src/CCU4GLOBAL/CCU4GLOBAL.c ****   uint32_t Count = 0U;
  43              		.loc 1 92 0
  44 0006 4FF00003 		mov	r3, #0
  45 000a 7B60     		str	r3, [r7, #4]
  93:../Dave/Generated/src/CCU4GLOBAL/CCU4GLOBAL.c ****   
  94:../Dave/Generated/src/CCU4GLOBAL/CCU4GLOBAL.c ****   if(CCU4InitCalled == (uint32_t)0U)
  46              		.loc 1 94 0
  47 000c 40F20003 		movw	r3, #:lower16:CCU4InitCalled.6330
  48 0010 C0F20003 		movt	r3, #:upper16:CCU4InitCalled.6330
  49 0014 1B68     		ldr	r3, [r3, #0]
  50 0016 002B     		cmp	r3, #0
  51 0018 1BD1     		bne	.L1
  95:../Dave/Generated/src/CCU4GLOBAL/CCU4GLOBAL.c ****   {
  96:../Dave/Generated/src/CCU4GLOBAL/CCU4GLOBAL.c ****     /*
  97:../Dave/Generated/src/CCU4GLOBAL/CCU4GLOBAL.c ****      * Each instance of the App brings the module out of reset and enable 
  98:../Dave/Generated/src/CCU4GLOBAL/CCU4GLOBAL.c ****      * the prescalar clock
  99:../Dave/Generated/src/CCU4GLOBAL/CCU4GLOBAL.c ****      */
 100:../Dave/Generated/src/CCU4GLOBAL/CCU4GLOBAL.c ****     for (Count = 0U; Count<(uint32_t)CCU4GLOBAL_NUM_INSTANCES; Count++)
  52              		.loc 1 100 0
  53 001a 4FF00003 		mov	r3, #0
  54 001e 7B60     		str	r3, [r7, #4]
  55 0020 0DE0     		b	.L3
  56              	.L4:
 101:../Dave/Generated/src/CCU4GLOBAL/CCU4GLOBAL.c ****     {
 102:../Dave/Generated/src/CCU4GLOBAL/CCU4GLOBAL.c ****   	  CCU4Global_lInit(CCU4Global_HandleArray[Count]);
  57              		.loc 1 102 0 discriminator 2
  58 0022 40F20003 		movw	r3, #:lower16:CCU4Global_HandleArray
  59 0026 C0F20003 		movt	r3, #:upper16:CCU4Global_HandleArray
  60 002a 7A68     		ldr	r2, [r7, #4]
  61 002c 53F82230 		ldr	r3, [r3, r2, lsl #2]
  62 0030 1846     		mov	r0, r3
  63 0032 FFF7FEFF 		bl	CCU4Global_lInit
 100:../Dave/Generated/src/CCU4GLOBAL/CCU4GLOBAL.c ****     for (Count = 0U; Count<(uint32_t)CCU4GLOBAL_NUM_INSTANCES; Count++)
  64              		.loc 1 100 0 discriminator 2
  65 0036 7B68     		ldr	r3, [r7, #4]
  66 0038 03F10103 		add	r3, r3, #1
  67 003c 7B60     		str	r3, [r7, #4]
  68              	.L3:
 100:../Dave/Generated/src/CCU4GLOBAL/CCU4GLOBAL.c ****     for (Count = 0U; Count<(uint32_t)CCU4GLOBAL_NUM_INSTANCES; Count++)
  69              		.loc 1 100 0 is_stmt 0 discriminator 1
  70 003e 7B68     		ldr	r3, [r7, #4]
  71 0040 002B     		cmp	r3, #0
  72 0042 EED0     		beq	.L4
 103:../Dave/Generated/src/CCU4GLOBAL/CCU4GLOBAL.c ****     }
 104:../Dave/Generated/src/CCU4GLOBAL/CCU4GLOBAL.c **** 
 105:../Dave/Generated/src/CCU4GLOBAL/CCU4GLOBAL.c ****     CCU4InitCalled = (uint32_t)1;
  73              		.loc 1 105 0 is_stmt 1
  74 0044 40F20003 		movw	r3, #:lower16:CCU4InitCalled.6330
  75 0048 C0F20003 		movt	r3, #:upper16:CCU4InitCalled.6330
  76 004c 4FF00102 		mov	r2, #1
  77 0050 1A60     		str	r2, [r3, #0]
  78              	.L1:
 106:../Dave/Generated/src/CCU4GLOBAL/CCU4GLOBAL.c ****   }
 107:../Dave/Generated/src/CCU4GLOBAL/CCU4GLOBAL.c **** }
  79              		.loc 1 107 0
  80 0052 07F10807 		add	r7, r7, #8
  81 0056 BD46     		mov	sp, r7
  82 0058 80BD     		pop	{r7, pc}
  83              		.cfi_endproc
  84              	.LFE112:
  86 005a 00BF     		.section	.text.CCU4Global_lInit,"ax",%progbits
  87              		.align	2
  88              		.thumb
  89              		.thumb_func
  91              	CCU4Global_lInit:
  92              	.LFB113:
 108:../Dave/Generated/src/CCU4GLOBAL/CCU4GLOBAL.c **** 
 109:../Dave/Generated/src/CCU4GLOBAL/CCU4GLOBAL.c **** static void CCU4Global_lInit(const CCU4Global_HandleType * Handle)
 110:../Dave/Generated/src/CCU4GLOBAL/CCU4GLOBAL.c **** {
  93              		.loc 1 110 0
  94              		.cfi_startproc
  95              		@ args = 0, pretend = 0, frame = 8
  96              		@ frame_needed = 1, uses_anonymous_args = 0
  97 0000 80B5     		push	{r7, lr}
  98              	.LCFI3:
  99              		.cfi_def_cfa_offset 8
 100              		.cfi_offset 7, -8
 101              		.cfi_offset 14, -4
 102 0002 82B0     		sub	sp, sp, #8
 103              	.LCFI4:
 104              		.cfi_def_cfa_offset 16
 105 0004 00AF     		add	r7, sp, #0
 106              	.LCFI5:
 107              		.cfi_def_cfa_register 7
 108 0006 7860     		str	r0, [r7, #4]
 111:../Dave/Generated/src/CCU4GLOBAL/CCU4GLOBAL.c ****     if( Handle->KernelNumber <= 2 )
 112:../Dave/Generated/src/CCU4GLOBAL/CCU4GLOBAL.c **** 	{
 113:../Dave/Generated/src/CCU4GLOBAL/CCU4GLOBAL.c **** 		/* Disables the gating for CCU4 kernel */      
 114:../Dave/Generated/src/CCU4GLOBAL/CCU4GLOBAL.c **** 		/*This is applicable for XMC4400,XMC4200 and XMC1xxx Devices*/
 115:../Dave/Generated/src/CCU4GLOBAL/CCU4GLOBAL.c **** 		#if (UC_FAMILY == XMC1 )
 116:../Dave/Generated/src/CCU4GLOBAL/CCU4GLOBAL.c **** 			if (!((uint32_t)SCU_CLK->CGATCLR0 & Handle->ClockGating))
 117:../Dave/Generated/src/CCU4GLOBAL/CCU4GLOBAL.c **** 			{ 
 118:../Dave/Generated/src/CCU4GLOBAL/CCU4GLOBAL.c **** 				SCU_GENERAL->PASSWD = 0x000000C0UL;
 119:../Dave/Generated/src/CCU4GLOBAL/CCU4GLOBAL.c **** 				WR_REG(SCU_CLK->CLKCR, SCU_CLK_CLKCR_CNTADJ_Msk, 
 120:../Dave/Generated/src/CCU4GLOBAL/CCU4GLOBAL.c **** 					   SCU_CLK_CLKCR_CNTADJ_Pos,CCU4GLOBAL_DELAYCNT);
 121:../Dave/Generated/src/CCU4GLOBAL/CCU4GLOBAL.c **** 				
 122:../Dave/Generated/src/CCU4GLOBAL/CCU4GLOBAL.c **** 				SET_BIT(SCU_CLK->CGATCLR0, Handle->ClockGating);
 123:../Dave/Generated/src/CCU4GLOBAL/CCU4GLOBAL.c **** 				while ((uint32_t)SCU_CLK->CLKCR & 
 124:../Dave/Generated/src/CCU4GLOBAL/CCU4GLOBAL.c **** 					   (uint32_t)SCU_CLK_CLKCR_VDDC2LOW_Msk)
 125:../Dave/Generated/src/CCU4GLOBAL/CCU4GLOBAL.c **** 				{
 126:../Dave/Generated/src/CCU4GLOBAL/CCU4GLOBAL.c **** 					;
 127:../Dave/Generated/src/CCU4GLOBAL/CCU4GLOBAL.c **** 				}
 128:../Dave/Generated/src/CCU4GLOBAL/CCU4GLOBAL.c **** 				SCU_GENERAL->PASSWD = 0x000000C3UL;
 129:../Dave/Generated/src/CCU4GLOBAL/CCU4GLOBAL.c **** 			}
 130:../Dave/Generated/src/CCU4GLOBAL/CCU4GLOBAL.c **** 		#endif
 131:../Dave/Generated/src/CCU4GLOBAL/CCU4GLOBAL.c **** 		#if ((__TARGET_DEVICE__ == XMC42) || (__TARGET_DEVICE__ == XMC44))
 132:../Dave/Generated/src/CCU4GLOBAL/CCU4GLOBAL.c ****             	SET_BIT(SCU_CLK->CGATCLR0, Handle->ClockGating);
 133:../Dave/Generated/src/CCU4GLOBAL/CCU4GLOBAL.c **** 		#endif
 134:../Dave/Generated/src/CCU4GLOBAL/CCU4GLOBAL.c **** 	}
 135:../Dave/Generated/src/CCU4GLOBAL/CCU4GLOBAL.c **** 	#if (__TARGET_DEVICE__ == XMC44)		    
 136:../Dave/Generated/src/CCU4GLOBAL/CCU4GLOBAL.c **** 	else
 137:../Dave/Generated/src/CCU4GLOBAL/CCU4GLOBAL.c **** 	{   
 138:../Dave/Generated/src/CCU4GLOBAL/CCU4GLOBAL.c **** 			SET_BIT(SCU_CLK->CGATCLR1, Handle->ClockGating);
 139:../Dave/Generated/src/CCU4GLOBAL/CCU4GLOBAL.c **** 	}
 140:../Dave/Generated/src/CCU4GLOBAL/CCU4GLOBAL.c **** 	#endif
 141:../Dave/Generated/src/CCU4GLOBAL/CCU4GLOBAL.c **** 	
 142:../Dave/Generated/src/CCU4GLOBAL/CCU4GLOBAL.c **** 	#if (UC_FAMILY == XMC4)
 143:../Dave/Generated/src/CCU4GLOBAL/CCU4GLOBAL.c **** 		/* Deassert the peripheral */
 144:../Dave/Generated/src/CCU4GLOBAL/CCU4GLOBAL.c **** 		/*This is applicable for XMC4500, XMC4400 and XMC4200 Devices*/
 145:../Dave/Generated/src/CCU4GLOBAL/CCU4GLOBAL.c **** 		RESET001_DeassertReset(Handle->PeripheralReset);
 109              		.loc 1 145 0
 110 0008 7B68     		ldr	r3, [r7, #4]
 111 000a 9B68     		ldr	r3, [r3, #8]
 112 000c 1846     		mov	r0, r3
 113 000e FFF7FEFF 		bl	RESET001_DeassertReset
 146:../Dave/Generated/src/CCU4GLOBAL/CCU4GLOBAL.c **** 	#endif    
 147:../Dave/Generated/src/CCU4GLOBAL/CCU4GLOBAL.c **** 
 148:../Dave/Generated/src/CCU4GLOBAL/CCU4GLOBAL.c **** 		
 149:../Dave/Generated/src/CCU4GLOBAL/CCU4GLOBAL.c ****     /* Sets Run bit of the Prescalar */
 150:../Dave/Generated/src/CCU4GLOBAL/CCU4GLOBAL.c ****     SET_BIT(Handle->CC4yKernRegsPtr->GIDLC,CCU4_GIDLC_SPRB_Pos);
 114              		.loc 1 150 0
 115 0012 7B68     		ldr	r3, [r7, #4]
 116 0014 1B68     		ldr	r3, [r3, #0]
 117 0016 7A68     		ldr	r2, [r7, #4]
 118 0018 1268     		ldr	r2, [r2, #0]
 119 001a D268     		ldr	r2, [r2, #12]
 120 001c 42F48072 		orr	r2, r2, #256
 121 0020 DA60     		str	r2, [r3, #12]
 151:../Dave/Generated/src/CCU4GLOBAL/CCU4GLOBAL.c **** 
 152:../Dave/Generated/src/CCU4GLOBAL/CCU4GLOBAL.c **** }
 122              		.loc 1 152 0
 123 0022 07F10807 		add	r7, r7, #8
 124 0026 BD46     		mov	sp, r7
 125 0028 80BD     		pop	{r7, pc}
 126              		.cfi_endproc
 127              	.LFE113:
 129 002a 00BF     		.bss
 130              		.align	2
 131              	CCU4InitCalled.6330:
 132 0000 00000000 		.space	4
 133              		.text
 134              	.Letext0:
 135              		.file 2 "c:\\dave-3.1.10\\arm-gcc\\bin\\../lib/gcc/arm-none-eabi/4.7.4/../../../../arm-none-eabi/i
 136              		.file 3 "C:\\DAVE-3.1.10\\eclipse\\/../CMSIS/Infineon/XMC4500_series/Include/XMC4500.h"
 137              		.file 4 "../Dave/Generated/src/CCU4GLOBAL/../../inc/CCU4GLOBAL/CCU4GLOBAL.h"
 138              		.file 5 "C:\\DAVE-3.1.10\\eclipse\\/../CMSIS/Include/core_cm4.h"
 139              		.file 6 "../Dave/Generated/src/CCU4GLOBAL/../../inc/CCU4GLOBAL/CCU4Global_Extern.h"