   1              		.syntax unified
   2              		.cpu cortex-m4
   3              		.eabi_attribute 27, 3
   4              		.fpu fpv4-sp-d16
   5              		.eabi_attribute 20, 1
   6              		.eabi_attribute 21, 1
   7              		.eabi_attribute 23, 3
   8              		.eabi_attribute 24, 1
   9              		.eabi_attribute 25, 1
  10              		.eabi_attribute 26, 1
  11              		.eabi_attribute 30, 4
  12              		.eabi_attribute 34, 1
  13              		.eabi_attribute 18, 4
  14              		.thumb
  15              		.file	"SYSTM001.c"
  16              		.section	.text.SYSTM001_lInsertTimerList,"ax",%progbits
  17              		.align	1
  18              		.thumb
  19              		.thumb_func
  21              	SYSTM001_lInsertTimerList:
  22              		@ args = 0, pretend = 0, frame = 0
  23              		@ frame_needed = 0, uses_anonymous_args = 0
  24 0000 70B5     		push	{r4, r5, r6, lr}
  25 0002 184B     		ldr	r3, .L11
  26 0004 184C     		ldr	r4, .L11+4
  27 0006 1968     		ldr	r1, [r3, #0]
  28 0008 04EB4014 		add	r4, r4, r0, lsl #5
  29 000c A268     		ldr	r2, [r4, #8]
  30 000e 09B9     		cbnz	r1, .L2
  31 0010 1C60     		str	r4, [r3, #0]
  32 0012 70BD     		pop	{r4, r5, r6, pc}
  33              	.L2:
  34 0014 0B46     		mov	r3, r1
  35              	.L7:
  36 0016 9C68     		ldr	r4, [r3, #8]
  37 0018 121B     		subs	r2, r2, r4
  38 001a 18D5     		bpl	.L4
  39 001c DD69     		ldr	r5, [r3, #28]
  40 001e 124C     		ldr	r4, .L11+4
  41 0020 4601     		lsls	r6, r0, #5
  42 0022 2DB1     		cbz	r5, .L5
  43 0024 A119     		adds	r1, r4, r6
  44 0026 A961     		str	r1, [r5, #24]
  45 0028 CD61     		str	r5, [r1, #28]
  46 002a 8B61     		str	r3, [r1, #24]
  47 002c D961     		str	r1, [r3, #28]
  48 002e 04E0     		b	.L6
  49              	.L5:
  50 0030 A319     		adds	r3, r4, r6
  51 0032 CB61     		str	r3, [r1, #28]
  52 0034 9961     		str	r1, [r3, #24]
  53 0036 0B49     		ldr	r1, .L11
  54 0038 0B60     		str	r3, [r1, #0]
  55              	.L6:
  56 003a 04EB4010 		add	r0, r4, r0, lsl #5
  57 003e 8369     		ldr	r3, [r0, #24]
  58 0040 9968     		ldr	r1, [r3, #8]
  59 0042 5218     		adds	r2, r2, r1
  60 0044 8260     		str	r2, [r0, #8]
  61 0046 9868     		ldr	r0, [r3, #8]
  62 0048 811A     		subs	r1, r0, r2
  63 004a 9960     		str	r1, [r3, #8]
  64 004c 70BD     		pop	{r4, r5, r6, pc}
  65              	.L4:
  66 004e 9C69     		ldr	r4, [r3, #24]
  67 0050 0CB1     		cbz	r4, .L10
  68              	.L8:
  69 0052 2346     		mov	r3, r4
  70 0054 DFE7     		b	.L7
  71              	.L10:
  72 0056 0449     		ldr	r1, .L11+4
  73 0058 01EB4010 		add	r0, r1, r0, lsl #5
  74 005c 9861     		str	r0, [r3, #24]
  75 005e C361     		str	r3, [r0, #28]
  76 0060 8260     		str	r2, [r0, #8]
  77 0062 70BD     		pop	{r4, r5, r6, pc}
  78              	.L12:
  79              		.align	2
  80              	.L11:
  81 0064 00000000 		.word	.LANCHOR0
  82 0068 00000000 		.word	TimerTbl
  84              		.section	.text.SYSTM001_lRemoveTimerList,"ax",%progbits
  85              		.align	1
  86              		.thumb
  87              		.thumb_func
  89              	SYSTM001_lRemoveTimerList:
  90              		@ args = 0, pretend = 0, frame = 0
  91              		@ frame_needed = 0, uses_anonymous_args = 0
  92 0000 0E4B     		ldr	r3, .L19
  93 0002 03EB4010 		add	r0, r3, r0, lsl #5
  94 0006 10B5     		push	{r4, lr}
  95 0008 C269     		ldr	r2, [r0, #28]
  96 000a 8369     		ldr	r3, [r0, #24]
  97 000c 52B9     		cbnz	r2, .L14
  98 000e 0C49     		ldr	r1, .L19+4
  99 0010 0B60     		str	r3, [r1, #0]
 100 0012 03B9     		cbnz	r3, .L15
 101 0014 10BD     		pop	{r4, pc}
 102              	.L15:
 103 0016 9C68     		ldr	r4, [r3, #8]
 104 0018 8168     		ldr	r1, [r0, #8]
 105 001a DA61     		str	r2, [r3, #28]
 106 001c 6118     		adds	r1, r4, r1
 107 001e 9960     		str	r1, [r3, #8]
 108 0020 8261     		str	r2, [r0, #24]
 109 0022 10BD     		pop	{r4, pc}
 110              	.L14:
 111 0024 9361     		str	r3, [r2, #24]
 112 0026 3BB1     		cbz	r3, .L18
 113              	.L17:
 114 0028 8369     		ldr	r3, [r0, #24]
 115 002a 9968     		ldr	r1, [r3, #8]
 116 002c DA61     		str	r2, [r3, #28]
 117 002e 8268     		ldr	r2, [r0, #8]
 118 0030 8918     		adds	r1, r1, r2
 119 0032 9960     		str	r1, [r3, #8]
 120 0034 0023     		movs	r3, #0
 121 0036 8361     		str	r3, [r0, #24]
 122              	.L18:
 123 0038 C361     		str	r3, [r0, #28]
 124 003a 10BD     		pop	{r4, pc}
 125              	.L20:
 126              		.align	2
 127              	.L19:
 128 003c 00000000 		.word	TimerTbl
 129 0040 00000000 		.word	.LANCHOR0
 131              		.section	.text.SysTick_Handler,"ax",%progbits
 132              		.align	1
 133              		.global	SysTick_Handler
 134              		.thumb
 135              		.thumb_func
 137              	SysTick_Handler:
 138              		@ args = 0, pretend = 0, frame = 0
 139              		@ frame_needed = 0, uses_anonymous_args = 0
 140 0000 154B     		ldr	r3, .L34
 141 0002 5A68     		ldr	r2, [r3, #4]
 142 0004 10B5     		push	{r4, lr}
 143 0006 1C68     		ldr	r4, [r3, #0]
 144 0008 501C     		adds	r0, r2, #1
 145 000a 5860     		str	r0, [r3, #4]
 146 000c 14B3     		cbz	r4, .L21
 147 000e A168     		ldr	r1, [r4, #8]
 148 0010 0129     		cmp	r1, #1
 149 0012 02D9     		bls	.L24
 150 0014 481E     		subs	r0, r1, #1
 151 0016 A060     		str	r0, [r4, #8]
 152 0018 10BD     		pop	{r4, pc}
 153              	.L24:
 154 001a 0023     		movs	r3, #0
 155 001c A360     		str	r3, [r4, #8]
 156              	.L25:
 157 001e A268     		ldr	r2, [r4, #8]
 158 0020 C2B9     		cbnz	r2, .L21
 159              	.L29:
 160 0022 2079     		ldrb	r0, [r4, #4]	@ zero_extendqisi2
 161 0024 28B9     		cbnz	r0, .L26
 162 0026 2068     		ldr	r0, [r4, #0]
 163 0028 FFF7FEFF 		bl	SYSTM001_lRemoveTimerList
 164 002c 0123     		movs	r3, #1
 165 002e 6371     		strb	r3, [r4, #5]
 166 0030 09E0     		b	.L33
 167              	.L26:
 168 0032 0128     		cmp	r0, #1
 169 0034 0ED1     		bne	.L21
 170 0036 2068     		ldr	r0, [r4, #0]
 171 0038 FFF7FEFF 		bl	SYSTM001_lRemoveTimerList
 172 003c E168     		ldr	r1, [r4, #12]
 173 003e 2068     		ldr	r0, [r4, #0]
 174 0040 A160     		str	r1, [r4, #8]
 175 0042 FFF7FEFF 		bl	SYSTM001_lInsertTimerList
 176              	.L33:
 177 0046 2269     		ldr	r2, [r4, #16]
 178 0048 6069     		ldr	r0, [r4, #20]
 179 004a 034C     		ldr	r4, .L34
 180 004c 9047     		blx	r2
 181 004e 2468     		ldr	r4, [r4, #0]
 182 0050 002C     		cmp	r4, #0
 183 0052 E4D1     		bne	.L25
 184              	.L21:
 185 0054 10BD     		pop	{r4, pc}
 186              	.L35:
 187 0056 00BF     		.align	2
 188              	.L34:
 189 0058 00000000 		.word	.LANCHOR0
 191              		.section	.text.SYSTM001_Init,"ax",%progbits
 192              		.align	1
 193              		.global	SYSTM001_Init
 194              		.thumb
 195              		.thumb_func
 197              	SYSTM001_Init:
 198              		@ args = 0, pretend = 0, frame = 0
 199              		@ frame_needed = 0, uses_anonymous_args = 0
 200 0000 144B     		ldr	r3, .L39
 201 0002 10B5     		push	{r4, lr}
 202 0004 0024     		movs	r4, #0
 203 0006 1C60     		str	r4, [r3, #0]
 204 0008 FFF7FEFF 		bl	CLK001_Init
 205 000c 1248     		ldr	r0, .L39+4
 206 000e 134A     		ldr	r2, .L39+8
 207 0010 134B     		ldr	r3, .L39+12
 208 0012 4260     		str	r2, [r0, #4]
 209 0014 FC21     		movs	r1, #252
 210 0016 0722     		movs	r2, #7
 211 0018 83F82310 		strb	r1, [r3, #35]
 212 001c 8460     		str	r4, [r0, #8]
 213 001e 0260     		str	r2, [r0, #0]
 214 0020 D868     		ldr	r0, [r3, #12]
 215 0022 C0F30223 		ubfx	r3, r0, #8, #3
 216 0026 D21A     		subs	r2, r2, r3
 217 0028 062A     		cmp	r2, #6
 218 002a 28BF     		it	cs
 219 002c 0622     		movcs	r2, #6
 220 002e 03B1     		cbz	r3, .L37
 221 0030 013B     		subs	r3, r3, #1
 222              	.L37:
 223 0032 0121     		movs	r1, #1
 224 0034 01FA02F0 		lsl	r0, r1, r2
 225 0038 421E     		subs	r2, r0, #1
 226 003a 02F00A01 		and	r1, r2, #10
 227 003e 01FA03F3 		lsl	r3, r1, r3
 228 0042 9800     		lsls	r0, r3, #2
 229 0044 064A     		ldr	r2, .L39+12
 230 0046 034B     		ldr	r3, .L39
 231 0048 C1B2     		uxtb	r1, r0
 232 004a 0020     		movs	r0, #0
 233 004c 82F82310 		strb	r1, [r2, #35]
 234 0050 9860     		str	r0, [r3, #8]
 235 0052 10BD     		pop	{r4, pc}
 236              	.L40:
 237              		.align	2
 238              	.L39:
 239 0054 00000000 		.word	.LANCHOR0
 240 0058 10E000E0 		.word	-536813552
 241 005c BFD40100 		.word	119999
 242 0060 00ED00E0 		.word	-536810240
 244              		.section	.text.SYSTM001_CreateTimer,"ax",%progbits
 245              		.align	1
 246              		.global	SYSTM001_CreateTimer
 247              		.thumb
 248              		.thumb_func
 250              	SYSTM001_CreateTimer:
 251              		@ args = 0, pretend = 0, frame = 0
 252              		@ frame_needed = 0, uses_anonymous_args = 0
 253 0000 2DE9F041 		push	{r4, r5, r6, r7, r8, lr}
 254 0004 60B3     		cbz	r0, .L52
 255 0006 42B3     		cbz	r2, .L48
 256              	.L53:
 257 0008 0129     		cmp	r1, #1
 258 000a 26D8     		bhi	.L48
 259 000c 154E     		ldr	r6, .L54
 260 000e B568     		ldr	r5, [r6, #8]
 261 0010 0024     		movs	r4, #0
 262 0012 B446     		mov	ip, r6
 263              	.L45:
 264 0014 25FA04F6 		lsr	r6, r5, r4
 265 0018 16F00106 		ands	r6, r6, #1
 266 001c 1AD1     		bne	.L44
 267 001e 0127     		movs	r7, #1
 268 0020 07FA04F8 		lsl	r8, r7, r4
 269 0024 48EA0505 		orr	r5, r8, r5
 270 0028 DFF83C80 		ldr	r8, .L54+4
 271 002c CCF80850 		str	r5, [ip, #8]
 272 0030 4FEA441C 		lsl	ip, r4, #5
 273 0034 08EB0C05 		add	r5, r8, ip
 274 0038 48F80C40 		str	r4, [r8, ip]
 275 003c 2971     		strb	r1, [r5, #4]
 276 003e C119     		adds	r1, r0, r7
 277 0040 E860     		str	r0, [r5, #12]
 278 0042 6F71     		strb	r7, [r5, #5]
 279 0044 A960     		str	r1, [r5, #8]
 280 0046 2A61     		str	r2, [r5, #16]
 281 0048 6B61     		str	r3, [r5, #20]
 282 004a EE61     		str	r6, [r5, #28]
 283 004c AE61     		str	r6, [r5, #24]
 284 004e E019     		adds	r0, r4, r7
 285 0050 BDE8F081 		pop	{r4, r5, r6, r7, r8, pc}
 286              	.L44:
 287 0054 0134     		adds	r4, r4, #1
 288 0056 202C     		cmp	r4, #32
 289 0058 DCD1     		bne	.L45
 290              	.L48:
 291 005a 0020     		movs	r0, #0
 292 005c BDE8F081 		pop	{r4, r5, r6, r7, r8, pc}
 293              	.L52:
 294 0060 BDE8F081 		pop	{r4, r5, r6, r7, r8, pc}
 295              	.L55:
 296              		.align	2
 297              	.L54:
 298 0064 00000000 		.word	.LANCHOR0
 299 0068 00000000 		.word	TimerTbl
 301              		.section	.text.SYSTM001_StartTimer,"ax",%progbits
 302              		.align	1
 303              		.global	SYSTM001_StartTimer
 304              		.thumb
 305              		.thumb_func
 307              	SYSTM001_StartTimer:
 308              		@ args = 0, pretend = 0, frame = 0
 309              		@ frame_needed = 0, uses_anonymous_args = 0
 310 0000 0E4A     		ldr	r2, .L65
 311 0002 9168     		ldr	r1, [r2, #8]
 312 0004 431E     		subs	r3, r0, #1
 313 0006 21FA03F1 		lsr	r1, r1, r3
 314 000a CA07     		lsls	r2, r1, #31
 315 000c 10B5     		push	{r4, lr}
 316 000e 04D5     		bpl	.L59
 317 0010 2028     		cmp	r0, #32
 318 0012 94BF     		ite	ls
 319 0014 0024     		movls	r4, #0
 320 0016 0124     		movhi	r4, #1
 321 0018 00E0     		b	.L57
 322              	.L59:
 323 001a 0124     		movs	r4, #1
 324              	.L57:
 325 001c 0848     		ldr	r0, .L65+4
 326 001e 00EB4312 		add	r2, r0, r3, lsl #5
 327 0022 9168     		ldr	r1, [r2, #8]
 328 0024 39B1     		cbz	r1, .L61
 329 0026 34B9     		cbnz	r4, .L61
 330 0028 5079     		ldrb	r0, [r2, #5]	@ zero_extendqisi2
 331 002a 28B1     		cbz	r0, .L58
 332 002c 5471     		strb	r4, [r2, #5]
 333 002e 1846     		mov	r0, r3
 334 0030 FFF7FEFF 		bl	SYSTM001_lInsertTimerList
 335 0034 00E0     		b	.L58
 336              	.L61:
 337 0036 0124     		movs	r4, #1
 338              	.L58:
 339 0038 2046     		mov	r0, r4
 340 003a 10BD     		pop	{r4, pc}
 341              	.L66:
 342              		.align	2
 343              	.L65:
 344 003c 00000000 		.word	.LANCHOR0
 345 0040 00000000 		.word	TimerTbl
 347              		.section	.text.SYSTM001_StopTimer,"ax",%progbits
 348              		.align	1
 349              		.global	SYSTM001_StopTimer
 350              		.thumb
 351              		.thumb_func
 353              	SYSTM001_StopTimer:
 354              		@ args = 0, pretend = 0, frame = 0
 355              		@ frame_needed = 0, uses_anonymous_args = 0
 356 0000 0C4A     		ldr	r2, .L72
 357 0002 9168     		ldr	r1, [r2, #8]
 358 0004 431E     		subs	r3, r0, #1
 359 0006 21FA03F1 		lsr	r1, r1, r3
 360 000a C907     		lsls	r1, r1, #31
 361 000c 10B5     		push	{r4, lr}
 362 000e 0DD5     		bpl	.L70
 363 0010 2028     		cmp	r0, #32
 364 0012 0BD8     		bhi	.L70
 365 0014 084C     		ldr	r4, .L72+4
 366 0016 04EB4314 		add	r4, r4, r3, lsl #5
 367 001a 6079     		ldrb	r0, [r4, #5]	@ zero_extendqisi2
 368 001c 0128     		cmp	r0, #1
 369 001e 07D0     		beq	.L71
 370 0020 1846     		mov	r0, r3
 371 0022 FFF7FEFF 		bl	SYSTM001_lRemoveTimerList
 372 0026 0123     		movs	r3, #1
 373 0028 6371     		strb	r3, [r4, #5]
 374 002a 01E0     		b	.L71
 375              	.L70:
 376 002c 0120     		movs	r0, #1
 377 002e 10BD     		pop	{r4, pc}
 378              	.L71:
 379 0030 0020     		movs	r0, #0
 380 0032 10BD     		pop	{r4, pc}
 381              	.L73:
 382              		.align	2
 383              	.L72:
 384 0034 00000000 		.word	.LANCHOR0
 385 0038 00000000 		.word	TimerTbl
 387              		.section	.text.SYSTM001_DeleteTimer,"ax",%progbits
 388              		.align	1
 389              		.global	SYSTM001_DeleteTimer
 390              		.thumb
 391              		.thumb_func
 393              	SYSTM001_DeleteTimer:
 394              		@ args = 0, pretend = 0, frame = 0
 395              		@ frame_needed = 0, uses_anonymous_args = 0
 396 0000 0E4B     		ldr	r3, .L79
 397 0002 9968     		ldr	r1, [r3, #8]
 398 0004 10B5     		push	{r4, lr}
 399 0006 441E     		subs	r4, r0, #1
 400 0008 21FA04F1 		lsr	r1, r1, r4
 401 000c CB07     		lsls	r3, r1, #31
 402 000e 13D5     		bpl	.L78
 403 0010 2028     		cmp	r0, #32
 404 0012 11D8     		bhi	.L78
 405 0014 0A48     		ldr	r0, .L79+4
 406 0016 00EB4412 		add	r2, r0, r4, lsl #5
 407 001a 5379     		ldrb	r3, [r2, #5]	@ zero_extendqisi2
 408 001c 13B9     		cbnz	r3, .L76
 409 001e 2046     		mov	r0, r4
 410 0020 FFF7FEFF 		bl	SYSTM001_lRemoveTimerList
 411              	.L76:
 412 0024 0549     		ldr	r1, .L79
 413 0026 0120     		movs	r0, #1
 414 0028 8A68     		ldr	r2, [r1, #8]
 415 002a 00FA04F4 		lsl	r4, r0, r4
 416 002e 22EA0402 		bic	r2, r2, r4
 417 0032 8A60     		str	r2, [r1, #8]
 418 0034 0020     		movs	r0, #0
 419 0036 10BD     		pop	{r4, pc}
 420              	.L78:
 421 0038 0120     		movs	r0, #1
 422 003a 10BD     		pop	{r4, pc}
 423              	.L80:
 424              		.align	2
 425              	.L79:
 426 003c 00000000 		.word	.LANCHOR0
 427 0040 00000000 		.word	TimerTbl
 429              		.section	.text.SYSTM001_GetTime,"ax",%progbits
 430              		.align	1
 431              		.global	SYSTM001_GetTime
 432              		.thumb
 433              		.thumb_func
 435              	SYSTM001_GetTime:
 436              		@ args = 0, pretend = 0, frame = 0
 437              		@ frame_needed = 0, uses_anonymous_args = 0
 438              		@ link register save eliminated.
 439 0000 014B     		ldr	r3, .L82
 440 0002 5868     		ldr	r0, [r3, #4]
 441 0004 7047     		bx	lr
 442              	.L83:
 443 0006 00BF     		.align	2
 444              	.L82:
 445 0008 00000000 		.word	.LANCHOR0
 447              		.section	.text.SYSTM001_GetSysTickCount,"ax",%progbits
 448              		.align	1
 449              		.global	SYSTM001_GetSysTickCount
 450              		.thumb
 451              		.thumb_func
 453              	SYSTM001_GetSysTickCount:
 454              		@ args = 0, pretend = 0, frame = 0
 455              		@ frame_needed = 0, uses_anonymous_args = 0
 456              		@ link register save eliminated.
 457 0000 014B     		ldr	r3, .L85
 458 0002 5843     		muls	r0, r3, r0
 459 0004 7047     		bx	lr
 460              	.L86:
 461 0006 00BF     		.align	2
 462              	.L85:
 463 0008 C0D40100 		.word	120000
 465              		.global	SysTickCount
 466              		.global	TimerTracker
 467              		.global	TimerList
 468              		.comm	TimerTbl,1024,4
 469              		.bss
 470              		.align	2
 471              		.set	.LANCHOR0,. + 0
 474              	TimerList:
 475 0000 00000000 		.space	4
 478              	SysTickCount:
 479 0004 00000000 		.space	4
 482              	TimerTracker:
 483 0008 00000000 		.space	4
 484              		.ident	"GCC: (GNU Tools for ARM Embedded Processors) 4.7.4 20130913 (release) [ARM/embedded-4_7-br