   1              		.cpu cortex-m0
   2              		.fpu softvfp
   3              		.eabi_attribute 20, 1
   4              		.eabi_attribute 21, 1
   5              		.eabi_attribute 23, 3
   6              		.eabi_attribute 24, 1
   7              		.eabi_attribute 25, 1
   8              		.eabi_attribute 26, 1
   9              		.eabi_attribute 30, 6
  10              		.eabi_attribute 34, 0
  11              		.eabi_attribute 18, 4
  12              		.code	16
  13              		.file	"IO004.c"
  14              		.text
  15              	.Ltext0:
  16              		.cfi_sections	.debug_frame
  17              		.section	.text.IO004_Init,"ax",%progbits
  18              		.align	2
  19              		.global	IO004_Init
  20              		.code	16
  21              		.thumb_func
  23              	IO004_Init:
  24              	.LFB38:
  25              		.file 1 "../Dave/Generated/src/IO004/IO004.c"
   1:../Dave/Generated/src/IO004/IO004.c **** /*******************************************************************************
   2:../Dave/Generated/src/IO004/IO004.c **** **  DAVE App Name : IO004       App Version: 1.0.22               
   3:../Dave/Generated/src/IO004/IO004.c **** **  This file is generated by DAVE, User modification to this file will be    **
   4:../Dave/Generated/src/IO004/IO004.c **** **  overwritten at the next code generation.                                  **
   5:../Dave/Generated/src/IO004/IO004.c **** *******************************************************************************/
   6:../Dave/Generated/src/IO004/IO004.c **** 
   7:../Dave/Generated/src/IO004/IO004.c **** 
   8:../Dave/Generated/src/IO004/IO004.c **** /*CODE_BLOCK_BEGIN[IO004.c]*/
   9:../Dave/Generated/src/IO004/IO004.c **** /*******************************************************************************
  10:../Dave/Generated/src/IO004/IO004.c ****  Copyright (c) 2012, Infineon Technologies AG                                 **
  11:../Dave/Generated/src/IO004/IO004.c ****  All rights reserved.                                                         **
  12:../Dave/Generated/src/IO004/IO004.c ****                                                                               **
  13:../Dave/Generated/src/IO004/IO004.c ****  Redistribution and use in source and binary forms, with or without           **
  14:../Dave/Generated/src/IO004/IO004.c ****  modification,are permitted provided that the following conditions are met:   **
  15:../Dave/Generated/src/IO004/IO004.c ****                                                                               **
  16:../Dave/Generated/src/IO004/IO004.c ****  *Redistributions of source code must retain the above copyright notice,      **
  17:../Dave/Generated/src/IO004/IO004.c ****  this list of conditions and the following disclaimer.                        **
  18:../Dave/Generated/src/IO004/IO004.c ****  *Redistributions in binary form must reproduce the above copyright notice,   **
  19:../Dave/Generated/src/IO004/IO004.c ****  this list of conditions and the following disclaimer in the documentation    **
  20:../Dave/Generated/src/IO004/IO004.c ****  and/or other materials provided with the distribution.                       **
  21:../Dave/Generated/src/IO004/IO004.c ****  *Neither the name of the copyright holders nor the names of its contributors **
  22:../Dave/Generated/src/IO004/IO004.c ****  may be used to endorse or promote products derived from this software without**
  23:../Dave/Generated/src/IO004/IO004.c ****  specific prior written permission.                                           **
  24:../Dave/Generated/src/IO004/IO004.c ****                                                                               **
  25:../Dave/Generated/src/IO004/IO004.c ****  THIS SOFTWARE IS PROVIDED BY THE COPYRIGHT HOLDERS AND CONTRIBUTORS "AS IS"  **
  26:../Dave/Generated/src/IO004/IO004.c ****  AND ANY EXPRESS OR IMPLIED WARRANTIES, INCLUDING, BUT NOT LIMITED TO, THE    **
  27:../Dave/Generated/src/IO004/IO004.c ****  IMPLIED WARRANTIES OF MERCHANTABILITY AND FITNESS FOR A PARTICULAR PURPOSE   **
  28:../Dave/Generated/src/IO004/IO004.c ****  ARE  DISCLAIMED. IN NO EVENT SHALL THE COPYRIGHT HOLDER OR CONTRIBUTORS BE   **
  29:../Dave/Generated/src/IO004/IO004.c ****  LIABLE  FOR ANY DIRECT, INDIRECT, INCIDENTAL, SPECIAL, EXEMPLARY, OR         **
  30:../Dave/Generated/src/IO004/IO004.c ****  CONSEQUENTIAL DAMAGES (INCLUDING, BUT NOT LIMITED TO, PROCUREMENT OF         **
  31:../Dave/Generated/src/IO004/IO004.c ****  SUBSTITUTE GOODS OR  SERVICES; LOSS OF USE, DATA, OR PROFITS; OR BUSINESS    **
  32:../Dave/Generated/src/IO004/IO004.c ****  INTERRUPTION) HOWEVER CAUSED AND ON ANY THEORY OF LIABILITY, WHETHER IN      **
  33:../Dave/Generated/src/IO004/IO004.c ****  CONTRACT, STRICT LIABILITY,OR TORT (INCLUDING NEGLIGENCE OR OTHERWISE)       **
  34:../Dave/Generated/src/IO004/IO004.c ****  ARISING IN ANY WAY OUT OF THE USE OF THIS SOFTWARE, EVEN IF ADVISED OF THE   **
  35:../Dave/Generated/src/IO004/IO004.c ****  POSSIBILITY OF SUCH DAMAGE.                                                  **
  36:../Dave/Generated/src/IO004/IO004.c ****                                                                               **
  37:../Dave/Generated/src/IO004/IO004.c ****  To improve the quality of the software, users are encouraged to share        **
  38:../Dave/Generated/src/IO004/IO004.c ****  modifications, enhancements or bug fixes with Infineon Technologies AG       **
  39:../Dave/Generated/src/IO004/IO004.c ****  dave@infineon.com).                                                          **
  40:../Dave/Generated/src/IO004/IO004.c ****                                                                               **
  41:../Dave/Generated/src/IO004/IO004.c **** ********************************************************************************
  42:../Dave/Generated/src/IO004/IO004.c **** **                                                                            **
  43:../Dave/Generated/src/IO004/IO004.c **** **                                                                            **
  44:../Dave/Generated/src/IO004/IO004.c **** ** PLATFORM : Infineon XMC4000/XMC1000 Series                                 **
  45:../Dave/Generated/src/IO004/IO004.c **** **                                                                            **
  46:../Dave/Generated/src/IO004/IO004.c **** ** COMPILER : Compiler Independent                                            **
  47:../Dave/Generated/src/IO004/IO004.c **** **                                                                            **
  48:../Dave/Generated/src/IO004/IO004.c **** ** AUTHOR   : App Developer                                                   **
  49:../Dave/Generated/src/IO004/IO004.c **** **                                                                            **
  50:../Dave/Generated/src/IO004/IO004.c **** ** MAY BE CHANGED BY USER [yes/no]: Yes                                       **
  51:../Dave/Generated/src/IO004/IO004.c **** **                                                                            **
  52:../Dave/Generated/src/IO004/IO004.c **** ** MODIFICATION DATE : Mar 16, 2013                                           **
  53:../Dave/Generated/src/IO004/IO004.c **** **                                                                            **
  54:../Dave/Generated/src/IO004/IO004.c **** *******************************************************************************/
  55:../Dave/Generated/src/IO004/IO004.c **** /*******************************************************************************
  56:../Dave/Generated/src/IO004/IO004.c **** **                      Author(s) Identity                                    **
  57:../Dave/Generated/src/IO004/IO004.c **** ********************************************************************************
  58:../Dave/Generated/src/IO004/IO004.c **** **                                                                            **
  59:../Dave/Generated/src/IO004/IO004.c **** ** Initials     Name                                                          **
  60:../Dave/Generated/src/IO004/IO004.c **** ** ---------------------------------------------------------------------------**
  61:../Dave/Generated/src/IO004/IO004.c **** ** PAE        App Developer                                                   **
  62:../Dave/Generated/src/IO004/IO004.c **** *******************************************************************************/
  63:../Dave/Generated/src/IO004/IO004.c **** /**
  64:../Dave/Generated/src/IO004/IO004.c ****  * @file   IO004.c
  65:../Dave/Generated/src/IO004/IO004.c ****  *
  66:../Dave/Generated/src/IO004/IO004.c ****  * @brief  IO_Digital _IO004 App
  67:../Dave/Generated/src/IO004/IO004.c ****  *
  68:../Dave/Generated/src/IO004/IO004.c ****  * This app can be used to configure a IO Pin when the output shall be 
  69:../Dave/Generated/src/IO004/IO004.c ****  * controlled by software or when it required  just as a input I/O.IO002 App can 
  70:../Dave/Generated/src/IO004/IO004.c ****  * be used in any case except when the output shall be controlled by software.			
  71:../Dave/Generated/src/IO004/IO004.c ****  *
  72:../Dave/Generated/src/IO004/IO004.c ****  *	Note: 
  73:../Dave/Generated/src/IO004/IO004.c ****  *	The App GUI configures the Port Pin as GPIO in input mode by default.
  74:../Dave/Generated/src/IO004/IO004.c ****  */
  75:../Dave/Generated/src/IO004/IO004.c **** /* Revision History 
  76:../Dave/Generated/src/IO004/IO004.c ****  *
  77:../Dave/Generated/src/IO004/IO004.c ****  * 01 Jan 2013  v1.0.12  Disabled Pad Class & Pad driver configuration for 
  78:../Dave/Generated/src/IO004/IO004.c ****  *                       XMC1000.
  79:../Dave/Generated/src/IO004/IO004.c ****  * 16 Mar 2013  v1.0.14  Modified OMR register configuration (Direct assignment 
  80:../Dave/Generated/src/IO004/IO004.c ****  *                       without reading) to upgrade performance.
  81:../Dave/Generated/src/IO004/IO004.c ****  *
  82:../Dave/Generated/src/IO004/IO004.c ****  */
  83:../Dave/Generated/src/IO004/IO004.c **** /*******************************************************************************
  84:../Dave/Generated/src/IO004/IO004.c ****  ** INCLUDE FILES                                                             **
  85:../Dave/Generated/src/IO004/IO004.c ****  ******************************************************************************/
  86:../Dave/Generated/src/IO004/IO004.c **** 
  87:../Dave/Generated/src/IO004/IO004.c **** /** Inclusion of header file */
  88:../Dave/Generated/src/IO004/IO004.c **** #include <DAVE3.h>
  89:../Dave/Generated/src/IO004/IO004.c **** 
  90:../Dave/Generated/src/IO004/IO004.c **** /*******************************************************************************
  91:../Dave/Generated/src/IO004/IO004.c **** **                      Private Macro Definitions                             **
  92:../Dave/Generated/src/IO004/IO004.c **** *******************************************************************************/
  93:../Dave/Generated/src/IO004/IO004.c **** 
  94:../Dave/Generated/src/IO004/IO004.c **** /*******************************************************************************
  95:../Dave/Generated/src/IO004/IO004.c **** **                      Private Type Definitions                              **
  96:../Dave/Generated/src/IO004/IO004.c **** *******************************************************************************/
  97:../Dave/Generated/src/IO004/IO004.c **** 
  98:../Dave/Generated/src/IO004/IO004.c **** /*******************************************************************************
  99:../Dave/Generated/src/IO004/IO004.c **** **                 Private Function Declarations:
 100:../Dave/Generated/src/IO004/IO004.c **** *******************************************************************************/
 101:../Dave/Generated/src/IO004/IO004.c **** 
 102:../Dave/Generated/src/IO004/IO004.c **** /*******************************************************************************
 103:../Dave/Generated/src/IO004/IO004.c **** **                      Global Constant Definitions                           **
 104:../Dave/Generated/src/IO004/IO004.c **** *******************************************************************************/
 105:../Dave/Generated/src/IO004/IO004.c **** 
 106:../Dave/Generated/src/IO004/IO004.c **** /*******************************************************************************
 107:../Dave/Generated/src/IO004/IO004.c **** **                      Global Variable Definitions                           **
 108:../Dave/Generated/src/IO004/IO004.c **** *******************************************************************************/
 109:../Dave/Generated/src/IO004/IO004.c **** 
 110:../Dave/Generated/src/IO004/IO004.c **** /*******************************************************************************
 111:../Dave/Generated/src/IO004/IO004.c **** **                      Private Constant Definitions                          **
 112:../Dave/Generated/src/IO004/IO004.c **** *******************************************************************************/
 113:../Dave/Generated/src/IO004/IO004.c **** 
 114:../Dave/Generated/src/IO004/IO004.c **** /*******************************************************************************
 115:../Dave/Generated/src/IO004/IO004.c **** **                 Function like macro definitions                            **
 116:../Dave/Generated/src/IO004/IO004.c **** *******************************************************************************/
 117:../Dave/Generated/src/IO004/IO004.c **** /*******************************************************************************
 118:../Dave/Generated/src/IO004/IO004.c **** **                      Private Function Definitions                          **
 119:../Dave/Generated/src/IO004/IO004.c **** *******************************************************************************/
 120:../Dave/Generated/src/IO004/IO004.c **** 
 121:../Dave/Generated/src/IO004/IO004.c **** /*******************************************************************************
 122:../Dave/Generated/src/IO004/IO004.c **** **                      Public Function Definitions                           **
 123:../Dave/Generated/src/IO004/IO004.c **** *******************************************************************************/
 124:../Dave/Generated/src/IO004/IO004.c **** /** @ingroup IO004_Func
 125:../Dave/Generated/src/IO004/IO004.c ****  * @{
 126:../Dave/Generated/src/IO004/IO004.c ****  */
 127:../Dave/Generated/src/IO004/IO004.c **** 
 128:../Dave/Generated/src/IO004/IO004.c **** void IO004_Init(void)
 129:../Dave/Generated/src/IO004/IO004.c **** {
  26              		.loc 1 129 0
  27              		.cfi_startproc
  28 0000 80B5     		push	{r7, lr}
  29              	.LCFI0:
  30              		.cfi_def_cfa_offset 8
  31              		.cfi_offset 7, -8
  32              		.cfi_offset 14, -4
  33 0002 00AF     		add	r7, sp, #0
  34              	.LCFI1:
  35              		.cfi_def_cfa_register 7
 130:../Dave/Generated/src/IO004/IO004.c ****    /* <<<DD_IO004_API_1>>> */
 131:../Dave/Generated/src/IO004/IO004.c **** 
 132:../Dave/Generated/src/IO004/IO004.c **** 	   
 133:../Dave/Generated/src/IO004/IO004.c **** 
 134:../Dave/Generated/src/IO004/IO004.c ****   /* Configuration of 1 Port 0 based on User configuration */
 135:../Dave/Generated/src/IO004/IO004.c ****   IO004_Handle0.PortRegs->OMR = 0U<< 0;
  36              		.loc 1 135 0
  37 0004 0A4B     		ldr	r3, .L2
  38 0006 5B68     		ldr	r3, [r3, #4]
  39 0008 0022     		mov	r2, #0
  40 000a 5A60     		str	r2, [r3, #4]
 136:../Dave/Generated/src/IO004/IO004.c ****   
 137:../Dave/Generated/src/IO004/IO004.c ****   IO004_Handle0.PortRegs->IOCR0 |= (0U << 3);   
  41              		.loc 1 137 0
  42 000c 084B     		ldr	r3, .L2
  43 000e 5B68     		ldr	r3, [r3, #4]
  44 0010 074A     		ldr	r2, .L2
  45 0012 5268     		ldr	r2, [r2, #4]
  46 0014 1269     		ldr	r2, [r2, #16]
  47 0016 1A61     		str	r2, [r3, #16]
 138:../Dave/Generated/src/IO004/IO004.c **** 
 139:../Dave/Generated/src/IO004/IO004.c ****   /* Configuration of 1 Port 1 based on User configuration */
 140:../Dave/Generated/src/IO004/IO004.c ****   IO004_Handle1.PortRegs->OMR = 0U<< 1;
  48              		.loc 1 140 0
  49 0018 064B     		ldr	r3, .L2+4
  50 001a 5B68     		ldr	r3, [r3, #4]
  51 001c 0022     		mov	r2, #0
  52 001e 5A60     		str	r2, [r3, #4]
 141:../Dave/Generated/src/IO004/IO004.c ****   
 142:../Dave/Generated/src/IO004/IO004.c ****   IO004_Handle1.PortRegs->IOCR0 |= (0U << 11);
  53              		.loc 1 142 0
  54 0020 044B     		ldr	r3, .L2+4
  55 0022 5B68     		ldr	r3, [r3, #4]
  56 0024 034A     		ldr	r2, .L2+4
  57 0026 5268     		ldr	r2, [r2, #4]
  58 0028 1269     		ldr	r2, [r2, #16]
  59 002a 1A61     		str	r2, [r3, #16]
 143:../Dave/Generated/src/IO004/IO004.c **** }
  60              		.loc 1 143 0
  61 002c BD46     		mov	sp, r7
  62              		@ sp needed for prologue
  63 002e 80BD     		pop	{r7, pc}
  64              	.L3:
  65              		.align	2
  66              	.L2:
  67 0030 00000000 		.word	IO004_Handle0
  68 0034 00000000 		.word	IO004_Handle1
  69              		.cfi_endproc
  70              	.LFE38:
  72              		.section	.text.IO004_DisableOutputDriver,"ax",%progbits
  73              		.align	2
  74              		.global	IO004_DisableOutputDriver
  75              		.code	16
  76              		.thumb_func
  78              	IO004_DisableOutputDriver:
  79              	.LFB39:
 144:../Dave/Generated/src/IO004/IO004.c **** 
 145:../Dave/Generated/src/IO004/IO004.c **** void IO004_DisableOutputDriver(const IO004_HandleType* Handle,IO004_InputModeType Mode)
 146:../Dave/Generated/src/IO004/IO004.c **** {
  80              		.loc 1 146 0
  81              		.cfi_startproc
  82 0000 90B5     		push	{r4, r7, lr}
  83              	.LCFI2:
  84              		.cfi_def_cfa_offset 12
  85              		.cfi_offset 4, -12
  86              		.cfi_offset 7, -8
  87              		.cfi_offset 14, -4
  88 0002 85B0     		sub	sp, sp, #20
  89              	.LCFI3:
  90              		.cfi_def_cfa_offset 32
  91 0004 00AF     		add	r7, sp, #0
  92              	.LCFI4:
  93              		.cfi_def_cfa_register 7
  94 0006 7860     		str	r0, [r7, #4]
  95 0008 0A1C     		mov	r2, r1
  96 000a FB1C     		add	r3, r7, #3
  97 000c 1A70     		strb	r2, [r3]
 147:../Dave/Generated/src/IO004/IO004.c ****   uint8_t Pin = Handle->PortPin;
  98              		.loc 1 147 0
  99 000e 3B1C     		mov	r3, r7
 100 0010 0F33     		add	r3, r3, #15
 101 0012 7A68     		ldr	r2, [r7, #4]
 102 0014 5278     		ldrb	r2, [r2, #1]
 103 0016 1A70     		strb	r2, [r3]
 148:../Dave/Generated/src/IO004/IO004.c ****   /* <<<DD_IO004_API_2>>> */
 149:../Dave/Generated/src/IO004/IO004.c ****   if(Pin < 4U)
 104              		.loc 1 149 0
 105 0018 3B1C     		mov	r3, r7
 106 001a 0F33     		add	r3, r3, #15
 107 001c 1B78     		ldrb	r3, [r3]
 108 001e 032B     		cmp	r3, #3
 109 0020 24D8     		bhi	.L5
 150:../Dave/Generated/src/IO004/IO004.c ****   {
 151:../Dave/Generated/src/IO004/IO004.c ****     Handle->PortRegs->IOCR0  =  (uint32_t)(Handle->PortRegs->IOCR0 & ~(0x0000001FUL << (3U+(Pin*8U)
 110              		.loc 1 151 0
 111 0022 7B68     		ldr	r3, [r7, #4]
 112 0024 5B68     		ldr	r3, [r3, #4]
 113 0026 7A68     		ldr	r2, [r7, #4]
 114 0028 5268     		ldr	r2, [r2, #4]
 115 002a 1269     		ldr	r2, [r2, #16]
 116 002c 391C     		mov	r1, r7
 117 002e 0F31     		add	r1, r1, #15
 118 0030 0978     		ldrb	r1, [r1]
 119 0032 C900     		lsl	r1, r1, #3
 120 0034 0331     		add	r1, r1, #3
 121 0036 1F20     		mov	r0, #31
 122 0038 041C     		mov	r4, r0
 123 003a 8C40     		lsl	r4, r4, r1
 124 003c 211C     		mov	r1, r4
 125 003e C943     		mvn	r1, r1
 126 0040 0A40     		and	r2, r1
 127 0042 1A61     		str	r2, [r3, #16]
 152:../Dave/Generated/src/IO004/IO004.c ****     Handle->PortRegs->IOCR0 |= (uint32_t)(((uint32_t)Mode & 0x1FUL) << (3U+(Pin*8U)));
 128              		.loc 1 152 0
 129 0044 7B68     		ldr	r3, [r7, #4]
 130 0046 5B68     		ldr	r3, [r3, #4]
 131 0048 7A68     		ldr	r2, [r7, #4]
 132 004a 5268     		ldr	r2, [r2, #4]
 133 004c 1169     		ldr	r1, [r2, #16]
 134 004e FA1C     		add	r2, r7, #3
 135 0050 1078     		ldrb	r0, [r2]
 136 0052 1F22     		mov	r2, #31
 137 0054 1040     		and	r0, r2
 138 0056 3A1C     		mov	r2, r7
 139 0058 0F32     		add	r2, r2, #15
 140 005a 1278     		ldrb	r2, [r2]
 141 005c D200     		lsl	r2, r2, #3
 142 005e 0332     		add	r2, r2, #3
 143 0060 041C     		mov	r4, r0
 144 0062 9440     		lsl	r4, r4, r2
 145 0064 221C     		mov	r2, r4
 146 0066 0A43     		orr	r2, r1
 147 0068 1A61     		str	r2, [r3, #16]
 148 006a A0E0     		b	.L4
 149              	.L5:
 153:../Dave/Generated/src/IO004/IO004.c ****   } else if ((Pin >= 4U) && (Pin <= 7U))
 150              		.loc 1 153 0
 151 006c 3B1C     		mov	r3, r7
 152 006e 0F33     		add	r3, r3, #15
 153 0070 1B78     		ldrb	r3, [r3]
 154 0072 032B     		cmp	r3, #3
 155 0074 30D9     		bls	.L7
 156              		.loc 1 153 0 is_stmt 0 discriminator 1
 157 0076 3B1C     		mov	r3, r7
 158 0078 0F33     		add	r3, r3, #15
 159 007a 1B78     		ldrb	r3, [r3]
 160 007c 072B     		cmp	r3, #7
 161 007e 2BD8     		bhi	.L7
 154:../Dave/Generated/src/IO004/IO004.c ****   {
 155:../Dave/Generated/src/IO004/IO004.c ****     Pin = Pin - 4U;
 162              		.loc 1 155 0 is_stmt 1
 163 0080 3B1C     		mov	r3, r7
 164 0082 0F33     		add	r3, r3, #15
 165 0084 3A1C     		mov	r2, r7
 166 0086 0F32     		add	r2, r2, #15
 167 0088 1278     		ldrb	r2, [r2]
 168 008a 043A     		sub	r2, r2, #4
 169 008c 1A70     		strb	r2, [r3]
 156:../Dave/Generated/src/IO004/IO004.c ****     Handle->PortRegs->IOCR4  =  (uint32_t)(Handle->PortRegs->IOCR4 & ~(0x0000001FUL << (3U+(Pin*8U)
 170              		.loc 1 156 0
 171 008e 7B68     		ldr	r3, [r7, #4]
 172 0090 5B68     		ldr	r3, [r3, #4]
 173 0092 7A68     		ldr	r2, [r7, #4]
 174 0094 5268     		ldr	r2, [r2, #4]
 175 0096 5269     		ldr	r2, [r2, #20]
 176 0098 391C     		mov	r1, r7
 177 009a 0F31     		add	r1, r1, #15
 178 009c 0978     		ldrb	r1, [r1]
 179 009e C900     		lsl	r1, r1, #3
 180 00a0 0331     		add	r1, r1, #3
 181 00a2 1F20     		mov	r0, #31
 182 00a4 041C     		mov	r4, r0
 183 00a6 8C40     		lsl	r4, r4, r1
 184 00a8 211C     		mov	r1, r4
 185 00aa C943     		mvn	r1, r1
 186 00ac 0A40     		and	r2, r1
 187 00ae 5A61     		str	r2, [r3, #20]
 157:../Dave/Generated/src/IO004/IO004.c ****     Handle->PortRegs->IOCR4 |=  (uint32_t)(((uint32_t)Mode & 0x1FUL) << (3U+(Pin*8U)));
 188              		.loc 1 157 0
 189 00b0 7B68     		ldr	r3, [r7, #4]
 190 00b2 5B68     		ldr	r3, [r3, #4]
 191 00b4 7A68     		ldr	r2, [r7, #4]
 192 00b6 5268     		ldr	r2, [r2, #4]
 193 00b8 5169     		ldr	r1, [r2, #20]
 194 00ba FA1C     		add	r2, r7, #3
 195 00bc 1078     		ldrb	r0, [r2]
 196 00be 1F22     		mov	r2, #31
 197 00c0 1040     		and	r0, r2
 198 00c2 3A1C     		mov	r2, r7
 199 00c4 0F32     		add	r2, r2, #15
 200 00c6 1278     		ldrb	r2, [r2]
 201 00c8 D200     		lsl	r2, r2, #3
 202 00ca 0332     		add	r2, r2, #3
 203 00cc 041C     		mov	r4, r0
 204 00ce 9440     		lsl	r4, r4, r2
 205 00d0 221C     		mov	r2, r4
 206 00d2 0A43     		orr	r2, r1
 207 00d4 5A61     		str	r2, [r3, #20]
 208 00d6 6AE0     		b	.L4
 209              	.L7:
 158:../Dave/Generated/src/IO004/IO004.c ****   } else if ((Pin >= 8U) && (Pin <= 11U))
 210              		.loc 1 158 0
 211 00d8 3B1C     		mov	r3, r7
 212 00da 0F33     		add	r3, r3, #15
 213 00dc 1B78     		ldrb	r3, [r3]
 214 00de 072B     		cmp	r3, #7
 215 00e0 30D9     		bls	.L8
 216              		.loc 1 158 0 is_stmt 0 discriminator 1
 217 00e2 3B1C     		mov	r3, r7
 218 00e4 0F33     		add	r3, r3, #15
 219 00e6 1B78     		ldrb	r3, [r3]
 220 00e8 0B2B     		cmp	r3, #11
 221 00ea 2BD8     		bhi	.L8
 159:../Dave/Generated/src/IO004/IO004.c ****   {
 160:../Dave/Generated/src/IO004/IO004.c ****     Pin = Pin - 8U;
 222              		.loc 1 160 0 is_stmt 1
 223 00ec 3B1C     		mov	r3, r7
 224 00ee 0F33     		add	r3, r3, #15
 225 00f0 3A1C     		mov	r2, r7
 226 00f2 0F32     		add	r2, r2, #15
 227 00f4 1278     		ldrb	r2, [r2]
 228 00f6 083A     		sub	r2, r2, #8
 229 00f8 1A70     		strb	r2, [r3]
 161:../Dave/Generated/src/IO004/IO004.c ****     Handle->PortRegs->IOCR8  =  (uint32_t)(Handle->PortRegs->IOCR8 & ~(0x0000001FUL << (3U+(Pin*8U)
 230              		.loc 1 161 0
 231 00fa 7B68     		ldr	r3, [r7, #4]
 232 00fc 5B68     		ldr	r3, [r3, #4]
 233 00fe 7A68     		ldr	r2, [r7, #4]
 234 0100 5268     		ldr	r2, [r2, #4]
 235 0102 9269     		ldr	r2, [r2, #24]
 236 0104 391C     		mov	r1, r7
 237 0106 0F31     		add	r1, r1, #15
 238 0108 0978     		ldrb	r1, [r1]
 239 010a C900     		lsl	r1, r1, #3
 240 010c 0331     		add	r1, r1, #3
 241 010e 1F20     		mov	r0, #31
 242 0110 041C     		mov	r4, r0
 243 0112 8C40     		lsl	r4, r4, r1
 244 0114 211C     		mov	r1, r4
 245 0116 C943     		mvn	r1, r1
 246 0118 0A40     		and	r2, r1
 247 011a 9A61     		str	r2, [r3, #24]
 162:../Dave/Generated/src/IO004/IO004.c ****     Handle->PortRegs->IOCR8 |=  (uint32_t)(((uint32_t)Mode & 0x1FUL) << (3U+(Pin*8U)));
 248              		.loc 1 162 0
 249 011c 7B68     		ldr	r3, [r7, #4]
 250 011e 5B68     		ldr	r3, [r3, #4]
 251 0120 7A68     		ldr	r2, [r7, #4]
 252 0122 5268     		ldr	r2, [r2, #4]
 253 0124 9169     		ldr	r1, [r2, #24]
 254 0126 FA1C     		add	r2, r7, #3
 255 0128 1078     		ldrb	r0, [r2]
 256 012a 1F22     		mov	r2, #31
 257 012c 1040     		and	r0, r2
 258 012e 3A1C     		mov	r2, r7
 259 0130 0F32     		add	r2, r2, #15
 260 0132 1278     		ldrb	r2, [r2]
 261 0134 D200     		lsl	r2, r2, #3
 262 0136 0332     		add	r2, r2, #3
 263 0138 041C     		mov	r4, r0
 264 013a 9440     		lsl	r4, r4, r2
 265 013c 221C     		mov	r2, r4
 266 013e 0A43     		orr	r2, r1
 267 0140 9A61     		str	r2, [r3, #24]
 268 0142 34E0     		b	.L4
 269              	.L8:
 163:../Dave/Generated/src/IO004/IO004.c ****   } else if ((Pin >= 12U) && (Pin <= 15U))
 270              		.loc 1 163 0
 271 0144 3B1C     		mov	r3, r7
 272 0146 0F33     		add	r3, r3, #15
 273 0148 1B78     		ldrb	r3, [r3]
 274 014a 0B2B     		cmp	r3, #11
 275 014c 2FD9     		bls	.L4
 276              		.loc 1 163 0 is_stmt 0 discriminator 1
 277 014e 3B1C     		mov	r3, r7
 278 0150 0F33     		add	r3, r3, #15
 279 0152 1B78     		ldrb	r3, [r3]
 280 0154 0F2B     		cmp	r3, #15
 281 0156 2AD8     		bhi	.L4
 164:../Dave/Generated/src/IO004/IO004.c ****   {
 165:../Dave/Generated/src/IO004/IO004.c ****     Pin = Pin - 12U;
 282              		.loc 1 165 0 is_stmt 1
 283 0158 3B1C     		mov	r3, r7
 284 015a 0F33     		add	r3, r3, #15
 285 015c 3A1C     		mov	r2, r7
 286 015e 0F32     		add	r2, r2, #15
 287 0160 1278     		ldrb	r2, [r2]
 288 0162 0C3A     		sub	r2, r2, #12
 289 0164 1A70     		strb	r2, [r3]
 166:../Dave/Generated/src/IO004/IO004.c ****     Handle->PortRegs->IOCR12  =  (uint32_t)(Handle->PortRegs->IOCR12 & ~(0x0000001FUL << (3U+(Pin*8
 290              		.loc 1 166 0
 291 0166 7B68     		ldr	r3, [r7, #4]
 292 0168 5B68     		ldr	r3, [r3, #4]
 293 016a 7A68     		ldr	r2, [r7, #4]
 294 016c 5268     		ldr	r2, [r2, #4]
 295 016e D269     		ldr	r2, [r2, #28]
 296 0170 391C     		mov	r1, r7
 297 0172 0F31     		add	r1, r1, #15
 298 0174 0978     		ldrb	r1, [r1]
 299 0176 C900     		lsl	r1, r1, #3
 300 0178 0331     		add	r1, r1, #3
 301 017a 1F20     		mov	r0, #31
 302 017c 041C     		mov	r4, r0
 303 017e 8C40     		lsl	r4, r4, r1
 304 0180 211C     		mov	r1, r4
 305 0182 C943     		mvn	r1, r1
 306 0184 0A40     		and	r2, r1
 307 0186 DA61     		str	r2, [r3, #28]
 167:../Dave/Generated/src/IO004/IO004.c ****     Handle->PortRegs->IOCR12 |=  (uint32_t)(((uint32_t)Mode & 0x1FUL) << (3U+(Pin*8U)));
 308              		.loc 1 167 0
 309 0188 7B68     		ldr	r3, [r7, #4]
 310 018a 5B68     		ldr	r3, [r3, #4]
 311 018c 7A68     		ldr	r2, [r7, #4]
 312 018e 5268     		ldr	r2, [r2, #4]
 313 0190 D169     		ldr	r1, [r2, #28]
 314 0192 FA1C     		add	r2, r7, #3
 315 0194 1078     		ldrb	r0, [r2]
 316 0196 1F22     		mov	r2, #31
 317 0198 1040     		and	r0, r2
 318 019a 3A1C     		mov	r2, r7
 319 019c 0F32     		add	r2, r2, #15
 320 019e 1278     		ldrb	r2, [r2]
 321 01a0 D200     		lsl	r2, r2, #3
 322 01a2 0332     		add	r2, r2, #3
 323 01a4 041C     		mov	r4, r0
 324 01a6 9440     		lsl	r4, r4, r2
 325 01a8 221C     		mov	r2, r4
 326 01aa 0A43     		orr	r2, r1
 327 01ac DA61     		str	r2, [r3, #28]
 328              	.L4:
 168:../Dave/Generated/src/IO004/IO004.c ****   }
 169:../Dave/Generated/src/IO004/IO004.c ****   else
 170:../Dave/Generated/src/IO004/IO004.c ****   {
 171:../Dave/Generated/src/IO004/IO004.c **** 	  /*Not supposed to be here */
 172:../Dave/Generated/src/IO004/IO004.c ****   }
 173:../Dave/Generated/src/IO004/IO004.c **** 
 174:../Dave/Generated/src/IO004/IO004.c **** }
 329              		.loc 1 174 0
 330 01ae BD46     		mov	sp, r7
 331 01b0 05B0     		add	sp, sp, #20
 332              		@ sp needed for prologue
 333 01b2 90BD     		pop	{r4, r7, pc}
 334              		.cfi_endproc
 335              	.LFE39:
 337              		.section	.text.IO004_EnableOutputDriver,"ax",%progbits
 338              		.align	2
 339              		.global	IO004_EnableOutputDriver
 340              		.code	16
 341              		.thumb_func
 343              	IO004_EnableOutputDriver:
 344              	.LFB40:
 175:../Dave/Generated/src/IO004/IO004.c **** 
 176:../Dave/Generated/src/IO004/IO004.c **** void IO004_EnableOutputDriver(const IO004_HandleType* Handle,IO004_OutputModeType Mode)
 177:../Dave/Generated/src/IO004/IO004.c **** {
 345              		.loc 1 177 0
 346              		.cfi_startproc
 347 0000 90B5     		push	{r4, r7, lr}
 348              	.LCFI5:
 349              		.cfi_def_cfa_offset 12
 350              		.cfi_offset 4, -12
 351              		.cfi_offset 7, -8
 352              		.cfi_offset 14, -4
 353 0002 85B0     		sub	sp, sp, #20
 354              	.LCFI6:
 355              		.cfi_def_cfa_offset 32
 356 0004 00AF     		add	r7, sp, #0
 357              	.LCFI7:
 358              		.cfi_def_cfa_register 7
 359 0006 7860     		str	r0, [r7, #4]
 360 0008 0A1C     		mov	r2, r1
 361 000a FB1C     		add	r3, r7, #3
 362 000c 1A70     		strb	r2, [r3]
 178:../Dave/Generated/src/IO004/IO004.c **** 
 179:../Dave/Generated/src/IO004/IO004.c ****   uint8_t Pin = Handle->PortPin;
 363              		.loc 1 179 0
 364 000e 3B1C     		mov	r3, r7
 365 0010 0F33     		add	r3, r3, #15
 366 0012 7A68     		ldr	r2, [r7, #4]
 367 0014 5278     		ldrb	r2, [r2, #1]
 368 0016 1A70     		strb	r2, [r3]
 180:../Dave/Generated/src/IO004/IO004.c ****   /* <<<DD_IO004_API_2>>> */
 181:../Dave/Generated/src/IO004/IO004.c ****   if(Pin < 4U)
 369              		.loc 1 181 0
 370 0018 3B1C     		mov	r3, r7
 371 001a 0F33     		add	r3, r3, #15
 372 001c 1B78     		ldrb	r3, [r3]
 373 001e 032B     		cmp	r3, #3
 374 0020 24D8     		bhi	.L10
 182:../Dave/Generated/src/IO004/IO004.c ****   {
 183:../Dave/Generated/src/IO004/IO004.c ****     Handle->PortRegs->IOCR0  =  (uint32_t)(Handle->PortRegs->IOCR0 & ~(0x0000001FUL << (3U+(Pin*8U)
 375              		.loc 1 183 0
 376 0022 7B68     		ldr	r3, [r7, #4]
 377 0024 5B68     		ldr	r3, [r3, #4]
 378 0026 7A68     		ldr	r2, [r7, #4]
 379 0028 5268     		ldr	r2, [r2, #4]
 380 002a 1269     		ldr	r2, [r2, #16]
 381 002c 391C     		mov	r1, r7
 382 002e 0F31     		add	r1, r1, #15
 383 0030 0978     		ldrb	r1, [r1]
 384 0032 C900     		lsl	r1, r1, #3
 385 0034 0331     		add	r1, r1, #3
 386 0036 1F20     		mov	r0, #31
 387 0038 041C     		mov	r4, r0
 388 003a 8C40     		lsl	r4, r4, r1
 389 003c 211C     		mov	r1, r4
 390 003e C943     		mvn	r1, r1
 391 0040 0A40     		and	r2, r1
 392 0042 1A61     		str	r2, [r3, #16]
 184:../Dave/Generated/src/IO004/IO004.c ****     Handle->PortRegs->IOCR0 |=  (uint32_t)(((uint32_t)Mode & 0x1FUL) << (3U+(Pin*8U)));
 393              		.loc 1 184 0
 394 0044 7B68     		ldr	r3, [r7, #4]
 395 0046 5B68     		ldr	r3, [r3, #4]
 396 0048 7A68     		ldr	r2, [r7, #4]
 397 004a 5268     		ldr	r2, [r2, #4]
 398 004c 1169     		ldr	r1, [r2, #16]
 399 004e FA1C     		add	r2, r7, #3
 400 0050 1078     		ldrb	r0, [r2]
 401 0052 1F22     		mov	r2, #31
 402 0054 1040     		and	r0, r2
 403 0056 3A1C     		mov	r2, r7
 404 0058 0F32     		add	r2, r2, #15
 405 005a 1278     		ldrb	r2, [r2]
 406 005c D200     		lsl	r2, r2, #3
 407 005e 0332     		add	r2, r2, #3
 408 0060 041C     		mov	r4, r0
 409 0062 9440     		lsl	r4, r4, r2
 410 0064 221C     		mov	r2, r4
 411 0066 0A43     		orr	r2, r1
 412 0068 1A61     		str	r2, [r3, #16]
 413 006a A0E0     		b	.L9
 414              	.L10:
 185:../Dave/Generated/src/IO004/IO004.c ****   } else if ((Pin >= 4U) && (Pin <= 7U))
 415              		.loc 1 185 0
 416 006c 3B1C     		mov	r3, r7
 417 006e 0F33     		add	r3, r3, #15
 418 0070 1B78     		ldrb	r3, [r3]
 419 0072 032B     		cmp	r3, #3
 420 0074 30D9     		bls	.L12
 421              		.loc 1 185 0 is_stmt 0 discriminator 1
 422 0076 3B1C     		mov	r3, r7
 423 0078 0F33     		add	r3, r3, #15
 424 007a 1B78     		ldrb	r3, [r3]
 425 007c 072B     		cmp	r3, #7
 426 007e 2BD8     		bhi	.L12
 186:../Dave/Generated/src/IO004/IO004.c ****   {
 187:../Dave/Generated/src/IO004/IO004.c ****     Pin = Pin - 4U;
 427              		.loc 1 187 0 is_stmt 1
 428 0080 3B1C     		mov	r3, r7
 429 0082 0F33     		add	r3, r3, #15
 430 0084 3A1C     		mov	r2, r7
 431 0086 0F32     		add	r2, r2, #15
 432 0088 1278     		ldrb	r2, [r2]
 433 008a 043A     		sub	r2, r2, #4
 434 008c 1A70     		strb	r2, [r3]
 188:../Dave/Generated/src/IO004/IO004.c ****     Handle->PortRegs->IOCR4  =  (uint32_t)(Handle->PortRegs->IOCR4 & ~(0x0000001FUL << (3U+(Pin*8U)
 435              		.loc 1 188 0
 436 008e 7B68     		ldr	r3, [r7, #4]
 437 0090 5B68     		ldr	r3, [r3, #4]
 438 0092 7A68     		ldr	r2, [r7, #4]
 439 0094 5268     		ldr	r2, [r2, #4]
 440 0096 5269     		ldr	r2, [r2, #20]
 441 0098 391C     		mov	r1, r7
 442 009a 0F31     		add	r1, r1, #15
 443 009c 0978     		ldrb	r1, [r1]
 444 009e C900     		lsl	r1, r1, #3
 445 00a0 0331     		add	r1, r1, #3
 446 00a2 1F20     		mov	r0, #31
 447 00a4 041C     		mov	r4, r0
 448 00a6 8C40     		lsl	r4, r4, r1
 449 00a8 211C     		mov	r1, r4
 450 00aa C943     		mvn	r1, r1
 451 00ac 0A40     		and	r2, r1
 452 00ae 5A61     		str	r2, [r3, #20]
 189:../Dave/Generated/src/IO004/IO004.c ****     Handle->PortRegs->IOCR4 |=  (uint32_t)(((uint32_t)Mode & 0x1FUL) << (3U+(Pin*8U)));
 453              		.loc 1 189 0
 454 00b0 7B68     		ldr	r3, [r7, #4]
 455 00b2 5B68     		ldr	r3, [r3, #4]
 456 00b4 7A68     		ldr	r2, [r7, #4]
 457 00b6 5268     		ldr	r2, [r2, #4]
 458 00b8 5169     		ldr	r1, [r2, #20]
 459 00ba FA1C     		add	r2, r7, #3
 460 00bc 1078     		ldrb	r0, [r2]
 461 00be 1F22     		mov	r2, #31
 462 00c0 1040     		and	r0, r2
 463 00c2 3A1C     		mov	r2, r7
 464 00c4 0F32     		add	r2, r2, #15
 465 00c6 1278     		ldrb	r2, [r2]
 466 00c8 D200     		lsl	r2, r2, #3
 467 00ca 0332     		add	r2, r2, #3
 468 00cc 041C     		mov	r4, r0
 469 00ce 9440     		lsl	r4, r4, r2
 470 00d0 221C     		mov	r2, r4
 471 00d2 0A43     		orr	r2, r1
 472 00d4 5A61     		str	r2, [r3, #20]
 473 00d6 6AE0     		b	.L9
 474              	.L12:
 190:../Dave/Generated/src/IO004/IO004.c ****   } else if ((Pin >= 8U) && (Pin <= 11U))
 475              		.loc 1 190 0
 476 00d8 3B1C     		mov	r3, r7
 477 00da 0F33     		add	r3, r3, #15
 478 00dc 1B78     		ldrb	r3, [r3]
 479 00de 072B     		cmp	r3, #7
 480 00e0 30D9     		bls	.L13
 481              		.loc 1 190 0 is_stmt 0 discriminator 1
 482 00e2 3B1C     		mov	r3, r7
 483 00e4 0F33     		add	r3, r3, #15
 484 00e6 1B78     		ldrb	r3, [r3]
 485 00e8 0B2B     		cmp	r3, #11
 486 00ea 2BD8     		bhi	.L13
 191:../Dave/Generated/src/IO004/IO004.c ****   {
 192:../Dave/Generated/src/IO004/IO004.c ****     Pin = Pin - 8U;
 487              		.loc 1 192 0 is_stmt 1
 488 00ec 3B1C     		mov	r3, r7
 489 00ee 0F33     		add	r3, r3, #15
 490 00f0 3A1C     		mov	r2, r7
 491 00f2 0F32     		add	r2, r2, #15
 492 00f4 1278     		ldrb	r2, [r2]
 493 00f6 083A     		sub	r2, r2, #8
 494 00f8 1A70     		strb	r2, [r3]
 193:../Dave/Generated/src/IO004/IO004.c ****     Handle->PortRegs->IOCR8  =  (uint32_t)(Handle->PortRegs->IOCR8 & ~(0x0000001FUL << (3U+(Pin*8U)
 495              		.loc 1 193 0
 496 00fa 7B68     		ldr	r3, [r7, #4]
 497 00fc 5B68     		ldr	r3, [r3, #4]
 498 00fe 7A68     		ldr	r2, [r7, #4]
 499 0100 5268     		ldr	r2, [r2, #4]
 500 0102 9269     		ldr	r2, [r2, #24]
 501 0104 391C     		mov	r1, r7
 502 0106 0F31     		add	r1, r1, #15
 503 0108 0978     		ldrb	r1, [r1]
 504 010a C900     		lsl	r1, r1, #3
 505 010c 0331     		add	r1, r1, #3
 506 010e 1F20     		mov	r0, #31
 507 0110 041C     		mov	r4, r0
 508 0112 8C40     		lsl	r4, r4, r1
 509 0114 211C     		mov	r1, r4
 510 0116 C943     		mvn	r1, r1
 511 0118 0A40     		and	r2, r1
 512 011a 9A61     		str	r2, [r3, #24]
 194:../Dave/Generated/src/IO004/IO004.c ****     Handle->PortRegs->IOCR8 |=  (uint32_t)(((uint32_t)Mode & 0x1FUL) << (3U+(Pin*8U)));
 513              		.loc 1 194 0
 514 011c 7B68     		ldr	r3, [r7, #4]
 515 011e 5B68     		ldr	r3, [r3, #4]
 516 0120 7A68     		ldr	r2, [r7, #4]
 517 0122 5268     		ldr	r2, [r2, #4]
 518 0124 9169     		ldr	r1, [r2, #24]
 519 0126 FA1C     		add	r2, r7, #3
 520 0128 1078     		ldrb	r0, [r2]
 521 012a 1F22     		mov	r2, #31
 522 012c 1040     		and	r0, r2
 523 012e 3A1C     		mov	r2, r7
 524 0130 0F32     		add	r2, r2, #15
 525 0132 1278     		ldrb	r2, [r2]
 526 0134 D200     		lsl	r2, r2, #3
 527 0136 0332     		add	r2, r2, #3
 528 0138 041C     		mov	r4, r0
 529 013a 9440     		lsl	r4, r4, r2
 530 013c 221C     		mov	r2, r4
 531 013e 0A43     		orr	r2, r1
 532 0140 9A61     		str	r2, [r3, #24]
 533 0142 34E0     		b	.L9
 534              	.L13:
 195:../Dave/Generated/src/IO004/IO004.c ****   } else if ((Pin >= 12U) && (Pin <= 15U))
 535              		.loc 1 195 0
 536 0144 3B1C     		mov	r3, r7
 537 0146 0F33     		add	r3, r3, #15
 538 0148 1B78     		ldrb	r3, [r3]
 539 014a 0B2B     		cmp	r3, #11
 540 014c 2FD9     		bls	.L9
 541              		.loc 1 195 0 is_stmt 0 discriminator 1
 542 014e 3B1C     		mov	r3, r7
 543 0150 0F33     		add	r3, r3, #15
 544 0152 1B78     		ldrb	r3, [r3]
 545 0154 0F2B     		cmp	r3, #15
 546 0156 2AD8     		bhi	.L9
 196:../Dave/Generated/src/IO004/IO004.c ****   {
 197:../Dave/Generated/src/IO004/IO004.c ****     Pin = Pin - 12U;
 547              		.loc 1 197 0 is_stmt 1
 548 0158 3B1C     		mov	r3, r7
 549 015a 0F33     		add	r3, r3, #15
 550 015c 3A1C     		mov	r2, r7
 551 015e 0F32     		add	r2, r2, #15
 552 0160 1278     		ldrb	r2, [r2]
 553 0162 0C3A     		sub	r2, r2, #12
 554 0164 1A70     		strb	r2, [r3]
 198:../Dave/Generated/src/IO004/IO004.c ****     Handle->PortRegs->IOCR12  =  (uint32_t)(Handle->PortRegs->IOCR12 & ~(0x0000001FUL << (3U+(Pin*8
 555              		.loc 1 198 0
 556 0166 7B68     		ldr	r3, [r7, #4]
 557 0168 5B68     		ldr	r3, [r3, #4]
 558 016a 7A68     		ldr	r2, [r7, #4]
 559 016c 5268     		ldr	r2, [r2, #4]
 560 016e D269     		ldr	r2, [r2, #28]
 561 0170 391C     		mov	r1, r7
 562 0172 0F31     		add	r1, r1, #15
 563 0174 0978     		ldrb	r1, [r1]
 564 0176 C900     		lsl	r1, r1, #3
 565 0178 0331     		add	r1, r1, #3
 566 017a 1F20     		mov	r0, #31
 567 017c 041C     		mov	r4, r0
 568 017e 8C40     		lsl	r4, r4, r1
 569 0180 211C     		mov	r1, r4
 570 0182 C943     		mvn	r1, r1
 571 0184 0A40     		and	r2, r1
 572 0186 DA61     		str	r2, [r3, #28]
 199:../Dave/Generated/src/IO004/IO004.c ****     Handle->PortRegs->IOCR12 |=  (uint32_t)(((uint32_t)Mode & 0x1FUL) << (3U+(Pin*8U)));
 573              		.loc 1 199 0
 574 0188 7B68     		ldr	r3, [r7, #4]
 575 018a 5B68     		ldr	r3, [r3, #4]
 576 018c 7A68     		ldr	r2, [r7, #4]
 577 018e 5268     		ldr	r2, [r2, #4]
 578 0190 D169     		ldr	r1, [r2, #28]
 579 0192 FA1C     		add	r2, r7, #3
 580 0194 1078     		ldrb	r0, [r2]
 581 0196 1F22     		mov	r2, #31
 582 0198 1040     		and	r0, r2
 583 019a 3A1C     		mov	r2, r7
 584 019c 0F32     		add	r2, r2, #15
 585 019e 1278     		ldrb	r2, [r2]
 586 01a0 D200     		lsl	r2, r2, #3
 587 01a2 0332     		add	r2, r2, #3
 588 01a4 041C     		mov	r4, r0
 589 01a6 9440     		lsl	r4, r4, r2
 590 01a8 221C     		mov	r2, r4
 591 01aa 0A43     		orr	r2, r1
 592 01ac DA61     		str	r2, [r3, #28]
 593              	.L9:
 200:../Dave/Generated/src/IO004/IO004.c ****   }
 201:../Dave/Generated/src/IO004/IO004.c ****   else
 202:../Dave/Generated/src/IO004/IO004.c ****   {
 203:../Dave/Generated/src/IO004/IO004.c **** 	  /*Not supposed to be here */
 204:../Dave/Generated/src/IO004/IO004.c ****   }
 205:../Dave/Generated/src/IO004/IO004.c **** }
 594              		.loc 1 205 0
 595 01ae BD46     		mov	sp, r7
 596 01b0 05B0     		add	sp, sp, #20
 597              		@ sp needed for prologue
 598 01b2 90BD     		pop	{r4, r7, pc}
 599              		.cfi_endproc
 600              	.LFE40:
 602              		.text
 603              	.Letext0:
 604              		.file 2 "c:\\dave-3.1.10\\arm-gcc\\bin\\../lib/gcc/arm-none-eabi/4.7.4/../../../../arm-none-eabi/i
 605              		.file 3 "C:\\DAVE3_workspace\\ws3.1.10\\ESC_Pinus_XMC1302_V1.2\\Dave\\Generated\\inc\\DAVESupport/
 606              		.file 4 "C:\\DAVE3_workspace\\ws3.1.10\\ESC_Pinus_XMC1302_V1.2\\Dave\\Generated\\inc\\DAVESupport/