   1              		.syntax unified
   2              		.cpu cortex-m4
   3              		.eabi_attribute 27, 3
   4              		.fpu fpv4-sp-d16
   5              		.eabi_attribute 20, 1
   6              		.eabi_attribute 21, 1
   7              		.eabi_attribute 23, 3
   8              		.eabi_attribute 24, 1
   9              		.eabi_attribute 25, 1
  10              		.eabi_attribute 26, 1
  11              		.eabi_attribute 30, 6
  12              		.eabi_attribute 34, 1
  13              		.eabi_attribute 18, 4
  14              		.thumb
  15              		.file	"CCU8PWMLIB.c"
  16              		.text
  17              	.Ltext0:
  18              		.cfi_sections	.debug_frame
  19              		.section	.rodata
  20              		.align	2
  21              	.LC0:
  22 0000 00000000 		.word	0
  23 0004 0D000000 		.word	13
  24 0008 05000000 		.word	5
  25 000c 09000000 		.word	9
  26              		.section	.text.CCU8PWMLIB_Init,"ax",%progbits
  27              		.align	2
  28              		.global	CCU8PWMLIB_Init
  29              		.thumb
  30              		.thumb_func
  32              	CCU8PWMLIB_Init:
  33              	.LFB135:
  34              		.file 1 "../Dave/Generated/src/LIBS/CCU8PWMLIB.c"
   1:../Dave/Generated/src/LIBS/CCU8PWMLIB.c **** /*******************************************************************************
   2:../Dave/Generated/src/LIBS/CCU8PWMLIB.c ****  Copyright (c) 2014, Infineon Technologies AG                                 **
   3:../Dave/Generated/src/LIBS/CCU8PWMLIB.c ****  All rights reserved.                                                         **
   4:../Dave/Generated/src/LIBS/CCU8PWMLIB.c ****                                                                               **
   5:../Dave/Generated/src/LIBS/CCU8PWMLIB.c ****  Redistribution and use in source and binary forms, with or without           **
   6:../Dave/Generated/src/LIBS/CCU8PWMLIB.c ****  modification,are permitted provided that the following conditions are met:   **
   7:../Dave/Generated/src/LIBS/CCU8PWMLIB.c ****                                                                               **
   8:../Dave/Generated/src/LIBS/CCU8PWMLIB.c ****  *Redistributions of source code must retain the above copyright notice,      **
   9:../Dave/Generated/src/LIBS/CCU8PWMLIB.c ****  this list of conditions and the following disclaimer.                        **
  10:../Dave/Generated/src/LIBS/CCU8PWMLIB.c ****  *Redistributions in binary form must reproduce the above copyright notice,   **
  11:../Dave/Generated/src/LIBS/CCU8PWMLIB.c ****  this list of conditions and the following disclaimer in the documentation    **
  12:../Dave/Generated/src/LIBS/CCU8PWMLIB.c ****  and/or other materials provided with the distribution.                       **
  13:../Dave/Generated/src/LIBS/CCU8PWMLIB.c ****  *Neither the name of the copyright holders nor the names of its contributors **
  14:../Dave/Generated/src/LIBS/CCU8PWMLIB.c ****  may be used to endorse or promote products derived from this software without**
  15:../Dave/Generated/src/LIBS/CCU8PWMLIB.c ****  specific prior written permission.                                           **
  16:../Dave/Generated/src/LIBS/CCU8PWMLIB.c ****                                                                               **
  17:../Dave/Generated/src/LIBS/CCU8PWMLIB.c ****  THIS SOFTWARE IS PROVIDED BY THE COPYRIGHT HOLDERS AND CONTRIBUTORS "AS IS"  **
  18:../Dave/Generated/src/LIBS/CCU8PWMLIB.c ****  AND ANY EXPRESS OR IMPLIED WARRANTIES, INCLUDING, BUT NOT LIMITED TO, THE    **
  19:../Dave/Generated/src/LIBS/CCU8PWMLIB.c ****  IMPLIED WARRANTIES OF MERCHANTABILITY AND FITNESS FOR A PARTICULAR PURPOSE   **
  20:../Dave/Generated/src/LIBS/CCU8PWMLIB.c ****  ARE  DISCLAIMED. IN NO EVENT SHALL THE COPYRIGHT HOLDER OR CONTRIBUTORS BE   **
  21:../Dave/Generated/src/LIBS/CCU8PWMLIB.c ****  LIABLE  FOR ANY DIRECT, INDIRECT, INCIDENTAL, SPECIAL, EXEMPLARY, OR         **
  22:../Dave/Generated/src/LIBS/CCU8PWMLIB.c ****  CONSEQUENTIAL DAMAGES (INCLUDING, BUT NOT LIMITED TO, PROCUREMENT OF         **
  23:../Dave/Generated/src/LIBS/CCU8PWMLIB.c ****  SUBSTITUTE GOODS OR  SERVICES; LOSS OF USE, DATA, OR PROFITS; OR BUSINESS    **
  24:../Dave/Generated/src/LIBS/CCU8PWMLIB.c ****  INTERRUPTION) HOWEVER CAUSED AND ON ANY THEORY OF LIABILITY, WHETHER IN      **
  25:../Dave/Generated/src/LIBS/CCU8PWMLIB.c ****  CONTRACT, STRICT LIABILITY,OR TORT (INCLUDING NEGLIGENCE OR OTHERWISE)       **
  26:../Dave/Generated/src/LIBS/CCU8PWMLIB.c ****  ARISING IN ANY WAY OUT OF THE USE OF THIS SOFTWARE, EVEN IF ADVISED OF THE   **
  27:../Dave/Generated/src/LIBS/CCU8PWMLIB.c ****  POSSIBILITY OF SUCH DAMAGE.                                                  **
  28:../Dave/Generated/src/LIBS/CCU8PWMLIB.c ****                                                                               **
  29:../Dave/Generated/src/LIBS/CCU8PWMLIB.c ****  To improve the quality of the software, users are encouraged to share        **
  30:../Dave/Generated/src/LIBS/CCU8PWMLIB.c ****  modifications, enhancements or bug fixes with Infineon Technologies AG       **
  31:../Dave/Generated/src/LIBS/CCU8PWMLIB.c ****  dave@infineon.com).                                                          **
  32:../Dave/Generated/src/LIBS/CCU8PWMLIB.c ****                                                                               **
  33:../Dave/Generated/src/LIBS/CCU8PWMLIB.c **** ********************************************************************************
  34:../Dave/Generated/src/LIBS/CCU8PWMLIB.c **** **                                                                            **
  35:../Dave/Generated/src/LIBS/CCU8PWMLIB.c **** **                                                                            **
  36:../Dave/Generated/src/LIBS/CCU8PWMLIB.c **** ** PLATFORM : Infineon XMC4000/XMC1000 Series                                 **
  37:../Dave/Generated/src/LIBS/CCU8PWMLIB.c **** **                                                                            **
  38:../Dave/Generated/src/LIBS/CCU8PWMLIB.c **** ** COMPILER : Compiler Independent                                            **
  39:../Dave/Generated/src/LIBS/CCU8PWMLIB.c **** **                                                                            **
  40:../Dave/Generated/src/LIBS/CCU8PWMLIB.c **** ** AUTHOR   : App Developer                                                   **
  41:../Dave/Generated/src/LIBS/CCU8PWMLIB.c **** **                                                                            **
  42:../Dave/Generated/src/LIBS/CCU8PWMLIB.c **** ** MAY BE CHANGED BY USER [yes/no]: Yes                                       **
  43:../Dave/Generated/src/LIBS/CCU8PWMLIB.c **** **                                                                            **
  44:../Dave/Generated/src/LIBS/CCU8PWMLIB.c **** ** MODIFICATION DATE : Jan 27, 2014                                           **
  45:../Dave/Generated/src/LIBS/CCU8PWMLIB.c **** **                                                                            **
  46:../Dave/Generated/src/LIBS/CCU8PWMLIB.c **** *******************************************************************************/
  47:../Dave/Generated/src/LIBS/CCU8PWMLIB.c **** /*******************************************************************************
  48:../Dave/Generated/src/LIBS/CCU8PWMLIB.c **** **                      Author(s) Identity                                    **
  49:../Dave/Generated/src/LIBS/CCU8PWMLIB.c **** ********************************************************************************
  50:../Dave/Generated/src/LIBS/CCU8PWMLIB.c **** **                                                                            **
  51:../Dave/Generated/src/LIBS/CCU8PWMLIB.c **** ** Initials     Name                                                          **
  52:../Dave/Generated/src/LIBS/CCU8PWMLIB.c **** ** ---------------------------------------------------------------------------**
  53:../Dave/Generated/src/LIBS/CCU8PWMLIB.c **** ** KS           App Developer                                                 **
  54:../Dave/Generated/src/LIBS/CCU8PWMLIB.c **** **                                                                            **
  55:../Dave/Generated/src/LIBS/CCU8PWMLIB.c **** *******************************************************************************/
  56:../Dave/Generated/src/LIBS/CCU8PWMLIB.c **** 
  57:../Dave/Generated/src/LIBS/CCU8PWMLIB.c **** /**
  58:../Dave/Generated/src/LIBS/CCU8PWMLIB.c ****  * @file  CCU8PWMLIB.c
  59:../Dave/Generated/src/LIBS/CCU8PWMLIB.c ****  *
  60:../Dave/Generated/src/LIBS/CCU8PWMLIB.c ****  * @brief This file contains implementations of all Public and Private functions
  61:../Dave/Generated/src/LIBS/CCU8PWMLIB.c ****  *        of CCU8_PWMSinglePhaseDT_CCU8PWMLIB APP.
  62:../Dave/Generated/src/LIBS/CCU8PWMLIB.c ****  */
  63:../Dave/Generated/src/LIBS/CCU8PWMLIB.c **** 
  64:../Dave/Generated/src/LIBS/CCU8PWMLIB.c **** /* Revision History
  65:../Dave/Generated/src/LIBS/CCU8PWMLIB.c ****  * 30 Nov 2012   v1.0.4   taken as base version
  66:../Dave/Generated/src/LIBS/CCU8PWMLIB.c ****  * 13 Dec 2012   v1.0.6   eliminated do..while to abide coding guidelines where 
  67:../Dave/Generated/src/LIBS/CCU8PWMLIB.c ****  *                        ever possible
  68:../Dave/Generated/src/LIBS/CCU8PWMLIB.c ****  * 29 May 2013   v1.0.12  CCU8PWMLIB_GetTimerRegsVal-shifting of timer value 
  69:../Dave/Generated/src/LIBS/CCU8PWMLIB.c ****  *                        twice is removed CCU8PWMLIB_SetPwmFreqAndDutyCycle and 
  70:../Dave/Generated/src/LIBS/CCU8PWMLIB.c ****  *                        CCU8PWMLIB_SetPwmFreq Api Period value range check for 
  71:../Dave/Generated/src/LIBS/CCU8PWMLIB.c ****  *                        centre aligned mode is changed. 
  72:../Dave/Generated/src/LIBS/CCU8PWMLIB.c ****  * 27 Jan 2014   v1.0.26  1.Trap enabling is changed to CCU8PWMLIB_Init() api from 
  73:../Dave/Generated/src/LIBS/CCU8PWMLIB.c ****  *                          CCU8PWMLIB_Start() API.
  74:../Dave/Generated/src/LIBS/CCU8PWMLIB.c ****  *                        2.During Timer Concatenation if single shot mode is 
  75:../Dave/Generated/src/LIBS/CCU8PWMLIB.c ****  *                          enabled lower timer is made as free running.
  76:../Dave/Generated/src/LIBS/CCU8PWMLIB.c ****  */
  77:../Dave/Generated/src/LIBS/CCU8PWMLIB.c **** 
  78:../Dave/Generated/src/LIBS/CCU8PWMLIB.c **** 
  79:../Dave/Generated/src/LIBS/CCU8PWMLIB.c **** /*******************************************************************************
  80:../Dave/Generated/src/LIBS/CCU8PWMLIB.c **** **                      Include Files                                         **
  81:../Dave/Generated/src/LIBS/CCU8PWMLIB.c **** *******************************************************************************/
  82:../Dave/Generated/src/LIBS/CCU8PWMLIB.c **** #include <DAVE3.h>
  83:../Dave/Generated/src/LIBS/CCU8PWMLIB.c **** #include "../../inc/LIBS/CCU8PWMLIB.h"
  84:../Dave/Generated/src/LIBS/CCU8PWMLIB.c **** /**
  85:../Dave/Generated/src/LIBS/CCU8PWMLIB.c ****  * @cond INTERNAL_DOCS
  86:../Dave/Generated/src/LIBS/CCU8PWMLIB.c ****  */
  87:../Dave/Generated/src/LIBS/CCU8PWMLIB.c **** /**
  88:../Dave/Generated/src/LIBS/CCU8PWMLIB.c ****   * @ingroup CCU8PWMLIB_privatefunc
  89:../Dave/Generated/src/LIBS/CCU8PWMLIB.c ****   * @{
  90:../Dave/Generated/src/LIBS/CCU8PWMLIB.c ****   */
  91:../Dave/Generated/src/LIBS/CCU8PWMLIB.c **** #ifdef USE_PWM_LIB  
  92:../Dave/Generated/src/LIBS/CCU8PWMLIB.c **** /*******************************************************************************
  93:../Dave/Generated/src/LIBS/CCU8PWMLIB.c **** **                Private Function declarations                               **
  94:../Dave/Generated/src/LIBS/CCU8PWMLIB.c **** *******************************************************************************/
  95:../Dave/Generated/src/LIBS/CCU8PWMLIB.c **** /*******************************************************************************
  96:../Dave/Generated/src/LIBS/CCU8PWMLIB.c **** **                Private Function declarations                               **
  97:../Dave/Generated/src/LIBS/CCU8PWMLIB.c **** *******************************************************************************/
  98:../Dave/Generated/src/LIBS/CCU8PWMLIB.c **** /**
  99:../Dave/Generated/src/LIBS/CCU8PWMLIB.c ****  * @brief This function is used to initialize the APP.
 100:../Dave/Generated/src/LIBS/CCU8PWMLIB.c ****  * It will configure second slice registers with the selected PWM parameters.
 101:../Dave/Generated/src/LIBS/CCU8PWMLIB.c ****  * @param[in]   HandlePtr Pointer to CCU8PWMLIB_HandleType structure
 102:../Dave/Generated/src/LIBS/CCU8PWMLIB.c ****  * @return void
 103:../Dave/Generated/src/LIBS/CCU8PWMLIB.c ****  */
 104:../Dave/Generated/src/LIBS/CCU8PWMLIB.c **** void CCU8PWMLIB_lConfigureSecondSlice
 105:../Dave/Generated/src/LIBS/CCU8PWMLIB.c **** (
 106:../Dave/Generated/src/LIBS/CCU8PWMLIB.c ****   const CCU8PWMLIB_HandleType* HandlePtr
 107:../Dave/Generated/src/LIBS/CCU8PWMLIB.c **** );
 108:../Dave/Generated/src/LIBS/CCU8PWMLIB.c **** 
 109:../Dave/Generated/src/LIBS/CCU8PWMLIB.c **** /**
 110:../Dave/Generated/src/LIBS/CCU8PWMLIB.c ****  * @brief This function will set pwm frequency if timer concatenation is selected
 111:../Dave/Generated/src/LIBS/CCU8PWMLIB.c ****  * @param[in]  HandlePtr Pointer to CCU8PWMLIB_HandleType structure
 112:../Dave/Generated/src/LIBS/CCU8PWMLIB.c ****  * @param[in]  PwmTime This is PWM frequency in hertz.
 113:../Dave/Generated/src/LIBS/CCU8PWMLIB.c ****  * @return status_t status
 114:../Dave/Generated/src/LIBS/CCU8PWMLIB.c ****  */
 115:../Dave/Generated/src/LIBS/CCU8PWMLIB.c **** status_t CCU8PWMLIB_lSetPwmFreqTimerConcat
 116:../Dave/Generated/src/LIBS/CCU8PWMLIB.c **** (
 117:../Dave/Generated/src/LIBS/CCU8PWMLIB.c ****     const CCU8PWMLIB_HandleType* HandlePtr,
 118:../Dave/Generated/src/LIBS/CCU8PWMLIB.c ****     uint32_t PwmTime
 119:../Dave/Generated/src/LIBS/CCU8PWMLIB.c **** );
 120:../Dave/Generated/src/LIBS/CCU8PWMLIB.c **** 
 121:../Dave/Generated/src/LIBS/CCU8PWMLIB.c **** /**
 122:../Dave/Generated/src/LIBS/CCU8PWMLIB.c ****  * @}
 123:../Dave/Generated/src/LIBS/CCU8PWMLIB.c ****  */
 124:../Dave/Generated/src/LIBS/CCU8PWMLIB.c **** 
 125:../Dave/Generated/src/LIBS/CCU8PWMLIB.c **** 
 126:../Dave/Generated/src/LIBS/CCU8PWMLIB.c **** 
 127:../Dave/Generated/src/LIBS/CCU8PWMLIB.c **** /*******************************************************************************
 128:../Dave/Generated/src/LIBS/CCU8PWMLIB.c **** **                 Function definitions                                       **
 129:../Dave/Generated/src/LIBS/CCU8PWMLIB.c **** *******************************************************************************/
 130:../Dave/Generated/src/LIBS/CCU8PWMLIB.c **** /*<<<DD_CCU8PWMLIB_API_1>>>*/
 131:../Dave/Generated/src/LIBS/CCU8PWMLIB.c **** /**
 132:../Dave/Generated/src/LIBS/CCU8PWMLIB.c ****  * This function initializes the app and CCU8x_CC8y slice.
 133:../Dave/Generated/src/LIBS/CCU8PWMLIB.c ****  */
 134:../Dave/Generated/src/LIBS/CCU8PWMLIB.c **** status_t CCU8PWMLIB_Init(const CCU8PWMLIB_HandleType* HandlePtr)
 135:../Dave/Generated/src/LIBS/CCU8PWMLIB.c **** {
  35              		.loc 1 135 0
  36              		.cfi_startproc
  37              		@ args = 0, pretend = 0, frame = 32
  38              		@ frame_needed = 1, uses_anonymous_args = 0
  39 0000 90B5     		push	{r4, r7, lr}
  40              	.LCFI0:
  41              		.cfi_def_cfa_offset 12
  42              		.cfi_offset 4, -12
  43              		.cfi_offset 7, -8
  44              		.cfi_offset 14, -4
  45 0002 89B0     		sub	sp, sp, #36
  46              	.LCFI1:
  47              		.cfi_def_cfa_offset 48
  48 0004 00AF     		add	r7, sp, #0
  49              	.LCFI2:
  50              		.cfi_def_cfa_register 7
  51 0006 7860     		str	r0, [r7, #4]
 136:../Dave/Generated/src/LIBS/CCU8PWMLIB.c ****     status_t Status = (uint32_t)DAVEApp_SUCCESS;
  52              		.loc 1 136 0
  53 0008 4FF00003 		mov	r3, #0
  54 000c FB61     		str	r3, [r7, #28]
 137:../Dave/Generated/src/LIBS/CCU8PWMLIB.c ****     uint32_t DeadTimeConfVal[4] = {0x00UL, 0xDUL, 0x5UL, 0x9UL};
  55              		.loc 1 137 0
  56 000e 40F20003 		movw	r3, #:lower16:.LC0
  57 0012 C0F20003 		movt	r3, #:upper16:.LC0
  58 0016 07F10C04 		add	r4, r7, #12
  59 001a 0FCB     		ldmia	r3, {r0, r1, r2, r3}
  60 001c 84E80F00 		stmia	r4, {r0, r1, r2, r3}
 138:../Dave/Generated/src/LIBS/CCU8PWMLIB.c **** 
 139:../Dave/Generated/src/LIBS/CCU8PWMLIB.c ****     /*Clear the Timer value*/
 140:../Dave/Generated/src/LIBS/CCU8PWMLIB.c ****     HandlePtr->CC8yRegsPtr->TCCLR = (uint32_t)CCU8PWMLIB_SLICE_CLEAR;
  61              		.loc 1 140 0
  62 0020 7B68     		ldr	r3, [r7, #4]
  63 0022 5B6B     		ldr	r3, [r3, #52]
  64 0024 4FF00702 		mov	r2, #7
  65 0028 1A61     		str	r2, [r3, #16]
 141:../Dave/Generated/src/LIBS/CCU8PWMLIB.c ****     HandlePtr->CC8yRegsPtr->TC = 0x00U;
  66              		.loc 1 141 0
  67 002a 7B68     		ldr	r3, [r7, #4]
  68 002c 5B6B     		ldr	r3, [r3, #52]
  69 002e 4FF00002 		mov	r2, #0
  70 0032 5A61     		str	r2, [r3, #20]
 142:../Dave/Generated/src/LIBS/CCU8PWMLIB.c **** 
 143:../Dave/Generated/src/LIBS/CCU8PWMLIB.c ****     /*<<<DD_CCU8PWMLIB_API_1_3>>>*/
 144:../Dave/Generated/src/LIBS/CCU8PWMLIB.c ****     /* Configure external stop feature */
 145:../Dave/Generated/src/LIBS/CCU8PWMLIB.c ****     if (HandlePtr->kExtStopTrig == (uint8_t)SET)
  71              		.loc 1 145 0
  72 0034 7B68     		ldr	r3, [r7, #4]
  73 0036 5B78     		ldrb	r3, [r3, #1]	@ zero_extendqisi2
  74 0038 012B     		cmp	r3, #1
  75 003a 27D1     		bne	.L2
 146:../Dave/Generated/src/LIBS/CCU8PWMLIB.c ****     {
 147:../Dave/Generated/src/LIBS/CCU8PWMLIB.c ****       HandlePtr->CC8yRegsPtr->INS &= ~((CCU8_CC8_INS_EV1EM_Msk)|
  76              		.loc 1 147 0
  77 003c 7B68     		ldr	r3, [r7, #4]
  78 003e 5A6B     		ldr	r2, [r3, #52]
  79 0040 7B68     		ldr	r3, [r7, #4]
  80 0042 5B6B     		ldr	r3, [r3, #52]
  81 0044 1B68     		ldr	r3, [r3, #0]
  82 0046 23F0C053 		bic	r3, r3, #402653184
  83 004a 23F44023 		bic	r3, r3, #786432
  84 004e 1360     		str	r3, [r2, #0]
 148:../Dave/Generated/src/LIBS/CCU8PWMLIB.c ****        (CCU8_CC8_INS_LPF1M_Msk));
 149:../Dave/Generated/src/LIBS/CCU8PWMLIB.c ****       HandlePtr->CC8yRegsPtr->CMC &=  ~CCU8_CC8_CMC_ENDS_Msk;
  85              		.loc 1 149 0
  86 0050 7B68     		ldr	r3, [r7, #4]
  87 0052 5B6B     		ldr	r3, [r3, #52]
  88 0054 7A68     		ldr	r2, [r7, #4]
  89 0056 526B     		ldr	r2, [r2, #52]
  90 0058 5268     		ldr	r2, [r2, #4]
  91 005a 22F00C02 		bic	r2, r2, #12
  92 005e 5A60     		str	r2, [r3, #4]
 150:../Dave/Generated/src/LIBS/CCU8PWMLIB.c **** 
 151:../Dave/Generated/src/LIBS/CCU8PWMLIB.c ****       HandlePtr->CC8yRegsPtr->INS |=
  93              		.loc 1 151 0
  94 0060 7B68     		ldr	r3, [r7, #4]
  95 0062 5B6B     		ldr	r3, [r3, #52]
  96 0064 7A68     		ldr	r2, [r7, #4]
  97 0066 526B     		ldr	r2, [r2, #52]
  98 0068 1168     		ldr	r1, [r2, #0]
 152:../Dave/Generated/src/LIBS/CCU8PWMLIB.c ****       ((((uint32_t)HandlePtr->kStopEdge << \
  99              		.loc 1 152 0
 100 006a 7A68     		ldr	r2, [r7, #4]
 101 006c 92F82920 		ldrb	r2, [r2, #41]	@ zero_extendqisi2
 102 0070 4FEA8242 		lsl	r2, r2, #18
 153:../Dave/Generated/src/LIBS/CCU8PWMLIB.c ****       CCU8_CC8_INS_EV1EM_Pos)& CCU8_CC8_INS_EV1EM_Msk) |
 103              		.loc 1 153 0
 104 0074 02F44022 		and	r2, r2, #786432
 151:../Dave/Generated/src/LIBS/CCU8PWMLIB.c ****       HandlePtr->CC8yRegsPtr->INS |=
 105              		.loc 1 151 0
 106 0078 0A43     		orrs	r2, r2, r1
 107 007a 1A60     		str	r2, [r3, #0]
 154:../Dave/Generated/src/LIBS/CCU8PWMLIB.c ****       ((CCU8PWMLIB_LPF  << CCU8_CC8_INS_LPF1M_Pos)& (uint32_t)CCU8_CC8_INS_LPF1M_Msk));
 155:../Dave/Generated/src/LIBS/CCU8PWMLIB.c ****       HandlePtr->CC8yRegsPtr->CMC |=
 108              		.loc 1 155 0
 109 007c 7B68     		ldr	r3, [r7, #4]
 110 007e 5B6B     		ldr	r3, [r3, #52]
 111 0080 7A68     		ldr	r2, [r7, #4]
 112 0082 526B     		ldr	r2, [r2, #52]
 113 0084 5268     		ldr	r2, [r2, #4]
 114 0086 42F00802 		orr	r2, r2, #8
 115 008a 5A60     		str	r2, [r3, #4]
 116              	.L2:
 156:../Dave/Generated/src/LIBS/CCU8PWMLIB.c ****       ((CCU8PWMLIB_EVENT_1  << CCU8_CC8_CMC_ENDS_Pos)& (uint32_t)CCU8_CC8_CMC_ENDS_Msk);
 157:../Dave/Generated/src/LIBS/CCU8PWMLIB.c ****     }
 158:../Dave/Generated/src/LIBS/CCU8PWMLIB.c **** 
 159:../Dave/Generated/src/LIBS/CCU8PWMLIB.c ****     /*<<<DD_CCU8PWMLIB_API_1_4>>>*/
 160:../Dave/Generated/src/LIBS/CCU8PWMLIB.c ****     /* Configure trap feature */
 161:../Dave/Generated/src/LIBS/CCU8PWMLIB.c ****     if ((HandlePtr->kTrapEnable == (uint8_t)SET) &&\
 117              		.loc 1 161 0
 118 008c 7B68     		ldr	r3, [r7, #4]
 119 008e 1B7A     		ldrb	r3, [r3, #8]	@ zero_extendqisi2
 120 0090 012B     		cmp	r3, #1
 121 0092 22D1     		bne	.L3
 162:../Dave/Generated/src/LIBS/CCU8PWMLIB.c ****         (HandlePtr->kTimerConcatenation != (uint8_t)SET))
 122              		.loc 1 162 0 discriminator 1
 123 0094 7B68     		ldr	r3, [r7, #4]
 124 0096 DB79     		ldrb	r3, [r3, #7]	@ zero_extendqisi2
 161:../Dave/Generated/src/LIBS/CCU8PWMLIB.c ****     if ((HandlePtr->kTrapEnable == (uint8_t)SET) &&\
 125              		.loc 1 161 0 discriminator 1
 126 0098 012B     		cmp	r3, #1
 127 009a 1ED0     		beq	.L3
 163:../Dave/Generated/src/LIBS/CCU8PWMLIB.c ****     {
 164:../Dave/Generated/src/LIBS/CCU8PWMLIB.c ****       HandlePtr->CC8yRegsPtr -> INS &= ~((CCU8_CC8_INS_EV2EM_Msk) |\
 128              		.loc 1 164 0
 129 009c 7B68     		ldr	r3, [r7, #4]
 130 009e 5A6B     		ldr	r2, [r3, #52]
 131 00a0 7B68     		ldr	r3, [r7, #4]
 132 00a2 5B6B     		ldr	r3, [r3, #52]
 133 00a4 1B68     		ldr	r3, [r3, #0]
 134 00a6 23F0C243 		bic	r3, r3, #1627389952
 135 00aa 23F44013 		bic	r3, r3, #3145728
 136 00ae 1360     		str	r3, [r2, #0]
 165:../Dave/Generated/src/LIBS/CCU8PWMLIB.c ****           (CCU8_CC8_INS_EV2LM_Msk) | (CCU8_CC8_INS_LPF2M_Msk));
 166:../Dave/Generated/src/LIBS/CCU8PWMLIB.c ****       HandlePtr->CC8yRegsPtr -> INS |=
 137              		.loc 1 166 0
 138 00b0 7B68     		ldr	r3, [r7, #4]
 139 00b2 5B6B     		ldr	r3, [r3, #52]
 140 00b4 7A68     		ldr	r2, [r7, #4]
 141 00b6 526B     		ldr	r2, [r2, #52]
 142 00b8 1168     		ldr	r1, [r2, #0]
 167:../Dave/Generated/src/LIBS/CCU8PWMLIB.c ****           (((0x00 << CCU8_CC8_INS_EV2EM_Pos)& CCU8_CC8_INS_EV2EM_Msk) |
 168:../Dave/Generated/src/LIBS/CCU8PWMLIB.c ****           (((uint32_t)HandlePtr->kTrapLevel << CCU8_CC8_INS_EV2LM_Pos)& CCU8_CC8_INS_EV2LM_Msk) |
 143              		.loc 1 168 0
 144 00ba 7A68     		ldr	r2, [r7, #4]
 145 00bc 927A     		ldrb	r2, [r2, #10]	@ zero_extendqisi2
 146 00be 4FEA0262 		lsl	r2, r2, #24
 147 00c2 02F08072 		and	r2, r2, #16777216
 166:../Dave/Generated/src/LIBS/CCU8PWMLIB.c ****       HandlePtr->CC8yRegsPtr -> INS |=
 148              		.loc 1 166 0
 149 00c6 0A43     		orrs	r2, r2, r1
 150 00c8 1A60     		str	r2, [r3, #0]
 169:../Dave/Generated/src/LIBS/CCU8PWMLIB.c ****           ((0x00 << CCU8_CC8_INS_LPF2M_Pos)& CCU8_CC8_INS_LPF2M_Msk));
 170:../Dave/Generated/src/LIBS/CCU8PWMLIB.c ****       HandlePtr->CC8yRegsPtr->CMC |= (0x01 << CCU8_CC8_CMC_TS_Pos);
 151              		.loc 1 170 0
 152 00ca 7B68     		ldr	r3, [r7, #4]
 153 00cc 5B6B     		ldr	r3, [r3, #52]
 154 00ce 7A68     		ldr	r2, [r7, #4]
 155 00d0 526B     		ldr	r2, [r2, #52]
 156 00d2 5268     		ldr	r2, [r2, #4]
 157 00d4 42F40032 		orr	r2, r2, #131072
 158 00d8 5A60     		str	r2, [r3, #4]
 159              	.L3:
 171:../Dave/Generated/src/LIBS/CCU8PWMLIB.c ****     }/* End of  if (HandlePtr->kTrapEnable == (uint8_t)SET)*/
 172:../Dave/Generated/src/LIBS/CCU8PWMLIB.c ****     
 173:../Dave/Generated/src/LIBS/CCU8PWMLIB.c ****     /* Configure timer counting mode, compare mode, external start, stop controls */
 174:../Dave/Generated/src/LIBS/CCU8PWMLIB.c ****     HandlePtr->CC8yRegsPtr->TC &= ~((CCU8_CC8_TC_TCM_Msk) |
 160              		.loc 1 174 0
 161 00da 7B68     		ldr	r3, [r7, #4]
 162 00dc 5A6B     		ldr	r2, [r3, #52]
 163 00de 7B68     		ldr	r3, [r7, #4]
 164 00e0 5B6B     		ldr	r3, [r3, #52]
 165 00e2 5B69     		ldr	r3, [r3, #20]
 166 00e4 23F4E163 		bic	r3, r3, #1800
 167 00e8 23F00303 		bic	r3, r3, #3
 168 00ec 5361     		str	r3, [r2, #20]
 175:../Dave/Generated/src/LIBS/CCU8PWMLIB.c ****                            (CCU8_CC8_TC_TSSM_Msk) | (CCU8_CC8_TC_CMOD_Msk) |
 176:../Dave/Generated/src/LIBS/CCU8PWMLIB.c ****                             (CCU8_CC8_TC_STRM_Msk) | (CCU8_CC8_TC_ENDM_Msk));
 177:../Dave/Generated/src/LIBS/CCU8PWMLIB.c ****     HandlePtr->CC8yRegsPtr->TC =(((uint32_t)
 169              		.loc 1 177 0
 170 00ee 7B68     		ldr	r3, [r7, #4]
 171 00f0 5B6B     		ldr	r3, [r3, #52]
 178:../Dave/Generated/src/LIBS/CCU8PWMLIB.c ****       HandlePtr->CountingMode << CCU8_CC8_TC_TCM_Pos)& CCU8_CC8_TC_TCM_Msk)|
 172              		.loc 1 178 0
 173 00f2 7A68     		ldr	r2, [r7, #4]
 174 00f4 92F84020 		ldrb	r2, [r2, #64]	@ zero_extendqisi2
 175 00f8 02F00101 		and	r1, r2, #1
 179:../Dave/Generated/src/LIBS/CCU8PWMLIB.c ****       ((CCU8PWMLIB_COMPARE_MODE  << CCU8_CC8_TC_CMOD_Pos)& CCU8_CC8_TC_CMOD_Msk)|
 180:../Dave/Generated/src/LIBS/CCU8PWMLIB.c ****       (((uint32_t)
 181:../Dave/Generated/src/LIBS/CCU8PWMLIB.c ****       HandlePtr->ExtStartConfig << CCU8_CC8_TC_STRM_Pos)& CCU8_CC8_TC_STRM_Msk)|
 176              		.loc 1 181 0
 177 00fc 7A68     		ldr	r2, [r7, #4]
 178 00fe 92F84420 		ldrb	r2, [r2, #68]	@ zero_extendqisi2
 179 0102 4FEA8222 		lsl	r2, r2, #10
 180 0106 02F48062 		and	r2, r2, #1024
 179:../Dave/Generated/src/LIBS/CCU8PWMLIB.c ****       ((CCU8PWMLIB_COMPARE_MODE  << CCU8_CC8_TC_CMOD_Pos)& CCU8_CC8_TC_CMOD_Msk)|
 181              		.loc 1 179 0
 182 010a 1143     		orrs	r1, r1, r2
 182:../Dave/Generated/src/LIBS/CCU8PWMLIB.c ****       (((uint32_t)
 183:../Dave/Generated/src/LIBS/CCU8PWMLIB.c ****       HandlePtr->ExtStopConfig  << CCU8_CC8_TC_ENDM_Pos)& CCU8_CC8_TC_ENDM_Msk);
 183              		.loc 1 183 0
 184 010c 7A68     		ldr	r2, [r7, #4]
 185 010e 92F84120 		ldrb	r2, [r2, #65]	@ zero_extendqisi2
 186 0112 4FEA0222 		lsl	r2, r2, #8
 187 0116 02F44072 		and	r2, r2, #768
 181:../Dave/Generated/src/LIBS/CCU8PWMLIB.c ****       HandlePtr->ExtStartConfig << CCU8_CC8_TC_STRM_Pos)& CCU8_CC8_TC_STRM_Msk)|
 188              		.loc 1 181 0
 189 011a 0A43     		orrs	r2, r2, r1
 177:../Dave/Generated/src/LIBS/CCU8PWMLIB.c ****     HandlePtr->CC8yRegsPtr->TC =(((uint32_t)
 190              		.loc 1 177 0
 191 011c 5A61     		str	r2, [r3, #20]
 184:../Dave/Generated/src/LIBS/CCU8PWMLIB.c **** 
 185:../Dave/Generated/src/LIBS/CCU8PWMLIB.c ****     if(HandlePtr->kTimerConcatenation != (uint8_t)SET)
 192              		.loc 1 185 0
 193 011e 7B68     		ldr	r3, [r7, #4]
 194 0120 DB79     		ldrb	r3, [r3, #7]	@ zero_extendqisi2
 195 0122 012B     		cmp	r3, #1
 196 0124 0CD0     		beq	.L4
 186:../Dave/Generated/src/LIBS/CCU8PWMLIB.c ****     {
 187:../Dave/Generated/src/LIBS/CCU8PWMLIB.c ****         HandlePtr->CC8yRegsPtr->TC |=(uint32_t)
 197              		.loc 1 187 0
 198 0126 7B68     		ldr	r3, [r7, #4]
 199 0128 5B6B     		ldr	r3, [r3, #52]
 200 012a 7A68     		ldr	r2, [r7, #4]
 201 012c 526B     		ldr	r2, [r2, #52]
 202 012e 5169     		ldr	r1, [r2, #20]
 188:../Dave/Generated/src/LIBS/CCU8PWMLIB.c **** 		 (HandlePtr->kTimerMode << CCU8_CC8_TC_TSSM_Pos)& CCU8_CC8_TC_TSSM_Msk;
 203              		.loc 1 188 0
 204 0130 7A68     		ldr	r2, [r7, #4]
 205 0132 9279     		ldrb	r2, [r2, #6]	@ zero_extendqisi2
 206 0134 4FEA4202 		lsl	r2, r2, #1
 207 0138 02F00202 		and	r2, r2, #2
 187:../Dave/Generated/src/LIBS/CCU8PWMLIB.c ****         HandlePtr->CC8yRegsPtr->TC |=(uint32_t)
 208              		.loc 1 187 0
 209 013c 0A43     		orrs	r2, r2, r1
 210 013e 5A61     		str	r2, [r3, #20]
 211              	.L4:
 189:../Dave/Generated/src/LIBS/CCU8PWMLIB.c ****     }
 190:../Dave/Generated/src/LIBS/CCU8PWMLIB.c **** 
 191:../Dave/Generated/src/LIBS/CCU8PWMLIB.c ****  /*Set the dither mode setting*/
 192:../Dave/Generated/src/LIBS/CCU8PWMLIB.c ****     HandlePtr->CC8yRegsPtr->TC |=
 212              		.loc 1 192 0
 213 0140 7B68     		ldr	r3, [r7, #4]
 214 0142 5B6B     		ldr	r3, [r3, #52]
 215 0144 7A68     		ldr	r2, [r7, #4]
 216 0146 526B     		ldr	r2, [r2, #52]
 217 0148 5169     		ldr	r1, [r2, #20]
 193:../Dave/Generated/src/LIBS/CCU8PWMLIB.c ****         (HandlePtr->kDitherSetting  << CCU8_CC8_TC_DITHE_Pos) & CCU8_CC8_TC_DITHE_Msk;
 218              		.loc 1 193 0
 219 014a 7A68     		ldr	r2, [r7, #4]
 220 014c 927B     		ldrb	r2, [r2, #14]	@ zero_extendqisi2
 221 014e 4FEA4232 		lsl	r2, r2, #13
 222 0152 02F4C042 		and	r2, r2, #24576
 192:../Dave/Generated/src/LIBS/CCU8PWMLIB.c ****     HandlePtr->CC8yRegsPtr->TC |=
 223              		.loc 1 192 0
 224 0156 0A43     		orrs	r2, r2, r1
 225 0158 5A61     		str	r2, [r3, #20]
 194:../Dave/Generated/src/LIBS/CCU8PWMLIB.c **** 
 195:../Dave/Generated/src/LIBS/CCU8PWMLIB.c ****     HandlePtr->CC8yRegsPtr->DITS =
 226              		.loc 1 195 0
 227 015a 7B68     		ldr	r3, [r7, #4]
 228 015c 5B6B     		ldr	r3, [r3, #52]
 196:../Dave/Generated/src/LIBS/CCU8PWMLIB.c ****     (HandlePtr->kDitherCompare  << CCU8_CC8_DITS_DCVS_Pos) & CCU8_CC8_DITS_DCVS_Msk;
 229              		.loc 1 196 0
 230 015e 7A68     		ldr	r2, [r7, #4]
 231 0160 127B     		ldrb	r2, [r2, #12]	@ zero_extendqisi2
 232 0162 02F00F02 		and	r2, r2, #15
 195:../Dave/Generated/src/LIBS/CCU8PWMLIB.c ****     HandlePtr->CC8yRegsPtr->DITS =
 233              		.loc 1 195 0
 234 0166 1A62     		str	r2, [r3, #32]
 197:../Dave/Generated/src/LIBS/CCU8PWMLIB.c **** 
 198:../Dave/Generated/src/LIBS/CCU8PWMLIB.c **** /*Configure Trap mode*/
 199:../Dave/Generated/src/LIBS/CCU8PWMLIB.c **** /*<<<DD_CCU8PWMLIB_API_1_6>>>*/
 200:../Dave/Generated/src/LIBS/CCU8PWMLIB.c ****     if(HandlePtr->kTimerConcatenation != (uint8_t)SET)
 235              		.loc 1 200 0
 236 0168 7B68     		ldr	r3, [r7, #4]
 237 016a DB79     		ldrb	r3, [r3, #7]	@ zero_extendqisi2
 238 016c 012B     		cmp	r3, #1
 239 016e 3BD0     		beq	.L5
 201:../Dave/Generated/src/LIBS/CCU8PWMLIB.c ****     {
 202:../Dave/Generated/src/LIBS/CCU8PWMLIB.c ****       WR_REG(HandlePtr->CC8yRegsPtr->TC, CCU8_CC8_TC_TRPSE_Msk,
 240              		.loc 1 202 0
 241 0170 7B68     		ldr	r3, [r7, #4]
 242 0172 5B6B     		ldr	r3, [r3, #52]
 243 0174 7A68     		ldr	r2, [r7, #4]
 244 0176 527A     		ldrb	r2, [r2, #9]	@ zero_extendqisi2
 245 0178 4FEA4252 		lsl	r2, r2, #21
 246 017c 02F40011 		and	r1, r2, #2097152
 247 0180 7A68     		ldr	r2, [r7, #4]
 248 0182 526B     		ldr	r2, [r2, #52]
 249 0184 5269     		ldr	r2, [r2, #20]
 250 0186 22F40012 		bic	r2, r2, #2097152
 251 018a 0A43     		orrs	r2, r2, r1
 252 018c 5A61     		str	r2, [r3, #20]
 203:../Dave/Generated/src/LIBS/CCU8PWMLIB.c ****              CCU8_CC8_TC_TRPSE_Pos, HandlePtr->kTrapSync);
 204:../Dave/Generated/src/LIBS/CCU8PWMLIB.c ****       WR_REG(HandlePtr->CC8yRegsPtr->TC, CCU8_CC8_TC_TRPSW_Msk,
 253              		.loc 1 204 0
 254 018e 7B68     		ldr	r3, [r7, #4]
 255 0190 5B6B     		ldr	r3, [r3, #52]
 256 0192 7A68     		ldr	r2, [r7, #4]
 257 0194 D27A     		ldrb	r2, [r2, #11]	@ zero_extendqisi2
 258 0196 4FEA8252 		lsl	r2, r2, #22
 259 019a 02F48001 		and	r1, r2, #4194304
 260 019e 7A68     		ldr	r2, [r7, #4]
 261 01a0 526B     		ldr	r2, [r2, #52]
 262 01a2 5269     		ldr	r2, [r2, #20]
 263 01a4 22F48002 		bic	r2, r2, #4194304
 264 01a8 0A43     		orrs	r2, r2, r1
 265 01aa 5A61     		str	r2, [r3, #20]
 205:../Dave/Generated/src/LIBS/CCU8PWMLIB.c ****          CCU8_CC8_TC_TRPSW_Pos, HandlePtr->kTrapExitControl);
 206:../Dave/Generated/src/LIBS/CCU8PWMLIB.c ****       /*enable the Trap*/
 207:../Dave/Generated/src/LIBS/CCU8PWMLIB.c ****       WR_REG(HandlePtr->CC8yRegsPtr->TC, CCU8_CC8_TC_TRAPE0_Msk,
 266              		.loc 1 207 0
 267 01ac 7B68     		ldr	r3, [r7, #4]
 268 01ae 5B6B     		ldr	r3, [r3, #52]
 269 01b0 7A68     		ldr	r2, [r7, #4]
 270 01b2 127A     		ldrb	r2, [r2, #8]	@ zero_extendqisi2
 271 01b4 4FEA4242 		lsl	r2, r2, #17
 272 01b8 02F40031 		and	r1, r2, #131072
 273 01bc 7A68     		ldr	r2, [r7, #4]
 274 01be 526B     		ldr	r2, [r2, #52]
 275 01c0 5269     		ldr	r2, [r2, #20]
 276 01c2 22F40032 		bic	r2, r2, #131072
 277 01c6 0A43     		orrs	r2, r2, r1
 278 01c8 5A61     		str	r2, [r3, #20]
 208:../Dave/Generated/src/LIBS/CCU8PWMLIB.c ****                CCU8_CC8_TC_TRAPE0_Pos, HandlePtr->kTrapEnable);
 209:../Dave/Generated/src/LIBS/CCU8PWMLIB.c ****       WR_REG(HandlePtr->CC8yRegsPtr->TC, CCU8_CC8_TC_TRAPE1_Msk,
 279              		.loc 1 209 0
 280 01ca 7B68     		ldr	r3, [r7, #4]
 281 01cc 5B6B     		ldr	r3, [r3, #52]
 282 01ce 7A68     		ldr	r2, [r7, #4]
 283 01d0 127A     		ldrb	r2, [r2, #8]	@ zero_extendqisi2
 284 01d2 4FEA8242 		lsl	r2, r2, #18
 285 01d6 02F48021 		and	r1, r2, #262144
 286 01da 7A68     		ldr	r2, [r7, #4]
 287 01dc 526B     		ldr	r2, [r2, #52]
 288 01de 5269     		ldr	r2, [r2, #20]
 289 01e0 22F48022 		bic	r2, r2, #262144
 290 01e4 0A43     		orrs	r2, r2, r1
 291 01e6 5A61     		str	r2, [r3, #20]
 292              	.L5:
 210:../Dave/Generated/src/LIBS/CCU8PWMLIB.c ****                CCU8_CC8_TC_TRAPE1_Pos, HandlePtr->kTrapEnable);
 211:../Dave/Generated/src/LIBS/CCU8PWMLIB.c ****     }
 212:../Dave/Generated/src/LIBS/CCU8PWMLIB.c ****     /*Set the prescalar divider and passive level of the o/p signal.*/
 213:../Dave/Generated/src/LIBS/CCU8PWMLIB.c ****     WR_REG(HandlePtr->CC8yRegsPtr->PSC,CCU8_CC8_PSC_PSIV_Msk,
 293              		.loc 1 213 0
 294 01e8 7B68     		ldr	r3, [r7, #4]
 295 01ea 5B6B     		ldr	r3, [r3, #52]
 296 01ec 7A68     		ldr	r2, [r7, #4]
 297 01ee 526A     		ldr	r2, [r2, #36]
 298 01f0 02F00F01 		and	r1, r2, #15
 299 01f4 7A68     		ldr	r2, [r7, #4]
 300 01f6 526B     		ldr	r2, [r2, #52]
 301 01f8 526A     		ldr	r2, [r2, #36]
 302 01fa 22F00F02 		bic	r2, r2, #15
 303 01fe 0A43     		orrs	r2, r2, r1
 304 0200 5A62     		str	r2, [r3, #36]
 214:../Dave/Generated/src/LIBS/CCU8PWMLIB.c ****         CCU8_CC8_PSC_PSIV_Pos, HandlePtr->kCCUPrescalar);
 215:../Dave/Generated/src/LIBS/CCU8PWMLIB.c ****     HandlePtr->CC8yRegsPtr->PSL =
 305              		.loc 1 215 0
 306 0202 7B68     		ldr	r3, [r7, #4]
 307 0204 5B6B     		ldr	r3, [r3, #52]
 216:../Dave/Generated/src/LIBS/CCU8PWMLIB.c ****             ((HandlePtr->kPassiveLevel0 << CCU8_CC8_PSL_PSL11_Pos) |
 308              		.loc 1 216 0
 309 0206 7A68     		ldr	r2, [r7, #4]
 310 0208 1279     		ldrb	r2, [r2, #4]	@ zero_extendqisi2
 311 020a 1146     		mov	r1, r2
 217:../Dave/Generated/src/LIBS/CCU8PWMLIB.c ****             (HandlePtr->kPassiveLevel1 << CCU8_CC8_PSL_PSL12_Pos));
 312              		.loc 1 217 0
 313 020c 7A68     		ldr	r2, [r7, #4]
 314 020e 5279     		ldrb	r2, [r2, #5]	@ zero_extendqisi2
 315 0210 4FEA4202 		lsl	r2, r2, #1
 216:../Dave/Generated/src/LIBS/CCU8PWMLIB.c ****             ((HandlePtr->kPassiveLevel0 << CCU8_CC8_PSL_PSL11_Pos) |
 316              		.loc 1 216 0
 317 0214 0A43     		orrs	r2, r2, r1
 215:../Dave/Generated/src/LIBS/CCU8PWMLIB.c ****     HandlePtr->CC8yRegsPtr->PSL =
 318              		.loc 1 215 0
 319 0216 9A61     		str	r2, [r3, #24]
 218:../Dave/Generated/src/LIBS/CCU8PWMLIB.c **** 
 219:../Dave/Generated/src/LIBS/CCU8PWMLIB.c **** /*Set the symmetric or asymmetric PWM setting*/
 220:../Dave/Generated/src/LIBS/CCU8PWMLIB.c ****     WR_REG(HandlePtr->CC8yRegsPtr->CHC, CCU8_CC8_CHC_ASE_Msk,\
 320              		.loc 1 220 0
 321 0218 7B68     		ldr	r3, [r7, #4]
 322 021a 5B6B     		ldr	r3, [r3, #52]
 323 021c 7A68     		ldr	r2, [r7, #4]
 324 021e 92F84320 		ldrb	r2, [r2, #67]	@ zero_extendqisi2
 325 0222 02F00101 		and	r1, r2, #1
 326 0226 7A68     		ldr	r2, [r7, #4]
 327 0228 526B     		ldr	r2, [r2, #52]
 328 022a 926C     		ldr	r2, [r2, #72]
 329 022c 22F00102 		bic	r2, r2, #1
 330 0230 0A43     		orrs	r2, r2, r1
 331 0232 9A64     		str	r2, [r3, #72]
 221:../Dave/Generated/src/LIBS/CCU8PWMLIB.c ****             CCU8_CC8_CHC_ASE_Pos,(uint32_t)HandlePtr->CompareMode);
 222:../Dave/Generated/src/LIBS/CCU8PWMLIB.c **** 
 223:../Dave/Generated/src/LIBS/CCU8PWMLIB.c **** /*Configure output connections as per passive state.*/
 224:../Dave/Generated/src/LIBS/CCU8PWMLIB.c ****     HandlePtr->CC8yRegsPtr->CHC &= ~((CCU8_CC8_CHC_OCS2_Msk)|(CCU8_CC8_CHC_OCS2_Msk));
 332              		.loc 1 224 0
 333 0234 7B68     		ldr	r3, [r7, #4]
 334 0236 5B6B     		ldr	r3, [r3, #52]
 335 0238 7A68     		ldr	r2, [r7, #4]
 336 023a 526B     		ldr	r2, [r2, #52]
 337 023c 926C     		ldr	r2, [r2, #72]
 338 023e 22F00402 		bic	r2, r2, #4
 339 0242 9A64     		str	r2, [r3, #72]
 225:../Dave/Generated/src/LIBS/CCU8PWMLIB.c ****     HandlePtr->CC8yRegsPtr->CHC |=
 340              		.loc 1 225 0
 341 0244 7B68     		ldr	r3, [r7, #4]
 342 0246 5B6B     		ldr	r3, [r3, #52]
 343 0248 7A68     		ldr	r2, [r7, #4]
 344 024a 526B     		ldr	r2, [r2, #52]
 345 024c 916C     		ldr	r1, [r2, #72]
 226:../Dave/Generated/src/LIBS/CCU8PWMLIB.c ****         (((uint32_t)HandlePtr->kPassiveState0 << CCU8_CC8_CHC_OCS1_Pos) |
 346              		.loc 1 226 0
 347 024e 7A68     		ldr	r2, [r7, #4]
 348 0250 9278     		ldrb	r2, [r2, #2]	@ zero_extendqisi2
 349 0252 4FEA4200 		lsl	r0, r2, #1
 227:../Dave/Generated/src/LIBS/CCU8PWMLIB.c ****         (((~(uint32_t)HandlePtr->kPassiveState1 )<< CCU8_CC8_CHC_OCS2_Pos) & CCU8_CC8_CHC_OCS2_Msk)
 350              		.loc 1 227 0
 351 0256 7A68     		ldr	r2, [r7, #4]
 352 0258 D278     		ldrb	r2, [r2, #3]	@ zero_extendqisi2
 353 025a 6FEA0202 		mvn	r2, r2
 354 025e 4FEA8202 		lsl	r2, r2, #2
 355 0262 02F00402 		and	r2, r2, #4
 226:../Dave/Generated/src/LIBS/CCU8PWMLIB.c ****         (((uint32_t)HandlePtr->kPassiveState0 << CCU8_CC8_CHC_OCS1_Pos) |
 356              		.loc 1 226 0
 357 0266 0243     		orrs	r2, r2, r0
 225:../Dave/Generated/src/LIBS/CCU8PWMLIB.c ****     HandlePtr->CC8yRegsPtr->CHC |=
 358              		.loc 1 225 0
 359 0268 0A43     		orrs	r2, r2, r1
 360 026a 9A64     		str	r2, [r3, #72]
 228:../Dave/Generated/src/LIBS/CCU8PWMLIB.c **** 
 229:../Dave/Generated/src/LIBS/CCU8PWMLIB.c ****     /* Configure the dead time mode and rising and falling dead time*/
 230:../Dave/Generated/src/LIBS/CCU8PWMLIB.c ****     HandlePtr->CC8yRegsPtr->DTC &= ~((CCU8_CC8_DTC_DTCC_Msk) |
 361              		.loc 1 230 0
 362 026c 7B68     		ldr	r3, [r7, #4]
 363 026e 5B6B     		ldr	r3, [r3, #52]
 364 0270 7A68     		ldr	r2, [r7, #4]
 365 0272 526B     		ldr	r2, [r2, #52]
 366 0274 D26C     		ldr	r2, [r2, #76]
 367 0276 22F0CF02 		bic	r2, r2, #207
 368 027a DA64     		str	r2, [r3, #76]
 231:../Dave/Generated/src/LIBS/CCU8PWMLIB.c ****         (CCU8_CC8_DTC_DTE1_Msk)| (CCU8_CC8_DTC_DTE2_Msk) |
 232:../Dave/Generated/src/LIBS/CCU8PWMLIB.c ****         (CCU8_CC8_DTC_DCEN1_Msk)|(CCU8_CC8_DTC_DCEN2_Msk));
 233:../Dave/Generated/src/LIBS/CCU8PWMLIB.c ****     HandlePtr->CC8yRegsPtr->DTC = (uint32_t)
 369              		.loc 1 233 0
 370 027c 7B68     		ldr	r3, [r7, #4]
 371 027e 5A6B     		ldr	r2, [r3, #52]
 234:../Dave/Generated/src/LIBS/CCU8PWMLIB.c ****         (((HandlePtr->kDeadTimePrescalar  << CCU8_CC8_DTC_DTCC_Pos) & CCU8_CC8_DTC_DTCC_Msk)|
 372              		.loc 1 234 0
 373 0280 7B68     		ldr	r3, [r7, #4]
 374 0282 5B7B     		ldrb	r3, [r3, #13]	@ zero_extendqisi2
 375 0284 4FEA8313 		lsl	r3, r3, #6
 376 0288 D9B2     		uxtb	r1, r3
 235:../Dave/Generated/src/LIBS/CCU8PWMLIB.c ****         DeadTimeConfVal[HandlePtr->DeadTimeConf]);
 377              		.loc 1 235 0
 378 028a 7B68     		ldr	r3, [r7, #4]
 379 028c 93F84230 		ldrb	r3, [r3, #66]	@ zero_extendqisi2
 380 0290 4FEA8303 		lsl	r3, r3, #2
 381 0294 07F12000 		add	r0, r7, #32
 382 0298 C318     		adds	r3, r0, r3
 383 029a 53F8143C 		ldr	r3, [r3, #-20]
 233:../Dave/Generated/src/LIBS/CCU8PWMLIB.c ****     HandlePtr->CC8yRegsPtr->DTC = (uint32_t)
 384              		.loc 1 233 0
 385 029e 0B43     		orrs	r3, r3, r1
 386 02a0 D364     		str	r3, [r2, #76]
 236:../Dave/Generated/src/LIBS/CCU8PWMLIB.c **** 
 237:../Dave/Generated/src/LIBS/CCU8PWMLIB.c ****     HandlePtr->CC8yRegsPtr->DC1R &= ~((CCU8_CC8_DC1R_DT1R_Msk) |
 387              		.loc 1 237 0
 388 02a2 7B68     		ldr	r3, [r7, #4]
 389 02a4 5A6B     		ldr	r2, [r3, #52]
 390 02a6 7B68     		ldr	r3, [r7, #4]
 391 02a8 5B6B     		ldr	r3, [r3, #52]
 392 02aa 1B6D     		ldr	r3, [r3, #80]
 393 02ac 4FEA1343 		lsr	r3, r3, #16
 394 02b0 4FEA0343 		lsl	r3, r3, #16
 395 02b4 1365     		str	r3, [r2, #80]
 238:../Dave/Generated/src/LIBS/CCU8PWMLIB.c ****         (CCU8_CC8_DC1R_DT1F_Msk));
 239:../Dave/Generated/src/LIBS/CCU8PWMLIB.c ****     HandlePtr->CC8yRegsPtr->DC1R = (uint32_t)
 396              		.loc 1 239 0
 397 02b6 7B68     		ldr	r3, [r7, #4]
 398 02b8 5A6B     		ldr	r2, [r3, #52]
 240:../Dave/Generated/src/LIBS/CCU8PWMLIB.c ****         (( HandlePtr->kRisingDeadTime << CCU8_CC8_DC1R_DT1R_Pos)
 399              		.loc 1 240 0
 400 02ba 7B68     		ldr	r3, [r7, #4]
 401 02bc 9B8A     		ldrh	r3, [r3, #20]
 239:../Dave/Generated/src/LIBS/CCU8PWMLIB.c ****     HandlePtr->CC8yRegsPtr->DC1R = (uint32_t)
 402              		.loc 1 239 0
 403 02be D9B2     		uxtb	r1, r3
 241:../Dave/Generated/src/LIBS/CCU8PWMLIB.c ****             & CCU8_CC8_DC1R_DT1R_Msk)|
 242:../Dave/Generated/src/LIBS/CCU8PWMLIB.c ****         (( HandlePtr->kFallingDeadTime << CCU8_CC8_DC1R_DT1F_Pos)
 404              		.loc 1 242 0
 405 02c0 7B68     		ldr	r3, [r7, #4]
 406 02c2 5B8A     		ldrh	r3, [r3, #18]
 407 02c4 4FEA0323 		lsl	r3, r3, #8
 243:../Dave/Generated/src/LIBS/CCU8PWMLIB.c ****             & CCU8_CC8_DC1R_DT1F_Msk);
 408              		.loc 1 243 0
 409 02c8 4FEA0343 		lsl	r3, r3, #16
 410 02cc 4FEA1343 		lsr	r3, r3, #16
 241:../Dave/Generated/src/LIBS/CCU8PWMLIB.c ****             & CCU8_CC8_DC1R_DT1R_Msk)|
 411              		.loc 1 241 0
 412 02d0 0B43     		orrs	r3, r3, r1
 239:../Dave/Generated/src/LIBS/CCU8PWMLIB.c ****     HandlePtr->CC8yRegsPtr->DC1R = (uint32_t)
 413              		.loc 1 239 0
 414 02d2 1365     		str	r3, [r2, #80]
 244:../Dave/Generated/src/LIBS/CCU8PWMLIB.c **** 
 245:../Dave/Generated/src/LIBS/CCU8PWMLIB.c **** /*<<<DD_CCU8PWMLIB_API_1_7>>>*/
 246:../Dave/Generated/src/LIBS/CCU8PWMLIB.c **** /*Set period register's value*/
 247:../Dave/Generated/src/LIBS/CCU8PWMLIB.c ****     HandlePtr->CC8yRegsPtr->PRS = (uint32_t)(HandlePtr->kPeriodVal & 0xffff);
 415              		.loc 1 247 0
 416 02d4 7B68     		ldr	r3, [r7, #4]
 417 02d6 5A6B     		ldr	r2, [r3, #52]
 418 02d8 7B68     		ldr	r3, [r7, #4]
 419 02da DB6A     		ldr	r3, [r3, #44]
 420 02dc 4FEA0343 		lsl	r3, r3, #16
 421 02e0 4FEA1343 		lsr	r3, r3, #16
 422 02e4 5363     		str	r3, [r2, #52]
 248:../Dave/Generated/src/LIBS/CCU8PWMLIB.c **** 
 249:../Dave/Generated/src/LIBS/CCU8PWMLIB.c **** /*Set compare register's value*/
 250:../Dave/Generated/src/LIBS/CCU8PWMLIB.c ****     HandlePtr->CC8yRegsPtr->CR1S = (uint32_t)
 423              		.loc 1 250 0
 424 02e6 7B68     		ldr	r3, [r7, #4]
 425 02e8 5A6B     		ldr	r2, [r3, #52]
 251:../Dave/Generated/src/LIBS/CCU8PWMLIB.c ****         (HandlePtr->kCompareValue1 & 0xffffU);
 426              		.loc 1 251 0
 427 02ea 7B68     		ldr	r3, [r7, #4]
 428 02ec DB69     		ldr	r3, [r3, #28]
 250:../Dave/Generated/src/LIBS/CCU8PWMLIB.c ****     HandlePtr->CC8yRegsPtr->CR1S = (uint32_t)
 429              		.loc 1 250 0
 430 02ee 4FEA0343 		lsl	r3, r3, #16
 431 02f2 4FEA1343 		lsr	r3, r3, #16
 432 02f6 D363     		str	r3, [r2, #60]
 252:../Dave/Generated/src/LIBS/CCU8PWMLIB.c ****  /* Configure channel 2 register CR2 register in case of asymmetric mode*/
 253:../Dave/Generated/src/LIBS/CCU8PWMLIB.c ****     if (HandlePtr->CompareMode == CCU8PWMLIB_ASYMMETRIC)
 433              		.loc 1 253 0
 434 02f8 7B68     		ldr	r3, [r7, #4]
 435 02fa 93F84330 		ldrb	r3, [r3, #67]	@ zero_extendqisi2
 436 02fe 012B     		cmp	r3, #1
 437 0300 08D1     		bne	.L6
 254:../Dave/Generated/src/LIBS/CCU8PWMLIB.c ****     {
 255:../Dave/Generated/src/LIBS/CCU8PWMLIB.c ****       HandlePtr->CC8yRegsPtr->CR2S = (uint32_t)
 438              		.loc 1 255 0
 439 0302 7B68     		ldr	r3, [r7, #4]
 440 0304 5A6B     		ldr	r2, [r3, #52]
 256:../Dave/Generated/src/LIBS/CCU8PWMLIB.c ****           (HandlePtr->kCompareValue2 & 0xffffU);
 441              		.loc 1 256 0
 442 0306 7B68     		ldr	r3, [r7, #4]
 443 0308 1B6A     		ldr	r3, [r3, #32]
 255:../Dave/Generated/src/LIBS/CCU8PWMLIB.c ****       HandlePtr->CC8yRegsPtr->CR2S = (uint32_t)
 444              		.loc 1 255 0
 445 030a 4FEA0343 		lsl	r3, r3, #16
 446 030e 4FEA1343 		lsr	r3, r3, #16
 447 0312 5364     		str	r3, [r2, #68]
 448              	.L6:
 257:../Dave/Generated/src/LIBS/CCU8PWMLIB.c ****     }
 258:../Dave/Generated/src/LIBS/CCU8PWMLIB.c **** 
 259:../Dave/Generated/src/LIBS/CCU8PWMLIB.c ****   /*Request SW shadow transfer for period, compare, dither and prescalar level*/
 260:../Dave/Generated/src/LIBS/CCU8PWMLIB.c ****     HandlePtr->CC8yKernRegsPtr->GCSS |= ((0x01UL <<
 449              		.loc 1 260 0
 450 0314 7B68     		ldr	r3, [r7, #4]
 451 0316 1B6B     		ldr	r3, [r3, #48]
 452 0318 7A68     		ldr	r2, [r7, #4]
 453 031a 126B     		ldr	r2, [r2, #48]
 454 031c 1169     		ldr	r1, [r2, #16]
 261:../Dave/Generated/src/LIBS/CCU8PWMLIB.c ****                                   (4U * (uint32_t)HandlePtr->FirstSlice)) |
 455              		.loc 1 261 0
 456 031e 7A68     		ldr	r2, [r7, #4]
 457 0320 92F84520 		ldrb	r2, [r2, #69]	@ zero_extendqisi2
 458 0324 4FEA8202 		lsl	r2, r2, #2
 260:../Dave/Generated/src/LIBS/CCU8PWMLIB.c ****     HandlePtr->CC8yKernRegsPtr->GCSS |= ((0x01UL <<
 459              		.loc 1 260 0
 460 0328 4FF00100 		mov	r0, #1
 461 032c 00FA02F0 		lsl	r0, r0, r2
 262:../Dave/Generated/src/LIBS/CCU8PWMLIB.c ****                                   (0x01UL <<
 263:../Dave/Generated/src/LIBS/CCU8PWMLIB.c ****                                   ((4U * (uint32_t)HandlePtr->FirstSlice) + 1U)) |
 462              		.loc 1 263 0
 463 0330 7A68     		ldr	r2, [r7, #4]
 464 0332 92F84520 		ldrb	r2, [r2, #69]	@ zero_extendqisi2
 465 0336 4FEA8202 		lsl	r2, r2, #2
 466 033a 02F10102 		add	r2, r2, #1
 262:../Dave/Generated/src/LIBS/CCU8PWMLIB.c ****                                   (0x01UL <<
 467              		.loc 1 262 0
 468 033e 4FF00104 		mov	r4, #1
 469 0342 04FA02F2 		lsl	r2, r4, r2
 261:../Dave/Generated/src/LIBS/CCU8PWMLIB.c ****                                   (4U * (uint32_t)HandlePtr->FirstSlice)) |
 470              		.loc 1 261 0
 471 0346 1043     		orrs	r0, r0, r2
 264:../Dave/Generated/src/LIBS/CCU8PWMLIB.c ****                                   (0x01UL <<
 265:../Dave/Generated/src/LIBS/CCU8PWMLIB.c ****                                   ((4U * (uint32_t)HandlePtr->FirstSlice) + 2U)));
 472              		.loc 1 265 0
 473 0348 7A68     		ldr	r2, [r7, #4]
 474 034a 92F84520 		ldrb	r2, [r2, #69]	@ zero_extendqisi2
 475 034e 4FEA8202 		lsl	r2, r2, #2
 476 0352 02F10202 		add	r2, r2, #2
 264:../Dave/Generated/src/LIBS/CCU8PWMLIB.c ****                                   (0x01UL <<
 477              		.loc 1 264 0
 478 0356 4FF00104 		mov	r4, #1
 479 035a 04FA02F2 		lsl	r2, r4, r2
 263:../Dave/Generated/src/LIBS/CCU8PWMLIB.c ****                                   ((4U * (uint32_t)HandlePtr->FirstSlice) + 1U)) |
 480              		.loc 1 263 0
 481 035e 0243     		orrs	r2, r2, r0
 260:../Dave/Generated/src/LIBS/CCU8PWMLIB.c ****     HandlePtr->CC8yKernRegsPtr->GCSS |= ((0x01UL <<
 482              		.loc 1 260 0
 483 0360 0A43     		orrs	r2, r2, r1
 484 0362 1A61     		str	r2, [r3, #16]
 266:../Dave/Generated/src/LIBS/CCU8PWMLIB.c **** 
 267:../Dave/Generated/src/LIBS/CCU8PWMLIB.c **** /*Clear all CCU8 interrupts*/
 268:../Dave/Generated/src/LIBS/CCU8PWMLIB.c ****     HandlePtr->CC8yRegsPtr->SWR |= CCU8PWMLIB_ALL_CCU8_INTR_CLEAR;
 485              		.loc 1 268 0
 486 0364 7B68     		ldr	r3, [r7, #4]
 487 0366 5A6B     		ldr	r2, [r3, #52]
 488 0368 7B68     		ldr	r3, [r7, #4]
 489 036a 5B6B     		ldr	r3, [r3, #52]
 490 036c D3F8B030 		ldr	r3, [r3, #176]
 491 0370 43F47363 		orr	r3, r3, #3888
 492 0374 43F00F03 		orr	r3, r3, #15
 493 0378 C2F8B030 		str	r3, [r2, #176]
 269:../Dave/Generated/src/LIBS/CCU8PWMLIB.c ****     
 270:../Dave/Generated/src/LIBS/CCU8PWMLIB.c **** /*Configure the second slice if timer concatenation is set */
 271:../Dave/Generated/src/LIBS/CCU8PWMLIB.c ****     if (HandlePtr->kTimerConcatenation == (uint8_t)SET)
 494              		.loc 1 271 0
 495 037c 7B68     		ldr	r3, [r7, #4]
 496 037e DB79     		ldrb	r3, [r3, #7]	@ zero_extendqisi2
 497 0380 012B     		cmp	r3, #1
 498 0382 0ED1     		bne	.L7
 272:../Dave/Generated/src/LIBS/CCU8PWMLIB.c ****     {
 273:../Dave/Generated/src/LIBS/CCU8PWMLIB.c ****       CCU8PWMLIB_lConfigureSecondSlice(HandlePtr);
 499              		.loc 1 273 0
 500 0384 7868     		ldr	r0, [r7, #4]
 501 0386 FFF7FEFF 		bl	CCU8PWMLIB_lConfigureSecondSlice
 274:../Dave/Generated/src/LIBS/CCU8PWMLIB.c ****       HandlePtr->CC8yRegs1Ptr->INTE |= HandlePtr->InterruptControl;
 502              		.loc 1 274 0
 503 038a 7B68     		ldr	r3, [r7, #4]
 504 038c 9B6B     		ldr	r3, [r3, #56]
 505 038e 7A68     		ldr	r2, [r7, #4]
 506 0390 926B     		ldr	r2, [r2, #56]
 507 0392 D2F8A410 		ldr	r1, [r2, #164]
 508 0396 7A68     		ldr	r2, [r7, #4]
 509 0398 126D     		ldr	r2, [r2, #80]
 510 039a 0A43     		orrs	r2, r2, r1
 511 039c C3F8A420 		str	r2, [r3, #164]
 512 03a0 0AE0     		b	.L8
 513              	.L7:
 275:../Dave/Generated/src/LIBS/CCU8PWMLIB.c **** 
 276:../Dave/Generated/src/LIBS/CCU8PWMLIB.c ****     } /*End of if (HandlePtr->kTimerConcatenation == SET)*/
 277:../Dave/Generated/src/LIBS/CCU8PWMLIB.c ****     else
 278:../Dave/Generated/src/LIBS/CCU8PWMLIB.c ****     {
 279:../Dave/Generated/src/LIBS/CCU8PWMLIB.c ****       HandlePtr->CC8yRegsPtr->INTE |= HandlePtr->InterruptControl;
 514              		.loc 1 279 0
 515 03a2 7B68     		ldr	r3, [r7, #4]
 516 03a4 5B6B     		ldr	r3, [r3, #52]
 517 03a6 7A68     		ldr	r2, [r7, #4]
 518 03a8 526B     		ldr	r2, [r2, #52]
 519 03aa D2F8A410 		ldr	r1, [r2, #164]
 520 03ae 7A68     		ldr	r2, [r7, #4]
 521 03b0 126D     		ldr	r2, [r2, #80]
 522 03b2 0A43     		orrs	r2, r2, r1
 523 03b4 C3F8A420 		str	r2, [r3, #164]
 524              	.L8:
 280:../Dave/Generated/src/LIBS/CCU8PWMLIB.c ****     }
 281:../Dave/Generated/src/LIBS/CCU8PWMLIB.c ****     return Status;
 525              		.loc 1 281 0
 526 03b8 FB69     		ldr	r3, [r7, #28]
 282:../Dave/Generated/src/LIBS/CCU8PWMLIB.c **** }
 527              		.loc 1 282 0
 528 03ba 1846     		mov	r0, r3
 529 03bc 07F12407 		add	r7, r7, #36
 530 03c0 BD46     		mov	sp, r7
 531 03c2 90BD     		pop	{r4, r7, pc}
 532              		.cfi_endproc
 533              	.LFE135:
 535              		.section	.text.CCU8PWMLIB_lConfigureSecondSlice,"ax",%progbits
 536              		.align	2
 537              		.global	CCU8PWMLIB_lConfigureSecondSlice
 538              		.thumb
 539              		.thumb_func
 541              	CCU8PWMLIB_lConfigureSecondSlice:
 542              	.LFB136:
 283:../Dave/Generated/src/LIBS/CCU8PWMLIB.c **** 
 284:../Dave/Generated/src/LIBS/CCU8PWMLIB.c **** /*<<<DD_CCU8PWMLIB_nonAPI_1>>>*/
 285:../Dave/Generated/src/LIBS/CCU8PWMLIB.c **** /**
 286:../Dave/Generated/src/LIBS/CCU8PWMLIB.c ****  * This function initializes the second slice if timer concatenation is used
 287:../Dave/Generated/src/LIBS/CCU8PWMLIB.c ****  */
 288:../Dave/Generated/src/LIBS/CCU8PWMLIB.c **** void CCU8PWMLIB_lConfigureSecondSlice
 289:../Dave/Generated/src/LIBS/CCU8PWMLIB.c **** (
 290:../Dave/Generated/src/LIBS/CCU8PWMLIB.c ****   const CCU8PWMLIB_HandleType* HandlePtr
 291:../Dave/Generated/src/LIBS/CCU8PWMLIB.c **** )
 292:../Dave/Generated/src/LIBS/CCU8PWMLIB.c **** {
 543              		.loc 1 292 0
 544              		.cfi_startproc
 545              		@ args = 0, pretend = 0, frame = 24
 546              		@ frame_needed = 1, uses_anonymous_args = 0
 547              		@ link register save eliminated.
 548 0000 90B4     		push	{r4, r7}
 549              	.LCFI3:
 550              		.cfi_def_cfa_offset 8
 551              		.cfi_offset 4, -8
 552              		.cfi_offset 7, -4
 553 0002 86B0     		sub	sp, sp, #24
 554              	.LCFI4:
 555              		.cfi_def_cfa_offset 32
 556 0004 00AF     		add	r7, sp, #0
 557              	.LCFI5:
 558              		.cfi_def_cfa_register 7
 559 0006 7860     		str	r0, [r7, #4]
 293:../Dave/Generated/src/LIBS/CCU8PWMLIB.c ****   uint32_t DeadTimeConfVal[4] = {0x00UL, 0xDUL, 0x5UL, 0x9UL};
 560              		.loc 1 293 0
 561 0008 40F20003 		movw	r3, #:lower16:.LC0
 562 000c C0F20003 		movt	r3, #:upper16:.LC0
 563 0010 07F10804 		add	r4, r7, #8
 564 0014 0FCB     		ldmia	r3, {r0, r1, r2, r3}
 565 0016 84E80F00 		stmia	r4, {r0, r1, r2, r3}
 294:../Dave/Generated/src/LIBS/CCU8PWMLIB.c **** 
 295:../Dave/Generated/src/LIBS/CCU8PWMLIB.c **** /*Clear the timer */
 296:../Dave/Generated/src/LIBS/CCU8PWMLIB.c ****   HandlePtr->CC8yRegs1Ptr->TCCLR = CCU8PWMLIB_SLICE_CLEAR;
 566              		.loc 1 296 0
 567 001a 7B68     		ldr	r3, [r7, #4]
 568 001c 9B6B     		ldr	r3, [r3, #56]
 569 001e 4FF00702 		mov	r2, #7
 570 0022 1A61     		str	r2, [r3, #16]
 297:../Dave/Generated/src/LIBS/CCU8PWMLIB.c ****   HandlePtr->CC8yRegs1Ptr->TC = 0x00U;
 571              		.loc 1 297 0
 572 0024 7B68     		ldr	r3, [r7, #4]
 573 0026 9B6B     		ldr	r3, [r3, #56]
 574 0028 4FF00002 		mov	r2, #0
 575 002c 5A61     		str	r2, [r3, #20]
 298:../Dave/Generated/src/LIBS/CCU8PWMLIB.c **** 
 299:../Dave/Generated/src/LIBS/CCU8PWMLIB.c **** /*Set period and compare values for second slice*/
 300:../Dave/Generated/src/LIBS/CCU8PWMLIB.c ****   HandlePtr->CC8yRegs1Ptr->PRS = (uint32_t)
 576              		.loc 1 300 0
 577 002e 7B68     		ldr	r3, [r7, #4]
 578 0030 9B6B     		ldr	r3, [r3, #56]
 301:../Dave/Generated/src/LIBS/CCU8PWMLIB.c ****       ((HandlePtr->kPeriodVal & 0xFFFF0000U) >> 16U);
 579              		.loc 1 301 0
 580 0032 7A68     		ldr	r2, [r7, #4]
 581 0034 D26A     		ldr	r2, [r2, #44]
 300:../Dave/Generated/src/LIBS/CCU8PWMLIB.c ****   HandlePtr->CC8yRegs1Ptr->PRS = (uint32_t)
 582              		.loc 1 300 0
 583 0036 4FEA1242 		lsr	r2, r2, #16
 584 003a 5A63     		str	r2, [r3, #52]
 302:../Dave/Generated/src/LIBS/CCU8PWMLIB.c ****   HandlePtr->CC8yRegs1Ptr->CR1S = (uint32_t)
 585              		.loc 1 302 0
 586 003c 7B68     		ldr	r3, [r7, #4]
 587 003e 9B6B     		ldr	r3, [r3, #56]
 303:../Dave/Generated/src/LIBS/CCU8PWMLIB.c ****           ((HandlePtr->kCompareValue1 & 0xFFFF0000U) >> 16U);
 588              		.loc 1 303 0
 589 0040 7A68     		ldr	r2, [r7, #4]
 590 0042 D269     		ldr	r2, [r2, #28]
 302:../Dave/Generated/src/LIBS/CCU8PWMLIB.c ****   HandlePtr->CC8yRegs1Ptr->CR1S = (uint32_t)
 591              		.loc 1 302 0
 592 0044 4FEA1242 		lsr	r2, r2, #16
 593 0048 DA63     		str	r2, [r3, #60]
 304:../Dave/Generated/src/LIBS/CCU8PWMLIB.c ****   /*<<<DD_PWMSP002_API_non1_7>>>*/
 305:../Dave/Generated/src/LIBS/CCU8PWMLIB.c **** /* Update channel 2 compare register CR2 if asymmetric mode is selected */
 306:../Dave/Generated/src/LIBS/CCU8PWMLIB.c ****   if (HandlePtr->CompareMode == CCU8PWMLIB_ASYMMETRIC)
 594              		.loc 1 306 0
 595 004a 7B68     		ldr	r3, [r7, #4]
 596 004c 93F84330 		ldrb	r3, [r3, #67]	@ zero_extendqisi2
 597 0050 012B     		cmp	r3, #1
 598 0052 06D1     		bne	.L11
 307:../Dave/Generated/src/LIBS/CCU8PWMLIB.c ****   {
 308:../Dave/Generated/src/LIBS/CCU8PWMLIB.c ****     HandlePtr->CC8yRegs1Ptr->CR2S = (uint32_t)
 599              		.loc 1 308 0
 600 0054 7B68     		ldr	r3, [r7, #4]
 601 0056 9B6B     		ldr	r3, [r3, #56]
 309:../Dave/Generated/src/LIBS/CCU8PWMLIB.c ****               ((HandlePtr->kCompareValue2 & 0xFFFF0000U) >> 16U);
 602              		.loc 1 309 0
 603 0058 7A68     		ldr	r2, [r7, #4]
 604 005a 126A     		ldr	r2, [r2, #32]
 308:../Dave/Generated/src/LIBS/CCU8PWMLIB.c ****     HandlePtr->CC8yRegs1Ptr->CR2S = (uint32_t)
 605              		.loc 1 308 0
 606 005c 4FEA1242 		lsr	r2, r2, #16
 607 0060 5A64     		str	r2, [r3, #68]
 608              	.L11:
 310:../Dave/Generated/src/LIBS/CCU8PWMLIB.c ****   }
 311:../Dave/Generated/src/LIBS/CCU8PWMLIB.c **** 
 312:../Dave/Generated/src/LIBS/CCU8PWMLIB.c **** /*<<<DD_CCU8PWMLIB_nonAPI_1_1>>>*/
 313:../Dave/Generated/src/LIBS/CCU8PWMLIB.c ****   /* Set timer concatenation bit */
 314:../Dave/Generated/src/LIBS/CCU8PWMLIB.c ****   HandlePtr->CC8yRegs1Ptr->CMC |= (0x01U << CCU8_CC8_CMC_TCE_Pos);
 609              		.loc 1 314 0
 610 0062 7B68     		ldr	r3, [r7, #4]
 611 0064 9B6B     		ldr	r3, [r3, #56]
 612 0066 7A68     		ldr	r2, [r7, #4]
 613 0068 926B     		ldr	r2, [r2, #56]
 614 006a 5268     		ldr	r2, [r2, #4]
 615 006c 42F48012 		orr	r2, r2, #1048576
 616 0070 5A60     		str	r2, [r3, #4]
 315:../Dave/Generated/src/LIBS/CCU8PWMLIB.c **** 
 316:../Dave/Generated/src/LIBS/CCU8PWMLIB.c **** 
 317:../Dave/Generated/src/LIBS/CCU8PWMLIB.c **** /*<<<DD_CCU8PWMLIB_nonAPI_1_3>>>*/
 318:../Dave/Generated/src/LIBS/CCU8PWMLIB.c ****   /* Configure external stop feature */
 319:../Dave/Generated/src/LIBS/CCU8PWMLIB.c ****   if (HandlePtr->kExtStopTrig == (uint8_t)SET)
 617              		.loc 1 319 0
 618 0072 7B68     		ldr	r3, [r7, #4]
 619 0074 5B78     		ldrb	r3, [r3, #1]	@ zero_extendqisi2
 620 0076 012B     		cmp	r3, #1
 621 0078 27D1     		bne	.L12
 320:../Dave/Generated/src/LIBS/CCU8PWMLIB.c ****   {
 321:../Dave/Generated/src/LIBS/CCU8PWMLIB.c ****     HandlePtr->CC8yRegs1Ptr->INS &= ~((CCU8_CC8_INS_EV1EM_Msk)|
 622              		.loc 1 321 0
 623 007a 7B68     		ldr	r3, [r7, #4]
 624 007c 9A6B     		ldr	r2, [r3, #56]
 625 007e 7B68     		ldr	r3, [r7, #4]
 626 0080 9B6B     		ldr	r3, [r3, #56]
 627 0082 1B68     		ldr	r3, [r3, #0]
 628 0084 23F0C053 		bic	r3, r3, #402653184
 629 0088 23F44023 		bic	r3, r3, #786432
 630 008c 1360     		str	r3, [r2, #0]
 322:../Dave/Generated/src/LIBS/CCU8PWMLIB.c ****         (CCU8_CC8_INS_LPF1M_Msk));
 323:../Dave/Generated/src/LIBS/CCU8PWMLIB.c ****     HandlePtr->CC8yRegs1Ptr->CMC &= ~(CCU8_CC8_CMC_ENDS_Msk);
 631              		.loc 1 323 0
 632 008e 7B68     		ldr	r3, [r7, #4]
 633 0090 9B6B     		ldr	r3, [r3, #56]
 634 0092 7A68     		ldr	r2, [r7, #4]
 635 0094 926B     		ldr	r2, [r2, #56]
 636 0096 5268     		ldr	r2, [r2, #4]
 637 0098 22F00C02 		bic	r2, r2, #12
 638 009c 5A60     		str	r2, [r3, #4]
 324:../Dave/Generated/src/LIBS/CCU8PWMLIB.c ****     HandlePtr->CC8yRegs1Ptr->INS |=
 639              		.loc 1 324 0
 640 009e 7B68     		ldr	r3, [r7, #4]
 641 00a0 9B6B     		ldr	r3, [r3, #56]
 642 00a2 7A68     		ldr	r2, [r7, #4]
 643 00a4 926B     		ldr	r2, [r2, #56]
 644 00a6 1168     		ldr	r1, [r2, #0]
 325:../Dave/Generated/src/LIBS/CCU8PWMLIB.c ****     ((((uint32_t)HandlePtr->kStopEdge << CCU8_CC8_INS_EV1EM_Pos) & CCU8_CC8_INS_EV1EM_Msk)|
 645              		.loc 1 325 0
 646 00a8 7A68     		ldr	r2, [r7, #4]
 647 00aa 92F82920 		ldrb	r2, [r2, #41]	@ zero_extendqisi2
 648 00ae 4FEA8242 		lsl	r2, r2, #18
 649 00b2 02F44022 		and	r2, r2, #786432
 324:../Dave/Generated/src/LIBS/CCU8PWMLIB.c ****     HandlePtr->CC8yRegs1Ptr->INS |=
 650              		.loc 1 324 0
 651 00b6 0A43     		orrs	r2, r2, r1
 652 00b8 1A60     		str	r2, [r3, #0]
 326:../Dave/Generated/src/LIBS/CCU8PWMLIB.c ****         ((CCU8PWMLIB_LPF << CCU8_CC8_INS_LPF1M_Pos)& CCU8_CC8_INS_LPF1M_Msk));
 327:../Dave/Generated/src/LIBS/CCU8PWMLIB.c ****     HandlePtr->CC8yRegs1Ptr->CMC |=
 653              		.loc 1 327 0
 654 00ba 7B68     		ldr	r3, [r7, #4]
 655 00bc 9B6B     		ldr	r3, [r3, #56]
 656 00be 7A68     		ldr	r2, [r7, #4]
 657 00c0 926B     		ldr	r2, [r2, #56]
 658 00c2 5268     		ldr	r2, [r2, #4]
 659 00c4 42F00802 		orr	r2, r2, #8
 660 00c8 5A60     		str	r2, [r3, #4]
 661              	.L12:
 328:../Dave/Generated/src/LIBS/CCU8PWMLIB.c ****         ((CCU8PWMLIB_EVENT_1  << CCU8_CC8_CMC_ENDS_Pos)& CCU8_CC8_CMC_ENDS_Msk);
 329:../Dave/Generated/src/LIBS/CCU8PWMLIB.c ****   }/*End of if (HandlePtr->kExtStopTrig == SET)*/
 330:../Dave/Generated/src/LIBS/CCU8PWMLIB.c **** 
 331:../Dave/Generated/src/LIBS/CCU8PWMLIB.c **** /*<<<DD_CCU8PWMLIB_nonAPI_1_4>>>*/
 332:../Dave/Generated/src/LIBS/CCU8PWMLIB.c ****   /* Configure trap feature */
 333:../Dave/Generated/src/LIBS/CCU8PWMLIB.c ****   if (HandlePtr->kTrapEnable == (uint8_t)SET)
 662              		.loc 1 333 0
 663 00ca 7B68     		ldr	r3, [r7, #4]
 664 00cc 1B7A     		ldrb	r3, [r3, #8]	@ zero_extendqisi2
 665 00ce 012B     		cmp	r3, #1
 666 00d0 1ED1     		bne	.L13
 334:../Dave/Generated/src/LIBS/CCU8PWMLIB.c ****   {
 335:../Dave/Generated/src/LIBS/CCU8PWMLIB.c ****     HandlePtr->CC8yRegs1Ptr -> INS &= ~((CCU8_CC8_INS_EV2EM_Msk)|
 667              		.loc 1 335 0
 668 00d2 7B68     		ldr	r3, [r7, #4]
 669 00d4 9A6B     		ldr	r2, [r3, #56]
 670 00d6 7B68     		ldr	r3, [r7, #4]
 671 00d8 9B6B     		ldr	r3, [r3, #56]
 672 00da 1B68     		ldr	r3, [r3, #0]
 673 00dc 23F0C243 		bic	r3, r3, #1627389952
 674 00e0 23F44013 		bic	r3, r3, #3145728
 675 00e4 1360     		str	r3, [r2, #0]
 336:../Dave/Generated/src/LIBS/CCU8PWMLIB.c ****        (CCU8_CC8_INS_EV2LM_Msk) | (CCU8_CC8_INS_LPF2M_Msk) );
 337:../Dave/Generated/src/LIBS/CCU8PWMLIB.c ****     HandlePtr->CC8yRegs1Ptr -> INS |=
 676              		.loc 1 337 0
 677 00e6 7B68     		ldr	r3, [r7, #4]
 678 00e8 9B6B     		ldr	r3, [r3, #56]
 679 00ea 7A68     		ldr	r2, [r7, #4]
 680 00ec 926B     		ldr	r2, [r2, #56]
 681 00ee 1168     		ldr	r1, [r2, #0]
 338:../Dave/Generated/src/LIBS/CCU8PWMLIB.c ****     (((0x00  << CCU8_CC8_INS_EV2EM_Pos)& CCU8_CC8_INS_EV2EM_Msk) |
 339:../Dave/Generated/src/LIBS/CCU8PWMLIB.c ****      ((((uint32_t)HandlePtr->kTrapLevel  << CCU8_CC8_INS_EV2LM_Pos)& CCU8_CC8_INS_EV2LM_Msk) |
 682              		.loc 1 339 0
 683 00f0 7A68     		ldr	r2, [r7, #4]
 684 00f2 927A     		ldrb	r2, [r2, #10]	@ zero_extendqisi2
 685 00f4 4FEA0262 		lsl	r2, r2, #24
 338:../Dave/Generated/src/LIBS/CCU8PWMLIB.c ****     (((0x00  << CCU8_CC8_INS_EV2EM_Pos)& CCU8_CC8_INS_EV2EM_Msk) |
 686              		.loc 1 338 0
 687 00f8 02F08072 		and	r2, r2, #16777216
 337:../Dave/Generated/src/LIBS/CCU8PWMLIB.c ****     HandlePtr->CC8yRegs1Ptr -> INS |=
 688              		.loc 1 337 0
 689 00fc 0A43     		orrs	r2, r2, r1
 690 00fe 1A60     		str	r2, [r3, #0]
 340:../Dave/Generated/src/LIBS/CCU8PWMLIB.c ****          ((0x00 << CCU8_CC8_INS_LPF2M_Pos)& CCU8_CC8_INS_LPF2M_Msk)));
 341:../Dave/Generated/src/LIBS/CCU8PWMLIB.c ****     HandlePtr->CC8yRegs1Ptr->CMC |= (0x01U << CCU8_CC8_CMC_TS_Pos);
 691              		.loc 1 341 0
 692 0100 7B68     		ldr	r3, [r7, #4]
 693 0102 9B6B     		ldr	r3, [r3, #56]
 694 0104 7A68     		ldr	r2, [r7, #4]
 695 0106 926B     		ldr	r2, [r2, #56]
 696 0108 5268     		ldr	r2, [r2, #4]
 697 010a 42F40032 		orr	r2, r2, #131072
 698 010e 5A60     		str	r2, [r3, #4]
 699              	.L13:
 342:../Dave/Generated/src/LIBS/CCU8PWMLIB.c ****   }/*End of if (HandlePtr->kTrapEnable == SET)*/
 343:../Dave/Generated/src/LIBS/CCU8PWMLIB.c **** /*Configure timer mode, external start, stop feature */
 344:../Dave/Generated/src/LIBS/CCU8PWMLIB.c ****   HandlePtr->CC8yRegs1Ptr->TC &= ~((CCU8_CC8_TC_TCM_Msk) | \
 700              		.loc 1 344 0
 701 0110 7B68     		ldr	r3, [r7, #4]
 702 0112 9A6B     		ldr	r2, [r3, #56]
 703 0114 7B68     		ldr	r3, [r7, #4]
 704 0116 9B6B     		ldr	r3, [r3, #56]
 705 0118 5B69     		ldr	r3, [r3, #20]
 706 011a 23F4CE43 		bic	r3, r3, #26368
 707 011e 23F00B03 		bic	r3, r3, #11
 708 0122 5361     		str	r3, [r2, #20]
 345:../Dave/Generated/src/LIBS/CCU8PWMLIB.c ****       (CCU8_CC8_TC_TSSM_Msk) | (CCU8_CC8_TC_CMOD_Msk) |  \
 346:../Dave/Generated/src/LIBS/CCU8PWMLIB.c ****       (CCU8_CC8_TC_STRM_Msk) | (CCU8_CC8_TC_ENDM_Msk)|( CCU8_CC8_TC_DITHE_Msk));
 347:../Dave/Generated/src/LIBS/CCU8PWMLIB.c ****   HandlePtr->CC8yRegs1Ptr->TC =(((uint32_t)
 709              		.loc 1 347 0
 710 0124 7B68     		ldr	r3, [r7, #4]
 711 0126 9B6B     		ldr	r3, [r3, #56]
 348:../Dave/Generated/src/LIBS/CCU8PWMLIB.c ****       HandlePtr->CountingMode  << CCU8_CC8_TC_TCM_Pos)& CCU8_CC8_TC_TCM_Msk)|
 712              		.loc 1 348 0
 713 0128 7A68     		ldr	r2, [r7, #4]
 714 012a 92F84020 		ldrb	r2, [r2, #64]	@ zero_extendqisi2
 715 012e 02F00101 		and	r1, r2, #1
 349:../Dave/Generated/src/LIBS/CCU8PWMLIB.c ****       ((HandlePtr->kTimerMode  << CCU8_CC8_TC_TSSM_Pos)& CCU8_CC8_TC_TSSM_Msk)|
 716              		.loc 1 349 0
 717 0132 7A68     		ldr	r2, [r7, #4]
 718 0134 9279     		ldrb	r2, [r2, #6]	@ zero_extendqisi2
 719 0136 4FEA4202 		lsl	r2, r2, #1
 720 013a 02F00202 		and	r2, r2, #2
 721 013e 1143     		orrs	r1, r1, r2
 350:../Dave/Generated/src/LIBS/CCU8PWMLIB.c ****       ((CCU8PWMLIB_COMPARE_MODE  << CCU8_CC8_TC_CMOD_Pos)& CCU8_CC8_TC_CMOD_Msk)|
 351:../Dave/Generated/src/LIBS/CCU8PWMLIB.c ****       (((uint32_t)
 352:../Dave/Generated/src/LIBS/CCU8PWMLIB.c ****       HandlePtr->ExtStartConfig  << CCU8_CC8_TC_STRM_Pos)& CCU8_CC8_TC_STRM_Msk)|
 722              		.loc 1 352 0
 723 0140 7A68     		ldr	r2, [r7, #4]
 724 0142 92F84420 		ldrb	r2, [r2, #68]	@ zero_extendqisi2
 725 0146 4FEA8222 		lsl	r2, r2, #10
 726 014a 02F48062 		and	r2, r2, #1024
 350:../Dave/Generated/src/LIBS/CCU8PWMLIB.c ****       ((CCU8PWMLIB_COMPARE_MODE  << CCU8_CC8_TC_CMOD_Pos)& CCU8_CC8_TC_CMOD_Msk)|
 727              		.loc 1 350 0
 728 014e 1143     		orrs	r1, r1, r2
 353:../Dave/Generated/src/LIBS/CCU8PWMLIB.c ****       (((uint32_t)
 354:../Dave/Generated/src/LIBS/CCU8PWMLIB.c ****       HandlePtr->ExtStopConfig << CCU8_CC8_TC_ENDM_Pos)& CCU8_CC8_TC_ENDM_Msk);
 729              		.loc 1 354 0
 730 0150 7A68     		ldr	r2, [r7, #4]
 731 0152 92F84120 		ldrb	r2, [r2, #65]	@ zero_extendqisi2
 732 0156 4FEA0222 		lsl	r2, r2, #8
 733 015a 02F44072 		and	r2, r2, #768
 352:../Dave/Generated/src/LIBS/CCU8PWMLIB.c ****       HandlePtr->ExtStartConfig  << CCU8_CC8_TC_STRM_Pos)& CCU8_CC8_TC_STRM_Msk)|
 734              		.loc 1 352 0
 735 015e 0A43     		orrs	r2, r2, r1
 347:../Dave/Generated/src/LIBS/CCU8PWMLIB.c ****   HandlePtr->CC8yRegs1Ptr->TC =(((uint32_t)
 736              		.loc 1 347 0
 737 0160 5A61     		str	r2, [r3, #20]
 355:../Dave/Generated/src/LIBS/CCU8PWMLIB.c **** 
 356:../Dave/Generated/src/LIBS/CCU8PWMLIB.c **** /*<<<DD_CCU8PWMLIB_nonAPI_1_5>>>*/
 357:../Dave/Generated/src/LIBS/CCU8PWMLIB.c ****   /* Configure dither setting */
 358:../Dave/Generated/src/LIBS/CCU8PWMLIB.c ****   HandlePtr->CC8yRegs1Ptr->TC |= (HandlePtr->kDitherSetting << CCU8_CC8_TC_DITHE_Pos) \
 738              		.loc 1 358 0
 739 0162 7B68     		ldr	r3, [r7, #4]
 740 0164 9B6B     		ldr	r3, [r3, #56]
 741 0166 7A68     		ldr	r2, [r7, #4]
 742 0168 926B     		ldr	r2, [r2, #56]
 743 016a 5169     		ldr	r1, [r2, #20]
 744 016c 7A68     		ldr	r2, [r7, #4]
 745 016e 927B     		ldrb	r2, [r2, #14]	@ zero_extendqisi2
 746 0170 4FEA4232 		lsl	r2, r2, #13
 359:../Dave/Generated/src/LIBS/CCU8PWMLIB.c ****       & CCU8_CC8_TC_DITHE_Msk;
 747              		.loc 1 359 0
 748 0174 02F4C042 		and	r2, r2, #24576
 358:../Dave/Generated/src/LIBS/CCU8PWMLIB.c ****   HandlePtr->CC8yRegs1Ptr->TC |= (HandlePtr->kDitherSetting << CCU8_CC8_TC_DITHE_Pos) \
 749              		.loc 1 358 0
 750 0178 0A43     		orrs	r2, r2, r1
 751 017a 5A61     		str	r2, [r3, #20]
 360:../Dave/Generated/src/LIBS/CCU8PWMLIB.c ****   HandlePtr->CC8yRegs1Ptr->DITS &= ~(CCU8_CC8_DITS_DCVS_Msk);
 752              		.loc 1 360 0
 753 017c 7B68     		ldr	r3, [r7, #4]
 754 017e 9B6B     		ldr	r3, [r3, #56]
 755 0180 7A68     		ldr	r2, [r7, #4]
 756 0182 926B     		ldr	r2, [r2, #56]
 757 0184 126A     		ldr	r2, [r2, #32]
 758 0186 22F00F02 		bic	r2, r2, #15
 759 018a 1A62     		str	r2, [r3, #32]
 361:../Dave/Generated/src/LIBS/CCU8PWMLIB.c ****   HandlePtr->CC8yRegs1Ptr->DITS = (HandlePtr->kDitherCompare  << CCU8_CC8_DITS_DCVS_Pos)\
 760              		.loc 1 361 0
 761 018c 7B68     		ldr	r3, [r7, #4]
 762 018e 9B6B     		ldr	r3, [r3, #56]
 763 0190 7A68     		ldr	r2, [r7, #4]
 764 0192 127B     		ldrb	r2, [r2, #12]	@ zero_extendqisi2
 362:../Dave/Generated/src/LIBS/CCU8PWMLIB.c ****       & CCU8_CC8_DITS_DCVS_Msk;
 765              		.loc 1 362 0
 766 0194 02F00F02 		and	r2, r2, #15
 361:../Dave/Generated/src/LIBS/CCU8PWMLIB.c ****   HandlePtr->CC8yRegs1Ptr->DITS = (HandlePtr->kDitherCompare  << CCU8_CC8_DITS_DCVS_Pos)\
 767              		.loc 1 361 0
 768 0198 1A62     		str	r2, [r3, #32]
 363:../Dave/Generated/src/LIBS/CCU8PWMLIB.c **** 
 364:../Dave/Generated/src/LIBS/CCU8PWMLIB.c **** /*<<<DD_CCU8PWMLIB_API_non1_6>>>*/
 365:../Dave/Generated/src/LIBS/CCU8PWMLIB.c ****   WR_REG(HandlePtr->CC8yRegs1Ptr->TC, CCU8_CC8_TC_TRPSE_Msk,
 769              		.loc 1 365 0
 770 019a 7B68     		ldr	r3, [r7, #4]
 771 019c 9B6B     		ldr	r3, [r3, #56]
 772 019e 7A68     		ldr	r2, [r7, #4]
 773 01a0 527A     		ldrb	r2, [r2, #9]	@ zero_extendqisi2
 774 01a2 4FEA4252 		lsl	r2, r2, #21
 775 01a6 02F40011 		and	r1, r2, #2097152
 776 01aa 7A68     		ldr	r2, [r7, #4]
 777 01ac 926B     		ldr	r2, [r2, #56]
 778 01ae 5269     		ldr	r2, [r2, #20]
 779 01b0 22F40012 		bic	r2, r2, #2097152
 780 01b4 0A43     		orrs	r2, r2, r1
 781 01b6 5A61     		str	r2, [r3, #20]
 366:../Dave/Generated/src/LIBS/CCU8PWMLIB.c ****                CCU8_CC8_TC_TRPSE_Pos, HandlePtr->kTrapSync);
 367:../Dave/Generated/src/LIBS/CCU8PWMLIB.c ****   WR_REG(HandlePtr->CC8yRegs1Ptr->TC, CCU8_CC8_TC_TRPSW_Msk,
 782              		.loc 1 367 0
 783 01b8 7B68     		ldr	r3, [r7, #4]
 784 01ba 9B6B     		ldr	r3, [r3, #56]
 785 01bc 7A68     		ldr	r2, [r7, #4]
 786 01be D27A     		ldrb	r2, [r2, #11]	@ zero_extendqisi2
 787 01c0 4FEA8252 		lsl	r2, r2, #22
 788 01c4 02F48001 		and	r1, r2, #4194304
 789 01c8 7A68     		ldr	r2, [r7, #4]
 790 01ca 926B     		ldr	r2, [r2, #56]
 791 01cc 5269     		ldr	r2, [r2, #20]
 792 01ce 22F48002 		bic	r2, r2, #4194304
 793 01d2 0A43     		orrs	r2, r2, r1
 794 01d4 5A61     		str	r2, [r3, #20]
 368:../Dave/Generated/src/LIBS/CCU8PWMLIB.c ****         CCU8_CC8_TC_TRPSW_Pos, HandlePtr->kTrapExitControl);
 369:../Dave/Generated/src/LIBS/CCU8PWMLIB.c ****   /*Trap enable*/
 370:../Dave/Generated/src/LIBS/CCU8PWMLIB.c ****   WR_REG(HandlePtr->CC8yRegs1Ptr->TC, CCU8_CC8_TC_TRAPE0_Msk,
 795              		.loc 1 370 0
 796 01d6 7B68     		ldr	r3, [r7, #4]
 797 01d8 9B6B     		ldr	r3, [r3, #56]
 798 01da 7A68     		ldr	r2, [r7, #4]
 799 01dc 127A     		ldrb	r2, [r2, #8]	@ zero_extendqisi2
 800 01de 4FEA4242 		lsl	r2, r2, #17
 801 01e2 02F40031 		and	r1, r2, #131072
 802 01e6 7A68     		ldr	r2, [r7, #4]
 803 01e8 926B     		ldr	r2, [r2, #56]
 804 01ea 5269     		ldr	r2, [r2, #20]
 805 01ec 22F40032 		bic	r2, r2, #131072
 806 01f0 0A43     		orrs	r2, r2, r1
 807 01f2 5A61     		str	r2, [r3, #20]
 371:../Dave/Generated/src/LIBS/CCU8PWMLIB.c ****              CCU8_CC8_TC_TRAPE0_Pos, HandlePtr->kTrapEnable);
 372:../Dave/Generated/src/LIBS/CCU8PWMLIB.c ****   WR_REG(HandlePtr->CC8yRegs1Ptr->TC, CCU8_CC8_TC_TRAPE1_Msk,
 808              		.loc 1 372 0
 809 01f4 7B68     		ldr	r3, [r7, #4]
 810 01f6 9B6B     		ldr	r3, [r3, #56]
 811 01f8 7A68     		ldr	r2, [r7, #4]
 812 01fa 127A     		ldrb	r2, [r2, #8]	@ zero_extendqisi2
 813 01fc 4FEA8242 		lsl	r2, r2, #18
 814 0200 02F48021 		and	r1, r2, #262144
 815 0204 7A68     		ldr	r2, [r7, #4]
 816 0206 926B     		ldr	r2, [r2, #56]
 817 0208 5269     		ldr	r2, [r2, #20]
 818 020a 22F48022 		bic	r2, r2, #262144
 819 020e 0A43     		orrs	r2, r2, r1
 820 0210 5A61     		str	r2, [r3, #20]
 373:../Dave/Generated/src/LIBS/CCU8PWMLIB.c ****                CCU8_CC8_TC_TRAPE1_Pos, HandlePtr->kTrapEnable);
 374:../Dave/Generated/src/LIBS/CCU8PWMLIB.c **** 
 375:../Dave/Generated/src/LIBS/CCU8PWMLIB.c ****      /*Set the prescalar divider and passive level of the o/p signal.*/
 376:../Dave/Generated/src/LIBS/CCU8PWMLIB.c ****   WR_REG(HandlePtr->CC8yRegs1Ptr->PSC, CCU8_CC8_PSC_PSIV_Msk,
 821              		.loc 1 376 0
 822 0212 7B68     		ldr	r3, [r7, #4]
 823 0214 9B6B     		ldr	r3, [r3, #56]
 824 0216 7A68     		ldr	r2, [r7, #4]
 825 0218 526A     		ldr	r2, [r2, #36]
 826 021a 02F00F01 		and	r1, r2, #15
 827 021e 7A68     		ldr	r2, [r7, #4]
 828 0220 926B     		ldr	r2, [r2, #56]
 829 0222 526A     		ldr	r2, [r2, #36]
 830 0224 22F00F02 		bic	r2, r2, #15
 831 0228 0A43     		orrs	r2, r2, r1
 832 022a 5A62     		str	r2, [r3, #36]
 377:../Dave/Generated/src/LIBS/CCU8PWMLIB.c ****       CCU8_CC8_PSC_PSIV_Pos, HandlePtr->kCCUPrescalar);
 378:../Dave/Generated/src/LIBS/CCU8PWMLIB.c **** 
 379:../Dave/Generated/src/LIBS/CCU8PWMLIB.c **** /*Set passive level of the output signal*/
 380:../Dave/Generated/src/LIBS/CCU8PWMLIB.c ****   HandlePtr->CC8yRegs1Ptr->PSL =
 833              		.loc 1 380 0
 834 022c 7B68     		ldr	r3, [r7, #4]
 835 022e 9B6B     		ldr	r3, [r3, #56]
 381:../Dave/Generated/src/LIBS/CCU8PWMLIB.c ****     ((HandlePtr->kPassiveLevel0 << CCU8_CC8_PSL_PSL11_Pos) |
 836              		.loc 1 381 0
 837 0230 7A68     		ldr	r2, [r7, #4]
 838 0232 1279     		ldrb	r2, [r2, #4]	@ zero_extendqisi2
 839 0234 1146     		mov	r1, r2
 382:../Dave/Generated/src/LIBS/CCU8PWMLIB.c ****     (HandlePtr->kPassiveLevel1 << CCU8_CC8_PSL_PSL12_Pos));
 840              		.loc 1 382 0
 841 0236 7A68     		ldr	r2, [r7, #4]
 842 0238 5279     		ldrb	r2, [r2, #5]	@ zero_extendqisi2
 843 023a 4FEA4202 		lsl	r2, r2, #1
 381:../Dave/Generated/src/LIBS/CCU8PWMLIB.c ****     ((HandlePtr->kPassiveLevel0 << CCU8_CC8_PSL_PSL11_Pos) |
 844              		.loc 1 381 0
 845 023e 0A43     		orrs	r2, r2, r1
 380:../Dave/Generated/src/LIBS/CCU8PWMLIB.c ****   HandlePtr->CC8yRegs1Ptr->PSL =
 846              		.loc 1 380 0
 847 0240 9A61     		str	r2, [r3, #24]
 383:../Dave/Generated/src/LIBS/CCU8PWMLIB.c **** 
 384:../Dave/Generated/src/LIBS/CCU8PWMLIB.c **** /*Set the symmetric or asymmetric PWM setting*/
 385:../Dave/Generated/src/LIBS/CCU8PWMLIB.c ****   WR_REG(HandlePtr->CC8yRegs1Ptr->CHC, CCU8_CC8_CHC_ASE_Msk,\
 848              		.loc 1 385 0
 849 0242 7B68     		ldr	r3, [r7, #4]
 850 0244 9B6B     		ldr	r3, [r3, #56]
 851 0246 7A68     		ldr	r2, [r7, #4]
 852 0248 92F84320 		ldrb	r2, [r2, #67]	@ zero_extendqisi2
 853 024c 02F00101 		and	r1, r2, #1
 854 0250 7A68     		ldr	r2, [r7, #4]
 855 0252 926B     		ldr	r2, [r2, #56]
 856 0254 926C     		ldr	r2, [r2, #72]
 857 0256 22F00102 		bic	r2, r2, #1
 858 025a 0A43     		orrs	r2, r2, r1
 859 025c 9A64     		str	r2, [r3, #72]
 386:../Dave/Generated/src/LIBS/CCU8PWMLIB.c ****         CCU8_CC8_CHC_ASE_Pos,(uint32_t)HandlePtr->CompareMode);
 387:../Dave/Generated/src/LIBS/CCU8PWMLIB.c **** 
 388:../Dave/Generated/src/LIBS/CCU8PWMLIB.c **** /*Configure output connections as per passive state.*/
 389:../Dave/Generated/src/LIBS/CCU8PWMLIB.c ****   HandlePtr->CC8yRegs1Ptr->CHC &= ~((CCU8_CC8_CHC_OCS1_Msk)|
 860              		.loc 1 389 0
 861 025e 7B68     		ldr	r3, [r7, #4]
 862 0260 9B6B     		ldr	r3, [r3, #56]
 863 0262 7A68     		ldr	r2, [r7, #4]
 864 0264 926B     		ldr	r2, [r2, #56]
 865 0266 926C     		ldr	r2, [r2, #72]
 866 0268 22F00602 		bic	r2, r2, #6
 867 026c 9A64     		str	r2, [r3, #72]
 390:../Dave/Generated/src/LIBS/CCU8PWMLIB.c ****       CCU8_CC8_CHC_OCS2_Msk);
 391:../Dave/Generated/src/LIBS/CCU8PWMLIB.c ****   HandlePtr->CC8yRegs1Ptr->CHC |=
 868              		.loc 1 391 0
 869 026e 7B68     		ldr	r3, [r7, #4]
 870 0270 9B6B     		ldr	r3, [r3, #56]
 871 0272 7A68     		ldr	r2, [r7, #4]
 872 0274 926B     		ldr	r2, [r2, #56]
 873 0276 916C     		ldr	r1, [r2, #72]
 392:../Dave/Generated/src/LIBS/CCU8PWMLIB.c ****     (((uint32_t)HandlePtr->kPassiveState0 << CCU8_CC8_CHC_OCS1_Pos) |
 874              		.loc 1 392 0
 875 0278 7A68     		ldr	r2, [r7, #4]
 876 027a 9278     		ldrb	r2, [r2, #2]	@ zero_extendqisi2
 877 027c 4FEA4200 		lsl	r0, r2, #1
 393:../Dave/Generated/src/LIBS/CCU8PWMLIB.c ****     ((~(uint32_t)HandlePtr->kPassiveState1) << CCU8_CC8_CHC_OCS2_Pos));
 878              		.loc 1 393 0
 879 0280 7A68     		ldr	r2, [r7, #4]
 880 0282 D278     		ldrb	r2, [r2, #3]	@ zero_extendqisi2
 881 0284 6FEA0202 		mvn	r2, r2
 882 0288 4FEA8202 		lsl	r2, r2, #2
 392:../Dave/Generated/src/LIBS/CCU8PWMLIB.c ****     (((uint32_t)HandlePtr->kPassiveState0 << CCU8_CC8_CHC_OCS1_Pos) |
 883              		.loc 1 392 0
 884 028c 0243     		orrs	r2, r2, r0
 391:../Dave/Generated/src/LIBS/CCU8PWMLIB.c ****   HandlePtr->CC8yRegs1Ptr->CHC |=
 885              		.loc 1 391 0
 886 028e 0A43     		orrs	r2, r2, r1
 887 0290 9A64     		str	r2, [r3, #72]
 394:../Dave/Generated/src/LIBS/CCU8PWMLIB.c **** /*Configure dead time settings*/
 395:../Dave/Generated/src/LIBS/CCU8PWMLIB.c ****   HandlePtr->CC8yRegs1Ptr->DTC &= ~((CCU8_CC8_DTC_DTCC_Msk) |
 888              		.loc 1 395 0
 889 0292 7B68     		ldr	r3, [r7, #4]
 890 0294 9B6B     		ldr	r3, [r3, #56]
 891 0296 7A68     		ldr	r2, [r7, #4]
 892 0298 926B     		ldr	r2, [r2, #56]
 893 029a D26C     		ldr	r2, [r2, #76]
 894 029c 22F0CF02 		bic	r2, r2, #207
 895 02a0 DA64     		str	r2, [r3, #76]
 396:../Dave/Generated/src/LIBS/CCU8PWMLIB.c ****       (CCU8_CC8_DTC_DTE1_Msk)| (CCU8_CC8_DTC_DTE2_Msk) |
 397:../Dave/Generated/src/LIBS/CCU8PWMLIB.c ****       (CCU8_CC8_DTC_DCEN1_Msk)|(CCU8_CC8_DTC_DCEN2_Msk));
 398:../Dave/Generated/src/LIBS/CCU8PWMLIB.c ****   HandlePtr->CC8yRegs1Ptr->DTC |= (uint32_t)
 896              		.loc 1 398 0
 897 02a2 7B68     		ldr	r3, [r7, #4]
 898 02a4 9A6B     		ldr	r2, [r3, #56]
 899 02a6 7B68     		ldr	r3, [r7, #4]
 900 02a8 9B6B     		ldr	r3, [r3, #56]
 901 02aa D96C     		ldr	r1, [r3, #76]
 399:../Dave/Generated/src/LIBS/CCU8PWMLIB.c ****   (((HandlePtr->kDeadTimePrescalar  << CCU8_CC8_DTC_DTCC_Pos)& CCU8_CC8_DTC_DTCC_Msk) |
 902              		.loc 1 399 0
 903 02ac 7B68     		ldr	r3, [r7, #4]
 904 02ae 5B7B     		ldrb	r3, [r3, #13]	@ zero_extendqisi2
 905 02b0 4FEA8313 		lsl	r3, r3, #6
 906 02b4 D8B2     		uxtb	r0, r3
 400:../Dave/Generated/src/LIBS/CCU8PWMLIB.c ****       DeadTimeConfVal[HandlePtr->DeadTimeConf]);
 907              		.loc 1 400 0
 908 02b6 7B68     		ldr	r3, [r7, #4]
 909 02b8 93F84230 		ldrb	r3, [r3, #66]	@ zero_extendqisi2
 910 02bc 4FEA8303 		lsl	r3, r3, #2
 911 02c0 07F1180C 		add	ip, r7, #24
 912 02c4 6344     		add	r3, ip, r3
 913 02c6 53F8103C 		ldr	r3, [r3, #-16]
 398:../Dave/Generated/src/LIBS/CCU8PWMLIB.c ****   HandlePtr->CC8yRegs1Ptr->DTC |= (uint32_t)
 914              		.loc 1 398 0
 915 02ca 0343     		orrs	r3, r3, r0
 916 02cc 0B43     		orrs	r3, r3, r1
 917 02ce D364     		str	r3, [r2, #76]
 401:../Dave/Generated/src/LIBS/CCU8PWMLIB.c **** 
 402:../Dave/Generated/src/LIBS/CCU8PWMLIB.c ****   HandlePtr->CC8yRegs1Ptr->DC1R &= ~((CCU8_CC8_DC1R_DT1R_Msk)|
 918              		.loc 1 402 0
 919 02d0 7B68     		ldr	r3, [r7, #4]
 920 02d2 9A6B     		ldr	r2, [r3, #56]
 921 02d4 7B68     		ldr	r3, [r7, #4]
 922 02d6 9B6B     		ldr	r3, [r3, #56]
 923 02d8 1B6D     		ldr	r3, [r3, #80]
 924 02da 4FEA1343 		lsr	r3, r3, #16
 925 02de 4FEA0343 		lsl	r3, r3, #16
 926 02e2 1365     		str	r3, [r2, #80]
 403:../Dave/Generated/src/LIBS/CCU8PWMLIB.c ****       (CCU8_CC8_DC1R_DT1F_Msk));
 404:../Dave/Generated/src/LIBS/CCU8PWMLIB.c ****   HandlePtr->CC8yRegs1Ptr->DC1R |= (uint32_t)
 927              		.loc 1 404 0
 928 02e4 7B68     		ldr	r3, [r7, #4]
 929 02e6 9A6B     		ldr	r2, [r3, #56]
 930 02e8 7B68     		ldr	r3, [r7, #4]
 931 02ea 9B6B     		ldr	r3, [r3, #56]
 932 02ec 196D     		ldr	r1, [r3, #80]
 405:../Dave/Generated/src/LIBS/CCU8PWMLIB.c ****   (( HandlePtr->kRisingDeadTime  << CCU8_CC8_DC1R_DT1R_Pos)& CCU8_CC8_DC1R_DT1R_Msk) |
 933              		.loc 1 405 0
 934 02ee 7B68     		ldr	r3, [r7, #4]
 935 02f0 9B8A     		ldrh	r3, [r3, #20]
 404:../Dave/Generated/src/LIBS/CCU8PWMLIB.c ****   HandlePtr->CC8yRegs1Ptr->DC1R |= (uint32_t)
 936              		.loc 1 404 0
 937 02f2 D8B2     		uxtb	r0, r3
 406:../Dave/Generated/src/LIBS/CCU8PWMLIB.c ****   (( HandlePtr->kFallingDeadTime  << CCU8_CC8_DC1R_DT1F_Pos)& CCU8_CC8_DC1R_DT1F_Msk);
 938              		.loc 1 406 0
 939 02f4 7B68     		ldr	r3, [r7, #4]
 940 02f6 5B8A     		ldrh	r3, [r3, #18]
 941 02f8 4FEA0323 		lsl	r3, r3, #8
 942 02fc 4FEA0343 		lsl	r3, r3, #16
 943 0300 4FEA1343 		lsr	r3, r3, #16
 405:../Dave/Generated/src/LIBS/CCU8PWMLIB.c ****   (( HandlePtr->kRisingDeadTime  << CCU8_CC8_DC1R_DT1R_Pos)& CCU8_CC8_DC1R_DT1R_Msk) |
 944              		.loc 1 405 0
 945 0304 0343     		orrs	r3, r3, r0
 404:../Dave/Generated/src/LIBS/CCU8PWMLIB.c ****   HandlePtr->CC8yRegs1Ptr->DC1R |= (uint32_t)
 946              		.loc 1 404 0
 947 0306 0B43     		orrs	r3, r3, r1
 948 0308 1365     		str	r3, [r2, #80]
 407:../Dave/Generated/src/LIBS/CCU8PWMLIB.c ****   
 408:../Dave/Generated/src/LIBS/CCU8PWMLIB.c ****   /*Request SW shadow transfer for period, compare, dither and prescalar level*/
 409:../Dave/Generated/src/LIBS/CCU8PWMLIB.c ****   HandlePtr->CC8yKernRegsPtr->GCSS |= ((0x01UL <<
 949              		.loc 1 409 0
 950 030a 7B68     		ldr	r3, [r7, #4]
 951 030c 1B6B     		ldr	r3, [r3, #48]
 952 030e 7A68     		ldr	r2, [r7, #4]
 953 0310 126B     		ldr	r2, [r2, #48]
 954 0312 1169     		ldr	r1, [r2, #16]
 410:../Dave/Generated/src/LIBS/CCU8PWMLIB.c ****                                   (4U * (uint32_t)HandlePtr->FirstSlice)) |
 955              		.loc 1 410 0
 956 0314 7A68     		ldr	r2, [r7, #4]
 957 0316 92F84520 		ldrb	r2, [r2, #69]	@ zero_extendqisi2
 958 031a 4FEA8202 		lsl	r2, r2, #2
 409:../Dave/Generated/src/LIBS/CCU8PWMLIB.c ****   HandlePtr->CC8yKernRegsPtr->GCSS |= ((0x01UL <<
 959              		.loc 1 409 0
 960 031e 4FF00100 		mov	r0, #1
 961 0322 00FA02F0 		lsl	r0, r0, r2
 411:../Dave/Generated/src/LIBS/CCU8PWMLIB.c ****                                   (0x01UL <<
 412:../Dave/Generated/src/LIBS/CCU8PWMLIB.c ****                                   ((4U * (uint32_t)HandlePtr->FirstSlice) + 1U)) |
 962              		.loc 1 412 0
 963 0326 7A68     		ldr	r2, [r7, #4]
 964 0328 92F84520 		ldrb	r2, [r2, #69]	@ zero_extendqisi2
 965 032c 4FEA8202 		lsl	r2, r2, #2
 966 0330 02F10102 		add	r2, r2, #1
 411:../Dave/Generated/src/LIBS/CCU8PWMLIB.c ****                                   (0x01UL <<
 967              		.loc 1 411 0
 968 0334 4FF00104 		mov	r4, #1
 969 0338 04FA02F2 		lsl	r2, r4, r2
 410:../Dave/Generated/src/LIBS/CCU8PWMLIB.c ****                                   (4U * (uint32_t)HandlePtr->FirstSlice)) |
 970              		.loc 1 410 0
 971 033c 1043     		orrs	r0, r0, r2
 413:../Dave/Generated/src/LIBS/CCU8PWMLIB.c ****                                   (0x01UL <<
 414:../Dave/Generated/src/LIBS/CCU8PWMLIB.c ****                                   ((4U * (uint32_t)HandlePtr->FirstSlice) + 2U)));
 972              		.loc 1 414 0
 973 033e 7A68     		ldr	r2, [r7, #4]
 974 0340 92F84520 		ldrb	r2, [r2, #69]	@ zero_extendqisi2
 975 0344 4FEA8202 		lsl	r2, r2, #2
 976 0348 02F10202 		add	r2, r2, #2
 413:../Dave/Generated/src/LIBS/CCU8PWMLIB.c ****                                   (0x01UL <<
 977              		.loc 1 413 0
 978 034c 4FF00104 		mov	r4, #1
 979 0350 04FA02F2 		lsl	r2, r4, r2
 412:../Dave/Generated/src/LIBS/CCU8PWMLIB.c ****                                   ((4U * (uint32_t)HandlePtr->FirstSlice) + 1U)) |
 980              		.loc 1 412 0
 981 0354 0243     		orrs	r2, r2, r0
 409:../Dave/Generated/src/LIBS/CCU8PWMLIB.c ****   HandlePtr->CC8yKernRegsPtr->GCSS |= ((0x01UL <<
 982              		.loc 1 409 0
 983 0356 0A43     		orrs	r2, r2, r1
 984 0358 1A61     		str	r2, [r3, #16]
 415:../Dave/Generated/src/LIBS/CCU8PWMLIB.c ****   HandlePtr->CC8yKernRegsPtr->GCSS |= ((0x01U <<
 985              		.loc 1 415 0
 986 035a 7B68     		ldr	r3, [r7, #4]
 987 035c 1B6B     		ldr	r3, [r3, #48]
 988 035e 7A68     		ldr	r2, [r7, #4]
 989 0360 126B     		ldr	r2, [r2, #48]
 990 0362 1169     		ldr	r1, [r2, #16]
 416:../Dave/Generated/src/LIBS/CCU8PWMLIB.c ****                                       (4U * (uint32_t)HandlePtr->SecondSlice)) |
 991              		.loc 1 416 0
 992 0364 7A68     		ldr	r2, [r7, #4]
 993 0366 92F84620 		ldrb	r2, [r2, #70]	@ zero_extendqisi2
 994 036a 4FEA8202 		lsl	r2, r2, #2
 415:../Dave/Generated/src/LIBS/CCU8PWMLIB.c ****   HandlePtr->CC8yKernRegsPtr->GCSS |= ((0x01U <<
 995              		.loc 1 415 0
 996 036e 4FF00100 		mov	r0, #1
 997 0372 00FA02F0 		lsl	r0, r0, r2
 417:../Dave/Generated/src/LIBS/CCU8PWMLIB.c ****                                       (0x01UL <<
 418:../Dave/Generated/src/LIBS/CCU8PWMLIB.c ****                                 ((4U * (uint32_t)HandlePtr->SecondSlice) + 1U)) |
 998              		.loc 1 418 0
 999 0376 7A68     		ldr	r2, [r7, #4]
 1000 0378 92F84620 		ldrb	r2, [r2, #70]	@ zero_extendqisi2
 1001 037c 4FEA8202 		lsl	r2, r2, #2
 1002 0380 02F10102 		add	r2, r2, #1
 417:../Dave/Generated/src/LIBS/CCU8PWMLIB.c ****                                       (0x01UL <<
 1003              		.loc 1 417 0
 1004 0384 4FF00104 		mov	r4, #1
 1005 0388 04FA02F2 		lsl	r2, r4, r2
 416:../Dave/Generated/src/LIBS/CCU8PWMLIB.c ****                                       (4U * (uint32_t)HandlePtr->SecondSlice)) |
 1006              		.loc 1 416 0
 1007 038c 1043     		orrs	r0, r0, r2
 419:../Dave/Generated/src/LIBS/CCU8PWMLIB.c ****                                      (0x01UL <<
 420:../Dave/Generated/src/LIBS/CCU8PWMLIB.c ****                                 ((4U * (uint32_t)HandlePtr->SecondSlice) + 2U)));
 1008              		.loc 1 420 0
 1009 038e 7A68     		ldr	r2, [r7, #4]
 1010 0390 92F84620 		ldrb	r2, [r2, #70]	@ zero_extendqisi2
 1011 0394 4FEA8202 		lsl	r2, r2, #2
 1012 0398 02F10202 		add	r2, r2, #2
 419:../Dave/Generated/src/LIBS/CCU8PWMLIB.c ****                                      (0x01UL <<
 1013              		.loc 1 419 0
 1014 039c 4FF00104 		mov	r4, #1
 1015 03a0 04FA02F2 		lsl	r2, r4, r2
 418:../Dave/Generated/src/LIBS/CCU8PWMLIB.c ****                                 ((4U * (uint32_t)HandlePtr->SecondSlice) + 1U)) |
 1016              		.loc 1 418 0
 1017 03a4 0243     		orrs	r2, r2, r0
 415:../Dave/Generated/src/LIBS/CCU8PWMLIB.c ****   HandlePtr->CC8yKernRegsPtr->GCSS |= ((0x01U <<
 1018              		.loc 1 415 0
 1019 03a6 0A43     		orrs	r2, r2, r1
 1020 03a8 1A61     		str	r2, [r3, #16]
 421:../Dave/Generated/src/LIBS/CCU8PWMLIB.c **** }
 1021              		.loc 1 421 0
 1022 03aa 07F11807 		add	r7, r7, #24
 1023 03ae BD46     		mov	sp, r7
 1024 03b0 90BC     		pop	{r4, r7}
 1025 03b2 7047     		bx	lr
 1026              		.cfi_endproc
 1027              	.LFE136:
 1029              		.section	.text.CCU8PWMLIB_Deinit,"ax",%progbits
 1030              		.align	2
 1031              		.global	CCU8PWMLIB_Deinit
 1032              		.thumb
 1033              		.thumb_func
 1035              	CCU8PWMLIB_Deinit:
 1036              	.LFB137:
 422:../Dave/Generated/src/LIBS/CCU8PWMLIB.c **** 
 423:../Dave/Generated/src/LIBS/CCU8PWMLIB.c **** /*<<<DD_CCU8PWMLIB_API_2>>>*/
 424:../Dave/Generated/src/LIBS/CCU8PWMLIB.c **** /**
 425:../Dave/Generated/src/LIBS/CCU8PWMLIB.c ****  * This function resets the app and the CCU8x_CC8y slice
 426:../Dave/Generated/src/LIBS/CCU8PWMLIB.c ****  */
 427:../Dave/Generated/src/LIBS/CCU8PWMLIB.c **** status_t CCU8PWMLIB_Deinit(const CCU8PWMLIB_HandleType* HandlePtr)
 428:../Dave/Generated/src/LIBS/CCU8PWMLIB.c **** {
 1037              		.loc 1 428 0
 1038              		.cfi_startproc
 1039              		@ args = 0, pretend = 0, frame = 16
 1040              		@ frame_needed = 1, uses_anonymous_args = 0
 1041              		@ link register save eliminated.
 1042 0000 80B4     		push	{r7}
 1043              	.LCFI6:
 1044              		.cfi_def_cfa_offset 4
 1045              		.cfi_offset 7, -4
 1046 0002 85B0     		sub	sp, sp, #20
 1047              	.LCFI7:
 1048              		.cfi_def_cfa_offset 24
 1049 0004 00AF     		add	r7, sp, #0
 1050              	.LCFI8:
 1051              		.cfi_def_cfa_register 7
 1052 0006 7860     		str	r0, [r7, #4]
 429:../Dave/Generated/src/LIBS/CCU8PWMLIB.c ****     status_t Status = (uint32_t)DAVEApp_SUCCESS;
 1053              		.loc 1 429 0
 1054 0008 4FF00003 		mov	r3, #0
 1055 000c FB60     		str	r3, [r7, #12]
 430:../Dave/Generated/src/LIBS/CCU8PWMLIB.c **** 
 431:../Dave/Generated/src/LIBS/CCU8PWMLIB.c **** /*<<<DD_CCU8PWMLIB_API_2_1>>>*/
 432:../Dave/Generated/src/LIBS/CCU8PWMLIB.c **** /*<<<DD_CCU8PWMLIB_API_2_3>>>*/
 433:../Dave/Generated/src/LIBS/CCU8PWMLIB.c **** /*Clear the RUN bit of the slice.*/
 434:../Dave/Generated/src/LIBS/CCU8PWMLIB.c ****     HandlePtr->CC8yRegsPtr->TCCLR = CCU8PWMLIB_SLICE_CLEAR;
 1056              		.loc 1 434 0
 1057 000e 7B68     		ldr	r3, [r7, #4]
 1058 0010 5B6B     		ldr	r3, [r3, #52]
 1059 0012 4FF00702 		mov	r2, #7
 1060 0016 1A61     		str	r2, [r3, #16]
 435:../Dave/Generated/src/LIBS/CCU8PWMLIB.c **** /*Clear all interrupts and disable the interrupts.*/
 436:../Dave/Generated/src/LIBS/CCU8PWMLIB.c ****     HandlePtr->CC8yRegsPtr->SWR = CCU8PWMLIB_ALL_CCU8_INTR_CLEAR;
 1061              		.loc 1 436 0
 1062 0018 7B68     		ldr	r3, [r7, #4]
 1063 001a 5B6B     		ldr	r3, [r3, #52]
 1064 001c 40F63F72 		movw	r2, #3903
 1065 0020 C3F8B020 		str	r2, [r3, #176]
 437:../Dave/Generated/src/LIBS/CCU8PWMLIB.c ****     HandlePtr->CC8yRegsPtr->INTE = 0x00UL;
 1066              		.loc 1 437 0
 1067 0024 7B68     		ldr	r3, [r7, #4]
 1068 0026 5B6B     		ldr	r3, [r3, #52]
 1069 0028 4FF00002 		mov	r2, #0
 1070 002c C3F8A420 		str	r2, [r3, #164]
 438:../Dave/Generated/src/LIBS/CCU8PWMLIB.c **** 
 439:../Dave/Generated/src/LIBS/CCU8PWMLIB.c **** /*Clear all the registers.*/
 440:../Dave/Generated/src/LIBS/CCU8PWMLIB.c ****     HandlePtr->CC8yRegsPtr->INS = 0x00UL;
 1071              		.loc 1 440 0
 1072 0030 7B68     		ldr	r3, [r7, #4]
 1073 0032 5B6B     		ldr	r3, [r3, #52]
 1074 0034 4FF00002 		mov	r2, #0
 1075 0038 1A60     		str	r2, [r3, #0]
 441:../Dave/Generated/src/LIBS/CCU8PWMLIB.c ****     HandlePtr->CC8yRegsPtr->CMC = 0x00UL;
 1076              		.loc 1 441 0
 1077 003a 7B68     		ldr	r3, [r7, #4]
 1078 003c 5B6B     		ldr	r3, [r3, #52]
 1079 003e 4FF00002 		mov	r2, #0
 1080 0042 5A60     		str	r2, [r3, #4]
 442:../Dave/Generated/src/LIBS/CCU8PWMLIB.c ****     HandlePtr->CC8yRegsPtr->TC = 0x00UL;
 1081              		.loc 1 442 0
 1082 0044 7B68     		ldr	r3, [r7, #4]
 1083 0046 5B6B     		ldr	r3, [r3, #52]
 1084 0048 4FF00002 		mov	r2, #0
 1085 004c 5A61     		str	r2, [r3, #20]
 443:../Dave/Generated/src/LIBS/CCU8PWMLIB.c ****     HandlePtr->CC8yRegsPtr->PSC = 0x00UL;
 1086              		.loc 1 443 0
 1087 004e 7B68     		ldr	r3, [r7, #4]
 1088 0050 5B6B     		ldr	r3, [r3, #52]
 1089 0052 4FF00002 		mov	r2, #0
 1090 0056 5A62     		str	r2, [r3, #36]
 444:../Dave/Generated/src/LIBS/CCU8PWMLIB.c ****     HandlePtr->CC8yRegsPtr->PSL = 0x00UL;
 1091              		.loc 1 444 0
 1092 0058 7B68     		ldr	r3, [r7, #4]
 1093 005a 5B6B     		ldr	r3, [r3, #52]
 1094 005c 4FF00002 		mov	r2, #0
 1095 0060 9A61     		str	r2, [r3, #24]
 445:../Dave/Generated/src/LIBS/CCU8PWMLIB.c ****     HandlePtr->CC8yRegsPtr->DITS = 0x00UL;
 1096              		.loc 1 445 0
 1097 0062 7B68     		ldr	r3, [r7, #4]
 1098 0064 5B6B     		ldr	r3, [r3, #52]
 1099 0066 4FF00002 		mov	r2, #0
 1100 006a 1A62     		str	r2, [r3, #32]
 446:../Dave/Generated/src/LIBS/CCU8PWMLIB.c ****     HandlePtr->CC8yRegsPtr->DTC = 0x00UL;
 1101              		.loc 1 446 0
 1102 006c 7B68     		ldr	r3, [r7, #4]
 1103 006e 5B6B     		ldr	r3, [r3, #52]
 1104 0070 4FF00002 		mov	r2, #0
 1105 0074 DA64     		str	r2, [r3, #76]
 447:../Dave/Generated/src/LIBS/CCU8PWMLIB.c ****     HandlePtr->CC8yRegsPtr->DC1R = 0x00UL;
 1106              		.loc 1 447 0
 1107 0076 7B68     		ldr	r3, [r7, #4]
 1108 0078 5B6B     		ldr	r3, [r3, #52]
 1109 007a 4FF00002 		mov	r2, #0
 1110 007e 1A65     		str	r2, [r3, #80]
 448:../Dave/Generated/src/LIBS/CCU8PWMLIB.c ****     HandlePtr->CC8yRegsPtr->CHC = 0x00UL;
 1111              		.loc 1 448 0
 1112 0080 7B68     		ldr	r3, [r7, #4]
 1113 0082 5B6B     		ldr	r3, [r3, #52]
 1114 0084 4FF00002 		mov	r2, #0
 1115 0088 9A64     		str	r2, [r3, #72]
 449:../Dave/Generated/src/LIBS/CCU8PWMLIB.c ****     HandlePtr->CC8yRegsPtr->CR1S = 0x00UL;
 1116              		.loc 1 449 0
 1117 008a 7B68     		ldr	r3, [r7, #4]
 1118 008c 5B6B     		ldr	r3, [r3, #52]
 1119 008e 4FF00002 		mov	r2, #0
 1120 0092 DA63     		str	r2, [r3, #60]
 450:../Dave/Generated/src/LIBS/CCU8PWMLIB.c ****     HandlePtr->CC8yRegsPtr->CR2S = 0x00UL;
 1121              		.loc 1 450 0
 1122 0094 7B68     		ldr	r3, [r7, #4]
 1123 0096 5B6B     		ldr	r3, [r3, #52]
 1124 0098 4FF00002 		mov	r2, #0
 1125 009c 5A64     		str	r2, [r3, #68]
 451:../Dave/Generated/src/LIBS/CCU8PWMLIB.c ****     HandlePtr->CC8yRegsPtr->PRS = 0x00UL;
 1126              		.loc 1 451 0
 1127 009e 7B68     		ldr	r3, [r7, #4]
 1128 00a0 5B6B     		ldr	r3, [r3, #52]
 1129 00a2 4FF00002 		mov	r2, #0
 1130 00a6 5A63     		str	r2, [r3, #52]
 452:../Dave/Generated/src/LIBS/CCU8PWMLIB.c **** 
 453:../Dave/Generated/src/LIBS/CCU8PWMLIB.c ****     HandlePtr->CC8yKernRegsPtr->GCSS |=
 1131              		.loc 1 453 0
 1132 00a8 7B68     		ldr	r3, [r7, #4]
 1133 00aa 1B6B     		ldr	r3, [r3, #48]
 1134 00ac 7A68     		ldr	r2, [r7, #4]
 1135 00ae 126B     		ldr	r2, [r2, #48]
 1136 00b0 1169     		ldr	r1, [r2, #16]
 454:../Dave/Generated/src/LIBS/CCU8PWMLIB.c ****      (0x01U << (CCU8_GCSS_S0SE_Pos + 4U* (uint32_t)HandlePtr->FirstSlice));
 1137              		.loc 1 454 0
 1138 00b2 7A68     		ldr	r2, [r7, #4]
 1139 00b4 92F84520 		ldrb	r2, [r2, #69]	@ zero_extendqisi2
 1140 00b8 4FEA8202 		lsl	r2, r2, #2
 1141 00bc 4FF00100 		mov	r0, #1
 1142 00c0 00FA02F2 		lsl	r2, r0, r2
 453:../Dave/Generated/src/LIBS/CCU8PWMLIB.c ****     HandlePtr->CC8yKernRegsPtr->GCSS |=
 1143              		.loc 1 453 0
 1144 00c4 0A43     		orrs	r2, r2, r1
 1145 00c6 1A61     		str	r2, [r3, #16]
 455:../Dave/Generated/src/LIBS/CCU8PWMLIB.c **** 
 456:../Dave/Generated/src/LIBS/CCU8PWMLIB.c ****   /*Set IDLE mode.*/
 457:../Dave/Generated/src/LIBS/CCU8PWMLIB.c ****     HandlePtr->CC8yKernRegsPtr->GIDLS = ((0x01UL<< (CCU8_GIDLS_SS0I_Pos +
 1146              		.loc 1 457 0
 1147 00c8 7B68     		ldr	r3, [r7, #4]
 1148 00ca 1B6B     		ldr	r3, [r3, #48]
 458:../Dave/Generated/src/LIBS/CCU8PWMLIB.c ****                                           (uint32_t)HandlePtr->FirstSlice)) |
 1149              		.loc 1 458 0
 1150 00cc 7A68     		ldr	r2, [r7, #4]
 1151 00ce 92F84520 		ldrb	r2, [r2, #69]	@ zero_extendqisi2
 457:../Dave/Generated/src/LIBS/CCU8PWMLIB.c ****     HandlePtr->CC8yKernRegsPtr->GIDLS = ((0x01UL<< (CCU8_GIDLS_SS0I_Pos +
 1152              		.loc 1 457 0
 1153 00d2 4FF00101 		mov	r1, #1
 1154 00d6 01FA02F2 		lsl	r2, r1, r2
 459:../Dave/Generated/src/LIBS/CCU8PWMLIB.c ****                                          (0x01UL << CCU8_GIDLS_CPRB_Pos) |
 1155              		.loc 1 459 0
 1156 00da 42F44072 		orr	r2, r2, #768
 457:../Dave/Generated/src/LIBS/CCU8PWMLIB.c ****     HandlePtr->CC8yKernRegsPtr->GIDLS = ((0x01UL<< (CCU8_GIDLS_SS0I_Pos +
 1157              		.loc 1 457 0
 1158 00de 9A60     		str	r2, [r3, #8]
 460:../Dave/Generated/src/LIBS/CCU8PWMLIB.c ****                                          (0x01UL << CCU8_GIDLS_PSIC_Pos));
 461:../Dave/Generated/src/LIBS/CCU8PWMLIB.c **** 
 462:../Dave/Generated/src/LIBS/CCU8PWMLIB.c **** /*<<<DD_CCU8PWMLIB_API_2_2>>>*/
 463:../Dave/Generated/src/LIBS/CCU8PWMLIB.c ****     if (HandlePtr->kTimerConcatenation == (uint8_t)SET)
 1159              		.loc 1 463 0
 1160 00e0 7B68     		ldr	r3, [r7, #4]
 1161 00e2 DB79     		ldrb	r3, [r3, #7]	@ zero_extendqisi2
 1162 00e4 012B     		cmp	r3, #1
 1163 00e6 68D1     		bne	.L15
 464:../Dave/Generated/src/LIBS/CCU8PWMLIB.c ****     {
 465:../Dave/Generated/src/LIBS/CCU8PWMLIB.c **** /*Clear the RUN bit of the slice.*/
 466:../Dave/Generated/src/LIBS/CCU8PWMLIB.c ****       HandlePtr->CC8yRegs1Ptr->TCCLR = CCU8PWMLIB_SLICE_CLEAR;
 1164              		.loc 1 466 0
 1165 00e8 7B68     		ldr	r3, [r7, #4]
 1166 00ea 9B6B     		ldr	r3, [r3, #56]
 1167 00ec 4FF00702 		mov	r2, #7
 1168 00f0 1A61     		str	r2, [r3, #16]
 467:../Dave/Generated/src/LIBS/CCU8PWMLIB.c **** /*Clear all interrupts and disable the interrupts.*/
 468:../Dave/Generated/src/LIBS/CCU8PWMLIB.c ****       HandlePtr->CC8yRegs1Ptr->SWR = CCU8PWMLIB_ALL_CCU8_INTR_CLEAR;
 1169              		.loc 1 468 0
 1170 00f2 7B68     		ldr	r3, [r7, #4]
 1171 00f4 9B6B     		ldr	r3, [r3, #56]
 1172 00f6 40F63F72 		movw	r2, #3903
 1173 00fa C3F8B020 		str	r2, [r3, #176]
 469:../Dave/Generated/src/LIBS/CCU8PWMLIB.c ****       HandlePtr->CC8yRegs1Ptr->INTE = 0x00UL;
 1174              		.loc 1 469 0
 1175 00fe 7B68     		ldr	r3, [r7, #4]
 1176 0100 9B6B     		ldr	r3, [r3, #56]
 1177 0102 4FF00002 		mov	r2, #0
 1178 0106 C3F8A420 		str	r2, [r3, #164]
 470:../Dave/Generated/src/LIBS/CCU8PWMLIB.c **** 
 471:../Dave/Generated/src/LIBS/CCU8PWMLIB.c **** /*Clear all the registers.*/
 472:../Dave/Generated/src/LIBS/CCU8PWMLIB.c ****       HandlePtr->CC8yRegs1Ptr->INS = 0x00UL;
 1179              		.loc 1 472 0
 1180 010a 7B68     		ldr	r3, [r7, #4]
 1181 010c 9B6B     		ldr	r3, [r3, #56]
 1182 010e 4FF00002 		mov	r2, #0
 1183 0112 1A60     		str	r2, [r3, #0]
 473:../Dave/Generated/src/LIBS/CCU8PWMLIB.c ****       HandlePtr->CC8yRegs1Ptr->CMC = 0x00UL;
 1184              		.loc 1 473 0
 1185 0114 7B68     		ldr	r3, [r7, #4]
 1186 0116 9B6B     		ldr	r3, [r3, #56]
 1187 0118 4FF00002 		mov	r2, #0
 1188 011c 5A60     		str	r2, [r3, #4]
 474:../Dave/Generated/src/LIBS/CCU8PWMLIB.c ****       HandlePtr->CC8yRegs1Ptr->TC = 0x00UL;
 1189              		.loc 1 474 0
 1190 011e 7B68     		ldr	r3, [r7, #4]
 1191 0120 9B6B     		ldr	r3, [r3, #56]
 1192 0122 4FF00002 		mov	r2, #0
 1193 0126 5A61     		str	r2, [r3, #20]
 475:../Dave/Generated/src/LIBS/CCU8PWMLIB.c ****       HandlePtr->CC8yRegs1Ptr->PSC = 0x00UL;
 1194              		.loc 1 475 0
 1195 0128 7B68     		ldr	r3, [r7, #4]
 1196 012a 9B6B     		ldr	r3, [r3, #56]
 1197 012c 4FF00002 		mov	r2, #0
 1198 0130 5A62     		str	r2, [r3, #36]
 476:../Dave/Generated/src/LIBS/CCU8PWMLIB.c ****       HandlePtr->CC8yRegs1Ptr->PSL = 0x00UL;
 1199              		.loc 1 476 0
 1200 0132 7B68     		ldr	r3, [r7, #4]
 1201 0134 9B6B     		ldr	r3, [r3, #56]
 1202 0136 4FF00002 		mov	r2, #0
 1203 013a 9A61     		str	r2, [r3, #24]
 477:../Dave/Generated/src/LIBS/CCU8PWMLIB.c ****       HandlePtr->CC8yRegs1Ptr->DITS = 0x00UL;
 1204              		.loc 1 477 0
 1205 013c 7B68     		ldr	r3, [r7, #4]
 1206 013e 9B6B     		ldr	r3, [r3, #56]
 1207 0140 4FF00002 		mov	r2, #0
 1208 0144 1A62     		str	r2, [r3, #32]
 478:../Dave/Generated/src/LIBS/CCU8PWMLIB.c ****       HandlePtr->CC8yRegs1Ptr->DTC = 0x00UL;
 1209              		.loc 1 478 0
 1210 0146 7B68     		ldr	r3, [r7, #4]
 1211 0148 9B6B     		ldr	r3, [r3, #56]
 1212 014a 4FF00002 		mov	r2, #0
 1213 014e DA64     		str	r2, [r3, #76]
 479:../Dave/Generated/src/LIBS/CCU8PWMLIB.c ****       HandlePtr->CC8yRegs1Ptr->DC1R = 0x00UL;
 1214              		.loc 1 479 0
 1215 0150 7B68     		ldr	r3, [r7, #4]
 1216 0152 9B6B     		ldr	r3, [r3, #56]
 1217 0154 4FF00002 		mov	r2, #0
 1218 0158 1A65     		str	r2, [r3, #80]
 480:../Dave/Generated/src/LIBS/CCU8PWMLIB.c ****       HandlePtr->CC8yRegs1Ptr->CHC = 0x00UL;
 1219              		.loc 1 480 0
 1220 015a 7B68     		ldr	r3, [r7, #4]
 1221 015c 9B6B     		ldr	r3, [r3, #56]
 1222 015e 4FF00002 		mov	r2, #0
 1223 0162 9A64     		str	r2, [r3, #72]
 481:../Dave/Generated/src/LIBS/CCU8PWMLIB.c ****       HandlePtr->CC8yRegs1Ptr->CR1S = 0x00UL;
 1224              		.loc 1 481 0
 1225 0164 7B68     		ldr	r3, [r7, #4]
 1226 0166 9B6B     		ldr	r3, [r3, #56]
 1227 0168 4FF00002 		mov	r2, #0
 1228 016c DA63     		str	r2, [r3, #60]
 482:../Dave/Generated/src/LIBS/CCU8PWMLIB.c ****       HandlePtr->CC8yRegs1Ptr->CR2S = 0x00UL;
 1229              		.loc 1 482 0
 1230 016e 7B68     		ldr	r3, [r7, #4]
 1231 0170 9B6B     		ldr	r3, [r3, #56]
 1232 0172 4FF00002 		mov	r2, #0
 1233 0176 5A64     		str	r2, [r3, #68]
 483:../Dave/Generated/src/LIBS/CCU8PWMLIB.c ****       HandlePtr->CC8yRegs1Ptr->PRS = 0x00UL;
 1234              		.loc 1 483 0
 1235 0178 7B68     		ldr	r3, [r7, #4]
 1236 017a 9B6B     		ldr	r3, [r3, #56]
 1237 017c 4FF00002 		mov	r2, #0
 1238 0180 5A63     		str	r2, [r3, #52]
 484:../Dave/Generated/src/LIBS/CCU8PWMLIB.c **** 
 485:../Dave/Generated/src/LIBS/CCU8PWMLIB.c ****       HandlePtr->CC8yKernRegsPtr->GCSS |=
 1239              		.loc 1 485 0
 1240 0182 7B68     		ldr	r3, [r7, #4]
 1241 0184 1B6B     		ldr	r3, [r3, #48]
 1242 0186 7A68     		ldr	r2, [r7, #4]
 1243 0188 126B     		ldr	r2, [r2, #48]
 1244 018a 1169     		ldr	r1, [r2, #16]
 486:../Dave/Generated/src/LIBS/CCU8PWMLIB.c ****           (0x01 << (CCU8_GCSS_S0SE_Pos + 4U* (uint32_t)HandlePtr->SecondSlice));
 1245              		.loc 1 486 0
 1246 018c 7A68     		ldr	r2, [r7, #4]
 1247 018e 92F84620 		ldrb	r2, [r2, #70]	@ zero_extendqisi2
 1248 0192 4FEA8202 		lsl	r2, r2, #2
 1249 0196 4FF00100 		mov	r0, #1
 1250 019a 00FA02F2 		lsl	r2, r0, r2
 485:../Dave/Generated/src/LIBS/CCU8PWMLIB.c ****       HandlePtr->CC8yKernRegsPtr->GCSS |=
 1251              		.loc 1 485 0
 1252 019e 0A43     		orrs	r2, r2, r1
 1253 01a0 1A61     		str	r2, [r3, #16]
 487:../Dave/Generated/src/LIBS/CCU8PWMLIB.c ****    /*Set IDLE mode.*/
 488:../Dave/Generated/src/LIBS/CCU8PWMLIB.c ****       HandlePtr->CC8yKernRegsPtr->GIDLS = ((0x01UL<< (CCU8_GIDLS_SS0I_Pos +
 1254              		.loc 1 488 0
 1255 01a2 7B68     		ldr	r3, [r7, #4]
 1256 01a4 1B6B     		ldr	r3, [r3, #48]
 489:../Dave/Generated/src/LIBS/CCU8PWMLIB.c ****                                             (uint32_t)HandlePtr->SecondSlice)) |
 1257              		.loc 1 489 0
 1258 01a6 7A68     		ldr	r2, [r7, #4]
 1259 01a8 92F84620 		ldrb	r2, [r2, #70]	@ zero_extendqisi2
 488:../Dave/Generated/src/LIBS/CCU8PWMLIB.c ****       HandlePtr->CC8yKernRegsPtr->GIDLS = ((0x01UL<< (CCU8_GIDLS_SS0I_Pos +
 1260              		.loc 1 488 0
 1261 01ac 4FF00101 		mov	r1, #1
 1262 01b0 01FA02F2 		lsl	r2, r1, r2
 490:../Dave/Generated/src/LIBS/CCU8PWMLIB.c ****                                            (0x01UL << CCU8_GIDLS_CPRB_Pos) |
 1263              		.loc 1 490 0
 1264 01b4 42F44072 		orr	r2, r2, #768
 488:../Dave/Generated/src/LIBS/CCU8PWMLIB.c ****       HandlePtr->CC8yKernRegsPtr->GIDLS = ((0x01UL<< (CCU8_GIDLS_SS0I_Pos +
 1265              		.loc 1 488 0
 1266 01b8 9A60     		str	r2, [r3, #8]
 1267              	.L15:
 491:../Dave/Generated/src/LIBS/CCU8PWMLIB.c ****                                            (0x01UL << CCU8_GIDLS_PSIC_Pos));
 492:../Dave/Generated/src/LIBS/CCU8PWMLIB.c ****     }
 493:../Dave/Generated/src/LIBS/CCU8PWMLIB.c ****     return Status;
 1268              		.loc 1 493 0
 1269 01ba FB68     		ldr	r3, [r7, #12]
 494:../Dave/Generated/src/LIBS/CCU8PWMLIB.c **** }
 1270              		.loc 1 494 0
 1271 01bc 1846     		mov	r0, r3
 1272 01be 07F11407 		add	r7, r7, #20
 1273 01c2 BD46     		mov	sp, r7
 1274 01c4 80BC     		pop	{r7}
 1275 01c6 7047     		bx	lr
 1276              		.cfi_endproc
 1277              	.LFE137:
 1279              		.section	.text.CCU8PWMLIB_Start,"ax",%progbits
 1280              		.align	2
 1281              		.global	CCU8PWMLIB_Start
 1282              		.thumb
 1283              		.thumb_func
 1285              	CCU8PWMLIB_Start:
 1286              	.LFB138:
 495:../Dave/Generated/src/LIBS/CCU8PWMLIB.c **** 
 496:../Dave/Generated/src/LIBS/CCU8PWMLIB.c **** /*<<<DD_CCU8PWMLIB_API_3>>>*/
 497:../Dave/Generated/src/LIBS/CCU8PWMLIB.c **** /**
 498:../Dave/Generated/src/LIBS/CCU8PWMLIB.c ****  * This function starts the app and sets the run bit of the timer
 499:../Dave/Generated/src/LIBS/CCU8PWMLIB.c ****  */
 500:../Dave/Generated/src/LIBS/CCU8PWMLIB.c **** status_t CCU8PWMLIB_Start(const CCU8PWMLIB_HandleType* HandlePtr)
 501:../Dave/Generated/src/LIBS/CCU8PWMLIB.c **** {
 1287              		.loc 1 501 0
 1288              		.cfi_startproc
 1289              		@ args = 0, pretend = 0, frame = 16
 1290              		@ frame_needed = 1, uses_anonymous_args = 0
 1291              		@ link register save eliminated.
 1292 0000 80B4     		push	{r7}
 1293              	.LCFI9:
 1294              		.cfi_def_cfa_offset 4
 1295              		.cfi_offset 7, -4
 1296 0002 85B0     		sub	sp, sp, #20
 1297              	.LCFI10:
 1298              		.cfi_def_cfa_offset 24
 1299 0004 00AF     		add	r7, sp, #0
 1300              	.LCFI11:
 1301              		.cfi_def_cfa_register 7
 1302 0006 7860     		str	r0, [r7, #4]
 502:../Dave/Generated/src/LIBS/CCU8PWMLIB.c ****     status_t Status = (uint32_t)DAVEApp_SUCCESS;
 1303              		.loc 1 502 0
 1304 0008 4FF00003 		mov	r3, #0
 1305 000c FB60     		str	r3, [r7, #12]
 503:../Dave/Generated/src/LIBS/CCU8PWMLIB.c ****     /*<<<DD_CCU8PWMLIB_API_3_1>>>*/
 504:../Dave/Generated/src/LIBS/CCU8PWMLIB.c **** 
 505:../Dave/Generated/src/LIBS/CCU8PWMLIB.c ****     /*<<<DD_CCU8PWMLIB_API_3_2>>>*/
 506:../Dave/Generated/src/LIBS/CCU8PWMLIB.c ****     HandlePtr->CC8yRegsPtr->SWR = CCU8PWMLIB_ALL_CCU8_INTR_CLEAR;
 1306              		.loc 1 506 0
 1307 000e 7B68     		ldr	r3, [r7, #4]
 1308 0010 5B6B     		ldr	r3, [r3, #52]
 1309 0012 40F63F72 		movw	r2, #3903
 1310 0016 C3F8B020 		str	r2, [r3, #176]
 507:../Dave/Generated/src/LIBS/CCU8PWMLIB.c ****     /**
 508:../Dave/Generated/src/LIBS/CCU8PWMLIB.c ****      * App can be started from the top level app.
 509:../Dave/Generated/src/LIBS/CCU8PWMLIB.c ****      * If Start is to be done by the App then clear the IDLE mode
 510:../Dave/Generated/src/LIBS/CCU8PWMLIB.c ****      * If Start is 0 then clearing IDLE mode will be done by other App
 511:../Dave/Generated/src/LIBS/CCU8PWMLIB.c ****      */
 512:../Dave/Generated/src/LIBS/CCU8PWMLIB.c ****     if (HandlePtr->Start == (uint8_t)SET)
 1311              		.loc 1 512 0
 1312 001a 7B68     		ldr	r3, [r7, #4]
 1313 001c 1B7C     		ldrb	r3, [r3, #16]	@ zero_extendqisi2
 1314 001e 012B     		cmp	r3, #1
 1315 0020 08D1     		bne	.L18
 513:../Dave/Generated/src/LIBS/CCU8PWMLIB.c ****     {
 514:../Dave/Generated/src/LIBS/CCU8PWMLIB.c ****       HandlePtr->CC8yKernRegsPtr->GIDLC |= HandlePtr->StartMask;
 1316              		.loc 1 514 0
 1317 0022 7B68     		ldr	r3, [r7, #4]
 1318 0024 1B6B     		ldr	r3, [r3, #48]
 1319 0026 7A68     		ldr	r2, [r7, #4]
 1320 0028 126B     		ldr	r2, [r2, #48]
 1321 002a D168     		ldr	r1, [r2, #12]
 1322 002c 7A68     		ldr	r2, [r7, #4]
 1323 002e D26C     		ldr	r2, [r2, #76]
 1324 0030 0A43     		orrs	r2, r2, r1
 1325 0032 DA60     		str	r2, [r3, #12]
 1326              	.L18:
 515:../Dave/Generated/src/LIBS/CCU8PWMLIB.c ****     }
 516:../Dave/Generated/src/LIBS/CCU8PWMLIB.c ****     
 517:../Dave/Generated/src/LIBS/CCU8PWMLIB.c **** /* Set RUN bit if external start is not configured */
 518:../Dave/Generated/src/LIBS/CCU8PWMLIB.c ****     if (HandlePtr->kExtStartTrig == (uint8_t)RESET)
 1327              		.loc 1 518 0
 1328 0034 7B68     		ldr	r3, [r7, #4]
 1329 0036 1B78     		ldrb	r3, [r3, #0]	@ zero_extendqisi2
 1330 0038 002B     		cmp	r3, #0
 1331 003a 14D1     		bne	.L19
 519:../Dave/Generated/src/LIBS/CCU8PWMLIB.c ****     {     
 520:../Dave/Generated/src/LIBS/CCU8PWMLIB.c ****       if (HandlePtr->kTimerConcatenation == (uint8_t)SET)
 1332              		.loc 1 520 0
 1333 003c 7B68     		ldr	r3, [r7, #4]
 1334 003e DB79     		ldrb	r3, [r3, #7]	@ zero_extendqisi2
 1335 0040 012B     		cmp	r3, #1
 1336 0042 07D1     		bne	.L20
 521:../Dave/Generated/src/LIBS/CCU8PWMLIB.c ****       {
 522:../Dave/Generated/src/LIBS/CCU8PWMLIB.c ****         SET_BIT(HandlePtr->CC8yRegs1Ptr->TCSET, CCU8_CC8_TCSET_TRBS_Pos);
 1337              		.loc 1 522 0
 1338 0044 7B68     		ldr	r3, [r7, #4]
 1339 0046 9B6B     		ldr	r3, [r3, #56]
 1340 0048 7A68     		ldr	r2, [r7, #4]
 1341 004a 926B     		ldr	r2, [r2, #56]
 1342 004c D268     		ldr	r2, [r2, #12]
 1343 004e 42F00102 		orr	r2, r2, #1
 1344 0052 DA60     		str	r2, [r3, #12]
 1345              	.L20:
 523:../Dave/Generated/src/LIBS/CCU8PWMLIB.c ****     /* Configure trap settings */
 524:../Dave/Generated/src/LIBS/CCU8PWMLIB.c ****       }
 525:../Dave/Generated/src/LIBS/CCU8PWMLIB.c ****       SET_BIT(HandlePtr->CC8yRegsPtr->TCSET, CCU8_CC8_TCSET_TRBS_Pos);
 1346              		.loc 1 525 0
 1347 0054 7B68     		ldr	r3, [r7, #4]
 1348 0056 5B6B     		ldr	r3, [r3, #52]
 1349 0058 7A68     		ldr	r2, [r7, #4]
 1350 005a 526B     		ldr	r2, [r2, #52]
 1351 005c D268     		ldr	r2, [r2, #12]
 1352 005e 42F00102 		orr	r2, r2, #1
 1353 0062 DA60     		str	r2, [r3, #12]
 1354 0064 5BE0     		b	.L21
 1355              	.L19:
 526:../Dave/Generated/src/LIBS/CCU8PWMLIB.c ****        /* Configure trap settings */
 527:../Dave/Generated/src/LIBS/CCU8PWMLIB.c ****     }
 528:../Dave/Generated/src/LIBS/CCU8PWMLIB.c ****     else
 529:../Dave/Generated/src/LIBS/CCU8PWMLIB.c ****     {
 530:../Dave/Generated/src/LIBS/CCU8PWMLIB.c ****       /*<<<DD_CCU8PWMLIB_API_1_2>>>*/
 531:../Dave/Generated/src/LIBS/CCU8PWMLIB.c ****        /* Configure external start feature */
 532:../Dave/Generated/src/LIBS/CCU8PWMLIB.c ****     if (HandlePtr->kExtStartTrig == (uint8_t)SET)
 1356              		.loc 1 532 0
 1357 0066 7B68     		ldr	r3, [r7, #4]
 1358 0068 1B78     		ldrb	r3, [r3, #0]	@ zero_extendqisi2
 1359 006a 012B     		cmp	r3, #1
 1360 006c 27D1     		bne	.L22
 533:../Dave/Generated/src/LIBS/CCU8PWMLIB.c ****     {
 534:../Dave/Generated/src/LIBS/CCU8PWMLIB.c ****       HandlePtr->CC8yRegsPtr ->INS &= ~((CCU8_CC8_INS_EV0EM_Msk)|
 1361              		.loc 1 534 0
 1362 006e 7B68     		ldr	r3, [r7, #4]
 1363 0070 5A6B     		ldr	r2, [r3, #52]
 1364 0072 7B68     		ldr	r3, [r7, #4]
 1365 0074 5B6B     		ldr	r3, [r3, #52]
 1366 0076 1B68     		ldr	r3, [r3, #0]
 1367 0078 23F0C063 		bic	r3, r3, #100663296
 1368 007c 23F44033 		bic	r3, r3, #196608
 1369 0080 1360     		str	r3, [r2, #0]
 535:../Dave/Generated/src/LIBS/CCU8PWMLIB.c ****          (CCU8_CC8_INS_LPF0M_Msk));
 536:../Dave/Generated/src/LIBS/CCU8PWMLIB.c ****       HandlePtr->CC8yRegsPtr->CMC &= ~CCU8_CC8_CMC_STRTS_Msk;
 1370              		.loc 1 536 0
 1371 0082 7B68     		ldr	r3, [r7, #4]
 1372 0084 5B6B     		ldr	r3, [r3, #52]
 1373 0086 7A68     		ldr	r2, [r7, #4]
 1374 0088 526B     		ldr	r2, [r2, #52]
 1375 008a 5268     		ldr	r2, [r2, #4]
 1376 008c 22F00302 		bic	r2, r2, #3
 1377 0090 5A60     		str	r2, [r3, #4]
 537:../Dave/Generated/src/LIBS/CCU8PWMLIB.c ****       HandlePtr->CC8yRegsPtr ->INS |=
 1378              		.loc 1 537 0
 1379 0092 7B68     		ldr	r3, [r7, #4]
 1380 0094 5B6B     		ldr	r3, [r3, #52]
 1381 0096 7A68     		ldr	r2, [r7, #4]
 1382 0098 526B     		ldr	r2, [r2, #52]
 1383 009a 1168     		ldr	r1, [r2, #0]
 538:../Dave/Generated/src/LIBS/CCU8PWMLIB.c ****         ((((uint32_t)HandlePtr->kStartEdge <<
 1384              		.loc 1 538 0
 1385 009c 7A68     		ldr	r2, [r7, #4]
 1386 009e 92F82820 		ldrb	r2, [r2, #40]	@ zero_extendqisi2
 1387 00a2 4FEA0242 		lsl	r2, r2, #16
 539:../Dave/Generated/src/LIBS/CCU8PWMLIB.c ****          CCU8_CC8_INS_EV0EM_Pos)& CCU8_CC8_INS_EV0EM_Msk) |
 1388              		.loc 1 539 0
 1389 00a6 02F44032 		and	r2, r2, #196608
 537:../Dave/Generated/src/LIBS/CCU8PWMLIB.c ****       HandlePtr->CC8yRegsPtr ->INS |=
 1390              		.loc 1 537 0
 1391 00aa 0A43     		orrs	r2, r2, r1
 1392 00ac 1A60     		str	r2, [r3, #0]
 540:../Dave/Generated/src/LIBS/CCU8PWMLIB.c ****         ((CCU8PWMLIB_LPF  << CCU8_CC8_INS_LPF0M_Pos)& CCU8_CC8_INS_LPF0M_Msk));
 541:../Dave/Generated/src/LIBS/CCU8PWMLIB.c ****       HandlePtr->CC8yRegsPtr->CMC |=((CCU8PWMLIB_EVENT_0  <<
 1393              		.loc 1 541 0
 1394 00ae 7B68     		ldr	r3, [r7, #4]
 1395 00b0 5B6B     		ldr	r3, [r3, #52]
 1396 00b2 7A68     		ldr	r2, [r7, #4]
 1397 00b4 526B     		ldr	r2, [r2, #52]
 1398 00b6 5268     		ldr	r2, [r2, #4]
 1399 00b8 42F00102 		orr	r2, r2, #1
 1400 00bc 5A60     		str	r2, [r3, #4]
 1401              	.L22:
 542:../Dave/Generated/src/LIBS/CCU8PWMLIB.c ****                   CCU8_CC8_CMC_STRTS_Pos)& CCU8_CC8_CMC_STRTS_Msk);
 543:../Dave/Generated/src/LIBS/CCU8PWMLIB.c ****     }
 544:../Dave/Generated/src/LIBS/CCU8PWMLIB.c ****     /*<<<DD_CCU8PWMLIB_nonAPI_1_2>>>*/
 545:../Dave/Generated/src/LIBS/CCU8PWMLIB.c ****     /* Configure external start feature*/
 546:../Dave/Generated/src/LIBS/CCU8PWMLIB.c ****     if ((HandlePtr->kExtStartTrig == (uint8_t)SET)&&\
 1402              		.loc 1 546 0
 1403 00be 7B68     		ldr	r3, [r7, #4]
 1404 00c0 1B78     		ldrb	r3, [r3, #0]	@ zero_extendqisi2
 1405 00c2 012B     		cmp	r3, #1
 1406 00c4 2BD1     		bne	.L21
 547:../Dave/Generated/src/LIBS/CCU8PWMLIB.c ****       (HandlePtr->kTimerConcatenation == (uint8_t)SET)
 1407              		.loc 1 547 0 discriminator 1
 1408 00c6 7B68     		ldr	r3, [r7, #4]
 1409 00c8 DB79     		ldrb	r3, [r3, #7]	@ zero_extendqisi2
 546:../Dave/Generated/src/LIBS/CCU8PWMLIB.c ****     if ((HandlePtr->kExtStartTrig == (uint8_t)SET)&&\
 1410              		.loc 1 546 0 discriminator 1
 1411 00ca 012B     		cmp	r3, #1
 1412 00cc 27D1     		bne	.L21
 548:../Dave/Generated/src/LIBS/CCU8PWMLIB.c ****         )
 549:../Dave/Generated/src/LIBS/CCU8PWMLIB.c ****     {
 550:../Dave/Generated/src/LIBS/CCU8PWMLIB.c ****       HandlePtr->CC8yRegs1Ptr->INS &= ~((CCU8_CC8_INS_EV0EM_Msk) |
 1413              		.loc 1 550 0
 1414 00ce 7B68     		ldr	r3, [r7, #4]
 1415 00d0 9A6B     		ldr	r2, [r3, #56]
 1416 00d2 7B68     		ldr	r3, [r7, #4]
 1417 00d4 9B6B     		ldr	r3, [r3, #56]
 1418 00d6 1B68     		ldr	r3, [r3, #0]
 1419 00d8 23F0C063 		bic	r3, r3, #100663296
 1420 00dc 23F44033 		bic	r3, r3, #196608
 1421 00e0 1360     		str	r3, [r2, #0]
 551:../Dave/Generated/src/LIBS/CCU8PWMLIB.c ****          (CCU8_CC8_INS_LPF0M_Msk));
 552:../Dave/Generated/src/LIBS/CCU8PWMLIB.c ****       HandlePtr->CC8yRegs1Ptr->CMC &= ~(CCU8_CC8_CMC_STRTS_Msk);
 1422              		.loc 1 552 0
 1423 00e2 7B68     		ldr	r3, [r7, #4]
 1424 00e4 9B6B     		ldr	r3, [r3, #56]
 1425 00e6 7A68     		ldr	r2, [r7, #4]
 1426 00e8 926B     		ldr	r2, [r2, #56]
 1427 00ea 5268     		ldr	r2, [r2, #4]
 1428 00ec 22F00302 		bic	r2, r2, #3
 1429 00f0 5A60     		str	r2, [r3, #4]
 553:../Dave/Generated/src/LIBS/CCU8PWMLIB.c ****       HandlePtr->CC8yRegs1Ptr->INS |=
 1430              		.loc 1 553 0
 1431 00f2 7B68     		ldr	r3, [r7, #4]
 1432 00f4 9B6B     		ldr	r3, [r3, #56]
 1433 00f6 7A68     		ldr	r2, [r7, #4]
 1434 00f8 926B     		ldr	r2, [r2, #56]
 1435 00fa 1168     		ldr	r1, [r2, #0]
 554:../Dave/Generated/src/LIBS/CCU8PWMLIB.c ****       ((((uint32_t)HandlePtr->kStartEdge << CCU8_CC8_INS_EV0EM_Pos)& CCU8_CC8_INS_EV0EM_Msk) |
 1436              		.loc 1 554 0
 1437 00fc 7A68     		ldr	r2, [r7, #4]
 1438 00fe 92F82820 		ldrb	r2, [r2, #40]	@ zero_extendqisi2
 1439 0102 4FEA0242 		lsl	r2, r2, #16
 1440 0106 02F44032 		and	r2, r2, #196608
 553:../Dave/Generated/src/LIBS/CCU8PWMLIB.c ****       HandlePtr->CC8yRegs1Ptr->INS |=
 1441              		.loc 1 553 0
 1442 010a 0A43     		orrs	r2, r2, r1
 1443 010c 1A60     		str	r2, [r3, #0]
 555:../Dave/Generated/src/LIBS/CCU8PWMLIB.c ****         ((CCU8PWMLIB_LPF  << CCU8_CC8_INS_LPF0M_Pos)& CCU8_CC8_INS_LPF0M_Msk));
 556:../Dave/Generated/src/LIBS/CCU8PWMLIB.c ****       HandlePtr->CC8yRegs1Ptr->CMC |=
 1444              		.loc 1 556 0
 1445 010e 7B68     		ldr	r3, [r7, #4]
 1446 0110 9B6B     		ldr	r3, [r3, #56]
 1447 0112 7A68     		ldr	r2, [r7, #4]
 1448 0114 926B     		ldr	r2, [r2, #56]
 1449 0116 5268     		ldr	r2, [r2, #4]
 1450 0118 42F00102 		orr	r2, r2, #1
 1451 011c 5A60     		str	r2, [r3, #4]
 1452              	.L21:
 557:../Dave/Generated/src/LIBS/CCU8PWMLIB.c ****         ((CCU8PWMLIB_EVENT_0  << CCU8_CC8_CMC_STRTS_Pos)& CCU8_CC8_CMC_STRTS_Msk);
 558:../Dave/Generated/src/LIBS/CCU8PWMLIB.c ****     }/*End of if (HandlePtr->kExtStartTrig == SET)*/
 559:../Dave/Generated/src/LIBS/CCU8PWMLIB.c **** 
 560:../Dave/Generated/src/LIBS/CCU8PWMLIB.c ****     }
 561:../Dave/Generated/src/LIBS/CCU8PWMLIB.c ****     return Status;
 1453              		.loc 1 561 0
 1454 011e FB68     		ldr	r3, [r7, #12]
 562:../Dave/Generated/src/LIBS/CCU8PWMLIB.c **** }
 1455              		.loc 1 562 0
 1456 0120 1846     		mov	r0, r3
 1457 0122 07F11407 		add	r7, r7, #20
 1458 0126 BD46     		mov	sp, r7
 1459 0128 80BC     		pop	{r7}
 1460 012a 7047     		bx	lr
 1461              		.cfi_endproc
 1462              	.LFE138:
 1464              		.section	.text.CCU8PWMLIB_EnableExtStart,"ax",%progbits
 1465              		.align	2
 1466              		.global	CCU8PWMLIB_EnableExtStart
 1467              		.thumb
 1468              		.thumb_func
 1470              	CCU8PWMLIB_EnableExtStart:
 1471              	.LFB139:
 563:../Dave/Generated/src/LIBS/CCU8PWMLIB.c **** 
 564:../Dave/Generated/src/LIBS/CCU8PWMLIB.c **** /* This function enables the external start feature.
 565:../Dave/Generated/src/LIBS/CCU8PWMLIB.c ****  */
 566:../Dave/Generated/src/LIBS/CCU8PWMLIB.c **** status_t CCU8PWMLIB_EnableExtStart(const CCU8PWMLIB_HandleType* HandlePtr)
 567:../Dave/Generated/src/LIBS/CCU8PWMLIB.c **** {
 1472              		.loc 1 567 0
 1473              		.cfi_startproc
 1474              		@ args = 0, pretend = 0, frame = 16
 1475              		@ frame_needed = 1, uses_anonymous_args = 0
 1476              		@ link register save eliminated.
 1477 0000 80B4     		push	{r7}
 1478              	.LCFI12:
 1479              		.cfi_def_cfa_offset 4
 1480              		.cfi_offset 7, -4
 1481 0002 85B0     		sub	sp, sp, #20
 1482              	.LCFI13:
 1483              		.cfi_def_cfa_offset 24
 1484 0004 00AF     		add	r7, sp, #0
 1485              	.LCFI14:
 1486              		.cfi_def_cfa_register 7
 1487 0006 7860     		str	r0, [r7, #4]
 568:../Dave/Generated/src/LIBS/CCU8PWMLIB.c ****   status_t Status = (uint32_t)DAVEApp_SUCCESS;
 1488              		.loc 1 568 0
 1489 0008 4FF00003 		mov	r3, #0
 1490 000c FB60     		str	r3, [r7, #12]
 569:../Dave/Generated/src/LIBS/CCU8PWMLIB.c ****   
 570:../Dave/Generated/src/LIBS/CCU8PWMLIB.c ****   /*clear external start functionality */
 571:../Dave/Generated/src/LIBS/CCU8PWMLIB.c ****   HandlePtr->CC8yRegsPtr->INS &= ~((CCU8_CC8_INS_EV0EM_Msk) |
 1491              		.loc 1 571 0
 1492 000e 7B68     		ldr	r3, [r7, #4]
 1493 0010 5A6B     		ldr	r2, [r3, #52]
 1494 0012 7B68     		ldr	r3, [r7, #4]
 1495 0014 5B6B     		ldr	r3, [r3, #52]
 1496 0016 1B68     		ldr	r3, [r3, #0]
 1497 0018 23F0C063 		bic	r3, r3, #100663296
 1498 001c 23F44033 		bic	r3, r3, #196608
 1499 0020 1360     		str	r3, [r2, #0]
 572:../Dave/Generated/src/LIBS/CCU8PWMLIB.c ****      (CCU8_CC8_INS_LPF0M_Msk));
 573:../Dave/Generated/src/LIBS/CCU8PWMLIB.c ****   HandlePtr->CC8yRegsPtr->INS |= ((uint32_t)HandlePtr->kStartEdge <<
 1500              		.loc 1 573 0
 1501 0022 7B68     		ldr	r3, [r7, #4]
 1502 0024 5B6B     		ldr	r3, [r3, #52]
 1503 0026 7A68     		ldr	r2, [r7, #4]
 1504 0028 526B     		ldr	r2, [r2, #52]
 1505 002a 1168     		ldr	r1, [r2, #0]
 1506 002c 7A68     		ldr	r2, [r7, #4]
 1507 002e 92F82820 		ldrb	r2, [r2, #40]	@ zero_extendqisi2
 1508 0032 4FEA0242 		lsl	r2, r2, #16
 574:../Dave/Generated/src/LIBS/CCU8PWMLIB.c ****              CCU8_CC8_INS_EV0EM_Pos) & CCU8_CC8_INS_EV0EM_Msk;
 1509              		.loc 1 574 0
 1510 0036 02F44032 		and	r2, r2, #196608
 573:../Dave/Generated/src/LIBS/CCU8PWMLIB.c ****   HandlePtr->CC8yRegsPtr->INS |= ((uint32_t)HandlePtr->kStartEdge <<
 1511              		.loc 1 573 0
 1512 003a 0A43     		orrs	r2, r2, r1
 1513 003c 1A60     		str	r2, [r3, #0]
 575:../Dave/Generated/src/LIBS/CCU8PWMLIB.c ****   if (HandlePtr->kTimerConcatenation == (uint8_t)SET)
 1514              		.loc 1 575 0
 1515 003e 7B68     		ldr	r3, [r7, #4]
 1516 0040 DB79     		ldrb	r3, [r3, #7]	@ zero_extendqisi2
 1517 0042 012B     		cmp	r3, #1
 1518 0044 17D1     		bne	.L25
 576:../Dave/Generated/src/LIBS/CCU8PWMLIB.c ****   {
 577:../Dave/Generated/src/LIBS/CCU8PWMLIB.c ****     HandlePtr->CC8yRegs1Ptr->INS &= ~((CCU8_CC8_INS_EV0EM_Msk) |
 1519              		.loc 1 577 0
 1520 0046 7B68     		ldr	r3, [r7, #4]
 1521 0048 9A6B     		ldr	r2, [r3, #56]
 1522 004a 7B68     		ldr	r3, [r7, #4]
 1523 004c 9B6B     		ldr	r3, [r3, #56]
 1524 004e 1B68     		ldr	r3, [r3, #0]
 1525 0050 23F0C063 		bic	r3, r3, #100663296
 1526 0054 23F44033 		bic	r3, r3, #196608
 1527 0058 1360     		str	r3, [r2, #0]
 578:../Dave/Generated/src/LIBS/CCU8PWMLIB.c ****         (CCU8_CC8_INS_LPF0M_Msk));
 579:../Dave/Generated/src/LIBS/CCU8PWMLIB.c ****     HandlePtr->CC8yRegs1Ptr->INS |= ((uint32_t)HandlePtr->kStartEdge <<
 1528              		.loc 1 579 0
 1529 005a 7B68     		ldr	r3, [r7, #4]
 1530 005c 9B6B     		ldr	r3, [r3, #56]
 1531 005e 7A68     		ldr	r2, [r7, #4]
 1532 0060 926B     		ldr	r2, [r2, #56]
 1533 0062 1168     		ldr	r1, [r2, #0]
 1534 0064 7A68     		ldr	r2, [r7, #4]
 1535 0066 92F82820 		ldrb	r2, [r2, #40]	@ zero_extendqisi2
 1536 006a 4FEA0242 		lsl	r2, r2, #16
 580:../Dave/Generated/src/LIBS/CCU8PWMLIB.c ****              CCU8_CC8_INS_EV0EM_Pos) & CCU8_CC8_INS_EV0EM_Msk;
 1537              		.loc 1 580 0
 1538 006e 02F44032 		and	r2, r2, #196608
 579:../Dave/Generated/src/LIBS/CCU8PWMLIB.c ****     HandlePtr->CC8yRegs1Ptr->INS |= ((uint32_t)HandlePtr->kStartEdge <<
 1539              		.loc 1 579 0
 1540 0072 0A43     		orrs	r2, r2, r1
 1541 0074 1A60     		str	r2, [r3, #0]
 1542              	.L25:
 581:../Dave/Generated/src/LIBS/CCU8PWMLIB.c ****   }
 582:../Dave/Generated/src/LIBS/CCU8PWMLIB.c ****   return Status;
 1543              		.loc 1 582 0
 1544 0076 FB68     		ldr	r3, [r7, #12]
 583:../Dave/Generated/src/LIBS/CCU8PWMLIB.c **** }
 1545              		.loc 1 583 0
 1546 0078 1846     		mov	r0, r3
 1547 007a 07F11407 		add	r7, r7, #20
 1548 007e BD46     		mov	sp, r7
 1549 0080 80BC     		pop	{r7}
 1550 0082 7047     		bx	lr
 1551              		.cfi_endproc
 1552              	.LFE139:
 1554              		.section	.text.CCU8PWMLIB_DisableExtStart,"ax",%progbits
 1555              		.align	2
 1556              		.global	CCU8PWMLIB_DisableExtStart
 1557              		.thumb
 1558              		.thumb_func
 1560              	CCU8PWMLIB_DisableExtStart:
 1561              	.LFB140:
 584:../Dave/Generated/src/LIBS/CCU8PWMLIB.c **** 
 585:../Dave/Generated/src/LIBS/CCU8PWMLIB.c **** /* This function disables the external start feature.
 586:../Dave/Generated/src/LIBS/CCU8PWMLIB.c ****  * This is useful for multiphase PWM app to disable this functionality to avoid spurious 
 587:../Dave/Generated/src/LIBS/CCU8PWMLIB.c ****  * start of the slices due to other instances of the app. 
 588:../Dave/Generated/src/LIBS/CCU8PWMLIB.c ****  */
 589:../Dave/Generated/src/LIBS/CCU8PWMLIB.c **** status_t CCU8PWMLIB_DisableExtStart(const CCU8PWMLIB_HandleType* HandlePtr)
 590:../Dave/Generated/src/LIBS/CCU8PWMLIB.c **** {
 1562              		.loc 1 590 0
 1563              		.cfi_startproc
 1564              		@ args = 0, pretend = 0, frame = 16
 1565              		@ frame_needed = 1, uses_anonymous_args = 0
 1566              		@ link register save eliminated.
 1567 0000 80B4     		push	{r7}
 1568              	.LCFI15:
 1569              		.cfi_def_cfa_offset 4
 1570              		.cfi_offset 7, -4
 1571 0002 85B0     		sub	sp, sp, #20
 1572              	.LCFI16:
 1573              		.cfi_def_cfa_offset 24
 1574 0004 00AF     		add	r7, sp, #0
 1575              	.LCFI17:
 1576              		.cfi_def_cfa_register 7
 1577 0006 7860     		str	r0, [r7, #4]
 591:../Dave/Generated/src/LIBS/CCU8PWMLIB.c ****   status_t Status = (uint32_t)DAVEApp_SUCCESS;
 1578              		.loc 1 591 0
 1579 0008 4FF00003 		mov	r3, #0
 1580 000c FB60     		str	r3, [r7, #12]
 592:../Dave/Generated/src/LIBS/CCU8PWMLIB.c ****   
 593:../Dave/Generated/src/LIBS/CCU8PWMLIB.c ****   /*clear external start functionality */
 594:../Dave/Generated/src/LIBS/CCU8PWMLIB.c ****   HandlePtr->CC8yRegsPtr->INS &= ~((CCU8_CC8_INS_EV0EM_Msk) |
 1581              		.loc 1 594 0
 1582 000e 7B68     		ldr	r3, [r7, #4]
 1583 0010 5A6B     		ldr	r2, [r3, #52]
 1584 0012 7B68     		ldr	r3, [r7, #4]
 1585 0014 5B6B     		ldr	r3, [r3, #52]
 1586 0016 1B68     		ldr	r3, [r3, #0]
 1587 0018 23F0C063 		bic	r3, r3, #100663296
 1588 001c 23F44033 		bic	r3, r3, #196608
 1589 0020 1360     		str	r3, [r2, #0]
 595:../Dave/Generated/src/LIBS/CCU8PWMLIB.c ****      (CCU8_CC8_INS_LPF0M_Msk));
 596:../Dave/Generated/src/LIBS/CCU8PWMLIB.c ****   if (HandlePtr->kTimerConcatenation == (uint8_t)SET)
 1590              		.loc 1 596 0
 1591 0022 7B68     		ldr	r3, [r7, #4]
 1592 0024 DB79     		ldrb	r3, [r3, #7]	@ zero_extendqisi2
 1593 0026 012B     		cmp	r3, #1
 1594 0028 09D1     		bne	.L28
 597:../Dave/Generated/src/LIBS/CCU8PWMLIB.c ****   {
 598:../Dave/Generated/src/LIBS/CCU8PWMLIB.c ****     HandlePtr->CC8yRegs1Ptr->INS &= ~((CCU8_CC8_INS_EV0EM_Msk) |
 1595              		.loc 1 598 0
 1596 002a 7B68     		ldr	r3, [r7, #4]
 1597 002c 9A6B     		ldr	r2, [r3, #56]
 1598 002e 7B68     		ldr	r3, [r7, #4]
 1599 0030 9B6B     		ldr	r3, [r3, #56]
 1600 0032 1B68     		ldr	r3, [r3, #0]
 1601 0034 23F0C063 		bic	r3, r3, #100663296
 1602 0038 23F44033 		bic	r3, r3, #196608
 1603 003c 1360     		str	r3, [r2, #0]
 1604              	.L28:
 599:../Dave/Generated/src/LIBS/CCU8PWMLIB.c ****         (CCU8_CC8_INS_LPF0M_Msk));
 600:../Dave/Generated/src/LIBS/CCU8PWMLIB.c ****   }
 601:../Dave/Generated/src/LIBS/CCU8PWMLIB.c ****   return Status;
 1605              		.loc 1 601 0
 1606 003e FB68     		ldr	r3, [r7, #12]
 602:../Dave/Generated/src/LIBS/CCU8PWMLIB.c **** }
 1607              		.loc 1 602 0
 1608 0040 1846     		mov	r0, r3
 1609 0042 07F11407 		add	r7, r7, #20
 1610 0046 BD46     		mov	sp, r7
 1611 0048 80BC     		pop	{r7}
 1612 004a 7047     		bx	lr
 1613              		.cfi_endproc
 1614              	.LFE140:
 1616              		.section	.text.CCU8PWMLIB_Stop,"ax",%progbits
 1617              		.align	2
 1618              		.global	CCU8PWMLIB_Stop
 1619              		.thumb
 1620              		.thumb_func
 1622              	CCU8PWMLIB_Stop:
 1623              	.LFB141:
 603:../Dave/Generated/src/LIBS/CCU8PWMLIB.c **** 
 604:../Dave/Generated/src/LIBS/CCU8PWMLIB.c **** /*<<<DD_CCU8PWMLIB_API_4>>>*/
 605:../Dave/Generated/src/LIBS/CCU8PWMLIB.c **** /**
 606:../Dave/Generated/src/LIBS/CCU8PWMLIB.c ****  * This function stops the app and the timer
 607:../Dave/Generated/src/LIBS/CCU8PWMLIB.c ****  */
 608:../Dave/Generated/src/LIBS/CCU8PWMLIB.c **** status_t CCU8PWMLIB_Stop(const CCU8PWMLIB_HandleType* HandlePtr)
 609:../Dave/Generated/src/LIBS/CCU8PWMLIB.c **** {
 1624              		.loc 1 609 0
 1625              		.cfi_startproc
 1626              		@ args = 0, pretend = 0, frame = 16
 1627              		@ frame_needed = 1, uses_anonymous_args = 0
 1628              		@ link register save eliminated.
 1629 0000 80B4     		push	{r7}
 1630              	.LCFI18:
 1631              		.cfi_def_cfa_offset 4
 1632              		.cfi_offset 7, -4
 1633 0002 85B0     		sub	sp, sp, #20
 1634              	.LCFI19:
 1635              		.cfi_def_cfa_offset 24
 1636 0004 00AF     		add	r7, sp, #0
 1637              	.LCFI20:
 1638              		.cfi_def_cfa_register 7
 1639 0006 7860     		str	r0, [r7, #4]
 610:../Dave/Generated/src/LIBS/CCU8PWMLIB.c ****     status_t Status = (uint32_t)DAVEApp_SUCCESS;
 1640              		.loc 1 610 0
 1641 0008 4FF00003 		mov	r3, #0
 1642 000c FB60     		str	r3, [r7, #12]
 611:../Dave/Generated/src/LIBS/CCU8PWMLIB.c **** 
 612:../Dave/Generated/src/LIBS/CCU8PWMLIB.c **** /*<<<DD_CCU8PWMLIB_API_4_1>>>*/
 613:../Dave/Generated/src/LIBS/CCU8PWMLIB.c **** /*Clear RUN bit of the slice in use*/
 614:../Dave/Generated/src/LIBS/CCU8PWMLIB.c ****     HandlePtr->CC8yRegsPtr->TCCLR = CCU8PWMLIB_SLICE_CLEAR;
 1643              		.loc 1 614 0
 1644 000e 7B68     		ldr	r3, [r7, #4]
 1645 0010 5B6B     		ldr	r3, [r3, #52]
 1646 0012 4FF00702 		mov	r2, #7
 1647 0016 1A61     		str	r2, [r3, #16]
 615:../Dave/Generated/src/LIBS/CCU8PWMLIB.c **** 
 616:../Dave/Generated/src/LIBS/CCU8PWMLIB.c **** /*<<<DD_CCU8PWMLIB_API_4_2>>>*/
 617:../Dave/Generated/src/LIBS/CCU8PWMLIB.c ****     if (HandlePtr->kTimerConcatenation == (uint8_t)SET)
 1648              		.loc 1 617 0
 1649 0018 7B68     		ldr	r3, [r7, #4]
 1650 001a DB79     		ldrb	r3, [r3, #7]	@ zero_extendqisi2
 1651 001c 012B     		cmp	r3, #1
 1652 001e 04D1     		bne	.L31
 618:../Dave/Generated/src/LIBS/CCU8PWMLIB.c ****     {
 619:../Dave/Generated/src/LIBS/CCU8PWMLIB.c **** /*Clear RUN bit of the slice in use*/
 620:../Dave/Generated/src/LIBS/CCU8PWMLIB.c ****       HandlePtr->CC8yRegs1Ptr->TCCLR = CCU8PWMLIB_SLICE_CLEAR;
 1653              		.loc 1 620 0
 1654 0020 7B68     		ldr	r3, [r7, #4]
 1655 0022 9B6B     		ldr	r3, [r3, #56]
 1656 0024 4FF00702 		mov	r2, #7
 1657 0028 1A61     		str	r2, [r3, #16]
 1658              	.L31:
 621:../Dave/Generated/src/LIBS/CCU8PWMLIB.c **** 
 622:../Dave/Generated/src/LIBS/CCU8PWMLIB.c ****     }/*End of "if (HandlePtr->kTimerConcatenation == (uint8_t)SET)"*/
 623:../Dave/Generated/src/LIBS/CCU8PWMLIB.c ****     /**
 624:../Dave/Generated/src/LIBS/CCU8PWMLIB.c ****      * Set the IDLE mode only if Start parameter is set
 625:../Dave/Generated/src/LIBS/CCU8PWMLIB.c ****      */
 626:../Dave/Generated/src/LIBS/CCU8PWMLIB.c ****     if(HandlePtr->Start == (uint8_t)SET)
 1659              		.loc 1 626 0
 1660 002a 7B68     		ldr	r3, [r7, #4]
 1661 002c 1B7C     		ldrb	r3, [r3, #16]	@ zero_extendqisi2
 1662 002e 012B     		cmp	r3, #1
 1663 0030 08D1     		bne	.L32
 627:../Dave/Generated/src/LIBS/CCU8PWMLIB.c ****     {
 628:../Dave/Generated/src/LIBS/CCU8PWMLIB.c ****       HandlePtr->CC8yKernRegsPtr->GIDLS |= HandlePtr->StartMask;
 1664              		.loc 1 628 0
 1665 0032 7B68     		ldr	r3, [r7, #4]
 1666 0034 1B6B     		ldr	r3, [r3, #48]
 1667 0036 7A68     		ldr	r2, [r7, #4]
 1668 0038 126B     		ldr	r2, [r2, #48]
 1669 003a 9168     		ldr	r1, [r2, #8]
 1670 003c 7A68     		ldr	r2, [r7, #4]
 1671 003e D26C     		ldr	r2, [r2, #76]
 1672 0040 0A43     		orrs	r2, r2, r1
 1673 0042 9A60     		str	r2, [r3, #8]
 1674              	.L32:
 629:../Dave/Generated/src/LIBS/CCU8PWMLIB.c ****     }
 630:../Dave/Generated/src/LIBS/CCU8PWMLIB.c ****     return Status;
 1675              		.loc 1 630 0
 1676 0044 FB68     		ldr	r3, [r7, #12]
 631:../Dave/Generated/src/LIBS/CCU8PWMLIB.c ****  }
 1677              		.loc 1 631 0
 1678 0046 1846     		mov	r0, r3
 1679 0048 07F11407 		add	r7, r7, #20
 1680 004c BD46     		mov	sp, r7
 1681 004e 80BC     		pop	{r7}
 1682 0050 7047     		bx	lr
 1683              		.cfi_endproc
 1684              	.LFE141:
 1686 0052 00BF     		.section	.text.CCU8PWMLIB_SetCompare,"ax",%progbits
 1687              		.align	2
 1688              		.global	CCU8PWMLIB_SetCompare
 1689              		.thumb
 1690              		.thumb_func
 1692              	CCU8PWMLIB_SetCompare:
 1693              	.LFB142:
 632:../Dave/Generated/src/LIBS/CCU8PWMLIB.c **** 
 633:../Dave/Generated/src/LIBS/CCU8PWMLIB.c **** /*<<<DD_CCU8PWMLIB_API_5>>>*/
 634:../Dave/Generated/src/LIBS/CCU8PWMLIB.c **** /**
 635:../Dave/Generated/src/LIBS/CCU8PWMLIB.c ****  * This function changes the duty cycle of the PWM waveform by changing the
 636:../Dave/Generated/src/LIBS/CCU8PWMLIB.c ****  * compare register value.
 637:../Dave/Generated/src/LIBS/CCU8PWMLIB.c ****  * Sign = 0: Compare value is incremented by shift. This is not allowed in edge-aligned.
 638:../Dave/Generated/src/LIBS/CCU8PWMLIB.c ****  * Sign = 1: Compare value is decremented by shift.
 639:../Dave/Generated/src/LIBS/CCU8PWMLIB.c ****  */
 640:../Dave/Generated/src/LIBS/CCU8PWMLIB.c **** status_t CCU8PWMLIB_SetCompare
 641:../Dave/Generated/src/LIBS/CCU8PWMLIB.c **** (
 642:../Dave/Generated/src/LIBS/CCU8PWMLIB.c ****   const CCU8PWMLIB_HandleType* HandlePtr,
 643:../Dave/Generated/src/LIBS/CCU8PWMLIB.c ****   uint32_t Compare1,
 644:../Dave/Generated/src/LIBS/CCU8PWMLIB.c ****   uint32_t Compare2
 645:../Dave/Generated/src/LIBS/CCU8PWMLIB.c **** )
 646:../Dave/Generated/src/LIBS/CCU8PWMLIB.c **** {
 1694              		.loc 1 646 0
 1695              		.cfi_startproc
 1696              		@ args = 0, pretend = 0, frame = 24
 1697              		@ frame_needed = 1, uses_anonymous_args = 0
 1698 0000 80B5     		push	{r7, lr}
 1699              	.LCFI21:
 1700              		.cfi_def_cfa_offset 8
 1701              		.cfi_offset 7, -8
 1702              		.cfi_offset 14, -4
 1703 0002 86B0     		sub	sp, sp, #24
 1704              	.LCFI22:
 1705              		.cfi_def_cfa_offset 32
 1706 0004 00AF     		add	r7, sp, #0
 1707              	.LCFI23:
 1708              		.cfi_def_cfa_register 7
 1709 0006 F860     		str	r0, [r7, #12]
 1710 0008 B960     		str	r1, [r7, #8]
 1711 000a 7A60     		str	r2, [r7, #4]
 647:../Dave/Generated/src/LIBS/CCU8PWMLIB.c ****     status_t Status = (uint32_t)DAVEApp_SUCCESS;
 1712              		.loc 1 647 0
 1713 000c 4FF00003 		mov	r3, #0
 1714 0010 7B61     		str	r3, [r7, #20]
 648:../Dave/Generated/src/LIBS/CCU8PWMLIB.c **** /*<<<DD_CCU8PWMLIB_API_5_3>>>*/
 649:../Dave/Generated/src/LIBS/CCU8PWMLIB.c ****     /* Call the function as per configured mode */
 650:../Dave/Generated/src/LIBS/CCU8PWMLIB.c ****     Status = HandlePtr->SetCompareFuncPtr((void*)HandlePtr, Compare1, Compare2);
 1715              		.loc 1 650 0
 1716 0012 FB68     		ldr	r3, [r7, #12]
 1717 0014 5B6D     		ldr	r3, [r3, #84]
 1718 0016 F868     		ldr	r0, [r7, #12]
 1719 0018 B968     		ldr	r1, [r7, #8]
 1720 001a 7A68     		ldr	r2, [r7, #4]
 1721 001c 9847     		blx	r3
 1722 001e 7861     		str	r0, [r7, #20]
 651:../Dave/Generated/src/LIBS/CCU8PWMLIB.c ****     return Status;
 1723              		.loc 1 651 0
 1724 0020 7B69     		ldr	r3, [r7, #20]
 652:../Dave/Generated/src/LIBS/CCU8PWMLIB.c **** }
 1725              		.loc 1 652 0
 1726 0022 1846     		mov	r0, r3
 1727 0024 07F11807 		add	r7, r7, #24
 1728 0028 BD46     		mov	sp, r7
 1729 002a 80BD     		pop	{r7, pc}
 1730              		.cfi_endproc
 1731              	.LFE142:
 1733              		.section	.text.CCU8PWMLIB_SetCompareAsymmetric,"ax",%progbits
 1734              		.align	2
 1735              		.global	CCU8PWMLIB_SetCompareAsymmetric
 1736              		.thumb
 1737              		.thumb_func
 1739              	CCU8PWMLIB_SetCompareAsymmetric:
 1740              	.LFB143:
 653:../Dave/Generated/src/LIBS/CCU8PWMLIB.c **** 
 654:../Dave/Generated/src/LIBS/CCU8PWMLIB.c **** status_t CCU8PWMLIB_SetCompareAsymmetric
 655:../Dave/Generated/src/LIBS/CCU8PWMLIB.c **** (
 656:../Dave/Generated/src/LIBS/CCU8PWMLIB.c ****     const void* HdlPtr,
 657:../Dave/Generated/src/LIBS/CCU8PWMLIB.c ****     uint32_t Compare1,
 658:../Dave/Generated/src/LIBS/CCU8PWMLIB.c ****     uint32_t Compare2
 659:../Dave/Generated/src/LIBS/CCU8PWMLIB.c **** )
 660:../Dave/Generated/src/LIBS/CCU8PWMLIB.c **** {
 1741              		.loc 1 660 0
 1742              		.cfi_startproc
 1743              		@ args = 0, pretend = 0, frame = 24
 1744              		@ frame_needed = 1, uses_anonymous_args = 0
 1745 0000 80B5     		push	{r7, lr}
 1746              	.LCFI24:
 1747              		.cfi_def_cfa_offset 8
 1748              		.cfi_offset 7, -8
 1749              		.cfi_offset 14, -4
 1750 0002 86B0     		sub	sp, sp, #24
 1751              	.LCFI25:
 1752              		.cfi_def_cfa_offset 32
 1753 0004 00AF     		add	r7, sp, #0
 1754              	.LCFI26:
 1755              		.cfi_def_cfa_register 7
 1756 0006 F860     		str	r0, [r7, #12]
 1757 0008 B960     		str	r1, [r7, #8]
 1758 000a 7A60     		str	r2, [r7, #4]
 661:../Dave/Generated/src/LIBS/CCU8PWMLIB.c ****   status_t Status = (uint32_t)DAVEApp_SUCCESS;
 1759              		.loc 1 661 0
 1760 000c 4FF00003 		mov	r3, #0
 1761 0010 7B61     		str	r3, [r7, #20]
 662:../Dave/Generated/src/LIBS/CCU8PWMLIB.c ****   const CCU8PWMLIB_HandleType* HandlePtr = (CCU8PWMLIB_HandleType*) HdlPtr;  
 1762              		.loc 1 662 0
 1763 0012 FB68     		ldr	r3, [r7, #12]
 1764 0014 3B61     		str	r3, [r7, #16]
 663:../Dave/Generated/src/LIBS/CCU8PWMLIB.c ****   
 664:../Dave/Generated/src/LIBS/CCU8PWMLIB.c ****   HandlePtr->CC8yRegsPtr->CR1S = (uint32_t)(Compare1 & 0xffffU);
 1765              		.loc 1 664 0
 1766 0016 3B69     		ldr	r3, [r7, #16]
 1767 0018 5A6B     		ldr	r2, [r3, #52]
 1768 001a BB68     		ldr	r3, [r7, #8]
 1769 001c 4FEA0343 		lsl	r3, r3, #16
 1770 0020 4FEA1343 		lsr	r3, r3, #16
 1771 0024 D363     		str	r3, [r2, #60]
 665:../Dave/Generated/src/LIBS/CCU8PWMLIB.c ****   HandlePtr->CC8yRegsPtr->CR2S = (uint32_t)(Compare2 & 0xffffU);
 1772              		.loc 1 665 0
 1773 0026 3B69     		ldr	r3, [r7, #16]
 1774 0028 5A6B     		ldr	r2, [r3, #52]
 1775 002a 7B68     		ldr	r3, [r7, #4]
 1776 002c 4FEA0343 		lsl	r3, r3, #16
 1777 0030 4FEA1343 		lsr	r3, r3, #16
 1778 0034 5364     		str	r3, [r2, #68]
 666:../Dave/Generated/src/LIBS/CCU8PWMLIB.c ****   
 667:../Dave/Generated/src/LIBS/CCU8PWMLIB.c ****   /*Request for shadow transfer*/
 668:../Dave/Generated/src/LIBS/CCU8PWMLIB.c ****   Status = CCU8PWMLIB_SWRequestShadowTransfer(HandlePtr);
 1779              		.loc 1 668 0
 1780 0036 3869     		ldr	r0, [r7, #16]
 1781 0038 FFF7FEFF 		bl	CCU8PWMLIB_SWRequestShadowTransfer
 1782 003c 7861     		str	r0, [r7, #20]
 669:../Dave/Generated/src/LIBS/CCU8PWMLIB.c ****   return Status;
 1783              		.loc 1 669 0
 1784 003e 7B69     		ldr	r3, [r7, #20]
 670:../Dave/Generated/src/LIBS/CCU8PWMLIB.c **** }
 1785              		.loc 1 670 0
 1786 0040 1846     		mov	r0, r3
 1787 0042 07F11807 		add	r7, r7, #24
 1788 0046 BD46     		mov	sp, r7
 1789 0048 80BD     		pop	{r7, pc}
 1790              		.cfi_endproc
 1791              	.LFE143:
 1793 004a 00BF     		.section	.text.CCU8PWMLIB_SetCompareSymmetric,"ax",%progbits
 1794              		.align	2
 1795              		.global	CCU8PWMLIB_SetCompareSymmetric
 1796              		.thumb
 1797              		.thumb_func
 1799              	CCU8PWMLIB_SetCompareSymmetric:
 1800              	.LFB144:
 671:../Dave/Generated/src/LIBS/CCU8PWMLIB.c **** 
 672:../Dave/Generated/src/LIBS/CCU8PWMLIB.c **** status_t CCU8PWMLIB_SetCompareSymmetric
 673:../Dave/Generated/src/LIBS/CCU8PWMLIB.c **** (
 674:../Dave/Generated/src/LIBS/CCU8PWMLIB.c ****     const void* HdlPtr,
 675:../Dave/Generated/src/LIBS/CCU8PWMLIB.c ****     uint32_t Compare1,
 676:../Dave/Generated/src/LIBS/CCU8PWMLIB.c ****     uint32_t Compare2
 677:../Dave/Generated/src/LIBS/CCU8PWMLIB.c **** )
 678:../Dave/Generated/src/LIBS/CCU8PWMLIB.c **** {
 1801              		.loc 1 678 0
 1802              		.cfi_startproc
 1803              		@ args = 0, pretend = 0, frame = 32
 1804              		@ frame_needed = 1, uses_anonymous_args = 0
 1805 0000 80B5     		push	{r7, lr}
 1806              	.LCFI27:
 1807              		.cfi_def_cfa_offset 8
 1808              		.cfi_offset 7, -8
 1809              		.cfi_offset 14, -4
 1810 0002 88B0     		sub	sp, sp, #32
 1811              	.LCFI28:
 1812              		.cfi_def_cfa_offset 40
 1813 0004 00AF     		add	r7, sp, #0
 1814              	.LCFI29:
 1815              		.cfi_def_cfa_register 7
 1816 0006 F860     		str	r0, [r7, #12]
 1817 0008 B960     		str	r1, [r7, #8]
 1818 000a 7A60     		str	r2, [r7, #4]
 679:../Dave/Generated/src/LIBS/CCU8PWMLIB.c ****   status_t Status = (uint32_t)CCU8PWMLIB_OPER_NOT_ALLOWED_ERROR;
 1819              		.loc 1 679 0
 1820 000c 4FF00103 		mov	r3, #1
 1821 0010 FB61     		str	r3, [r7, #28]
 680:../Dave/Generated/src/LIBS/CCU8PWMLIB.c ****   const CCU8PWMLIB_HandleType* HandlePtr = (CCU8PWMLIB_HandleType*) HdlPtr;  
 1822              		.loc 1 680 0
 1823 0012 FB68     		ldr	r3, [r7, #12]
 1824 0014 BB61     		str	r3, [r7, #24]
 681:../Dave/Generated/src/LIBS/CCU8PWMLIB.c ****   Compare2 = 0;
 1825              		.loc 1 681 0
 1826 0016 4FF00003 		mov	r3, #0
 1827 001a 7B61     		str	r3, [r7, #20]
 682:../Dave/Generated/src/LIBS/CCU8PWMLIB.c ****   HandlePtr->CC8yRegsPtr->CR1S = (uint32_t)(Compare1 & 0xffffU);
 1828              		.loc 1 682 0
 1829 001c BB69     		ldr	r3, [r7, #24]
 1830 001e 5A6B     		ldr	r2, [r3, #52]
 1831 0020 BB68     		ldr	r3, [r7, #8]
 1832 0022 4FEA0343 		lsl	r3, r3, #16
 1833 0026 4FEA1343 		lsr	r3, r3, #16
 1834 002a D363     		str	r3, [r2, #60]
 683:../Dave/Generated/src/LIBS/CCU8PWMLIB.c ****   HandlePtr->CC8yRegsPtr->CR2S = (uint32_t)(0);
 1835              		.loc 1 683 0
 1836 002c BB69     		ldr	r3, [r7, #24]
 1837 002e 5B6B     		ldr	r3, [r3, #52]
 1838 0030 4FF00002 		mov	r2, #0
 1839 0034 5A64     		str	r2, [r3, #68]
 684:../Dave/Generated/src/LIBS/CCU8PWMLIB.c ****   /*Request for shadow transfer*/
 685:../Dave/Generated/src/LIBS/CCU8PWMLIB.c ****   Status = CCU8PWMLIB_SWRequestShadowTransfer(HandlePtr);
 1840              		.loc 1 685 0
 1841 0036 B869     		ldr	r0, [r7, #24]
 1842 0038 FFF7FEFF 		bl	CCU8PWMLIB_SWRequestShadowTransfer
 1843 003c F861     		str	r0, [r7, #28]
 686:../Dave/Generated/src/LIBS/CCU8PWMLIB.c ****   return Status;
 1844              		.loc 1 686 0
 1845 003e FB69     		ldr	r3, [r7, #28]
 687:../Dave/Generated/src/LIBS/CCU8PWMLIB.c **** }
 1846              		.loc 1 687 0
 1847 0040 1846     		mov	r0, r3
 1848 0042 07F12007 		add	r7, r7, #32
 1849 0046 BD46     		mov	sp, r7
 1850 0048 80BD     		pop	{r7, pc}
 1851              		.cfi_endproc
 1852              	.LFE144:
 1854 004a 00BF     		.section	.text.CCU8PWMLIB_SetCompareEdgeAlignSymmetricTimerConcat,"ax",%progbits
 1855              		.align	2
 1856              		.global	CCU8PWMLIB_SetCompareEdgeAlignSymmetricTimerConcat
 1857              		.thumb
 1858              		.thumb_func
 1860              	CCU8PWMLIB_SetCompareEdgeAlignSymmetricTimerConcat:
 1861              	.LFB145:
 688:../Dave/Generated/src/LIBS/CCU8PWMLIB.c **** 
 689:../Dave/Generated/src/LIBS/CCU8PWMLIB.c **** status_t CCU8PWMLIB_SetCompareEdgeAlignSymmetricTimerConcat
 690:../Dave/Generated/src/LIBS/CCU8PWMLIB.c **** (
 691:../Dave/Generated/src/LIBS/CCU8PWMLIB.c ****     const void* HdlPtr,
 692:../Dave/Generated/src/LIBS/CCU8PWMLIB.c ****     uint32_t Compare1,
 693:../Dave/Generated/src/LIBS/CCU8PWMLIB.c ****     uint32_t Compare2
 694:../Dave/Generated/src/LIBS/CCU8PWMLIB.c **** )
 695:../Dave/Generated/src/LIBS/CCU8PWMLIB.c **** {
 1862              		.loc 1 695 0
 1863              		.cfi_startproc
 1864              		@ args = 0, pretend = 0, frame = 40
 1865              		@ frame_needed = 1, uses_anonymous_args = 0
 1866 0000 80B5     		push	{r7, lr}
 1867              	.LCFI30:
 1868              		.cfi_def_cfa_offset 8
 1869              		.cfi_offset 7, -8
 1870              		.cfi_offset 14, -4
 1871 0002 8AB0     		sub	sp, sp, #40
 1872              	.LCFI31:
 1873              		.cfi_def_cfa_offset 48
 1874 0004 00AF     		add	r7, sp, #0
 1875              	.LCFI32:
 1876              		.cfi_def_cfa_register 7
 1877 0006 F860     		str	r0, [r7, #12]
 1878 0008 B960     		str	r1, [r7, #8]
 1879 000a 7A60     		str	r2, [r7, #4]
 696:../Dave/Generated/src/LIBS/CCU8PWMLIB.c ****   uint32_t FirstSliceCompareVal = 0U;
 1880              		.loc 1 696 0
 1881 000c 4FF00003 		mov	r3, #0
 1882 0010 7B62     		str	r3, [r7, #36]
 697:../Dave/Generated/src/LIBS/CCU8PWMLIB.c ****   uint32_t SecondSliceCompareVal = 0U;
 1883              		.loc 1 697 0
 1884 0012 4FF00003 		mov	r3, #0
 1885 0016 3B62     		str	r3, [r7, #32]
 698:../Dave/Generated/src/LIBS/CCU8PWMLIB.c ****   status_t Status = (uint32_t)CCU8PWMLIB_OPER_NOT_ALLOWED_ERROR;
 1886              		.loc 1 698 0
 1887 0018 4FF00103 		mov	r3, #1
 1888 001c FB61     		str	r3, [r7, #28]
 699:../Dave/Generated/src/LIBS/CCU8PWMLIB.c ****   const CCU8PWMLIB_HandleType* HandlePtr = (CCU8PWMLIB_HandleType*) HdlPtr;  
 1889              		.loc 1 699 0
 1890 001e FB68     		ldr	r3, [r7, #12]
 1891 0020 BB61     		str	r3, [r7, #24]
 700:../Dave/Generated/src/LIBS/CCU8PWMLIB.c ****   Compare2 = 0;
 1892              		.loc 1 700 0
 1893 0022 4FF00003 		mov	r3, #0
 1894 0026 7B61     		str	r3, [r7, #20]
 701:../Dave/Generated/src/LIBS/CCU8PWMLIB.c ****   FirstSliceCompareVal = (uint32_t)Compare1 % \
 702:../Dave/Generated/src/LIBS/CCU8PWMLIB.c ****       (uint16_t)HandlePtr->CC8yRegsPtr->PRS;
 1895              		.loc 1 702 0
 1896 0028 BB69     		ldr	r3, [r7, #24]
 1897 002a 5B6B     		ldr	r3, [r3, #52]
 1898 002c 5B6B     		ldr	r3, [r3, #52]
 1899 002e 9BB2     		uxth	r3, r3
 701:../Dave/Generated/src/LIBS/CCU8PWMLIB.c ****   FirstSliceCompareVal = (uint32_t)Compare1 % \
 1900              		.loc 1 701 0
 1901 0030 1A46     		mov	r2, r3
 1902 0032 BB68     		ldr	r3, [r7, #8]
 1903 0034 B3FBF2F1 		udiv	r1, r3, r2
 1904 0038 02FB01F2 		mul	r2, r2, r1
 1905 003c 9B1A     		subs	r3, r3, r2
 1906 003e 7B62     		str	r3, [r7, #36]
 703:../Dave/Generated/src/LIBS/CCU8PWMLIB.c ****   SecondSliceCompareVal = (uint32_t)Compare1 /
 704:../Dave/Generated/src/LIBS/CCU8PWMLIB.c ****       (uint16_t)HandlePtr->CC8yRegsPtr->PRS;
 1907              		.loc 1 704 0
 1908 0040 BB69     		ldr	r3, [r7, #24]
 1909 0042 5B6B     		ldr	r3, [r3, #52]
 1910 0044 5B6B     		ldr	r3, [r3, #52]
 1911 0046 9BB2     		uxth	r3, r3
 703:../Dave/Generated/src/LIBS/CCU8PWMLIB.c ****   SecondSliceCompareVal = (uint32_t)Compare1 /
 1912              		.loc 1 703 0
 1913 0048 BA68     		ldr	r2, [r7, #8]
 1914 004a B2FBF3F3 		udiv	r3, r2, r3
 1915 004e 3B62     		str	r3, [r7, #32]
 705:../Dave/Generated/src/LIBS/CCU8PWMLIB.c ****   HandlePtr->CC8yRegsPtr->CR1S = (uint32_t)(FirstSliceCompareVal & 0xffffU);
 1916              		.loc 1 705 0
 1917 0050 BB69     		ldr	r3, [r7, #24]
 1918 0052 5A6B     		ldr	r2, [r3, #52]
 1919 0054 7B6A     		ldr	r3, [r7, #36]
 1920 0056 4FEA0343 		lsl	r3, r3, #16
 1921 005a 4FEA1343 		lsr	r3, r3, #16
 1922 005e D363     		str	r3, [r2, #60]
 706:../Dave/Generated/src/LIBS/CCU8PWMLIB.c ****   HandlePtr->CC8yRegs1Ptr->CR1S = (uint32_t)(SecondSliceCompareVal & 0xffffU);
 1923              		.loc 1 706 0
 1924 0060 BB69     		ldr	r3, [r7, #24]
 1925 0062 9A6B     		ldr	r2, [r3, #56]
 1926 0064 3B6A     		ldr	r3, [r7, #32]
 1927 0066 4FEA0343 		lsl	r3, r3, #16
 1928 006a 4FEA1343 		lsr	r3, r3, #16
 1929 006e D363     		str	r3, [r2, #60]
 707:../Dave/Generated/src/LIBS/CCU8PWMLIB.c ****   HandlePtr->CC8yRegs1Ptr->CR2S = (uint32_t)(0);
 1930              		.loc 1 707 0
 1931 0070 BB69     		ldr	r3, [r7, #24]
 1932 0072 9B6B     		ldr	r3, [r3, #56]
 1933 0074 4FF00002 		mov	r2, #0
 1934 0078 5A64     		str	r2, [r3, #68]
 708:../Dave/Generated/src/LIBS/CCU8PWMLIB.c ****   HandlePtr->CC8yRegsPtr->CR2S = (uint32_t)(0);
 1935              		.loc 1 708 0
 1936 007a BB69     		ldr	r3, [r7, #24]
 1937 007c 5B6B     		ldr	r3, [r3, #52]
 1938 007e 4FF00002 		mov	r2, #0
 1939 0082 5A64     		str	r2, [r3, #68]
 709:../Dave/Generated/src/LIBS/CCU8PWMLIB.c ****   /*Request for shadow transfer*/
 710:../Dave/Generated/src/LIBS/CCU8PWMLIB.c ****   Status = CCU8PWMLIB_SWRequestShadowTransfer(HandlePtr);
 1940              		.loc 1 710 0
 1941 0084 B869     		ldr	r0, [r7, #24]
 1942 0086 FFF7FEFF 		bl	CCU8PWMLIB_SWRequestShadowTransfer
 1943 008a F861     		str	r0, [r7, #28]
 711:../Dave/Generated/src/LIBS/CCU8PWMLIB.c ****   return Status;
 1944              		.loc 1 711 0
 1945 008c FB69     		ldr	r3, [r7, #28]
 712:../Dave/Generated/src/LIBS/CCU8PWMLIB.c **** }
 1946              		.loc 1 712 0
 1947 008e 1846     		mov	r0, r3
 1948 0090 07F12807 		add	r7, r7, #40
 1949 0094 BD46     		mov	sp, r7
 1950 0096 80BD     		pop	{r7, pc}
 1951              		.cfi_endproc
 1952              	.LFE145:
 1954              		.section	.text.CCU8PWMLIB_SetDutyCycle,"ax",%progbits
 1955              		.align	2
 1956              		.global	CCU8PWMLIB_SetDutyCycle
 1957              		.thumb
 1958              		.thumb_func
 1960              	CCU8PWMLIB_SetDutyCycle:
 1961              	.LFB146:
 713:../Dave/Generated/src/LIBS/CCU8PWMLIB.c **** 
 714:../Dave/Generated/src/LIBS/CCU8PWMLIB.c **** 
 715:../Dave/Generated/src/LIBS/CCU8PWMLIB.c **** /**
 716:../Dave/Generated/src/LIBS/CCU8PWMLIB.c ****  * This function changes the duty cycle of the app.
 717:../Dave/Generated/src/LIBS/CCU8PWMLIB.c ****  * Sign = 0: Compare value is incremented by shift. This is not allowed in edge-aligned.
 718:../Dave/Generated/src/LIBS/CCU8PWMLIB.c ****  * Sign = 1: Compare value is decremented by shift.
 719:../Dave/Generated/src/LIBS/CCU8PWMLIB.c ****  */
 720:../Dave/Generated/src/LIBS/CCU8PWMLIB.c **** status_t CCU8PWMLIB_SetDutyCycle
 721:../Dave/Generated/src/LIBS/CCU8PWMLIB.c **** (
 722:../Dave/Generated/src/LIBS/CCU8PWMLIB.c ****   const CCU8PWMLIB_HandleType* HandlePtr,
 723:../Dave/Generated/src/LIBS/CCU8PWMLIB.c ****   float DutyCycle,
 724:../Dave/Generated/src/LIBS/CCU8PWMLIB.c ****   uint32_t Shift,
 725:../Dave/Generated/src/LIBS/CCU8PWMLIB.c ****   uint8_t Sign
 726:../Dave/Generated/src/LIBS/CCU8PWMLIB.c **** )
 727:../Dave/Generated/src/LIBS/CCU8PWMLIB.c **** {
 1962              		.loc 1 727 0
 1963              		.cfi_startproc
 1964              		@ args = 0, pretend = 0, frame = 24
 1965              		@ frame_needed = 1, uses_anonymous_args = 0
 1966 0000 90B5     		push	{r4, r7, lr}
 1967              	.LCFI33:
 1968              		.cfi_def_cfa_offset 12
 1969              		.cfi_offset 4, -12
 1970              		.cfi_offset 7, -8
 1971              		.cfi_offset 14, -4
 1972 0002 87B0     		sub	sp, sp, #28
 1973              	.LCFI34:
 1974              		.cfi_def_cfa_offset 40
 1975 0004 00AF     		add	r7, sp, #0
 1976              	.LCFI35:
 1977              		.cfi_def_cfa_register 7
 1978 0006 F860     		str	r0, [r7, #12]
 1979 0008 B960     		str	r1, [r7, #8]	@ float
 1980 000a 7A60     		str	r2, [r7, #4]
 1981 000c FB70     		strb	r3, [r7, #3]
 728:../Dave/Generated/src/LIBS/CCU8PWMLIB.c ****     status_t Status = (uint32_t)DAVEApp_SUCCESS;
 1982              		.loc 1 728 0
 1983 000e 4FF00003 		mov	r3, #0
 1984 0012 7B61     		str	r3, [r7, #20]
 729:../Dave/Generated/src/LIBS/CCU8PWMLIB.c ****     /*<<<DD_CCU8PWMLIB_API_15_2>>>*/
 730:../Dave/Generated/src/LIBS/CCU8PWMLIB.c ****     /* duty cycle has to be in between 0 and 100 */
 731:../Dave/Generated/src/LIBS/CCU8PWMLIB.c ****     /* Call the function as per configured mode */
 732:../Dave/Generated/src/LIBS/CCU8PWMLIB.c ****     Status = HandlePtr->SetDutyFuncPtr((void*)HandlePtr, DutyCycle, Shift, Sign);
 1985              		.loc 1 732 0
 1986 0014 FB68     		ldr	r3, [r7, #12]
 1987 0016 9C6D     		ldr	r4, [r3, #88]
 1988 0018 FB78     		ldrb	r3, [r7, #3]	@ zero_extendqisi2
 1989 001a F868     		ldr	r0, [r7, #12]
 1990 001c B968     		ldr	r1, [r7, #8]	@ float
 1991 001e 7A68     		ldr	r2, [r7, #4]
 1992 0020 A047     		blx	r4
 1993 0022 7861     		str	r0, [r7, #20]
 733:../Dave/Generated/src/LIBS/CCU8PWMLIB.c **** 
 734:../Dave/Generated/src/LIBS/CCU8PWMLIB.c ****     return Status;
 1994              		.loc 1 734 0
 1995 0024 7B69     		ldr	r3, [r7, #20]
 735:../Dave/Generated/src/LIBS/CCU8PWMLIB.c **** }
 1996              		.loc 1 735 0
 1997 0026 1846     		mov	r0, r3
 1998 0028 07F11C07 		add	r7, r7, #28
 1999 002c BD46     		mov	sp, r7
 2000 002e 90BD     		pop	{r4, r7, pc}
 2001              		.cfi_endproc
 2002              	.LFE146:
 2004              		.section	.text.CCU8PWMLIB_SetDutyEdgeAlignAsymmetric,"ax",%progbits
 2005              		.align	2
 2006              		.global	CCU8PWMLIB_SetDutyEdgeAlignAsymmetric
 2007              		.thumb
 2008              		.thumb_func
 2010              	CCU8PWMLIB_SetDutyEdgeAlignAsymmetric:
 2011              	.LFB147:
 736:../Dave/Generated/src/LIBS/CCU8PWMLIB.c **** /**
 737:../Dave/Generated/src/LIBS/CCU8PWMLIB.c ****  * This is the private function which sets the duty cycle for edge-aligned mode.
 738:../Dave/Generated/src/LIBS/CCU8PWMLIB.c ****  * Period = PR + 1
 739:../Dave/Generated/src/LIBS/CCU8PWMLIB.c ****  * Duty cycle (Asymmetric) = (CR2-CR1) / Period
 740:../Dave/Generated/src/LIBS/CCU8PWMLIB.c ****  */
 741:../Dave/Generated/src/LIBS/CCU8PWMLIB.c **** status_t CCU8PWMLIB_SetDutyEdgeAlignAsymmetric
 742:../Dave/Generated/src/LIBS/CCU8PWMLIB.c **** (
 743:../Dave/Generated/src/LIBS/CCU8PWMLIB.c ****   const void* HdlPtr,
 744:../Dave/Generated/src/LIBS/CCU8PWMLIB.c ****   float DutyCycle,
 745:../Dave/Generated/src/LIBS/CCU8PWMLIB.c ****   uint32_t Shift,
 746:../Dave/Generated/src/LIBS/CCU8PWMLIB.c ****   uint8_t Sign
 747:../Dave/Generated/src/LIBS/CCU8PWMLIB.c **** )
 748:../Dave/Generated/src/LIBS/CCU8PWMLIB.c **** {
 2012              		.loc 1 748 0
 2013              		.cfi_startproc
 2014              		@ args = 0, pretend = 0, frame = 32
 2015              		@ frame_needed = 1, uses_anonymous_args = 0
 2016 0000 80B5     		push	{r7, lr}
 2017              	.LCFI36:
 2018              		.cfi_def_cfa_offset 8
 2019              		.cfi_offset 7, -8
 2020              		.cfi_offset 14, -4
 2021 0002 88B0     		sub	sp, sp, #32
 2022              	.LCFI37:
 2023              		.cfi_def_cfa_offset 40
 2024 0004 00AF     		add	r7, sp, #0
 2025              	.LCFI38:
 2026              		.cfi_def_cfa_register 7
 2027 0006 F860     		str	r0, [r7, #12]
 2028 0008 B960     		str	r1, [r7, #8]	@ float
 2029 000a 7A60     		str	r2, [r7, #4]
 2030 000c FB70     		strb	r3, [r7, #3]
 749:../Dave/Generated/src/LIBS/CCU8PWMLIB.c ****   uint32_t Comp = 0U;
 2031              		.loc 1 749 0
 2032 000e 4FF00003 		mov	r3, #0
 2033 0012 BB61     		str	r3, [r7, #24]
 750:../Dave/Generated/src/LIBS/CCU8PWMLIB.c ****   status_t Status = (uint32_t)CCU8PWMLIB_OPER_NOT_ALLOWED_ERROR;
 2034              		.loc 1 750 0
 2035 0014 4FF00103 		mov	r3, #1
 2036 0018 FB61     		str	r3, [r7, #28]
 751:../Dave/Generated/src/LIBS/CCU8PWMLIB.c ****   const CCU8PWMLIB_HandleType* HandlePtr = (CCU8PWMLIB_HandleType*) HdlPtr;  
 2037              		.loc 1 751 0
 2038 001a FB68     		ldr	r3, [r7, #12]
 2039 001c 7B61     		str	r3, [r7, #20]
 752:../Dave/Generated/src/LIBS/CCU8PWMLIB.c ****   /*<<<DD_CCU8PWMLIB_API_15_3>>>*/
 753:../Dave/Generated/src/LIBS/CCU8PWMLIB.c ****   /*<<<DD_CCU8PWMLIB_API_15_4>>>*/ 
 754:../Dave/Generated/src/LIBS/CCU8PWMLIB.c ****   Comp = (uint32_t)
 755:../Dave/Generated/src/LIBS/CCU8PWMLIB.c ****       (((HandlePtr->CC8yRegsPtr->PRS + 1U) * (100U - DutyCycle))/100U);
 2040              		.loc 1 755 0
 2041 001e 7B69     		ldr	r3, [r7, #20]
 2042 0020 5B6B     		ldr	r3, [r3, #52]
 2043 0022 5B6B     		ldr	r3, [r3, #52]
 2044 0024 03F10103 		add	r3, r3, #1
 2045 0028 07EE903A 		fmsr	s15, r3	@ int
 2046 002c B8EE677A 		fuitos	s14, s15
 2047 0030 DFED1E6A 		flds	s13, .L50
 2048 0034 D7ED027A 		flds	s15, [r7, #8]
 2049 0038 76EEE77A 		fsubs	s15, s13, s15
 2050 003c 27EE277A 		fmuls	s14, s14, s15
 2051 0040 DFED1A7A 		flds	s15, .L50
 2052 0044 C7EE277A 		fdivs	s15, s14, s15
 754:../Dave/Generated/src/LIBS/CCU8PWMLIB.c ****   Comp = (uint32_t)
 2053              		.loc 1 754 0
 2054 0048 FCEEE77A 		ftouizs	s15, s15
 2055 004c C7ED067A 		fsts	s15, [r7, #24]	@ int
 756:../Dave/Generated/src/LIBS/CCU8PWMLIB.c **** 
 757:../Dave/Generated/src/LIBS/CCU8PWMLIB.c ****   /* If shift value is greater than compare register value or if sign is 0, report error */
 758:../Dave/Generated/src/LIBS/CCU8PWMLIB.c ****   if(((Sign == (uint8_t)RESET)&& Shift >0U) || (Shift > Comp))
 2056              		.loc 1 758 0
 2057 0050 FB78     		ldrb	r3, [r7, #3]	@ zero_extendqisi2
 2058 0052 002B     		cmp	r3, #0
 2059 0054 02D1     		bne	.L45
 2060              		.loc 1 758 0 is_stmt 0 discriminator 1
 2061 0056 7B68     		ldr	r3, [r7, #4]
 2062 0058 002B     		cmp	r3, #0
 2063 005a 03D1     		bne	.L46
 2064              	.L45:
 2065              		.loc 1 758 0 discriminator 2
 2066 005c 7A68     		ldr	r2, [r7, #4]
 2067 005e BB69     		ldr	r3, [r7, #24]
 2068 0060 9A42     		cmp	r2, r3
 2069 0062 03D9     		bls	.L47
 2070              	.L46:
 759:../Dave/Generated/src/LIBS/CCU8PWMLIB.c ****   {
 760:../Dave/Generated/src/LIBS/CCU8PWMLIB.c ****     Status = (uint32_t)CCU8PWMLIB_INVALID_PARAM_ERROR;
 2071              		.loc 1 760 0 is_stmt 1
 2072 0064 4FF00203 		mov	r3, #2
 2073 0068 FB61     		str	r3, [r7, #28]
 2074 006a 19E0     		b	.L48
 2075              	.L47:
 761:../Dave/Generated/src/LIBS/CCU8PWMLIB.c ****   }
 762:../Dave/Generated/src/LIBS/CCU8PWMLIB.c ****   else
 763:../Dave/Generated/src/LIBS/CCU8PWMLIB.c ****   {
 764:../Dave/Generated/src/LIBS/CCU8PWMLIB.c ****     /*  <<<DD_CCU8PWMLIB_nonAPI_3_3>>>*/
 765:../Dave/Generated/src/LIBS/CCU8PWMLIB.c ****     HandlePtr->CC8yRegsPtr->CR1S = (uint32_t)((Comp - Shift) & 0xffffU);
 2076              		.loc 1 765 0
 2077 006c 7B69     		ldr	r3, [r7, #20]
 2078 006e 5A6B     		ldr	r2, [r3, #52]
 2079 0070 B969     		ldr	r1, [r7, #24]
 2080 0072 7B68     		ldr	r3, [r7, #4]
 2081 0074 CB1A     		subs	r3, r1, r3
 2082 0076 4FEA0343 		lsl	r3, r3, #16
 2083 007a 4FEA1343 		lsr	r3, r3, #16
 2084 007e D363     		str	r3, [r2, #60]
 766:../Dave/Generated/src/LIBS/CCU8PWMLIB.c ****     HandlePtr->CC8yRegsPtr->CR2S = (uint32_t)
 2085              		.loc 1 766 0
 2086 0080 7B69     		ldr	r3, [r7, #20]
 2087 0082 5A6B     		ldr	r2, [r3, #52]
 767:../Dave/Generated/src/LIBS/CCU8PWMLIB.c ****           ((HandlePtr->CC8yRegsPtr->PRS - Shift) & 0xffffU);
 2088              		.loc 1 767 0
 2089 0084 7B69     		ldr	r3, [r7, #20]
 2090 0086 5B6B     		ldr	r3, [r3, #52]
 2091 0088 596B     		ldr	r1, [r3, #52]
 2092 008a 7B68     		ldr	r3, [r7, #4]
 2093 008c CB1A     		subs	r3, r1, r3
 766:../Dave/Generated/src/LIBS/CCU8PWMLIB.c ****     HandlePtr->CC8yRegsPtr->CR2S = (uint32_t)
 2094              		.loc 1 766 0
 2095 008e 4FEA0343 		lsl	r3, r3, #16
 2096 0092 4FEA1343 		lsr	r3, r3, #16
 2097 0096 5364     		str	r3, [r2, #68]
 768:../Dave/Generated/src/LIBS/CCU8PWMLIB.c ****     /*Request for shadow transfer*/
 769:../Dave/Generated/src/LIBS/CCU8PWMLIB.c ****     Status = CCU8PWMLIB_SWRequestShadowTransfer(HandlePtr);
 2098              		.loc 1 769 0
 2099 0098 7869     		ldr	r0, [r7, #20]
 2100 009a FFF7FEFF 		bl	CCU8PWMLIB_SWRequestShadowTransfer
 2101 009e F861     		str	r0, [r7, #28]
 2102              	.L48:
 770:../Dave/Generated/src/LIBS/CCU8PWMLIB.c ****   }
 771:../Dave/Generated/src/LIBS/CCU8PWMLIB.c ****   return (Status);
 2103              		.loc 1 771 0
 2104 00a0 FB69     		ldr	r3, [r7, #28]
 772:../Dave/Generated/src/LIBS/CCU8PWMLIB.c **** }
 2105              		.loc 1 772 0
 2106 00a2 1846     		mov	r0, r3
 2107 00a4 07F12007 		add	r7, r7, #32
 2108 00a8 BD46     		mov	sp, r7
 2109 00aa 80BD     		pop	{r7, pc}
 2110              	.L51:
 2111              		.align	2
 2112              	.L50:
 2113 00ac 0000C842 		.word	1120403456
 2114              		.cfi_endproc
 2115              	.LFE147:
 2117              		.section	.text.CCU8PWMLIB_SetDutyEdgeAlignSymmetric,"ax",%progbits
 2118              		.align	2
 2119              		.global	CCU8PWMLIB_SetDutyEdgeAlignSymmetric
 2120              		.thumb
 2121              		.thumb_func
 2123              	CCU8PWMLIB_SetDutyEdgeAlignSymmetric:
 2124              	.LFB148:
 773:../Dave/Generated/src/LIBS/CCU8PWMLIB.c **** 
 774:../Dave/Generated/src/LIBS/CCU8PWMLIB.c **** /**
 775:../Dave/Generated/src/LIBS/CCU8PWMLIB.c ****  * This is the private function which sets the duty cycle for 
 776:../Dave/Generated/src/LIBS/CCU8PWMLIB.c ****  * Edge-aligned mode with symmetric compare mode and without timer concatenation
 777:../Dave/Generated/src/LIBS/CCU8PWMLIB.c ****  * Period = (PR + 1)
 778:../Dave/Generated/src/LIBS/CCU8PWMLIB.c ****  * Duty Cycle(symmetric) = (PR-CR1)+1 / Period
 779:../Dave/Generated/src/LIBS/CCU8PWMLIB.c ****  */
 780:../Dave/Generated/src/LIBS/CCU8PWMLIB.c **** status_t CCU8PWMLIB_SetDutyEdgeAlignSymmetric
 781:../Dave/Generated/src/LIBS/CCU8PWMLIB.c **** (
 782:../Dave/Generated/src/LIBS/CCU8PWMLIB.c ****   const void* HdlPtr,
 783:../Dave/Generated/src/LIBS/CCU8PWMLIB.c ****   float DutyCycle,
 784:../Dave/Generated/src/LIBS/CCU8PWMLIB.c ****   uint32_t Shift,
 785:../Dave/Generated/src/LIBS/CCU8PWMLIB.c ****   uint8_t Sign
 786:../Dave/Generated/src/LIBS/CCU8PWMLIB.c **** )
 787:../Dave/Generated/src/LIBS/CCU8PWMLIB.c **** {
 2125              		.loc 1 787 0
 2126              		.cfi_startproc
 2127              		@ args = 0, pretend = 0, frame = 32
 2128              		@ frame_needed = 1, uses_anonymous_args = 0
 2129 0000 80B5     		push	{r7, lr}
 2130              	.LCFI39:
 2131              		.cfi_def_cfa_offset 8
 2132              		.cfi_offset 7, -8
 2133              		.cfi_offset 14, -4
 2134 0002 88B0     		sub	sp, sp, #32
 2135              	.LCFI40:
 2136              		.cfi_def_cfa_offset 40
 2137 0004 00AF     		add	r7, sp, #0
 2138              	.LCFI41:
 2139              		.cfi_def_cfa_register 7
 2140 0006 F860     		str	r0, [r7, #12]
 2141 0008 B960     		str	r1, [r7, #8]	@ float
 2142 000a 7A60     		str	r2, [r7, #4]
 2143 000c FB70     		strb	r3, [r7, #3]
 788:../Dave/Generated/src/LIBS/CCU8PWMLIB.c ****   uint32_t Comp = 0;
 2144              		.loc 1 788 0
 2145 000e 4FF00003 		mov	r3, #0
 2146 0012 BB61     		str	r3, [r7, #24]
 789:../Dave/Generated/src/LIBS/CCU8PWMLIB.c ****   status_t Status = (uint32_t)CCU8PWMLIB_OPER_NOT_ALLOWED_ERROR;
 2147              		.loc 1 789 0
 2148 0014 4FF00103 		mov	r3, #1
 2149 0018 FB61     		str	r3, [r7, #28]
 790:../Dave/Generated/src/LIBS/CCU8PWMLIB.c ****   
 791:../Dave/Generated/src/LIBS/CCU8PWMLIB.c ****   const CCU8PWMLIB_HandleType* HandlePtr = (CCU8PWMLIB_HandleType*) HdlPtr; 
 2150              		.loc 1 791 0
 2151 001a FB68     		ldr	r3, [r7, #12]
 2152 001c 7B61     		str	r3, [r7, #20]
 792:../Dave/Generated/src/LIBS/CCU8PWMLIB.c ****   /*<<<DD_CCU8PWMLIB_API_15_3>>>*/
 793:../Dave/Generated/src/LIBS/CCU8PWMLIB.c ****   /*<<<DD_CCU8PWMLIB_API_15_4>>>*/
 794:../Dave/Generated/src/LIBS/CCU8PWMLIB.c ****   Comp = (uint32_t)
 795:../Dave/Generated/src/LIBS/CCU8PWMLIB.c ****       (((HandlePtr->CC8yRegsPtr->PRS + 1U) * (100U -DutyCycle))/100U);
 2153              		.loc 1 795 0
 2154 001e 7B69     		ldr	r3, [r7, #20]
 2155 0020 5B6B     		ldr	r3, [r3, #52]
 2156 0022 5B6B     		ldr	r3, [r3, #52]
 2157 0024 03F10103 		add	r3, r3, #1
 2158 0028 07EE903A 		fmsr	s15, r3	@ int
 2159 002c B8EE677A 		fuitos	s14, s15
 2160 0030 DFED1A6A 		flds	s13, .L58
 2161 0034 D7ED027A 		flds	s15, [r7, #8]
 2162 0038 76EEE77A 		fsubs	s15, s13, s15
 2163 003c 27EE277A 		fmuls	s14, s14, s15
 2164 0040 DFED167A 		flds	s15, .L58
 2165 0044 C7EE277A 		fdivs	s15, s14, s15
 794:../Dave/Generated/src/LIBS/CCU8PWMLIB.c ****   Comp = (uint32_t)
 2166              		.loc 1 794 0
 2167 0048 FCEEE77A 		ftouizs	s15, s15
 2168 004c C7ED067A 		fsts	s15, [r7, #24]	@ int
 796:../Dave/Generated/src/LIBS/CCU8PWMLIB.c **** 
 797:../Dave/Generated/src/LIBS/CCU8PWMLIB.c ****   /* If shift value is greater than compare register value or if sign is 0, report error */
 798:../Dave/Generated/src/LIBS/CCU8PWMLIB.c ****   if(((Sign == (uint8_t)RESET)&& Shift >0U) || (Shift > Comp))
 2169              		.loc 1 798 0
 2170 0050 FB78     		ldrb	r3, [r7, #3]	@ zero_extendqisi2
 2171 0052 002B     		cmp	r3, #0
 2172 0054 02D1     		bne	.L53
 2173              		.loc 1 798 0 is_stmt 0 discriminator 1
 2174 0056 7B68     		ldr	r3, [r7, #4]
 2175 0058 002B     		cmp	r3, #0
 2176 005a 03D1     		bne	.L54
 2177              	.L53:
 2178              		.loc 1 798 0 discriminator 2
 2179 005c 7A68     		ldr	r2, [r7, #4]
 2180 005e BB69     		ldr	r3, [r7, #24]
 2181 0060 9A42     		cmp	r2, r3
 2182 0062 03D9     		bls	.L55
 2183              	.L54:
 799:../Dave/Generated/src/LIBS/CCU8PWMLIB.c ****   {
 800:../Dave/Generated/src/LIBS/CCU8PWMLIB.c ****     Status = (uint32_t)CCU8PWMLIB_INVALID_PARAM_ERROR;
 2184              		.loc 1 800 0 is_stmt 1
 2185 0064 4FF00203 		mov	r3, #2
 2186 0068 FB61     		str	r3, [r7, #28]
 2187 006a 10E0     		b	.L56
 2188              	.L55:
 801:../Dave/Generated/src/LIBS/CCU8PWMLIB.c ****   }
 802:../Dave/Generated/src/LIBS/CCU8PWMLIB.c ****   else {
 803:../Dave/Generated/src/LIBS/CCU8PWMLIB.c ****   
 804:../Dave/Generated/src/LIBS/CCU8PWMLIB.c ****     HandlePtr->CC8yRegsPtr->CR1S = (uint32_t)(Comp & 0xffff);
 2189              		.loc 1 804 0
 2190 006c 7B69     		ldr	r3, [r7, #20]
 2191 006e 5A6B     		ldr	r2, [r3, #52]
 2192 0070 BB69     		ldr	r3, [r7, #24]
 2193 0072 4FEA0343 		lsl	r3, r3, #16
 2194 0076 4FEA1343 		lsr	r3, r3, #16
 2195 007a D363     		str	r3, [r2, #60]
 805:../Dave/Generated/src/LIBS/CCU8PWMLIB.c ****     HandlePtr->CC8yRegsPtr->CR2S = (uint32_t)(0);
 2196              		.loc 1 805 0
 2197 007c 7B69     		ldr	r3, [r7, #20]
 2198 007e 5B6B     		ldr	r3, [r3, #52]
 2199 0080 4FF00002 		mov	r2, #0
 2200 0084 5A64     		str	r2, [r3, #68]
 806:../Dave/Generated/src/LIBS/CCU8PWMLIB.c ****     /*initiate the shadow transfer  */
 807:../Dave/Generated/src/LIBS/CCU8PWMLIB.c ****     Status = CCU8PWMLIB_SWRequestShadowTransfer(HandlePtr);
 2201              		.loc 1 807 0
 2202 0086 7869     		ldr	r0, [r7, #20]
 2203 0088 FFF7FEFF 		bl	CCU8PWMLIB_SWRequestShadowTransfer
 2204 008c F861     		str	r0, [r7, #28]
 2205              	.L56:
 808:../Dave/Generated/src/LIBS/CCU8PWMLIB.c ****   }
 809:../Dave/Generated/src/LIBS/CCU8PWMLIB.c ****   return (Status);
 2206              		.loc 1 809 0
 2207 008e FB69     		ldr	r3, [r7, #28]
 810:../Dave/Generated/src/LIBS/CCU8PWMLIB.c **** }
 2208              		.loc 1 810 0
 2209 0090 1846     		mov	r0, r3
 2210 0092 07F12007 		add	r7, r7, #32
 2211 0096 BD46     		mov	sp, r7
 2212 0098 80BD     		pop	{r7, pc}
 2213              	.L59:
 2214 009a 00BF     		.align	2
 2215              	.L58:
 2216 009c 0000C842 		.word	1120403456
 2217              		.cfi_endproc
 2218              	.LFE148:
 2220              		.section	.text.CCU8PWMLIB_SetDutyEdgeAlignSymmetricTimerConcat,"ax",%progbits
 2221              		.align	2
 2222              		.global	CCU8PWMLIB_SetDutyEdgeAlignSymmetricTimerConcat
 2223              		.thumb
 2224              		.thumb_func
 2226              	CCU8PWMLIB_SetDutyEdgeAlignSymmetricTimerConcat:
 2227              	.LFB149:
 811:../Dave/Generated/src/LIBS/CCU8PWMLIB.c **** 
 812:../Dave/Generated/src/LIBS/CCU8PWMLIB.c **** /**
 813:../Dave/Generated/src/LIBS/CCU8PWMLIB.c ****  * This is the private function which sets the duty cycle for 
 814:../Dave/Generated/src/LIBS/CCU8PWMLIB.c ****  * edge-aligned mode with symmetric compare mode and with timer concatenation.
 815:../Dave/Generated/src/LIBS/CCU8PWMLIB.c ****  * Period = PR + 1
 816:../Dave/Generated/src/LIBS/CCU8PWMLIB.c ****  * Duty Cycle(symmetric) = (PR-CR1)+1 / Period
 817:../Dave/Generated/src/LIBS/CCU8PWMLIB.c ****  */
 818:../Dave/Generated/src/LIBS/CCU8PWMLIB.c **** status_t CCU8PWMLIB_SetDutyEdgeAlignSymmetricTimerConcat
 819:../Dave/Generated/src/LIBS/CCU8PWMLIB.c **** (
 820:../Dave/Generated/src/LIBS/CCU8PWMLIB.c ****   const void* HdlPtr,
 821:../Dave/Generated/src/LIBS/CCU8PWMLIB.c ****   float DutyCycle,
 822:../Dave/Generated/src/LIBS/CCU8PWMLIB.c ****   uint32_t Shift,
 823:../Dave/Generated/src/LIBS/CCU8PWMLIB.c ****   uint8_t Sign
 824:../Dave/Generated/src/LIBS/CCU8PWMLIB.c **** )
 825:../Dave/Generated/src/LIBS/CCU8PWMLIB.c **** {
 2228              		.loc 1 825 0
 2229              		.cfi_startproc
 2230              		@ args = 0, pretend = 0, frame = 40
 2231              		@ frame_needed = 1, uses_anonymous_args = 0
 2232 0000 80B5     		push	{r7, lr}
 2233              	.LCFI42:
 2234              		.cfi_def_cfa_offset 8
 2235              		.cfi_offset 7, -8
 2236              		.cfi_offset 14, -4
 2237 0002 8AB0     		sub	sp, sp, #40
 2238              	.LCFI43:
 2239              		.cfi_def_cfa_offset 48
 2240 0004 00AF     		add	r7, sp, #0
 2241              	.LCFI44:
 2242              		.cfi_def_cfa_register 7
 2243 0006 F860     		str	r0, [r7, #12]
 2244 0008 B960     		str	r1, [r7, #8]	@ float
 2245 000a 7A60     		str	r2, [r7, #4]
 2246 000c FB70     		strb	r3, [r7, #3]
 826:../Dave/Generated/src/LIBS/CCU8PWMLIB.c ****   status_t Status = (uint32_t)CCU8PWMLIB_OPER_NOT_ALLOWED_ERROR;
 2247              		.loc 1 826 0
 2248 000e 4FF00103 		mov	r3, #1
 2249 0012 7B62     		str	r3, [r7, #36]
 827:../Dave/Generated/src/LIBS/CCU8PWMLIB.c ****   uint32_t FirstSliceCompareVal1 = 0U;
 2250              		.loc 1 827 0
 2251 0014 4FF00003 		mov	r3, #0
 2252 0018 3B62     		str	r3, [r7, #32]
 828:../Dave/Generated/src/LIBS/CCU8PWMLIB.c ****   uint32_t SecondSliceCompareVal1 = 0U;
 2253              		.loc 1 828 0
 2254 001a 4FF00003 		mov	r3, #0
 2255 001e FB61     		str	r3, [r7, #28]
 829:../Dave/Generated/src/LIBS/CCU8PWMLIB.c ****   uint32_t PeriodReg = 0U;
 2256              		.loc 1 829 0
 2257 0020 4FF00003 		mov	r3, #0
 2258 0024 BB61     		str	r3, [r7, #24]
 830:../Dave/Generated/src/LIBS/CCU8PWMLIB.c ****   uint32_t Comp = 0U;
 2259              		.loc 1 830 0
 2260 0026 4FF00003 		mov	r3, #0
 2261 002a 7B61     		str	r3, [r7, #20]
 831:../Dave/Generated/src/LIBS/CCU8PWMLIB.c ****   
 832:../Dave/Generated/src/LIBS/CCU8PWMLIB.c ****   const CCU8PWMLIB_HandleType* HandlePtr = (CCU8PWMLIB_HandleType*) HdlPtr;  
 2262              		.loc 1 832 0
 2263 002c FB68     		ldr	r3, [r7, #12]
 2264 002e 3B61     		str	r3, [r7, #16]
 833:../Dave/Generated/src/LIBS/CCU8PWMLIB.c **** 
 834:../Dave/Generated/src/LIBS/CCU8PWMLIB.c ****   Comp = (HandlePtr->CC8yRegs1Ptr->PRS+ 1U);
 2265              		.loc 1 834 0
 2266 0030 3B69     		ldr	r3, [r7, #16]
 2267 0032 9B6B     		ldr	r3, [r3, #56]
 2268 0034 5B6B     		ldr	r3, [r3, #52]
 2269 0036 03F10103 		add	r3, r3, #1
 2270 003a 7B61     		str	r3, [r7, #20]
 835:../Dave/Generated/src/LIBS/CCU8PWMLIB.c ****   Comp *=(HandlePtr->CC8yRegsPtr->PRS +1U);
 2271              		.loc 1 835 0
 2272 003c 3B69     		ldr	r3, [r7, #16]
 2273 003e 5B6B     		ldr	r3, [r3, #52]
 2274 0040 5B6B     		ldr	r3, [r3, #52]
 2275 0042 03F10102 		add	r2, r3, #1
 2276 0046 7B69     		ldr	r3, [r7, #20]
 2277 0048 02FB03F3 		mul	r3, r2, r3
 2278 004c 7B61     		str	r3, [r7, #20]
 836:../Dave/Generated/src/LIBS/CCU8PWMLIB.c ****   Comp += 1U;
 2279              		.loc 1 836 0
 2280 004e 7B69     		ldr	r3, [r7, #20]
 2281 0050 03F10103 		add	r3, r3, #1
 2282 0054 7B61     		str	r3, [r7, #20]
 837:../Dave/Generated/src/LIBS/CCU8PWMLIB.c ****   Comp = (uint32_t)((Comp * (100U-DutyCycle))/100U);
 2283              		.loc 1 837 0
 2284 0056 D7ED057A 		flds	s15, [r7, #20]	@ int
 2285 005a B8EE677A 		fuitos	s14, s15
 2286 005e DFED2F6A 		flds	s13, .L66
 2287 0062 D7ED027A 		flds	s15, [r7, #8]
 2288 0066 76EEE77A 		fsubs	s15, s13, s15
 2289 006a 27EE277A 		fmuls	s14, s14, s15
 2290 006e DFED2B7A 		flds	s15, .L66
 2291 0072 C7EE277A 		fdivs	s15, s14, s15
 2292 0076 FCEEE77A 		ftouizs	s15, s15
 2293 007a C7ED057A 		fsts	s15, [r7, #20]	@ int
 838:../Dave/Generated/src/LIBS/CCU8PWMLIB.c ****   PeriodReg = ((HandlePtr->CC8yRegs1Ptr->PRS)<< 16UL);
 2294              		.loc 1 838 0
 2295 007e 3B69     		ldr	r3, [r7, #16]
 2296 0080 9B6B     		ldr	r3, [r3, #56]
 2297 0082 5B6B     		ldr	r3, [r3, #52]
 2298 0084 4FEA0343 		lsl	r3, r3, #16
 2299 0088 BB61     		str	r3, [r7, #24]
 839:../Dave/Generated/src/LIBS/CCU8PWMLIB.c ****   PeriodReg |= (HandlePtr->CC8yRegsPtr->PRS);
 2300              		.loc 1 839 0
 2301 008a 3B69     		ldr	r3, [r7, #16]
 2302 008c 5B6B     		ldr	r3, [r3, #52]
 2303 008e 5B6B     		ldr	r3, [r3, #52]
 2304 0090 BA69     		ldr	r2, [r7, #24]
 2305 0092 1343     		orrs	r3, r3, r2
 2306 0094 BB61     		str	r3, [r7, #24]
 840:../Dave/Generated/src/LIBS/CCU8PWMLIB.c ****    /* If shift value is greater than compare register value or if sign is 0, report error */
 841:../Dave/Generated/src/LIBS/CCU8PWMLIB.c ****   if(((Sign == (uint8_t)RESET)&& Shift >0U) || (Shift > Comp))
 2307              		.loc 1 841 0
 2308 0096 FB78     		ldrb	r3, [r7, #3]	@ zero_extendqisi2
 2309 0098 002B     		cmp	r3, #0
 2310 009a 02D1     		bne	.L61
 2311              		.loc 1 841 0 is_stmt 0 discriminator 1
 2312 009c 7B68     		ldr	r3, [r7, #4]
 2313 009e 002B     		cmp	r3, #0
 2314 00a0 03D1     		bne	.L62
 2315              	.L61:
 2316              		.loc 1 841 0 discriminator 2
 2317 00a2 7A68     		ldr	r2, [r7, #4]
 2318 00a4 7B69     		ldr	r3, [r7, #20]
 2319 00a6 9A42     		cmp	r2, r3
 2320 00a8 03D9     		bls	.L63
 2321              	.L62:
 842:../Dave/Generated/src/LIBS/CCU8PWMLIB.c ****   {
 843:../Dave/Generated/src/LIBS/CCU8PWMLIB.c ****     Status = (uint32_t)CCU8PWMLIB_INVALID_PARAM_ERROR;
 2322              		.loc 1 843 0 is_stmt 1
 2323 00aa 4FF00203 		mov	r3, #2
 2324 00ae 7B62     		str	r3, [r7, #36]
 2325 00b0 2DE0     		b	.L64
 2326              	.L63:
 844:../Dave/Generated/src/LIBS/CCU8PWMLIB.c ****   }
 845:../Dave/Generated/src/LIBS/CCU8PWMLIB.c **** 
 846:../Dave/Generated/src/LIBS/CCU8PWMLIB.c ****   else{
 847:../Dave/Generated/src/LIBS/CCU8PWMLIB.c ****     /*  <<<DD_CCU8PWMLIB_nonAPI_2_1>>>*/
 848:../Dave/Generated/src/LIBS/CCU8PWMLIB.c ****     /*  <<<DD_CCU8PWMLIB_nonAPI_2_2>>>*/
 849:../Dave/Generated/src/LIBS/CCU8PWMLIB.c ****     FirstSliceCompareVal1 = (uint32_t)Comp % \
 850:../Dave/Generated/src/LIBS/CCU8PWMLIB.c ****         (uint16_t)PeriodReg;
 2327              		.loc 1 850 0
 2328 00b2 BB69     		ldr	r3, [r7, #24]
 2329 00b4 9BB2     		uxth	r3, r3
 849:../Dave/Generated/src/LIBS/CCU8PWMLIB.c ****     FirstSliceCompareVal1 = (uint32_t)Comp % \
 2330              		.loc 1 849 0
 2331 00b6 1A46     		mov	r2, r3
 2332 00b8 7B69     		ldr	r3, [r7, #20]
 2333 00ba B3FBF2F1 		udiv	r1, r3, r2
 2334 00be 02FB01F2 		mul	r2, r2, r1
 2335 00c2 9B1A     		subs	r3, r3, r2
 2336 00c4 3B62     		str	r3, [r7, #32]
 851:../Dave/Generated/src/LIBS/CCU8PWMLIB.c ****     SecondSliceCompareVal1 = (uint32_t)Comp /
 852:../Dave/Generated/src/LIBS/CCU8PWMLIB.c ****         (uint16_t)PeriodReg;
 2337              		.loc 1 852 0
 2338 00c6 BB69     		ldr	r3, [r7, #24]
 2339 00c8 9BB2     		uxth	r3, r3
 851:../Dave/Generated/src/LIBS/CCU8PWMLIB.c ****     SecondSliceCompareVal1 = (uint32_t)Comp /
 2340              		.loc 1 851 0
 2341 00ca 7A69     		ldr	r2, [r7, #20]
 2342 00cc B2FBF3F3 		udiv	r3, r2, r3
 2343 00d0 FB61     		str	r3, [r7, #28]
 853:../Dave/Generated/src/LIBS/CCU8PWMLIB.c ****     HandlePtr->CC8yRegsPtr->CR1S = (FirstSliceCompareVal1 & 0xFFFFU);
 2344              		.loc 1 853 0
 2345 00d2 3B69     		ldr	r3, [r7, #16]
 2346 00d4 5A6B     		ldr	r2, [r3, #52]
 2347 00d6 3B6A     		ldr	r3, [r7, #32]
 2348 00d8 4FEA0343 		lsl	r3, r3, #16
 2349 00dc 4FEA1343 		lsr	r3, r3, #16
 2350 00e0 D363     		str	r3, [r2, #60]
 854:../Dave/Generated/src/LIBS/CCU8PWMLIB.c ****     HandlePtr->CC8yRegs1Ptr->CR1S = (SecondSliceCompareVal1 & 0xFFFFU);
 2351              		.loc 1 854 0
 2352 00e2 3B69     		ldr	r3, [r7, #16]
 2353 00e4 9A6B     		ldr	r2, [r3, #56]
 2354 00e6 FB69     		ldr	r3, [r7, #28]
 2355 00e8 4FEA0343 		lsl	r3, r3, #16
 2356 00ec 4FEA1343 		lsr	r3, r3, #16
 2357 00f0 D363     		str	r3, [r2, #60]
 855:../Dave/Generated/src/LIBS/CCU8PWMLIB.c ****     HandlePtr->CC8yRegs1Ptr->CR2S = (uint32_t)(0);
 2358              		.loc 1 855 0
 2359 00f2 3B69     		ldr	r3, [r7, #16]
 2360 00f4 9B6B     		ldr	r3, [r3, #56]
 2361 00f6 4FF00002 		mov	r2, #0
 2362 00fa 5A64     		str	r2, [r3, #68]
 856:../Dave/Generated/src/LIBS/CCU8PWMLIB.c ****     HandlePtr->CC8yRegsPtr->CR2S = (uint32_t)(0);
 2363              		.loc 1 856 0
 2364 00fc 3B69     		ldr	r3, [r7, #16]
 2365 00fe 5B6B     		ldr	r3, [r3, #52]
 2366 0100 4FF00002 		mov	r2, #0
 2367 0104 5A64     		str	r2, [r3, #68]
 857:../Dave/Generated/src/LIBS/CCU8PWMLIB.c ****     /*  <<<DD_CCU8PWMLIB_nonAPI_2_3>>>*/
 858:../Dave/Generated/src/LIBS/CCU8PWMLIB.c ****     /*Request for shadow transfer*/
 859:../Dave/Generated/src/LIBS/CCU8PWMLIB.c ****     Status = CCU8PWMLIB_SWRequestShadowTransfer(HandlePtr);
 2368              		.loc 1 859 0
 2369 0106 3869     		ldr	r0, [r7, #16]
 2370 0108 FFF7FEFF 		bl	CCU8PWMLIB_SWRequestShadowTransfer
 2371 010c 7862     		str	r0, [r7, #36]
 2372              	.L64:
 860:../Dave/Generated/src/LIBS/CCU8PWMLIB.c ****   }
 861:../Dave/Generated/src/LIBS/CCU8PWMLIB.c ****   return Status;
 2373              		.loc 1 861 0
 2374 010e 7B6A     		ldr	r3, [r7, #36]
 862:../Dave/Generated/src/LIBS/CCU8PWMLIB.c **** }
 2375              		.loc 1 862 0
 2376 0110 1846     		mov	r0, r3
 2377 0112 07F12807 		add	r7, r7, #40
 2378 0116 BD46     		mov	sp, r7
 2379 0118 80BD     		pop	{r7, pc}
 2380              	.L67:
 2381 011a 00BF     		.align	2
 2382              	.L66:
 2383 011c 0000C842 		.word	1120403456
 2384              		.cfi_endproc
 2385              	.LFE149:
 2387              		.section	.text.CCU8PWMLIB_SetDutyCenterAlignSymmetric,"ax",%progbits
 2388              		.align	2
 2389              		.global	CCU8PWMLIB_SetDutyCenterAlignSymmetric
 2390              		.thumb
 2391              		.thumb_func
 2393              	CCU8PWMLIB_SetDutyCenterAlignSymmetric:
 2394              	.LFB150:
 863:../Dave/Generated/src/LIBS/CCU8PWMLIB.c **** 
 864:../Dave/Generated/src/LIBS/CCU8PWMLIB.c **** /**
 865:../Dave/Generated/src/LIBS/CCU8PWMLIB.c ****  * This is the private function which sets the duty cycle for center-aligned mode.
 866:../Dave/Generated/src/LIBS/CCU8PWMLIB.c ****  * Period = (PR + 1)* 2
 867:../Dave/Generated/src/LIBS/CCU8PWMLIB.c ****  * Duty Cycle(symmetric) = 2(PR - CR1) + 1/ Period
 868:../Dave/Generated/src/LIBS/CCU8PWMLIB.c ****  */
 869:../Dave/Generated/src/LIBS/CCU8PWMLIB.c **** status_t CCU8PWMLIB_SetDutyCenterAlignSymmetric
 870:../Dave/Generated/src/LIBS/CCU8PWMLIB.c **** (
 871:../Dave/Generated/src/LIBS/CCU8PWMLIB.c ****   const void* HdlPtr,
 872:../Dave/Generated/src/LIBS/CCU8PWMLIB.c ****   float DutyCycle,
 873:../Dave/Generated/src/LIBS/CCU8PWMLIB.c ****   uint32_t Shift,
 874:../Dave/Generated/src/LIBS/CCU8PWMLIB.c ****   uint8_t Sign
 875:../Dave/Generated/src/LIBS/CCU8PWMLIB.c **** )
 876:../Dave/Generated/src/LIBS/CCU8PWMLIB.c **** {
 2395              		.loc 1 876 0
 2396              		.cfi_startproc
 2397              		@ args = 0, pretend = 0, frame = 32
 2398              		@ frame_needed = 1, uses_anonymous_args = 0
 2399 0000 80B5     		push	{r7, lr}
 2400              	.LCFI45:
 2401              		.cfi_def_cfa_offset 8
 2402              		.cfi_offset 7, -8
 2403              		.cfi_offset 14, -4
 2404 0002 88B0     		sub	sp, sp, #32
 2405              	.LCFI46:
 2406              		.cfi_def_cfa_offset 40
 2407 0004 00AF     		add	r7, sp, #0
 2408              	.LCFI47:
 2409              		.cfi_def_cfa_register 7
 2410 0006 F860     		str	r0, [r7, #12]
 2411 0008 B960     		str	r1, [r7, #8]	@ float
 2412 000a 7A60     		str	r2, [r7, #4]
 2413 000c FB70     		strb	r3, [r7, #3]
 877:../Dave/Generated/src/LIBS/CCU8PWMLIB.c ****   status_t Status = (uint32_t)CCU8PWMLIB_OPER_NOT_ALLOWED_ERROR;
 2414              		.loc 1 877 0
 2415 000e 4FF00103 		mov	r3, #1
 2416 0012 FB61     		str	r3, [r7, #28]
 878:../Dave/Generated/src/LIBS/CCU8PWMLIB.c ****   uint32_t Comp = 0U;
 2417              		.loc 1 878 0
 2418 0014 4FF00003 		mov	r3, #0
 2419 0018 BB61     		str	r3, [r7, #24]
 879:../Dave/Generated/src/LIBS/CCU8PWMLIB.c ****   const CCU8PWMLIB_HandleType* HandlePtr = (CCU8PWMLIB_HandleType*) HdlPtr;  
 2420              		.loc 1 879 0
 2421 001a FB68     		ldr	r3, [r7, #12]
 2422 001c 7B61     		str	r3, [r7, #20]
 880:../Dave/Generated/src/LIBS/CCU8PWMLIB.c ****   Sign = 0U;
 2423              		.loc 1 880 0
 2424 001e 4FF00003 		mov	r3, #0
 2425 0022 FB74     		strb	r3, [r7, #19]
 881:../Dave/Generated/src/LIBS/CCU8PWMLIB.c ****   /* Find the compare register value for center-aligned mode. */
 882:../Dave/Generated/src/LIBS/CCU8PWMLIB.c ****   Comp = (uint32_t)(((HandlePtr->CC8yRegsPtr->PRS ) * (100U-DutyCycle))/100U);
 2426              		.loc 1 882 0
 2427 0024 7B69     		ldr	r3, [r7, #20]
 2428 0026 5B6B     		ldr	r3, [r3, #52]
 2429 0028 D3ED0D7A 		flds	s15, [r3, #52]	@ int
 2430 002c B8EE677A 		fuitos	s14, s15
 2431 0030 DFED196A 		flds	s13, .L73
 2432 0034 D7ED027A 		flds	s15, [r7, #8]
 2433 0038 76EEE77A 		fsubs	s15, s13, s15
 2434 003c 27EE277A 		fmuls	s14, s14, s15
 2435 0040 DFED157A 		flds	s15, .L73
 2436 0044 C7EE277A 		fdivs	s15, s14, s15
 2437 0048 FCEEE77A 		ftouizs	s15, s15
 2438 004c C7ED067A 		fsts	s15, [r7, #24]	@ int
 883:../Dave/Generated/src/LIBS/CCU8PWMLIB.c ****   if((HandlePtr->kTimerConcatenation == (uint8_t)SET) || (Shift>Comp))
 2439              		.loc 1 883 0
 2440 0050 7B69     		ldr	r3, [r7, #20]
 2441 0052 DB79     		ldrb	r3, [r3, #7]	@ zero_extendqisi2
 2442 0054 012B     		cmp	r3, #1
 2443 0056 03D0     		beq	.L69
 2444              		.loc 1 883 0 is_stmt 0 discriminator 1
 2445 0058 7A68     		ldr	r2, [r7, #4]
 2446 005a BB69     		ldr	r3, [r7, #24]
 2447 005c 9A42     		cmp	r2, r3
 2448 005e 03D9     		bls	.L70
 2449              	.L69:
 884:../Dave/Generated/src/LIBS/CCU8PWMLIB.c ****   {
 885:../Dave/Generated/src/LIBS/CCU8PWMLIB.c ****     Status = (uint32_t)CCU8PWMLIB_INVALID_PARAM_ERROR;
 2450              		.loc 1 885 0 is_stmt 1
 2451 0060 4FF00203 		mov	r3, #2
 2452 0064 FB61     		str	r3, [r7, #28]
 2453 0066 10E0     		b	.L71
 2454              	.L70:
 886:../Dave/Generated/src/LIBS/CCU8PWMLIB.c ****   }
 887:../Dave/Generated/src/LIBS/CCU8PWMLIB.c ****   else{
 888:../Dave/Generated/src/LIBS/CCU8PWMLIB.c ****     /*  <<<DD_CCU8PWMLIB_nonAPI_3_1>>>*/
 889:../Dave/Generated/src/LIBS/CCU8PWMLIB.c ****     HandlePtr->CC8yRegsPtr->CR1S = (uint32_t)(Comp & 0xffff);
 2455              		.loc 1 889 0
 2456 0068 7B69     		ldr	r3, [r7, #20]
 2457 006a 5A6B     		ldr	r2, [r3, #52]
 2458 006c BB69     		ldr	r3, [r7, #24]
 2459 006e 4FEA0343 		lsl	r3, r3, #16
 2460 0072 4FEA1343 		lsr	r3, r3, #16
 2461 0076 D363     		str	r3, [r2, #60]
 890:../Dave/Generated/src/LIBS/CCU8PWMLIB.c ****     HandlePtr->CC8yRegsPtr->CR2S = (uint32_t)(0);
 2462              		.loc 1 890 0
 2463 0078 7B69     		ldr	r3, [r7, #20]
 2464 007a 5B6B     		ldr	r3, [r3, #52]
 2465 007c 4FF00002 		mov	r2, #0
 2466 0080 5A64     		str	r2, [r3, #68]
 891:../Dave/Generated/src/LIBS/CCU8PWMLIB.c ****       /* initiate the shadow transfer */
 892:../Dave/Generated/src/LIBS/CCU8PWMLIB.c ****     Status = CCU8PWMLIB_SWRequestShadowTransfer(HandlePtr);
 2467              		.loc 1 892 0
 2468 0082 7869     		ldr	r0, [r7, #20]
 2469 0084 FFF7FEFF 		bl	CCU8PWMLIB_SWRequestShadowTransfer
 2470 0088 F861     		str	r0, [r7, #28]
 2471              	.L71:
 893:../Dave/Generated/src/LIBS/CCU8PWMLIB.c ****   }
 894:../Dave/Generated/src/LIBS/CCU8PWMLIB.c ****   return (Status);
 2472              		.loc 1 894 0
 2473 008a FB69     		ldr	r3, [r7, #28]
 895:../Dave/Generated/src/LIBS/CCU8PWMLIB.c **** 
 896:../Dave/Generated/src/LIBS/CCU8PWMLIB.c **** }
 2474              		.loc 1 896 0
 2475 008c 1846     		mov	r0, r3
 2476 008e 07F12007 		add	r7, r7, #32
 2477 0092 BD46     		mov	sp, r7
 2478 0094 80BD     		pop	{r7, pc}
 2479              	.L74:
 2480 0096 00BF     		.align	2
 2481              	.L73:
 2482 0098 0000C842 		.word	1120403456
 2483              		.cfi_endproc
 2484              	.LFE150:
 2486              		.section	.text.CCU8PWMLIB_SetDutyCenterAlignAsymmetric,"ax",%progbits
 2487              		.align	2
 2488              		.global	CCU8PWMLIB_SetDutyCenterAlignAsymmetric
 2489              		.thumb
 2490              		.thumb_func
 2492              	CCU8PWMLIB_SetDutyCenterAlignAsymmetric:
 2493              	.LFB151:
 897:../Dave/Generated/src/LIBS/CCU8PWMLIB.c **** 
 898:../Dave/Generated/src/LIBS/CCU8PWMLIB.c **** /**
 899:../Dave/Generated/src/LIBS/CCU8PWMLIB.c ****  * This is the private function which sets the duty cycle for center-aligned mode.
 900:../Dave/Generated/src/LIBS/CCU8PWMLIB.c ****  * Period = (PR + 1)* 2
 901:../Dave/Generated/src/LIBS/CCU8PWMLIB.c ****  * Duty cycle (Asymmetric) = (PR-CR1) + (PR-CR2) +1 / Period
 902:../Dave/Generated/src/LIBS/CCU8PWMLIB.c ****  */
 903:../Dave/Generated/src/LIBS/CCU8PWMLIB.c **** status_t CCU8PWMLIB_SetDutyCenterAlignAsymmetric
 904:../Dave/Generated/src/LIBS/CCU8PWMLIB.c **** (
 905:../Dave/Generated/src/LIBS/CCU8PWMLIB.c ****     const void* HdlPtr,
 906:../Dave/Generated/src/LIBS/CCU8PWMLIB.c ****     float DutyCycle,
 907:../Dave/Generated/src/LIBS/CCU8PWMLIB.c ****     uint32_t Shift,
 908:../Dave/Generated/src/LIBS/CCU8PWMLIB.c ****     uint8_t Sign
 909:../Dave/Generated/src/LIBS/CCU8PWMLIB.c **** )
 910:../Dave/Generated/src/LIBS/CCU8PWMLIB.c **** {
 2494              		.loc 1 910 0
 2495              		.cfi_startproc
 2496              		@ args = 0, pretend = 0, frame = 32
 2497              		@ frame_needed = 1, uses_anonymous_args = 0
 2498 0000 80B5     		push	{r7, lr}
 2499              	.LCFI48:
 2500              		.cfi_def_cfa_offset 8
 2501              		.cfi_offset 7, -8
 2502              		.cfi_offset 14, -4
 2503 0002 88B0     		sub	sp, sp, #32
 2504              	.LCFI49:
 2505              		.cfi_def_cfa_offset 40
 2506 0004 00AF     		add	r7, sp, #0
 2507              	.LCFI50:
 2508              		.cfi_def_cfa_register 7
 2509 0006 F860     		str	r0, [r7, #12]
 2510 0008 B960     		str	r1, [r7, #8]	@ float
 2511 000a 7A60     		str	r2, [r7, #4]
 2512 000c FB70     		strb	r3, [r7, #3]
 911:../Dave/Generated/src/LIBS/CCU8PWMLIB.c ****   status_t Status = (uint32_t)CCU8PWMLIB_OPER_NOT_ALLOWED_ERROR;  
 2513              		.loc 1 911 0
 2514 000e 4FF00103 		mov	r3, #1
 2515 0012 FB61     		str	r3, [r7, #28]
 912:../Dave/Generated/src/LIBS/CCU8PWMLIB.c ****   uint32_t Comp = 0U;
 2516              		.loc 1 912 0
 2517 0014 4FF00003 		mov	r3, #0
 2518 0018 BB61     		str	r3, [r7, #24]
 913:../Dave/Generated/src/LIBS/CCU8PWMLIB.c ****   const CCU8PWMLIB_HandleType* HandlePtr = (CCU8PWMLIB_HandleType*) HdlPtr;
 2519              		.loc 1 913 0
 2520 001a FB68     		ldr	r3, [r7, #12]
 2521 001c 7B61     		str	r3, [r7, #20]
 914:../Dave/Generated/src/LIBS/CCU8PWMLIB.c ****   
 915:../Dave/Generated/src/LIBS/CCU8PWMLIB.c ****   /* Find the compare register value for center-aligned mode. */
 916:../Dave/Generated/src/LIBS/CCU8PWMLIB.c ****   Comp = (uint32_t)(((HandlePtr->CC8yRegsPtr->PRS) * (100U-DutyCycle))/100U);
 2522              		.loc 1 916 0
 2523 001e 7B69     		ldr	r3, [r7, #20]
 2524 0020 5B6B     		ldr	r3, [r3, #52]
 2525 0022 D3ED0D7A 		flds	s15, [r3, #52]	@ int
 2526 0026 B8EE677A 		fuitos	s14, s15
 2527 002a DFED2A6A 		flds	s13, .L82
 2528 002e D7ED027A 		flds	s15, [r7, #8]
 2529 0032 76EEE77A 		fsubs	s15, s13, s15
 2530 0036 27EE277A 		fmuls	s14, s14, s15
 2531 003a DFED267A 		flds	s15, .L82
 2532 003e C7EE277A 		fdivs	s15, s14, s15
 2533 0042 FCEEE77A 		ftouizs	s15, s15
 2534 0046 C7ED067A 		fsts	s15, [r7, #24]	@ int
 917:../Dave/Generated/src/LIBS/CCU8PWMLIB.c ****   if((HandlePtr->kTimerConcatenation == (uint8_t)SET) || (Shift>Comp))
 2535              		.loc 1 917 0
 2536 004a 7B69     		ldr	r3, [r7, #20]
 2537 004c DB79     		ldrb	r3, [r3, #7]	@ zero_extendqisi2
 2538 004e 012B     		cmp	r3, #1
 2539 0050 03D0     		beq	.L76
 2540              		.loc 1 917 0 is_stmt 0 discriminator 1
 2541 0052 7A68     		ldr	r2, [r7, #4]
 2542 0054 BB69     		ldr	r3, [r7, #24]
 2543 0056 9A42     		cmp	r2, r3
 2544 0058 03D9     		bls	.L77
 2545              	.L76:
 918:../Dave/Generated/src/LIBS/CCU8PWMLIB.c ****   {
 919:../Dave/Generated/src/LIBS/CCU8PWMLIB.c ****     Status = (uint32_t)CCU8PWMLIB_INVALID_PARAM_ERROR;
 2546              		.loc 1 919 0 is_stmt 1
 2547 005a 4FF00203 		mov	r3, #2
 2548 005e FB61     		str	r3, [r7, #28]
 2549 0060 32E0     		b	.L78
 2550              	.L77:
 920:../Dave/Generated/src/LIBS/CCU8PWMLIB.c ****   }
 921:../Dave/Generated/src/LIBS/CCU8PWMLIB.c ****   
 922:../Dave/Generated/src/LIBS/CCU8PWMLIB.c ****   else{
 923:../Dave/Generated/src/LIBS/CCU8PWMLIB.c ****  /*  <<<DD_CCU8PWMLIB_nonAPI_3_3>>>*/  
 924:../Dave/Generated/src/LIBS/CCU8PWMLIB.c ****     if (Sign == (uint8_t)RESET)
 2551              		.loc 1 924 0
 2552 0062 FB78     		ldrb	r3, [r7, #3]	@ zero_extendqisi2
 2553 0064 002B     		cmp	r3, #0
 2554 0066 14D1     		bne	.L79
 925:../Dave/Generated/src/LIBS/CCU8PWMLIB.c ****     {
 926:../Dave/Generated/src/LIBS/CCU8PWMLIB.c **** 
 927:../Dave/Generated/src/LIBS/CCU8PWMLIB.c ****       HandlePtr->CC8yRegsPtr->CR1S = (uint32_t)((Comp + Shift) & 0xffffU);
 2555              		.loc 1 927 0
 2556 0068 7B69     		ldr	r3, [r7, #20]
 2557 006a 5A6B     		ldr	r2, [r3, #52]
 2558 006c B969     		ldr	r1, [r7, #24]
 2559 006e 7B68     		ldr	r3, [r7, #4]
 2560 0070 CB18     		adds	r3, r1, r3
 2561 0072 4FEA0343 		lsl	r3, r3, #16
 2562 0076 4FEA1343 		lsr	r3, r3, #16
 2563 007a D363     		str	r3, [r2, #60]
 928:../Dave/Generated/src/LIBS/CCU8PWMLIB.c ****       HandlePtr->CC8yRegsPtr->CR2S = (uint32_t)((Comp - Shift) & 0xffffU);
 2564              		.loc 1 928 0
 2565 007c 7B69     		ldr	r3, [r7, #20]
 2566 007e 5A6B     		ldr	r2, [r3, #52]
 2567 0080 B969     		ldr	r1, [r7, #24]
 2568 0082 7B68     		ldr	r3, [r7, #4]
 2569 0084 CB1A     		subs	r3, r1, r3
 2570 0086 4FEA0343 		lsl	r3, r3, #16
 2571 008a 4FEA1343 		lsr	r3, r3, #16
 2572 008e 5364     		str	r3, [r2, #68]
 2573 0090 16E0     		b	.L80
 2574              	.L79:
 929:../Dave/Generated/src/LIBS/CCU8PWMLIB.c ****       /*  <<<DD_CCU8PWMLIB_nonAPI_3_5>>>*/
 930:../Dave/Generated/src/LIBS/CCU8PWMLIB.c ****     } /*end of if (Sign == 0)*/
 931:../Dave/Generated/src/LIBS/CCU8PWMLIB.c ****     /*  <<<DD_CCU8PWMLIB_nonAPI_3_4>>>*/
 932:../Dave/Generated/src/LIBS/CCU8PWMLIB.c ****     else if (Sign == (uint8_t)SET)
 2575              		.loc 1 932 0
 2576 0092 FB78     		ldrb	r3, [r7, #3]	@ zero_extendqisi2
 2577 0094 012B     		cmp	r3, #1
 2578 0096 13D1     		bne	.L80
 933:../Dave/Generated/src/LIBS/CCU8PWMLIB.c ****     {
 934:../Dave/Generated/src/LIBS/CCU8PWMLIB.c ****       HandlePtr->CC8yRegsPtr->CR1S = (uint32_t)((Comp - Shift) & 0xffffU);
 2579              		.loc 1 934 0
 2580 0098 7B69     		ldr	r3, [r7, #20]
 2581 009a 5A6B     		ldr	r2, [r3, #52]
 2582 009c B969     		ldr	r1, [r7, #24]
 2583 009e 7B68     		ldr	r3, [r7, #4]
 2584 00a0 CB1A     		subs	r3, r1, r3
 2585 00a2 4FEA0343 		lsl	r3, r3, #16
 2586 00a6 4FEA1343 		lsr	r3, r3, #16
 2587 00aa D363     		str	r3, [r2, #60]
 935:../Dave/Generated/src/LIBS/CCU8PWMLIB.c ****       HandlePtr->CC8yRegsPtr->CR2S = (uint32_t)((Comp + Shift) & 0xffffU);
 2588              		.loc 1 935 0
 2589 00ac 7B69     		ldr	r3, [r7, #20]
 2590 00ae 5A6B     		ldr	r2, [r3, #52]
 2591 00b0 B969     		ldr	r1, [r7, #24]
 2592 00b2 7B68     		ldr	r3, [r7, #4]
 2593 00b4 CB18     		adds	r3, r1, r3
 2594 00b6 4FEA0343 		lsl	r3, r3, #16
 2595 00ba 4FEA1343 		lsr	r3, r3, #16
 2596 00be 5364     		str	r3, [r2, #68]
 2597              	.L80:
 936:../Dave/Generated/src/LIBS/CCU8PWMLIB.c ****     }
 937:../Dave/Generated/src/LIBS/CCU8PWMLIB.c ****     else
 938:../Dave/Generated/src/LIBS/CCU8PWMLIB.c ****     {}
 939:../Dave/Generated/src/LIBS/CCU8PWMLIB.c ****   /*  <<<DD_CCU8PWMLIB_nonAPI_3_6>>>*/
 940:../Dave/Generated/src/LIBS/CCU8PWMLIB.c ****   /* initiate the shadow transfer */
 941:../Dave/Generated/src/LIBS/CCU8PWMLIB.c ****     Status = CCU8PWMLIB_SWRequestShadowTransfer(HandlePtr);
 2598              		.loc 1 941 0
 2599 00c0 7869     		ldr	r0, [r7, #20]
 2600 00c2 FFF7FEFF 		bl	CCU8PWMLIB_SWRequestShadowTransfer
 2601 00c6 F861     		str	r0, [r7, #28]
 2602              	.L78:
 942:../Dave/Generated/src/LIBS/CCU8PWMLIB.c ****   }
 943:../Dave/Generated/src/LIBS/CCU8PWMLIB.c ****   return (Status);
 2603              		.loc 1 943 0
 2604 00c8 FB69     		ldr	r3, [r7, #28]
 944:../Dave/Generated/src/LIBS/CCU8PWMLIB.c **** }
 2605              		.loc 1 944 0
 2606 00ca 1846     		mov	r0, r3
 2607 00cc 07F12007 		add	r7, r7, #32
 2608 00d0 BD46     		mov	sp, r7
 2609 00d2 80BD     		pop	{r7, pc}
 2610              	.L83:
 2611              		.align	2
 2612              	.L82:
 2613 00d4 0000C842 		.word	1120403456
 2614              		.cfi_endproc
 2615              	.LFE151:
 2617              		.section	.text.CCU8PWMLIB_SetPeriodAndCompare,"ax",%progbits
 2618              		.align	2
 2619              		.global	CCU8PWMLIB_SetPeriodAndCompare
 2620              		.thumb
 2621              		.thumb_func
 2623              	CCU8PWMLIB_SetPeriodAndCompare:
 2624              	.LFB152:
 945:../Dave/Generated/src/LIBS/CCU8PWMLIB.c **** 
 946:../Dave/Generated/src/LIBS/CCU8PWMLIB.c **** /** This function changes the PWM frequency */
 947:../Dave/Generated/src/LIBS/CCU8PWMLIB.c **** status_t CCU8PWMLIB_SetPeriodAndCompare
 948:../Dave/Generated/src/LIBS/CCU8PWMLIB.c **** (
 949:../Dave/Generated/src/LIBS/CCU8PWMLIB.c ****   const CCU8PWMLIB_HandleType* HandlePtr,
 950:../Dave/Generated/src/LIBS/CCU8PWMLIB.c ****   uint32_t PwmFreq,
 951:../Dave/Generated/src/LIBS/CCU8PWMLIB.c ****   uint32_t Compare1,
 952:../Dave/Generated/src/LIBS/CCU8PWMLIB.c ****   uint32_t Compare2
 953:../Dave/Generated/src/LIBS/CCU8PWMLIB.c **** )
 954:../Dave/Generated/src/LIBS/CCU8PWMLIB.c **** {
 2625              		.loc 1 954 0
 2626              		.cfi_startproc
 2627              		@ args = 0, pretend = 0, frame = 24
 2628              		@ frame_needed = 1, uses_anonymous_args = 0
 2629 0000 80B5     		push	{r7, lr}
 2630              	.LCFI51:
 2631              		.cfi_def_cfa_offset 8
 2632              		.cfi_offset 7, -8
 2633              		.cfi_offset 14, -4
 2634 0002 86B0     		sub	sp, sp, #24
 2635              	.LCFI52:
 2636              		.cfi_def_cfa_offset 32
 2637 0004 00AF     		add	r7, sp, #0
 2638              	.LCFI53:
 2639              		.cfi_def_cfa_register 7
 2640 0006 F860     		str	r0, [r7, #12]
 2641 0008 B960     		str	r1, [r7, #8]
 2642 000a 7A60     		str	r2, [r7, #4]
 2643 000c 3B60     		str	r3, [r7, #0]
 955:../Dave/Generated/src/LIBS/CCU8PWMLIB.c ****     status_t Status = (uint32_t)DAVEApp_SUCCESS;
 2644              		.loc 1 955 0
 2645 000e 4FF00003 		mov	r3, #0
 2646 0012 7B61     		str	r3, [r7, #20]
 956:../Dave/Generated/src/LIBS/CCU8PWMLIB.c **** 
 957:../Dave/Generated/src/LIBS/CCU8PWMLIB.c ****     /* Update the period register after checking timer concatenation setting */
 958:../Dave/Generated/src/LIBS/CCU8PWMLIB.c ****     HandlePtr->CC8yRegsPtr->PRS = PwmFreq & 0xffffU;
 2647              		.loc 1 958 0
 2648 0014 FB68     		ldr	r3, [r7, #12]
 2649 0016 5A6B     		ldr	r2, [r3, #52]
 2650 0018 BB68     		ldr	r3, [r7, #8]
 2651 001a 4FEA0343 		lsl	r3, r3, #16
 2652 001e 4FEA1343 		lsr	r3, r3, #16
 2653 0022 5363     		str	r3, [r2, #52]
 959:../Dave/Generated/src/LIBS/CCU8PWMLIB.c ****     if (HandlePtr->kTimerConcatenation == (uint8_t)SET)
 2654              		.loc 1 959 0
 2655 0024 FB68     		ldr	r3, [r7, #12]
 2656 0026 DB79     		ldrb	r3, [r3, #7]	@ zero_extendqisi2
 2657 0028 012B     		cmp	r3, #1
 2658 002a 0DD1     		bne	.L85
 960:../Dave/Generated/src/LIBS/CCU8PWMLIB.c ****     {
 961:../Dave/Generated/src/LIBS/CCU8PWMLIB.c ****       HandlePtr->CC8yRegs1Ptr->PRS = ((PwmFreq & 0xffff0000U) >> 16UL);
 2659              		.loc 1 961 0
 2660 002c FB68     		ldr	r3, [r7, #12]
 2661 002e 9B6B     		ldr	r3, [r3, #56]
 2662 0030 BA68     		ldr	r2, [r7, #8]
 2663 0032 4FEA1242 		lsr	r2, r2, #16
 2664 0036 5A63     		str	r2, [r3, #52]
 962:../Dave/Generated/src/LIBS/CCU8PWMLIB.c ****       HandlePtr->CC8yRegsPtr->PRS = (PwmFreq & 0xffffU);
 2665              		.loc 1 962 0
 2666 0038 FB68     		ldr	r3, [r7, #12]
 2667 003a 5A6B     		ldr	r2, [r3, #52]
 2668 003c BB68     		ldr	r3, [r7, #8]
 2669 003e 4FEA0343 		lsl	r3, r3, #16
 2670 0042 4FEA1343 		lsr	r3, r3, #16
 2671 0046 5363     		str	r3, [r2, #52]
 2672              	.L85:
 963:../Dave/Generated/src/LIBS/CCU8PWMLIB.c ****     }
 964:../Dave/Generated/src/LIBS/CCU8PWMLIB.c ****     /*<<<DD_CCU8PWMLIB_API_6_2>>>*/
 965:../Dave/Generated/src/LIBS/CCU8PWMLIB.c **** 
 966:../Dave/Generated/src/LIBS/CCU8PWMLIB.c ****     /*<<<DD_CCU8PWMLIB_API_6_3>>*/
 967:../Dave/Generated/src/LIBS/CCU8PWMLIB.c **** /* Set compare register values and request shadow transfer */
 968:../Dave/Generated/src/LIBS/CCU8PWMLIB.c ****     Status = HandlePtr->SetCompareFuncPtr((void*)HandlePtr, Compare1, Compare2);
 2673              		.loc 1 968 0
 2674 0048 FB68     		ldr	r3, [r7, #12]
 2675 004a 5B6D     		ldr	r3, [r3, #84]
 2676 004c F868     		ldr	r0, [r7, #12]
 2677 004e 7968     		ldr	r1, [r7, #4]
 2678 0050 3A68     		ldr	r2, [r7, #0]
 2679 0052 9847     		blx	r3
 2680 0054 7861     		str	r0, [r7, #20]
 969:../Dave/Generated/src/LIBS/CCU8PWMLIB.c ****     return Status;
 2681              		.loc 1 969 0
 2682 0056 7B69     		ldr	r3, [r7, #20]
 970:../Dave/Generated/src/LIBS/CCU8PWMLIB.c **** }
 2683              		.loc 1 970 0
 2684 0058 1846     		mov	r0, r3
 2685 005a 07F11807 		add	r7, r7, #24
 2686 005e BD46     		mov	sp, r7
 2687 0060 80BD     		pop	{r7, pc}
 2688              		.cfi_endproc
 2689              	.LFE152:
 2691 0062 00BF     		.section	.text.CCU8PWMLIB_SetPeriod,"ax",%progbits
 2692              		.align	2
 2693              		.global	CCU8PWMLIB_SetPeriod
 2694              		.thumb
 2695              		.thumb_func
 2697              	CCU8PWMLIB_SetPeriod:
 2698              	.LFB153:
 971:../Dave/Generated/src/LIBS/CCU8PWMLIB.c **** 
 972:../Dave/Generated/src/LIBS/CCU8PWMLIB.c **** /*<<<DD_CCU8PWMLIB_API_6>>>*/
 973:../Dave/Generated/src/LIBS/CCU8PWMLIB.c **** /** This function changes the PWM frequency */
 974:../Dave/Generated/src/LIBS/CCU8PWMLIB.c **** status_t CCU8PWMLIB_SetPeriod
 975:../Dave/Generated/src/LIBS/CCU8PWMLIB.c **** (
 976:../Dave/Generated/src/LIBS/CCU8PWMLIB.c ****   const CCU8PWMLIB_HandleType* HandlePtr,
 977:../Dave/Generated/src/LIBS/CCU8PWMLIB.c ****   uint32_t PwmFreq
 978:../Dave/Generated/src/LIBS/CCU8PWMLIB.c **** )
 979:../Dave/Generated/src/LIBS/CCU8PWMLIB.c **** {
 2699              		.loc 1 979 0
 2700              		.cfi_startproc
 2701              		@ args = 0, pretend = 0, frame = 16
 2702              		@ frame_needed = 1, uses_anonymous_args = 0
 2703 0000 80B5     		push	{r7, lr}
 2704              	.LCFI54:
 2705              		.cfi_def_cfa_offset 8
 2706              		.cfi_offset 7, -8
 2707              		.cfi_offset 14, -4
 2708 0002 84B0     		sub	sp, sp, #16
 2709              	.LCFI55:
 2710              		.cfi_def_cfa_offset 24
 2711 0004 00AF     		add	r7, sp, #0
 2712              	.LCFI56:
 2713              		.cfi_def_cfa_register 7
 2714 0006 7860     		str	r0, [r7, #4]
 2715 0008 3960     		str	r1, [r7, #0]
 980:../Dave/Generated/src/LIBS/CCU8PWMLIB.c ****     status_t Status = (uint32_t)DAVEApp_SUCCESS;
 2716              		.loc 1 980 0
 2717 000a 4FF00003 		mov	r3, #0
 2718 000e FB60     		str	r3, [r7, #12]
 981:../Dave/Generated/src/LIBS/CCU8PWMLIB.c **** 
 982:../Dave/Generated/src/LIBS/CCU8PWMLIB.c ****     /* Update the period register after checking timer concatenation setting */
 983:../Dave/Generated/src/LIBS/CCU8PWMLIB.c ****     HandlePtr->CC8yRegsPtr->PRS = PwmFreq & 0xffffU;
 2719              		.loc 1 983 0
 2720 0010 7B68     		ldr	r3, [r7, #4]
 2721 0012 5A6B     		ldr	r2, [r3, #52]
 2722 0014 3B68     		ldr	r3, [r7, #0]
 2723 0016 4FEA0343 		lsl	r3, r3, #16
 2724 001a 4FEA1343 		lsr	r3, r3, #16
 2725 001e 5363     		str	r3, [r2, #52]
 984:../Dave/Generated/src/LIBS/CCU8PWMLIB.c ****     if (HandlePtr->kTimerConcatenation == (uint8_t)SET)
 2726              		.loc 1 984 0
 2727 0020 7B68     		ldr	r3, [r7, #4]
 2728 0022 DB79     		ldrb	r3, [r3, #7]	@ zero_extendqisi2
 2729 0024 012B     		cmp	r3, #1
 2730 0026 0DD1     		bne	.L88
 985:../Dave/Generated/src/LIBS/CCU8PWMLIB.c ****     {
 986:../Dave/Generated/src/LIBS/CCU8PWMLIB.c ****       HandlePtr->CC8yRegs1Ptr->PRS = ((PwmFreq & 0xffff0000U) >> 16UL);
 2731              		.loc 1 986 0
 2732 0028 7B68     		ldr	r3, [r7, #4]
 2733 002a 9B6B     		ldr	r3, [r3, #56]
 2734 002c 3A68     		ldr	r2, [r7, #0]
 2735 002e 4FEA1242 		lsr	r2, r2, #16
 2736 0032 5A63     		str	r2, [r3, #52]
 987:../Dave/Generated/src/LIBS/CCU8PWMLIB.c ****       HandlePtr->CC8yRegsPtr->PRS = (PwmFreq & 0xffffU);
 2737              		.loc 1 987 0
 2738 0034 7B68     		ldr	r3, [r7, #4]
 2739 0036 5A6B     		ldr	r2, [r3, #52]
 2740 0038 3B68     		ldr	r3, [r7, #0]
 2741 003a 4FEA0343 		lsl	r3, r3, #16
 2742 003e 4FEA1343 		lsr	r3, r3, #16
 2743 0042 5363     		str	r3, [r2, #52]
 2744              	.L88:
 988:../Dave/Generated/src/LIBS/CCU8PWMLIB.c ****     }
 989:../Dave/Generated/src/LIBS/CCU8PWMLIB.c ****     /*<<<DD_CCU8PWMLIB_API_6_2>>>*/
 990:../Dave/Generated/src/LIBS/CCU8PWMLIB.c **** 
 991:../Dave/Generated/src/LIBS/CCU8PWMLIB.c ****     /*<<<DD_CCU8PWMLIB_API_6_3>>*/
 992:../Dave/Generated/src/LIBS/CCU8PWMLIB.c **** 
 993:../Dave/Generated/src/LIBS/CCU8PWMLIB.c ****     /*Request for shadow transfer*/
 994:../Dave/Generated/src/LIBS/CCU8PWMLIB.c ****     Status = CCU8PWMLIB_SWRequestShadowTransfer(HandlePtr);
 2745              		.loc 1 994 0
 2746 0044 7868     		ldr	r0, [r7, #4]
 2747 0046 FFF7FEFF 		bl	CCU8PWMLIB_SWRequestShadowTransfer
 2748 004a F860     		str	r0, [r7, #12]
 995:../Dave/Generated/src/LIBS/CCU8PWMLIB.c ****    
 996:../Dave/Generated/src/LIBS/CCU8PWMLIB.c **** 
 997:../Dave/Generated/src/LIBS/CCU8PWMLIB.c ****     return Status;
 2749              		.loc 1 997 0
 2750 004c FB68     		ldr	r3, [r7, #12]
 998:../Dave/Generated/src/LIBS/CCU8PWMLIB.c **** }
 2751              		.loc 1 998 0
 2752 004e 1846     		mov	r0, r3
 2753 0050 07F11007 		add	r7, r7, #16
 2754 0054 BD46     		mov	sp, r7
 2755 0056 80BD     		pop	{r7, pc}
 2756              		.cfi_endproc
 2757              	.LFE153:
 2759              		.section	.text.CCU8PWMLIB_SetPwmFreqAndDutyCycle,"ax",%progbits
 2760              		.align	2
 2761              		.global	CCU8PWMLIB_SetPwmFreqAndDutyCycle
 2762              		.thumb
 2763              		.thumb_func
 2765              	CCU8PWMLIB_SetPwmFreqAndDutyCycle:
 2766              	.LFB154:
 999:../Dave/Generated/src/LIBS/CCU8PWMLIB.c **** 
1000:../Dave/Generated/src/LIBS/CCU8PWMLIB.c **** /* This function changes the PWM frequency */
1001:../Dave/Generated/src/LIBS/CCU8PWMLIB.c **** status_t CCU8PWMLIB_SetPwmFreqAndDutyCycle
1002:../Dave/Generated/src/LIBS/CCU8PWMLIB.c **** (
1003:../Dave/Generated/src/LIBS/CCU8PWMLIB.c ****   const CCU8PWMLIB_HandleType* HandlePtr,
1004:../Dave/Generated/src/LIBS/CCU8PWMLIB.c ****   float PwmFreq,
1005:../Dave/Generated/src/LIBS/CCU8PWMLIB.c ****   float DutyCycle,
1006:../Dave/Generated/src/LIBS/CCU8PWMLIB.c ****   uint32_t Shift,
1007:../Dave/Generated/src/LIBS/CCU8PWMLIB.c ****   uint8_t Sign
1008:../Dave/Generated/src/LIBS/CCU8PWMLIB.c **** )
1009:../Dave/Generated/src/LIBS/CCU8PWMLIB.c **** {
 2767              		.loc 1 1009 0
 2768              		.cfi_startproc
 2769              		@ args = 4, pretend = 0, frame = 24
 2770              		@ frame_needed = 1, uses_anonymous_args = 0
 2771 0000 90B5     		push	{r4, r7, lr}
 2772              	.LCFI57:
 2773              		.cfi_def_cfa_offset 12
 2774              		.cfi_offset 4, -12
 2775              		.cfi_offset 7, -8
 2776              		.cfi_offset 14, -4
 2777 0002 87B0     		sub	sp, sp, #28
 2778              	.LCFI58:
 2779              		.cfi_def_cfa_offset 40
 2780 0004 00AF     		add	r7, sp, #0
 2781              	.LCFI59:
 2782              		.cfi_def_cfa_register 7
 2783 0006 F860     		str	r0, [r7, #12]
 2784 0008 B960     		str	r1, [r7, #8]	@ float
 2785 000a 7A60     		str	r2, [r7, #4]	@ float
 2786 000c 3B60     		str	r3, [r7, #0]
1010:../Dave/Generated/src/LIBS/CCU8PWMLIB.c ****   status_t Status = (uint32_t)CCU8PWMLIB_OPER_NOT_ALLOWED_ERROR;
 2787              		.loc 1 1010 0
 2788 000e 4FF00103 		mov	r3, #1
 2789 0012 7B61     		str	r3, [r7, #20]
1011:../Dave/Generated/src/LIBS/CCU8PWMLIB.c ****   uint32_t PwmTime = 0UL;
 2790              		.loc 1 1011 0
 2791 0014 4FF00003 		mov	r3, #0
 2792 0018 3B61     		str	r3, [r7, #16]
1012:../Dave/Generated/src/LIBS/CCU8PWMLIB.c **** 
1013:../Dave/Generated/src/LIBS/CCU8PWMLIB.c ****   do
1014:../Dave/Generated/src/LIBS/CCU8PWMLIB.c ****   {
1015:../Dave/Generated/src/LIBS/CCU8PWMLIB.c **** /* Find the time required for given frequency and then the period register value
1016:../Dave/Generated/src/LIBS/CCU8PWMLIB.c ****  * depending upon edge-aligned or center-aligned
1017:../Dave/Generated/src/LIBS/CCU8PWMLIB.c ****  */
1018:../Dave/Generated/src/LIBS/CCU8PWMLIB.c **** 
1019:../Dave/Generated/src/LIBS/CCU8PWMLIB.c ****     PwmTime = (uint32_t)((1000000000) / (HandlePtr->kResolution * PwmFreq));
 2793              		.loc 1 1019 0
 2794 001a FB68     		ldr	r3, [r7, #12]
 2795 001c 93ED067A 		flds	s14, [r3, #24]
 2796 0020 D7ED027A 		flds	s15, [r7, #8]
 2797 0024 67EE277A 		fmuls	s15, s14, s15
 2798 0028 9FED297A 		flds	s14, .L97
 2799 002c C7EE277A 		fdivs	s15, s14, s15
 2800 0030 FCEEE77A 		ftouizs	s15, s15
 2801 0034 C7ED047A 		fsts	s15, [r7, #16]	@ int
1020:../Dave/Generated/src/LIBS/CCU8PWMLIB.c **** 
1021:../Dave/Generated/src/LIBS/CCU8PWMLIB.c ****     if(HandlePtr->kTimerConcatenation == (uint8_t)RESET)
 2802              		.loc 1 1021 0
 2803 0038 FB68     		ldr	r3, [r7, #12]
 2804 003a DB79     		ldrb	r3, [r3, #7]	@ zero_extendqisi2
 2805 003c 002B     		cmp	r3, #0
 2806 003e 2ED1     		bne	.L91
1022:../Dave/Generated/src/LIBS/CCU8PWMLIB.c ****     {
1023:../Dave/Generated/src/LIBS/CCU8PWMLIB.c ****       if(HandlePtr->CountingMode == CCU8PWMLIB_EDGE_ALIGNED)
 2807              		.loc 1 1023 0
 2808 0040 FB68     		ldr	r3, [r7, #12]
 2809 0042 93F84030 		ldrb	r3, [r3, #64]	@ zero_extendqisi2
 2810 0046 002B     		cmp	r3, #0
 2811 0048 0FD1     		bne	.L92
1024:../Dave/Generated/src/LIBS/CCU8PWMLIB.c ****       {
1025:../Dave/Generated/src/LIBS/CCU8PWMLIB.c ****     	  if(PwmTime > CCU8PWMLIB_MAX_VALUE)
 2812              		.loc 1 1025 0
 2813 004a 3A69     		ldr	r2, [r7, #16]
 2814 004c 4FF6FF73 		movw	r3, #65535
 2815 0050 9A42     		cmp	r2, r3
 2816 0052 03D9     		bls	.L93
1026:../Dave/Generated/src/LIBS/CCU8PWMLIB.c ****     		  Status = (uint32_t)CCU8PWMLIB_INVALID_PARAM_ERROR;
 2817              		.loc 1 1026 0
 2818 0054 4FF00203 		mov	r3, #2
 2819 0058 7B61     		str	r3, [r7, #20]
 2820 005a 20E0     		b	.L91
 2821              	.L93:
1027:../Dave/Generated/src/LIBS/CCU8PWMLIB.c ****     	  else
1028:../Dave/Generated/src/LIBS/CCU8PWMLIB.c ****     	      HandlePtr->CC8yRegsPtr->PRS = PwmTime - 1U;
 2822              		.loc 1 1028 0
 2823 005c FB68     		ldr	r3, [r7, #12]
 2824 005e 5B6B     		ldr	r3, [r3, #52]
 2825 0060 3A69     		ldr	r2, [r7, #16]
 2826 0062 02F1FF32 		add	r2, r2, #-1
 2827 0066 5A63     		str	r2, [r3, #52]
 2828 0068 19E0     		b	.L91
 2829              	.L92:
1029:../Dave/Generated/src/LIBS/CCU8PWMLIB.c ****       } /* End of "if(HandlePtr->CountingMode == CCU8PWMLIB_EDGE_ALIGNED)" */
1030:../Dave/Generated/src/LIBS/CCU8PWMLIB.c ****       else if(HandlePtr->CountingMode == CCU8PWMLIB_CENTER_ALIGNED)
 2830              		.loc 1 1030 0
 2831 006a FB68     		ldr	r3, [r7, #12]
 2832 006c 93F84030 		ldrb	r3, [r3, #64]	@ zero_extendqisi2
 2833 0070 012B     		cmp	r3, #1
 2834 0072 14D1     		bne	.L91
1031:../Dave/Generated/src/LIBS/CCU8PWMLIB.c ****       {
1032:../Dave/Generated/src/LIBS/CCU8PWMLIB.c ****     	  if(((PwmTime - 1U) >> 1U) > CCU8PWMLIB_MAX_VALUE)
 2835              		.loc 1 1032 0
 2836 0074 3B69     		ldr	r3, [r7, #16]
 2837 0076 03F1FF33 		add	r3, r3, #-1
 2838 007a 4FEA5302 		lsr	r2, r3, #1
 2839 007e 4FF6FF73 		movw	r3, #65535
 2840 0082 9A42     		cmp	r2, r3
 2841 0084 03D9     		bls	.L94
1033:../Dave/Generated/src/LIBS/CCU8PWMLIB.c ****     	      Status = (uint32_t)CCU8PWMLIB_INVALID_PARAM_ERROR;
 2842              		.loc 1 1033 0
 2843 0086 4FF00203 		mov	r3, #2
 2844 008a 7B61     		str	r3, [r7, #20]
 2845 008c 07E0     		b	.L91
 2846              	.L94:
1034:../Dave/Generated/src/LIBS/CCU8PWMLIB.c ****     	  else
1035:../Dave/Generated/src/LIBS/CCU8PWMLIB.c ****     		  HandlePtr->CC8yRegsPtr->PRS = (PwmTime - 1U) >> 1U;
 2847              		.loc 1 1035 0
 2848 008e FB68     		ldr	r3, [r7, #12]
 2849 0090 5B6B     		ldr	r3, [r3, #52]
 2850 0092 3A69     		ldr	r2, [r7, #16]
 2851 0094 02F1FF32 		add	r2, r2, #-1
 2852 0098 4FEA5202 		lsr	r2, r2, #1
 2853 009c 5A63     		str	r2, [r3, #52]
 2854              	.L91:
1036:../Dave/Generated/src/LIBS/CCU8PWMLIB.c ****       }/* End of "else if(HandlePtr->CountingMode == CCU8PWMLIB_CENTER_ALIGNED)" */
1037:../Dave/Generated/src/LIBS/CCU8PWMLIB.c ****       else
1038:../Dave/Generated/src/LIBS/CCU8PWMLIB.c ****       {}  
1039:../Dave/Generated/src/LIBS/CCU8PWMLIB.c ****     } /* End of "if(HandlePtr->kTimerConcatenation == (uint8_t)RESET)" */
1040:../Dave/Generated/src/LIBS/CCU8PWMLIB.c **** 
1041:../Dave/Generated/src/LIBS/CCU8PWMLIB.c ****     if(HandlePtr->kTimerConcatenation == (uint8_t)SET)
 2855              		.loc 1 1041 0
 2856 009e FB68     		ldr	r3, [r7, #12]
 2857 00a0 DB79     		ldrb	r3, [r3, #7]	@ zero_extendqisi2
 2858 00a2 012B     		cmp	r3, #1
 2859 00a4 04D1     		bne	.L95
1042:../Dave/Generated/src/LIBS/CCU8PWMLIB.c ****     {
1043:../Dave/Generated/src/LIBS/CCU8PWMLIB.c ****       Status = CCU8PWMLIB_lSetPwmFreqTimerConcat(HandlePtr, PwmTime);
 2860              		.loc 1 1043 0
 2861 00a6 F868     		ldr	r0, [r7, #12]
 2862 00a8 3969     		ldr	r1, [r7, #16]
 2863 00aa FFF7FEFF 		bl	CCU8PWMLIB_lSetPwmFreqTimerConcat
 2864 00ae 7861     		str	r0, [r7, #20]
 2865              	.L95:
1044:../Dave/Generated/src/LIBS/CCU8PWMLIB.c ****     }
1045:../Dave/Generated/src/LIBS/CCU8PWMLIB.c ****   } while (0);
1046:../Dave/Generated/src/LIBS/CCU8PWMLIB.c **** 
1047:../Dave/Generated/src/LIBS/CCU8PWMLIB.c ****   /* Call the function as per configured mode and request shadow transfer*/
1048:../Dave/Generated/src/LIBS/CCU8PWMLIB.c ****   Status = HandlePtr->SetDutyFuncPtr((void*)HandlePtr, DutyCycle, Shift, Sign);
 2866              		.loc 1 1048 0
 2867 00b0 FB68     		ldr	r3, [r7, #12]
 2868 00b2 9C6D     		ldr	r4, [r3, #88]
 2869 00b4 97F82830 		ldrb	r3, [r7, #40]	@ zero_extendqisi2
 2870 00b8 F868     		ldr	r0, [r7, #12]
 2871 00ba 7968     		ldr	r1, [r7, #4]	@ float
 2872 00bc 3A68     		ldr	r2, [r7, #0]
 2873 00be A047     		blx	r4
 2874 00c0 7861     		str	r0, [r7, #20]
1049:../Dave/Generated/src/LIBS/CCU8PWMLIB.c ****   return Status;
 2875              		.loc 1 1049 0
 2876 00c2 7B69     		ldr	r3, [r7, #20]
1050:../Dave/Generated/src/LIBS/CCU8PWMLIB.c **** }
 2877              		.loc 1 1050 0
 2878 00c4 1846     		mov	r0, r3
 2879 00c6 07F11C07 		add	r7, r7, #28
 2880 00ca BD46     		mov	sp, r7
 2881 00cc 90BD     		pop	{r4, r7, pc}
 2882              	.L98:
 2883 00ce 00BF     		.align	2
 2884              	.L97:
 2885 00d0 286B6E4E 		.word	1315859240
 2886              		.cfi_endproc
 2887              	.LFE154:
 2889              		.section	.text.CCU8PWMLIB_SetPwmFreq,"ax",%progbits
 2890              		.align	2
 2891              		.global	CCU8PWMLIB_SetPwmFreq
 2892              		.thumb
 2893              		.thumb_func
 2895              	CCU8PWMLIB_SetPwmFreq:
 2896              	.LFB155:
1051:../Dave/Generated/src/LIBS/CCU8PWMLIB.c **** 
1052:../Dave/Generated/src/LIBS/CCU8PWMLIB.c **** 
1053:../Dave/Generated/src/LIBS/CCU8PWMLIB.c **** /*<<<DD_CCU8PWMLIB_API_16>>>*/
1054:../Dave/Generated/src/LIBS/CCU8PWMLIB.c **** /* This function changes the PWM frequency */
1055:../Dave/Generated/src/LIBS/CCU8PWMLIB.c **** status_t CCU8PWMLIB_SetPwmFreq
1056:../Dave/Generated/src/LIBS/CCU8PWMLIB.c **** (
1057:../Dave/Generated/src/LIBS/CCU8PWMLIB.c ****   const CCU8PWMLIB_HandleType* HandlePtr,
1058:../Dave/Generated/src/LIBS/CCU8PWMLIB.c ****   float PwmFreq
1059:../Dave/Generated/src/LIBS/CCU8PWMLIB.c **** )
1060:../Dave/Generated/src/LIBS/CCU8PWMLIB.c **** {
 2897              		.loc 1 1060 0
 2898              		.cfi_startproc
 2899              		@ args = 0, pretend = 0, frame = 16
 2900              		@ frame_needed = 1, uses_anonymous_args = 0
 2901 0000 80B5     		push	{r7, lr}
 2902              	.LCFI60:
 2903              		.cfi_def_cfa_offset 8
 2904              		.cfi_offset 7, -8
 2905              		.cfi_offset 14, -4
 2906 0002 84B0     		sub	sp, sp, #16
 2907              	.LCFI61:
 2908              		.cfi_def_cfa_offset 24
 2909 0004 00AF     		add	r7, sp, #0
 2910              	.LCFI62:
 2911              		.cfi_def_cfa_register 7
 2912 0006 7860     		str	r0, [r7, #4]
 2913 0008 3960     		str	r1, [r7, #0]	@ float
1061:../Dave/Generated/src/LIBS/CCU8PWMLIB.c ****   status_t Status = (uint32_t)CCU8PWMLIB_OPER_NOT_ALLOWED_ERROR;
 2914              		.loc 1 1061 0
 2915 000a 4FF00103 		mov	r3, #1
 2916 000e FB60     		str	r3, [r7, #12]
1062:../Dave/Generated/src/LIBS/CCU8PWMLIB.c ****   uint32_t PwmTime = 0UL;
 2917              		.loc 1 1062 0
 2918 0010 4FF00003 		mov	r3, #0
 2919 0014 BB60     		str	r3, [r7, #8]
1063:../Dave/Generated/src/LIBS/CCU8PWMLIB.c **** 
1064:../Dave/Generated/src/LIBS/CCU8PWMLIB.c ****   do
1065:../Dave/Generated/src/LIBS/CCU8PWMLIB.c ****   {
1066:../Dave/Generated/src/LIBS/CCU8PWMLIB.c **** /* Find the time required for given frequency and then the period register value
1067:../Dave/Generated/src/LIBS/CCU8PWMLIB.c ****  * depending upon edge-aligned or center-aligned
1068:../Dave/Generated/src/LIBS/CCU8PWMLIB.c ****  */
1069:../Dave/Generated/src/LIBS/CCU8PWMLIB.c **** 
1070:../Dave/Generated/src/LIBS/CCU8PWMLIB.c ****     PwmTime = (uint32_t)((1000000000) / (HandlePtr->kResolution * PwmFreq));
 2920              		.loc 1 1070 0
 2921 0016 7B68     		ldr	r3, [r7, #4]
 2922 0018 93ED067A 		flds	s14, [r3, #24]
 2923 001c D7ED007A 		flds	s15, [r7, #0]
 2924 0020 67EE277A 		fmuls	s15, s14, s15
 2925 0024 9FED287A 		flds	s14, .L107
 2926 0028 C7EE277A 		fdivs	s15, s14, s15
 2927 002c FCEEE77A 		ftouizs	s15, s15
 2928 0030 C7ED027A 		fsts	s15, [r7, #8]	@ int
1071:../Dave/Generated/src/LIBS/CCU8PWMLIB.c **** 
1072:../Dave/Generated/src/LIBS/CCU8PWMLIB.c ****     if(HandlePtr->kTimerConcatenation == (uint8_t)RESET)
 2929              		.loc 1 1072 0
 2930 0034 7B68     		ldr	r3, [r7, #4]
 2931 0036 DB79     		ldrb	r3, [r3, #7]	@ zero_extendqisi2
 2932 0038 002B     		cmp	r3, #0
 2933 003a 32D1     		bne	.L100
1073:../Dave/Generated/src/LIBS/CCU8PWMLIB.c **** 	{
1074:../Dave/Generated/src/LIBS/CCU8PWMLIB.c **** 	  if(HandlePtr->CountingMode == CCU8PWMLIB_EDGE_ALIGNED)
 2934              		.loc 1 1074 0
 2935 003c 7B68     		ldr	r3, [r7, #4]
 2936 003e 93F84030 		ldrb	r3, [r3, #64]	@ zero_extendqisi2
 2937 0042 002B     		cmp	r3, #0
 2938 0044 0FD1     		bne	.L101
1075:../Dave/Generated/src/LIBS/CCU8PWMLIB.c **** 	  {
1076:../Dave/Generated/src/LIBS/CCU8PWMLIB.c **** 		  if(PwmTime > CCU8PWMLIB_MAX_VALUE)
 2939              		.loc 1 1076 0
 2940 0046 BA68     		ldr	r2, [r7, #8]
 2941 0048 4FF6FF73 		movw	r3, #65535
 2942 004c 9A42     		cmp	r2, r3
 2943 004e 03D9     		bls	.L102
1077:../Dave/Generated/src/LIBS/CCU8PWMLIB.c **** 			  Status = (uint32_t)CCU8PWMLIB_INVALID_PARAM_ERROR;
 2944              		.loc 1 1077 0
 2945 0050 4FF00203 		mov	r3, #2
 2946 0054 FB60     		str	r3, [r7, #12]
 2947 0056 20E0     		b	.L103
 2948              	.L102:
1078:../Dave/Generated/src/LIBS/CCU8PWMLIB.c **** 		  else
1079:../Dave/Generated/src/LIBS/CCU8PWMLIB.c **** 			  HandlePtr->CC8yRegsPtr->PRS = PwmTime - 1U;
 2949              		.loc 1 1079 0
 2950 0058 7B68     		ldr	r3, [r7, #4]
 2951 005a 5B6B     		ldr	r3, [r3, #52]
 2952 005c BA68     		ldr	r2, [r7, #8]
 2953 005e 02F1FF32 		add	r2, r2, #-1
 2954 0062 5A63     		str	r2, [r3, #52]
 2955 0064 19E0     		b	.L103
 2956              	.L101:
1080:../Dave/Generated/src/LIBS/CCU8PWMLIB.c **** 	  } /* End of "if(HandlePtr->CountingMode == CCU8PWMLIB_EDGE_ALIGNED)" */
1081:../Dave/Generated/src/LIBS/CCU8PWMLIB.c **** 	  else if(HandlePtr->CountingMode == CCU8PWMLIB_CENTER_ALIGNED)
 2957              		.loc 1 1081 0
 2958 0066 7B68     		ldr	r3, [r7, #4]
 2959 0068 93F84030 		ldrb	r3, [r3, #64]	@ zero_extendqisi2
 2960 006c 012B     		cmp	r3, #1
 2961 006e 14D1     		bne	.L103
1082:../Dave/Generated/src/LIBS/CCU8PWMLIB.c **** 	  {
1083:../Dave/Generated/src/LIBS/CCU8PWMLIB.c **** 		  if(((PwmTime - 1U) >> 1U) > CCU8PWMLIB_MAX_VALUE)
 2962              		.loc 1 1083 0
 2963 0070 BB68     		ldr	r3, [r7, #8]
 2964 0072 03F1FF33 		add	r3, r3, #-1
 2965 0076 4FEA5302 		lsr	r2, r3, #1
 2966 007a 4FF6FF73 		movw	r3, #65535
 2967 007e 9A42     		cmp	r2, r3
 2968 0080 03D9     		bls	.L104
1084:../Dave/Generated/src/LIBS/CCU8PWMLIB.c **** 			 Status = (uint32_t)CCU8PWMLIB_INVALID_PARAM_ERROR;
 2969              		.loc 1 1084 0
 2970 0082 4FF00203 		mov	r3, #2
 2971 0086 FB60     		str	r3, [r7, #12]
 2972 0088 07E0     		b	.L103
 2973              	.L104:
1085:../Dave/Generated/src/LIBS/CCU8PWMLIB.c **** 		  else
1086:../Dave/Generated/src/LIBS/CCU8PWMLIB.c **** 			 HandlePtr->CC8yRegsPtr->PRS = (PwmTime - 1U) >> 1U;
 2974              		.loc 1 1086 0
 2975 008a 7B68     		ldr	r3, [r7, #4]
 2976 008c 5B6B     		ldr	r3, [r3, #52]
 2977 008e BA68     		ldr	r2, [r7, #8]
 2978 0090 02F1FF32 		add	r2, r2, #-1
 2979 0094 4FEA5202 		lsr	r2, r2, #1
 2980 0098 5A63     		str	r2, [r3, #52]
 2981              	.L103:
1087:../Dave/Generated/src/LIBS/CCU8PWMLIB.c **** 	  }/* End of "else if(HandlePtr->CountingMode == CCU8PWMLIB_CENTER_ALIGNED)" */
1088:../Dave/Generated/src/LIBS/CCU8PWMLIB.c **** 	  else
1089:../Dave/Generated/src/LIBS/CCU8PWMLIB.c **** 	  {    	  
1090:../Dave/Generated/src/LIBS/CCU8PWMLIB.c **** 	  }
1091:../Dave/Generated/src/LIBS/CCU8PWMLIB.c ****    /*Request for shadow transfer*/
1092:../Dave/Generated/src/LIBS/CCU8PWMLIB.c ****   Status = CCU8PWMLIB_SWRequestShadowTransfer(HandlePtr);
 2982              		.loc 1 1092 0
 2983 009a 7868     		ldr	r0, [r7, #4]
 2984 009c FFF7FEFF 		bl	CCU8PWMLIB_SWRequestShadowTransfer
 2985 00a0 F860     		str	r0, [r7, #12]
 2986              	.L100:
1093:../Dave/Generated/src/LIBS/CCU8PWMLIB.c ****     } /* End of "if(HandlePtr->kTimerConcatenation == (uint8_t)RESET)" */
1094:../Dave/Generated/src/LIBS/CCU8PWMLIB.c **** 
1095:../Dave/Generated/src/LIBS/CCU8PWMLIB.c ****     if(HandlePtr->kTimerConcatenation == (uint8_t)SET)
 2987              		.loc 1 1095 0
 2988 00a2 7B68     		ldr	r3, [r7, #4]
 2989 00a4 DB79     		ldrb	r3, [r3, #7]	@ zero_extendqisi2
 2990 00a6 012B     		cmp	r3, #1
 2991 00a8 08D1     		bne	.L105
1096:../Dave/Generated/src/LIBS/CCU8PWMLIB.c ****     {
1097:../Dave/Generated/src/LIBS/CCU8PWMLIB.c ****       Status = CCU8PWMLIB_lSetPwmFreqTimerConcat(HandlePtr, PwmTime);
 2992              		.loc 1 1097 0
 2993 00aa 7868     		ldr	r0, [r7, #4]
 2994 00ac B968     		ldr	r1, [r7, #8]
 2995 00ae FFF7FEFF 		bl	CCU8PWMLIB_lSetPwmFreqTimerConcat
 2996 00b2 F860     		str	r0, [r7, #12]
1098:../Dave/Generated/src/LIBS/CCU8PWMLIB.c ****       /*Request for shadow transfer*/
1099:../Dave/Generated/src/LIBS/CCU8PWMLIB.c ****       Status = CCU8PWMLIB_SWRequestShadowTransfer(HandlePtr);
 2997              		.loc 1 1099 0
 2998 00b4 7868     		ldr	r0, [r7, #4]
 2999 00b6 FFF7FEFF 		bl	CCU8PWMLIB_SWRequestShadowTransfer
 3000 00ba F860     		str	r0, [r7, #12]
 3001              	.L105:
1100:../Dave/Generated/src/LIBS/CCU8PWMLIB.c ****     }
1101:../Dave/Generated/src/LIBS/CCU8PWMLIB.c ****   } while (0);
1102:../Dave/Generated/src/LIBS/CCU8PWMLIB.c **** 
1103:../Dave/Generated/src/LIBS/CCU8PWMLIB.c **** 
1104:../Dave/Generated/src/LIBS/CCU8PWMLIB.c ****   return Status;
 3002              		.loc 1 1104 0
 3003 00bc FB68     		ldr	r3, [r7, #12]
1105:../Dave/Generated/src/LIBS/CCU8PWMLIB.c **** }
 3004              		.loc 1 1105 0
 3005 00be 1846     		mov	r0, r3
 3006 00c0 07F11007 		add	r7, r7, #16
 3007 00c4 BD46     		mov	sp, r7
 3008 00c6 80BD     		pop	{r7, pc}
 3009              	.L108:
 3010              		.align	2
 3011              	.L107:
 3012 00c8 286B6E4E 		.word	1315859240
 3013              		.cfi_endproc
 3014              	.LFE155:
 3016              		.section	.text.CCU8PWMLIB_lSetPwmFreqTimerConcat,"ax",%progbits
 3017              		.align	2
 3018              		.global	CCU8PWMLIB_lSetPwmFreqTimerConcat
 3019              		.thumb
 3020              		.thumb_func
 3022              	CCU8PWMLIB_lSetPwmFreqTimerConcat:
 3023              	.LFB156:
1106:../Dave/Generated/src/LIBS/CCU8PWMLIB.c **** 
1107:../Dave/Generated/src/LIBS/CCU8PWMLIB.c **** /**
1108:../Dave/Generated/src/LIBS/CCU8PWMLIB.c ****  * This is the private function to set the period register if timer concatenation is enabled
1109:../Dave/Generated/src/LIBS/CCU8PWMLIB.c ****  */
1110:../Dave/Generated/src/LIBS/CCU8PWMLIB.c **** status_t CCU8PWMLIB_lSetPwmFreqTimerConcat
1111:../Dave/Generated/src/LIBS/CCU8PWMLIB.c **** (
1112:../Dave/Generated/src/LIBS/CCU8PWMLIB.c ****     const CCU8PWMLIB_HandleType* HandlePtr,
1113:../Dave/Generated/src/LIBS/CCU8PWMLIB.c ****     uint32_t PwmTime
1114:../Dave/Generated/src/LIBS/CCU8PWMLIB.c **** )
1115:../Dave/Generated/src/LIBS/CCU8PWMLIB.c **** {
 3024              		.loc 1 1115 0
 3025              		.cfi_startproc
 3026              		@ args = 0, pretend = 0, frame = 32
 3027              		@ frame_needed = 1, uses_anonymous_args = 0
 3028              		@ link register save eliminated.
 3029 0000 80B4     		push	{r7}
 3030              	.LCFI63:
 3031              		.cfi_def_cfa_offset 4
 3032              		.cfi_offset 7, -4
 3033 0002 89B0     		sub	sp, sp, #36
 3034              	.LCFI64:
 3035              		.cfi_def_cfa_offset 40
 3036 0004 00AF     		add	r7, sp, #0
 3037              	.LCFI65:
 3038              		.cfi_def_cfa_register 7
 3039 0006 7860     		str	r0, [r7, #4]
 3040 0008 3960     		str	r1, [r7, #0]
1116:../Dave/Generated/src/LIBS/CCU8PWMLIB.c ****   uint32_t PeriodVal = PwmTime;
 3041              		.loc 1 1116 0
 3042 000a 3B68     		ldr	r3, [r7, #0]
 3043 000c FB61     		str	r3, [r7, #28]
1117:../Dave/Generated/src/LIBS/CCU8PWMLIB.c ****   uint32_t MsbPeriodVal, LsbPeriodVal;
1118:../Dave/Generated/src/LIBS/CCU8PWMLIB.c ****   uint8_t Count = 0U;
 3044              		.loc 1 1118 0
 3045 000e 4FF00003 		mov	r3, #0
 3046 0012 FB74     		strb	r3, [r7, #19]
1119:../Dave/Generated/src/LIBS/CCU8PWMLIB.c ****   status_t Status = (uint32_t)CCU8PWMLIB_OPER_NOT_ALLOWED_ERROR;
 3047              		.loc 1 1119 0
 3048 0014 4FF00103 		mov	r3, #1
 3049 0018 FB60     		str	r3, [r7, #12]
1120:../Dave/Generated/src/LIBS/CCU8PWMLIB.c **** /*
1121:../Dave/Generated/src/LIBS/CCU8PWMLIB.c ****  * In case of timer concatenation, period value of two slices needs to be found out.
1122:../Dave/Generated/src/LIBS/CCU8PWMLIB.c ****  * Total Period = ((PR1 + 1) * PR2) + 1
1123:../Dave/Generated/src/LIBS/CCU8PWMLIB.c ****  * PR1 is found out by dividing given period time by 2 till the value is less than
1124:../Dave/Generated/src/LIBS/CCU8PWMLIB.c ****  * 65535. Quotient is the period register value of the second slice.
1125:../Dave/Generated/src/LIBS/CCU8PWMLIB.c ****  */
1126:../Dave/Generated/src/LIBS/CCU8PWMLIB.c ****   if(PwmTime > CCU8PWMLIB_MAX_VALUE)
 3050              		.loc 1 1126 0
 3051 001a 3A68     		ldr	r2, [r7, #0]
 3052 001c 4FF6FF73 		movw	r3, #65535
 3053 0020 9A42     		cmp	r2, r3
 3054 0022 17D9     		bls	.L110
 3055              	.L111:
1127:../Dave/Generated/src/LIBS/CCU8PWMLIB.c ****   {
1128:../Dave/Generated/src/LIBS/CCU8PWMLIB.c ****     do
1129:../Dave/Generated/src/LIBS/CCU8PWMLIB.c ****     {
1130:../Dave/Generated/src/LIBS/CCU8PWMLIB.c ****       PeriodVal = PeriodVal >> 1U;
 3056              		.loc 1 1130 0 discriminator 1
 3057 0024 FB69     		ldr	r3, [r7, #28]
 3058 0026 4FEA5303 		lsr	r3, r3, #1
 3059 002a FB61     		str	r3, [r7, #28]
1131:../Dave/Generated/src/LIBS/CCU8PWMLIB.c ****       Count++;
 3060              		.loc 1 1131 0 discriminator 1
 3061 002c FB7C     		ldrb	r3, [r7, #19]
 3062 002e 03F10103 		add	r3, r3, #1
 3063 0032 FB74     		strb	r3, [r7, #19]
1132:../Dave/Generated/src/LIBS/CCU8PWMLIB.c ****     }while(PeriodVal >= CCU8PWMLIB_MAX_VALUE);
 3064              		.loc 1 1132 0 discriminator 1
 3065 0034 FA69     		ldr	r2, [r7, #28]
 3066 0036 4FF6FE73 		movw	r3, #65534
 3067 003a 9A42     		cmp	r2, r3
 3068 003c F2D8     		bhi	.L111
1133:../Dave/Generated/src/LIBS/CCU8PWMLIB.c ****     MsbPeriodVal = ((uint32_t)1 << Count) -1U;
 3069              		.loc 1 1133 0
 3070 003e FB7C     		ldrb	r3, [r7, #19]	@ zero_extendqisi2
 3071 0040 4FF00102 		mov	r2, #1
 3072 0044 02FA03F3 		lsl	r3, r2, r3
 3073 0048 03F1FF33 		add	r3, r3, #-1
 3074 004c BB61     		str	r3, [r7, #24]
1134:../Dave/Generated/src/LIBS/CCU8PWMLIB.c ****     LsbPeriodVal = PeriodVal;
 3075              		.loc 1 1134 0
 3076 004e FB69     		ldr	r3, [r7, #28]
 3077 0050 7B61     		str	r3, [r7, #20]
 3078 0052 04E0     		b	.L112
 3079              	.L110:
1135:../Dave/Generated/src/LIBS/CCU8PWMLIB.c ****   }
1136:../Dave/Generated/src/LIBS/CCU8PWMLIB.c ****   else
1137:../Dave/Generated/src/LIBS/CCU8PWMLIB.c ****   {
1138:../Dave/Generated/src/LIBS/CCU8PWMLIB.c ****     LsbPeriodVal = PwmTime;
 3080              		.loc 1 1138 0
 3081 0054 3B68     		ldr	r3, [r7, #0]
 3082 0056 7B61     		str	r3, [r7, #20]
1139:../Dave/Generated/src/LIBS/CCU8PWMLIB.c ****     MsbPeriodVal = 0U;
 3083              		.loc 1 1139 0
 3084 0058 4FF00003 		mov	r3, #0
 3085 005c BB61     		str	r3, [r7, #24]
 3086              	.L112:
1140:../Dave/Generated/src/LIBS/CCU8PWMLIB.c ****   }
1141:../Dave/Generated/src/LIBS/CCU8PWMLIB.c ****   /*<<<DD_CCU8PWMLIB_API_16_4>>>*/
1142:../Dave/Generated/src/LIBS/CCU8PWMLIB.c ****   HandlePtr->CC8yRegsPtr->PRS = LsbPeriodVal & 0xffffU;
 3087              		.loc 1 1142 0
 3088 005e 7B68     		ldr	r3, [r7, #4]
 3089 0060 5A6B     		ldr	r2, [r3, #52]
 3090 0062 7B69     		ldr	r3, [r7, #20]
 3091 0064 4FEA0343 		lsl	r3, r3, #16
 3092 0068 4FEA1343 		lsr	r3, r3, #16
 3093 006c 5363     		str	r3, [r2, #52]
1143:../Dave/Generated/src/LIBS/CCU8PWMLIB.c ****   HandlePtr->CC8yRegs1Ptr->PRS = MsbPeriodVal & 0xffffU;
 3094              		.loc 1 1143 0
 3095 006e 7B68     		ldr	r3, [r7, #4]
 3096 0070 9A6B     		ldr	r2, [r3, #56]
 3097 0072 BB69     		ldr	r3, [r7, #24]
 3098 0074 4FEA0343 		lsl	r3, r3, #16
 3099 0078 4FEA1343 		lsr	r3, r3, #16
 3100 007c 5363     		str	r3, [r2, #52]
1144:../Dave/Generated/src/LIBS/CCU8PWMLIB.c ****   /*<<<DD_CCU8PWMLIB_API_16_5>>>*/
1145:../Dave/Generated/src/LIBS/CCU8PWMLIB.c ****   return (Status);
 3101              		.loc 1 1145 0
 3102 007e FB68     		ldr	r3, [r7, #12]
1146:../Dave/Generated/src/LIBS/CCU8PWMLIB.c **** }
 3103              		.loc 1 1146 0
 3104 0080 1846     		mov	r0, r3
 3105 0082 07F12407 		add	r7, r7, #36
 3106 0086 BD46     		mov	sp, r7
 3107 0088 80BC     		pop	{r7}
 3108 008a 7047     		bx	lr
 3109              		.cfi_endproc
 3110              	.LFE156:
 3112              		.section	.text.CCU8PWMLIB_SetTimerVal,"ax",%progbits
 3113              		.align	2
 3114              		.global	CCU8PWMLIB_SetTimerVal
 3115              		.thumb
 3116              		.thumb_func
 3118              	CCU8PWMLIB_SetTimerVal:
 3119              	.LFB157:
1147:../Dave/Generated/src/LIBS/CCU8PWMLIB.c **** 
1148:../Dave/Generated/src/LIBS/CCU8PWMLIB.c **** 
1149:../Dave/Generated/src/LIBS/CCU8PWMLIB.c **** /*<<<DD_CCU8PWMLIB_API_7>>*/
1150:../Dave/Generated/src/LIBS/CCU8PWMLIB.c **** /**
1151:../Dave/Generated/src/LIBS/CCU8PWMLIB.c ****  * This function sets the timer value when timer is not running
1152:../Dave/Generated/src/LIBS/CCU8PWMLIB.c ****  */
1153:../Dave/Generated/src/LIBS/CCU8PWMLIB.c **** status_t CCU8PWMLIB_SetTimerVal
1154:../Dave/Generated/src/LIBS/CCU8PWMLIB.c **** (
1155:../Dave/Generated/src/LIBS/CCU8PWMLIB.c ****   const CCU8PWMLIB_HandleType* HandlePtr,
1156:../Dave/Generated/src/LIBS/CCU8PWMLIB.c ****   uint32_t TimerVal
1157:../Dave/Generated/src/LIBS/CCU8PWMLIB.c **** )
1158:../Dave/Generated/src/LIBS/CCU8PWMLIB.c **** {
 3120              		.loc 1 1158 0
 3121              		.cfi_startproc
 3122              		@ args = 0, pretend = 0, frame = 16
 3123              		@ frame_needed = 1, uses_anonymous_args = 0
 3124              		@ link register save eliminated.
 3125 0000 80B4     		push	{r7}
 3126              	.LCFI66:
 3127              		.cfi_def_cfa_offset 4
 3128              		.cfi_offset 7, -4
 3129 0002 85B0     		sub	sp, sp, #20
 3130              	.LCFI67:
 3131              		.cfi_def_cfa_offset 24
 3132 0004 00AF     		add	r7, sp, #0
 3133              	.LCFI68:
 3134              		.cfi_def_cfa_register 7
 3135 0006 7860     		str	r0, [r7, #4]
 3136 0008 3960     		str	r1, [r7, #0]
1159:../Dave/Generated/src/LIBS/CCU8PWMLIB.c ****     status_t Status = (uint32_t)DAVEApp_SUCCESS;
 3137              		.loc 1 1159 0
 3138 000a 4FF00003 		mov	r3, #0
 3139 000e FB60     		str	r3, [r7, #12]
1160:../Dave/Generated/src/LIBS/CCU8PWMLIB.c ****     HandlePtr->CC8yRegsPtr->TIMER = TimerVal & 0xffffU;
 3140              		.loc 1 1160 0
 3141 0010 7B68     		ldr	r3, [r7, #4]
 3142 0012 5A6B     		ldr	r2, [r3, #52]
 3143 0014 3B68     		ldr	r3, [r7, #0]
 3144 0016 4FEA0343 		lsl	r3, r3, #16
 3145 001a 4FEA1343 		lsr	r3, r3, #16
 3146 001e 1367     		str	r3, [r2, #112]
1161:../Dave/Generated/src/LIBS/CCU8PWMLIB.c ****     if (HandlePtr->kTimerConcatenation == (uint8_t)SET)
 3147              		.loc 1 1161 0
 3148 0020 7B68     		ldr	r3, [r7, #4]
 3149 0022 DB79     		ldrb	r3, [r3, #7]	@ zero_extendqisi2
 3150 0024 012B     		cmp	r3, #1
 3151 0026 05D1     		bne	.L115
1162:../Dave/Generated/src/LIBS/CCU8PWMLIB.c ****     {
1163:../Dave/Generated/src/LIBS/CCU8PWMLIB.c ****       HandlePtr->CC8yRegs1Ptr->TIMER= ((TimerVal & 0xffff0000U) >> 16UL);
 3152              		.loc 1 1163 0
 3153 0028 7B68     		ldr	r3, [r7, #4]
 3154 002a 9B6B     		ldr	r3, [r3, #56]
 3155 002c 3A68     		ldr	r2, [r7, #0]
 3156 002e 4FEA1242 		lsr	r2, r2, #16
 3157 0032 1A67     		str	r2, [r3, #112]
 3158              	.L115:
1164:../Dave/Generated/src/LIBS/CCU8PWMLIB.c ****     }
1165:../Dave/Generated/src/LIBS/CCU8PWMLIB.c ****     return Status;
 3159              		.loc 1 1165 0
 3160 0034 FB68     		ldr	r3, [r7, #12]
1166:../Dave/Generated/src/LIBS/CCU8PWMLIB.c **** }
 3161              		.loc 1 1166 0
 3162 0036 1846     		mov	r0, r3
 3163 0038 07F11407 		add	r7, r7, #20
 3164 003c BD46     		mov	sp, r7
 3165 003e 80BC     		pop	{r7}
 3166 0040 7047     		bx	lr
 3167              		.cfi_endproc
 3168              	.LFE157:
 3170 0042 00BF     		.section	.text.CCU8PWMLIB_GetTimerStatus,"ax",%progbits
 3171              		.align	2
 3172              		.global	CCU8PWMLIB_GetTimerStatus
 3173              		.thumb
 3174              		.thumb_func
 3176              	CCU8PWMLIB_GetTimerStatus:
 3177              	.LFB158:
1167:../Dave/Generated/src/LIBS/CCU8PWMLIB.c **** /*<<<DD_CCU8PWMLIB_API_8>>*/
1168:../Dave/Generated/src/LIBS/CCU8PWMLIB.c **** /**
1169:../Dave/Generated/src/LIBS/CCU8PWMLIB.c ****  * This function reads the timer status
1170:../Dave/Generated/src/LIBS/CCU8PWMLIB.c ****  */
1171:../Dave/Generated/src/LIBS/CCU8PWMLIB.c **** status_t CCU8PWMLIB_GetTimerStatus
1172:../Dave/Generated/src/LIBS/CCU8PWMLIB.c **** (
1173:../Dave/Generated/src/LIBS/CCU8PWMLIB.c ****  const CCU8PWMLIB_HandleType* HandlePtr,
1174:../Dave/Generated/src/LIBS/CCU8PWMLIB.c ****  uint32_t* TimerStatusPtr
1175:../Dave/Generated/src/LIBS/CCU8PWMLIB.c **** )
1176:../Dave/Generated/src/LIBS/CCU8PWMLIB.c **** {
 3178              		.loc 1 1176 0
 3179              		.cfi_startproc
 3180              		@ args = 0, pretend = 0, frame = 16
 3181              		@ frame_needed = 1, uses_anonymous_args = 0
 3182              		@ link register save eliminated.
 3183 0000 80B4     		push	{r7}
 3184              	.LCFI69:
 3185              		.cfi_def_cfa_offset 4
 3186              		.cfi_offset 7, -4
 3187 0002 85B0     		sub	sp, sp, #20
 3188              	.LCFI70:
 3189              		.cfi_def_cfa_offset 24
 3190 0004 00AF     		add	r7, sp, #0
 3191              	.LCFI71:
 3192              		.cfi_def_cfa_register 7
 3193 0006 7860     		str	r0, [r7, #4]
 3194 0008 3960     		str	r1, [r7, #0]
1177:../Dave/Generated/src/LIBS/CCU8PWMLIB.c ****   status_t Status = (uint32_t)DAVEApp_SUCCESS;
 3195              		.loc 1 1177 0
 3196 000a 4FF00003 		mov	r3, #0
 3197 000e FB60     		str	r3, [r7, #12]
1178:../Dave/Generated/src/LIBS/CCU8PWMLIB.c ****   uint32_t SecondTimerStatus = 0U;
 3198              		.loc 1 1178 0
 3199 0010 4FF00003 		mov	r3, #0
 3200 0014 BB60     		str	r3, [r7, #8]
1179:../Dave/Generated/src/LIBS/CCU8PWMLIB.c **** 
1180:../Dave/Generated/src/LIBS/CCU8PWMLIB.c **** /* In case of timer concatenation, both the timer status is read */
1181:../Dave/Generated/src/LIBS/CCU8PWMLIB.c ****   if (HandlePtr->kTimerConcatenation == (uint8_t)SET)
 3201              		.loc 1 1181 0
 3202 0016 7B68     		ldr	r3, [r7, #4]
 3203 0018 DB79     		ldrb	r3, [r3, #7]	@ zero_extendqisi2
 3204 001a 012B     		cmp	r3, #1
 3205 001c 0FD1     		bne	.L118
1182:../Dave/Generated/src/LIBS/CCU8PWMLIB.c ****   {
1183:../Dave/Generated/src/LIBS/CCU8PWMLIB.c ****     SecondTimerStatus = (uint32_t)(RD_REG(HandlePtr->CC8yRegs1Ptr->TCST,
 3206              		.loc 1 1183 0
 3207 001e 7B68     		ldr	r3, [r7, #4]
 3208 0020 9B6B     		ldr	r3, [r3, #56]
 3209 0022 9B68     		ldr	r3, [r3, #8]
 3210 0024 03F00103 		and	r3, r3, #1
 3211 0028 BB60     		str	r3, [r7, #8]
1184:../Dave/Generated/src/LIBS/CCU8PWMLIB.c ****                    CCU8_CC8_TCST_TRB_Msk, CCU8_CC8_TCST_TRB_Pos));
1185:../Dave/Generated/src/LIBS/CCU8PWMLIB.c ****     *TimerStatusPtr = (uint32_t)((RD_REG(HandlePtr->CC8yRegsPtr->TCST,
 3212              		.loc 1 1185 0
 3213 002a 7B68     		ldr	r3, [r7, #4]
 3214 002c 5B6B     		ldr	r3, [r3, #52]
 3215 002e 9A68     		ldr	r2, [r3, #8]
 3216 0030 BB68     		ldr	r3, [r7, #8]
 3217 0032 1340     		ands	r3, r3, r2
 3218 0034 03F00102 		and	r2, r3, #1
 3219 0038 3B68     		ldr	r3, [r7, #0]
 3220 003a 1A60     		str	r2, [r3, #0]
 3221 003c 06E0     		b	.L119
 3222              	.L118:
1186:../Dave/Generated/src/LIBS/CCU8PWMLIB.c ****                    CCU8_CC8_TCST_TRB_Msk, CCU8_CC8_TCST_TRB_Pos)) &
1187:../Dave/Generated/src/LIBS/CCU8PWMLIB.c ****                  SecondTimerStatus
1188:../Dave/Generated/src/LIBS/CCU8PWMLIB.c ****                  );
1189:../Dave/Generated/src/LIBS/CCU8PWMLIB.c ****   }
1190:../Dave/Generated/src/LIBS/CCU8PWMLIB.c ****   else
1191:../Dave/Generated/src/LIBS/CCU8PWMLIB.c ****   {
1192:../Dave/Generated/src/LIBS/CCU8PWMLIB.c ****     *TimerStatusPtr = (uint32_t) RD_REG(HandlePtr->CC8yRegsPtr->TCST,
 3223              		.loc 1 1192 0
 3224 003e 7B68     		ldr	r3, [r7, #4]
 3225 0040 5B6B     		ldr	r3, [r3, #52]
 3226 0042 9B68     		ldr	r3, [r3, #8]
 3227 0044 03F00102 		and	r2, r3, #1
 3228 0048 3B68     		ldr	r3, [r7, #0]
 3229 004a 1A60     		str	r2, [r3, #0]
 3230              	.L119:
1193:../Dave/Generated/src/LIBS/CCU8PWMLIB.c ****                          CCU8_CC8_TCST_TRB_Msk, CCU8_CC8_TCST_TRB_Pos);
1194:../Dave/Generated/src/LIBS/CCU8PWMLIB.c ****   }
1195:../Dave/Generated/src/LIBS/CCU8PWMLIB.c ****   return Status;
 3231              		.loc 1 1195 0
 3232 004c FB68     		ldr	r3, [r7, #12]
1196:../Dave/Generated/src/LIBS/CCU8PWMLIB.c **** }
 3233              		.loc 1 1196 0
 3234 004e 1846     		mov	r0, r3
 3235 0050 07F11407 		add	r7, r7, #20
 3236 0054 BD46     		mov	sp, r7
 3237 0056 80BC     		pop	{r7}
 3238 0058 7047     		bx	lr
 3239              		.cfi_endproc
 3240              	.LFE158:
 3242 005a 00BF     		.section	.text.CCU8PWMLIB_GetTimerRegsVal,"ax",%progbits
 3243              		.align	2
 3244              		.global	CCU8PWMLIB_GetTimerRegsVal
 3245              		.thumb
 3246              		.thumb_func
 3248              	CCU8PWMLIB_GetTimerRegsVal:
 3249              	.LFB159:
1197:../Dave/Generated/src/LIBS/CCU8PWMLIB.c **** 
1198:../Dave/Generated/src/LIBS/CCU8PWMLIB.c **** /*<<<DD_CCU8PWMLIB_API_9>>*/
1199:../Dave/Generated/src/LIBS/CCU8PWMLIB.c **** /**
1200:../Dave/Generated/src/LIBS/CCU8PWMLIB.c ****  * This function reads the period, compare register values.
1201:../Dave/Generated/src/LIBS/CCU8PWMLIB.c ****  */
1202:../Dave/Generated/src/LIBS/CCU8PWMLIB.c **** status_t CCU8PWMLIB_GetTimerRegsVal
1203:../Dave/Generated/src/LIBS/CCU8PWMLIB.c **** (
1204:../Dave/Generated/src/LIBS/CCU8PWMLIB.c ****   const CCU8PWMLIB_HandleType* HandlePtr,
1205:../Dave/Generated/src/LIBS/CCU8PWMLIB.c ****   CCU8PWMLIB_TimerRegsType* TimerRegsPtr
1206:../Dave/Generated/src/LIBS/CCU8PWMLIB.c **** )
1207:../Dave/Generated/src/LIBS/CCU8PWMLIB.c **** {
 3250              		.loc 1 1207 0
 3251              		.cfi_startproc
 3252              		@ args = 0, pretend = 0, frame = 16
 3253              		@ frame_needed = 1, uses_anonymous_args = 0
 3254              		@ link register save eliminated.
 3255 0000 80B4     		push	{r7}
 3256              	.LCFI72:
 3257              		.cfi_def_cfa_offset 4
 3258              		.cfi_offset 7, -4
 3259 0002 85B0     		sub	sp, sp, #20
 3260              	.LCFI73:
 3261              		.cfi_def_cfa_offset 24
 3262 0004 00AF     		add	r7, sp, #0
 3263              	.LCFI74:
 3264              		.cfi_def_cfa_register 7
 3265 0006 7860     		str	r0, [r7, #4]
 3266 0008 3960     		str	r1, [r7, #0]
1208:../Dave/Generated/src/LIBS/CCU8PWMLIB.c ****   status_t Status = (uint32_t)DAVEApp_SUCCESS;
 3267              		.loc 1 1208 0
 3268 000a 4FF00003 		mov	r3, #0
 3269 000e FB60     		str	r3, [r7, #12]
1209:../Dave/Generated/src/LIBS/CCU8PWMLIB.c ****   uint32_t ScndSlTMRVal = 0UL;
 3270              		.loc 1 1209 0
 3271 0010 4FF00003 		mov	r3, #0
 3272 0014 BB60     		str	r3, [r7, #8]
1210:../Dave/Generated/src/LIBS/CCU8PWMLIB.c **** 
1211:../Dave/Generated/src/LIBS/CCU8PWMLIB.c **** /*<<<DD_CCU8PWMLIB_API_9_3>>>*/
1212:../Dave/Generated/src/LIBS/CCU8PWMLIB.c ****   if (HandlePtr->kTimerConcatenation == (uint8_t)SET)
 3273              		.loc 1 1212 0
 3274 0016 7B68     		ldr	r3, [r7, #4]
 3275 0018 DB79     		ldrb	r3, [r3, #7]	@ zero_extendqisi2
 3276 001a 012B     		cmp	r3, #1
 3277 001c 4ED1     		bne	.L122
1213:../Dave/Generated/src/LIBS/CCU8PWMLIB.c ****   {
1214:../Dave/Generated/src/LIBS/CCU8PWMLIB.c ****     TimerRegsPtr->CompReg1 = (uint32_t)(HandlePtr->CC8yRegs1Ptr->CR1S);
 3278              		.loc 1 1214 0
 3279 001e 7B68     		ldr	r3, [r7, #4]
 3280 0020 9B6B     		ldr	r3, [r3, #56]
 3281 0022 DA6B     		ldr	r2, [r3, #60]
 3282 0024 3B68     		ldr	r3, [r7, #0]
 3283 0026 1A60     		str	r2, [r3, #0]
1215:../Dave/Generated/src/LIBS/CCU8PWMLIB.c ****     TimerRegsPtr->CompReg1 *=(uint32_t)(HandlePtr->CC8yRegsPtr->PRS);
 3284              		.loc 1 1215 0
 3285 0028 3B68     		ldr	r3, [r7, #0]
 3286 002a 1B68     		ldr	r3, [r3, #0]
 3287 002c 7A68     		ldr	r2, [r7, #4]
 3288 002e 526B     		ldr	r2, [r2, #52]
 3289 0030 526B     		ldr	r2, [r2, #52]
 3290 0032 02FB03F2 		mul	r2, r2, r3
 3291 0036 3B68     		ldr	r3, [r7, #0]
 3292 0038 1A60     		str	r2, [r3, #0]
1216:../Dave/Generated/src/LIBS/CCU8PWMLIB.c ****     TimerRegsPtr->CompReg1 += (uint32_t)(HandlePtr->CC8yRegsPtr->CR1S);                      
 3293              		.loc 1 1216 0
 3294 003a 3B68     		ldr	r3, [r7, #0]
 3295 003c 1A68     		ldr	r2, [r3, #0]
 3296 003e 7B68     		ldr	r3, [r7, #4]
 3297 0040 5B6B     		ldr	r3, [r3, #52]
 3298 0042 DB6B     		ldr	r3, [r3, #60]
 3299 0044 D218     		adds	r2, r2, r3
 3300 0046 3B68     		ldr	r3, [r7, #0]
 3301 0048 1A60     		str	r2, [r3, #0]
1217:../Dave/Generated/src/LIBS/CCU8PWMLIB.c ****     TimerRegsPtr->CompReg2 = (uint32_t)(HandlePtr->CC8yRegs1Ptr->CR2S);
 3302              		.loc 1 1217 0
 3303 004a 7B68     		ldr	r3, [r7, #4]
 3304 004c 9B6B     		ldr	r3, [r3, #56]
 3305 004e 5A6C     		ldr	r2, [r3, #68]
 3306 0050 3B68     		ldr	r3, [r7, #0]
 3307 0052 5A60     		str	r2, [r3, #4]
1218:../Dave/Generated/src/LIBS/CCU8PWMLIB.c ****     TimerRegsPtr->CompReg2 *= (uint32_t)(HandlePtr->CC8yRegsPtr->PRS);
 3308              		.loc 1 1218 0
 3309 0054 3B68     		ldr	r3, [r7, #0]
 3310 0056 5B68     		ldr	r3, [r3, #4]
 3311 0058 7A68     		ldr	r2, [r7, #4]
 3312 005a 526B     		ldr	r2, [r2, #52]
 3313 005c 526B     		ldr	r2, [r2, #52]
 3314 005e 02FB03F2 		mul	r2, r2, r3
 3315 0062 3B68     		ldr	r3, [r7, #0]
 3316 0064 5A60     		str	r2, [r3, #4]
1219:../Dave/Generated/src/LIBS/CCU8PWMLIB.c ****     TimerRegsPtr->CompReg2 += (uint32_t)(HandlePtr->CC8yRegsPtr->CR2S);
 3317              		.loc 1 1219 0
 3318 0066 3B68     		ldr	r3, [r7, #0]
 3319 0068 5A68     		ldr	r2, [r3, #4]
 3320 006a 7B68     		ldr	r3, [r7, #4]
 3321 006c 5B6B     		ldr	r3, [r3, #52]
 3322 006e 5B6C     		ldr	r3, [r3, #68]
 3323 0070 D218     		adds	r2, r2, r3
 3324 0072 3B68     		ldr	r3, [r7, #0]
 3325 0074 5A60     		str	r2, [r3, #4]
1220:../Dave/Generated/src/LIBS/CCU8PWMLIB.c ****     TimerRegsPtr->PeriodReg = (uint32_t)((HandlePtr->CC8yRegs1Ptr->PRS)<<16UL);
 3326              		.loc 1 1220 0
 3327 0076 7B68     		ldr	r3, [r7, #4]
 3328 0078 9B6B     		ldr	r3, [r3, #56]
 3329 007a 5B6B     		ldr	r3, [r3, #52]
 3330 007c 4FEA0342 		lsl	r2, r3, #16
 3331 0080 3B68     		ldr	r3, [r7, #0]
 3332 0082 9A60     		str	r2, [r3, #8]
1221:../Dave/Generated/src/LIBS/CCU8PWMLIB.c ****     TimerRegsPtr->PeriodReg |= (HandlePtr->CC8yRegsPtr->PRS);
 3333              		.loc 1 1221 0
 3334 0084 3B68     		ldr	r3, [r7, #0]
 3335 0086 9A68     		ldr	r2, [r3, #8]
 3336 0088 7B68     		ldr	r3, [r7, #4]
 3337 008a 5B6B     		ldr	r3, [r3, #52]
 3338 008c 5B6B     		ldr	r3, [r3, #52]
 3339 008e 1A43     		orrs	r2, r2, r3
 3340 0090 3B68     		ldr	r3, [r7, #0]
 3341 0092 9A60     		str	r2, [r3, #8]
1222:../Dave/Generated/src/LIBS/CCU8PWMLIB.c ****     ScndSlTMRVal = (HandlePtr->CC8yRegs1Ptr->TIMER,
 3342              		.loc 1 1222 0
 3343 0094 7B68     		ldr	r3, [r7, #4]
 3344 0096 9B6B     		ldr	r3, [r3, #56]
 3345 0098 1B6F     		ldr	r3, [r3, #112]
 3346 009a 4FF00003 		mov	r3, #0
 3347 009e BB60     		str	r3, [r7, #8]
1223:../Dave/Generated/src/LIBS/CCU8PWMLIB.c ****         CCU8_CC8_TIMER_TVAL_Msk, CCU8_CC8_TIMER_TVAL_Pos);
1224:../Dave/Generated/src/LIBS/CCU8PWMLIB.c ****     TimerRegsPtr->TimerReg = (uint32_t)((ScndSlTMRVal << 16UL) |
 3348              		.loc 1 1224 0
 3349 00a0 BB68     		ldr	r3, [r7, #8]
 3350 00a2 4FEA0342 		lsl	r2, r3, #16
1225:../Dave/Generated/src/LIBS/CCU8PWMLIB.c ****         (RD_REG(HandlePtr->CC8yRegsPtr->TIMER,
 3351              		.loc 1 1225 0
 3352 00a6 7B68     		ldr	r3, [r7, #4]
 3353 00a8 5B6B     		ldr	r3, [r3, #52]
 3354 00aa 1B6F     		ldr	r3, [r3, #112]
 3355 00ac 4FEA0343 		lsl	r3, r3, #16
 3356 00b0 4FEA1343 		lsr	r3, r3, #16
1224:../Dave/Generated/src/LIBS/CCU8PWMLIB.c ****     TimerRegsPtr->TimerReg = (uint32_t)((ScndSlTMRVal << 16UL) |
 3357              		.loc 1 1224 0
 3358 00b4 1A43     		orrs	r2, r2, r3
 3359 00b6 3B68     		ldr	r3, [r7, #0]
 3360 00b8 DA60     		str	r2, [r3, #12]
 3361 00ba 17E0     		b	.L123
 3362              	.L122:
1226:../Dave/Generated/src/LIBS/CCU8PWMLIB.c ****          CCU8_CC8_TIMER_TVAL_Msk, CCU8_CC8_TIMER_TVAL_Pos)));
1227:../Dave/Generated/src/LIBS/CCU8PWMLIB.c ****   }
1228:../Dave/Generated/src/LIBS/CCU8PWMLIB.c **** /*<<<DD_CCU8PWMLIB_API_9_2>>>*/
1229:../Dave/Generated/src/LIBS/CCU8PWMLIB.c ****   else
1230:../Dave/Generated/src/LIBS/CCU8PWMLIB.c ****   {
1231:../Dave/Generated/src/LIBS/CCU8PWMLIB.c ****     TimerRegsPtr->CompReg1 = HandlePtr->CC8yRegsPtr->CR1S;
 3363              		.loc 1 1231 0
 3364 00bc 7B68     		ldr	r3, [r7, #4]
 3365 00be 5B6B     		ldr	r3, [r3, #52]
 3366 00c0 DA6B     		ldr	r2, [r3, #60]
 3367 00c2 3B68     		ldr	r3, [r7, #0]
 3368 00c4 1A60     		str	r2, [r3, #0]
1232:../Dave/Generated/src/LIBS/CCU8PWMLIB.c ****     TimerRegsPtr->CompReg2 = HandlePtr->CC8yRegsPtr->CR2S;
 3369              		.loc 1 1232 0
 3370 00c6 7B68     		ldr	r3, [r7, #4]
 3371 00c8 5B6B     		ldr	r3, [r3, #52]
 3372 00ca 5A6C     		ldr	r2, [r3, #68]
 3373 00cc 3B68     		ldr	r3, [r7, #0]
 3374 00ce 5A60     		str	r2, [r3, #4]
1233:../Dave/Generated/src/LIBS/CCU8PWMLIB.c ****     TimerRegsPtr->PeriodReg = HandlePtr->CC8yRegsPtr->PRS;
 3375              		.loc 1 1233 0
 3376 00d0 7B68     		ldr	r3, [r7, #4]
 3377 00d2 5B6B     		ldr	r3, [r3, #52]
 3378 00d4 5A6B     		ldr	r2, [r3, #52]
 3379 00d6 3B68     		ldr	r3, [r7, #0]
 3380 00d8 9A60     		str	r2, [r3, #8]
1234:../Dave/Generated/src/LIBS/CCU8PWMLIB.c ****     TimerRegsPtr->TimerReg = (uint32_t)RD_REG(HandlePtr->CC8yRegsPtr->TIMER,
 3381              		.loc 1 1234 0
 3382 00da 7B68     		ldr	r3, [r7, #4]
 3383 00dc 5B6B     		ldr	r3, [r3, #52]
 3384 00de 1B6F     		ldr	r3, [r3, #112]
 3385 00e0 4FEA0343 		lsl	r3, r3, #16
 3386 00e4 4FEA1343 		lsr	r3, r3, #16
 3387 00e8 3A68     		ldr	r2, [r7, #0]
 3388 00ea D360     		str	r3, [r2, #12]
 3389              	.L123:
1235:../Dave/Generated/src/LIBS/CCU8PWMLIB.c ****                            CCU8_CC8_TIMER_TVAL_Msk, CCU8_CC8_TIMER_TVAL_Pos);
1236:../Dave/Generated/src/LIBS/CCU8PWMLIB.c ****   }
1237:../Dave/Generated/src/LIBS/CCU8PWMLIB.c **** 
1238:../Dave/Generated/src/LIBS/CCU8PWMLIB.c ****   return Status;
 3390              		.loc 1 1238 0
 3391 00ec FB68     		ldr	r3, [r7, #12]
1239:../Dave/Generated/src/LIBS/CCU8PWMLIB.c **** }
 3392              		.loc 1 1239 0
 3393 00ee 1846     		mov	r0, r3
 3394 00f0 07F11407 		add	r7, r7, #20
 3395 00f4 BD46     		mov	sp, r7
 3396 00f6 80BC     		pop	{r7}
 3397 00f8 7047     		bx	lr
 3398              		.cfi_endproc
 3399              	.LFE159:
