   1              		.cpu cortex-m0
   2              		.fpu softvfp
   3              		.eabi_attribute 20, 1
   4              		.eabi_attribute 21, 1
   5              		.eabi_attribute 23, 3
   6              		.eabi_attribute 24, 1
   7              		.eabi_attribute 25, 1
   8              		.eabi_attribute 26, 1
   9              		.eabi_attribute 30, 4
  10              		.eabi_attribute 34, 0
  11              		.eabi_attribute 18, 4
  12              		.code	16
  13              		.file	"DaisyChain.c"
  14              		.section	.text.DaisyChain,"ax",%progbits
  15              		.align	1
  16              		.global	DaisyChain
  17              		.code	16
  18              		.thumb_func
  20              	DaisyChain:
  21 0000 F7B5     		push	{r0, r1, r2, r4, r5, r6, r7, lr}
  22 0002 224E     		ldr	r6, .L13
  23 0004 3378     		ldrb	r3, [r6]
  24 0006 002B     		cmp	r3, #0
  25 0008 01D0     		beq	.L2
  26 000a FFF7FEFF 		bl	StopMotor
  27              	.L2:
  28 000e 2048     		ldr	r0, .L13+4
  29 0010 0168     		ldr	r1, [r0]
  30 0012 071C     		mov	r7, r0
  31 0014 0D1C     		mov	r5, r1
  32 0016 FC35     		add	r5, r5, #252
  33 0018 AA69     		ldr	r2, [r5, #24]
  34 001a 5402     		lsl	r4, r2, #9
  35 001c 630E     		lsr	r3, r4, #25
  36 001e 0C2B     		cmp	r3, #12
  37 0020 33D9     		bls	.L1
  38 0022 1C4C     		ldr	r4, .L13+8
  39 0024 0D22     		mov	r2, #13
  40 0026 211C     		mov	r1, r4
  41 0028 FFF7FEFF 		bl	UART001_ReadDataBytes
  42 002c 207B     		ldrb	r0, [r4, #12]
  43 002e 0428     		cmp	r0, #4
  44 0030 0BD0     		beq	.L4
  45 0032 194F     		ldr	r7, .L13+12
  46 0034 1949     		ldr	r1, .L13+16
  47 0036 7B78     		ldrb	r3, [r7, #1]
  48 0038 7C68     		ldr	r4, [r7, #4]
  49 003a 9940     		lsl	r1, r1, r3
  50 003c 6160     		str	r1, [r4, #4]
  51 003e EA69     		ldr	r2, [r5, #28]
  52 0040 8026     		mov	r6, #128
  53 0042 F701     		lsl	r7, r6, #7
  54 0044 1743     		orr	r7, r2
  55 0046 EF61     		str	r7, [r5, #28]
  56 0048 1FE0     		b	.L1
  57              	.L4:
  58 004a 2278     		ldrb	r2, [r4]
  59 004c 6178     		ldrb	r1, [r4, #1]
  60 004e A578     		ldrb	r5, [r4, #2]
  61 0050 222A     		cmp	r2, #34
  62 0052 03D1     		bne	.L5
  63 0054 0802     		lsl	r0, r1, #8
  64 0056 2843     		orr	r0, r5
  65 0058 FFF7FEFF 		bl	SetReferenceCurrent
  66              	.L5:
  67 005c 0023     		mov	r3, #0
  68              	.L7:
  69 005e E018     		add	r0, r4, r3
  70 0060 211C     		mov	r1, r4
  71 0062 C578     		ldrb	r5, [r0, #3]
  72 0064 0D31     		add	r1, r1, #13
  73 0066 5D54     		strb	r5, [r3, r1]
  74 0068 0133     		add	r3, r3, #1
  75 006a 092B     		cmp	r3, #9
  76 006c F7D1     		bne	.L7
  77 006e 0422     		mov	r2, #4
  78 0070 0025     		mov	r5, #0
  79 0072 0A73     		strb	r2, [r1, #12]
  80 0074 381C     		mov	r0, r7
  81 0076 0D22     		mov	r2, #13
  82 0078 4D72     		strb	r5, [r1, #9]
  83 007a 8D72     		strb	r5, [r1, #10]
  84 007c CD72     		strb	r5, [r1, #11]
  85 007e FFF7FEFF 		bl	UART001_WriteDataBytes
  86 0082 3570     		strb	r5, [r6]
  87 0084 A67E     		ldrb	r6, [r4, #26]
  88 0086 0136     		add	r6, r6, #1
  89 0088 A676     		strb	r6, [r4, #26]
  90              	.L1:
  91              		@ sp needed for prologue
  92 008a F7BD     		pop	{r0, r1, r2, r4, r5, r6, r7, pc}
  93              	.L14:
  94              		.align	2
  95              	.L13:
  96 008c 00000000 		.word	.LANCHOR1
  97 0090 00000000 		.word	UART001_Handle0
  98 0094 00000000 		.word	.LANCHOR0
  99 0098 00000000 		.word	IO004_Handle1
 100 009c 01000100 		.word	65537
 102              		.section	.text.InitDaisyWatchDog,"ax",%progbits
 103              		.align	1
 104              		.global	InitDaisyWatchDog
 105              		.code	16
 106              		.thumb_func
 108              	InitDaisyWatchDog:
 109 0000 154B     		ldr	r3, .L16
 110 0002 0321     		mov	r1, #3
 111 0004 5A6A     		ldr	r2, [r3, #36]
 112 0006 1548     		ldr	r0, .L16+4
 113 0008 0A43     		orr	r2, r1
 114 000a 30B5     		push	{r4, r5, lr}
 115 000c 5A62     		str	r2, [r3, #36]
 116 000e 0024     		mov	r4, #0
 117 0010 134A     		ldr	r2, .L16+8
 118 0012 5863     		str	r0, [r3, #52]
 119 0014 DC63     		str	r4, [r3, #60]
 120 0016 1569     		ldr	r5, [r2, #16]
 121 0018 1021     		mov	r1, #16
 122 001a 0D43     		orr	r5, r1
 123 001c 1561     		str	r5, [r2, #16]
 124 001e 1D1C     		mov	r5, r3
 125 0020 A435     		add	r5, r5, #164
 126 0022 2C68     		ldr	r4, [r5]
 127 0024 0420     		mov	r0, #4
 128 0026 0443     		orr	r4, r0
 129 0028 2C60     		str	r4, [r5]
 130 002a 6968     		ldr	r1, [r5, #4]
 131              		@ sp needed for prologue
 132 002c 0843     		orr	r0, r1
 133 002e 6860     		str	r0, [r5, #4]
 134 0030 0C49     		ldr	r1, .L16+12
 135 0032 C525     		mov	r5, #197
 136 0034 AC00     		lsl	r4, r5, #2
 137 0036 0D59     		ldr	r5, [r1, r4]
 138 0038 0B48     		ldr	r0, .L16+16
 139 003a 0540     		and	r5, r0
 140 003c 8020     		mov	r0, #128
 141 003e C003     		lsl	r0, r0, #15
 142 0040 0543     		orr	r5, r0
 143 0042 0D51     		str	r5, [r1, r4]
 144 0044 0860     		str	r0, [r1]
 145 0046 D168     		ldr	r1, [r2, #12]
 146 0048 0224     		mov	r4, #2
 147 004a 2143     		orr	r1, r4
 148 004c D160     		str	r1, [r2, #12]
 149 004e DA68     		ldr	r2, [r3, #12]
 150 0050 0125     		mov	r5, #1
 151 0052 2A43     		orr	r2, r5
 152 0054 DA60     		str	r2, [r3, #12]
 153 0056 30BD     		pop	{r4, r5, pc}
 154              	.L17:
 155              		.align	2
 156              	.L16:
 157 0058 00020448 		.word	1208222208
 158 005c FFFF0000 		.word	65535
 159 0060 00000448 		.word	1208221696
 160 0064 00E100E0 		.word	-536813312
 161 0068 FFFF00FF 		.word	-16711681
 163              		.section	.text.CCU40_1_IRQHandler,"ax",%progbits
 164              		.align	1
 165              		.global	CCU40_1_IRQHandler
 166              		.code	16
 167              		.thumb_func
 169              	CCU40_1_IRQHandler:
 170 0000 044B     		ldr	r3, .L20
 171 0002 9A7E     		ldrb	r2, [r3, #26]
 172 0004 D97E     		ldrb	r1, [r3, #27]
 173 0006 9142     		cmp	r1, r2
 174 0008 02D1     		bne	.L19
 175 000a 0349     		ldr	r1, .L20+4
 176 000c 0120     		mov	r0, #1
 177 000e 0870     		strb	r0, [r1]
 178              	.L19:
 179 0010 DA76     		strb	r2, [r3, #27]
 180              		@ sp needed for prologue
 181 0012 7047     		bx	lr
 182              	.L21:
 183              		.align	2
 184              	.L20:
 185 0014 00000000 		.word	.LANCHOR0
 186 0018 00000000 		.word	.LANCHOR1
 188              		.global	DaisyCount
 189              		.global	DaisyTimeOut
 190              		.global	FifoTransBuffer
 191              		.global	FifoRecBuffer
 192              		.data
 193              		.set	.LANCHOR1,. + 0
 196              	DaisyTimeOut:
 197 0000 01       		.byte	1
 198              		.bss
 199              		.set	.LANCHOR0,. + 0
 202              	FifoRecBuffer:
 203 0000 00000000 		.space	13
 203      00000000 
 203      00000000 
 203      00
 206              	FifoTransBuffer:
 207 000d 00000000 		.space	13
 207      00000000 
 207      00000000 
 207      00
 210              	DaisyCount:
 211 001a 00       		.space	1
 214              	lastCount.5569:
 215 001b 00       		.space	1
 216              		.ident	"GCC: (GNU Tools for ARM Embedded Processors) 4.7.4 20130913 (release) [ARM/embedded-4_7-br
DEFINED SYMBOLS
                            *ABS*:00000000 DaisyChain.c
C:\Users\TOGABL~1\AppData\Local\Temp\cc9VEia7.s:15     .text.DaisyChain:00000000 $t
C:\Users\TOGABL~1\AppData\Local\Temp\cc9VEia7.s:20     .text.DaisyChain:00000000 DaisyChain
C:\Users\TOGABL~1\AppData\Local\Temp\cc9VEia7.s:96     .text.DaisyChain:0000008c $d
C:\Users\TOGABL~1\AppData\Local\Temp\cc9VEia7.s:103    .text.InitDaisyWatchDog:00000000 $t
C:\Users\TOGABL~1\AppData\Local\Temp\cc9VEia7.s:108    .text.InitDaisyWatchDog:00000000 InitDaisyWatchDog
C:\Users\TOGABL~1\AppData\Local\Temp\cc9VEia7.s:157    .text.InitDaisyWatchDog:00000058 $d
C:\Users\TOGABL~1\AppData\Local\Temp\cc9VEia7.s:164    .text.CCU40_1_IRQHandler:00000000 $t
C:\Users\TOGABL~1\AppData\Local\Temp\cc9VEia7.s:169    .text.CCU40_1_IRQHandler:00000000 CCU40_1_IRQHandler
C:\Users\TOGABL~1\AppData\Local\Temp\cc9VEia7.s:185    .text.CCU40_1_IRQHandler:00000014 $d
C:\Users\TOGABL~1\AppData\Local\Temp\cc9VEia7.s:210    .bss:0000001a DaisyCount
C:\Users\TOGABL~1\AppData\Local\Temp\cc9VEia7.s:196    .data:00000000 DaisyTimeOut
C:\Users\TOGABL~1\AppData\Local\Temp\cc9VEia7.s:206    .bss:0000000d FifoTransBuffer
C:\Users\TOGABL~1\AppData\Local\Temp\cc9VEia7.s:202    .bss:00000000 FifoRecBuffer
C:\Users\TOGABL~1\AppData\Local\Temp\cc9VEia7.s:203    .bss:00000000 $d
C:\Users\TOGABL~1\AppData\Local\Temp\cc9VEia7.s:214    .bss:0000001b lastCount.5569

UNDEFINED SYMBOLS
StopMotor
UART001_ReadDataBytes
SetReferenceCurrent
UART001_WriteDataBytes
UART001_Handle0
IO004_Handle1
