   1              		.syntax unified
   2              		.cpu cortex-m4
   3              		.eabi_attribute 27, 3
   4              		.fpu fpv4-sp-d16
   5              		.eabi_attribute 20, 1
   6              		.eabi_attribute 21, 1
   7              		.eabi_attribute 23, 3
   8              		.eabi_attribute 24, 1
   9              		.eabi_attribute 25, 1
  10              		.eabi_attribute 26, 1
  11              		.eabi_attribute 30, 6
  12              		.eabi_attribute 34, 1
  13              		.eabi_attribute 18, 4
  14              		.thumb
  15              		.file	"RCReceive.c"
  16              		.text
  17              	.Ltext0:
  18              		.cfi_sections	.debug_frame
  19              		.global	throttle
  20              		.bss
  21              		.align	2
  24              	throttle:
  25 0000 00000000 		.space	4
  26              		.global	rudder
  27              		.align	2
  30              	rudder:
  31 0004 00000000 		.space	4
  32              		.global	elevator
  33              		.align	2
  36              	elevator:
  37 0008 00000000 		.space	4
  38              		.global	aileron
  39              		.align	2
  42              	aileron:
  43 000c 00000000 		.space	4
  44              		.global	throttleBT
  45              		.align	1
  48              	throttleBT:
  49 0010 0000     		.space	2
  50              		.global	rudderBT
  51              		.align	1
  54              	rudderBT:
  55 0012 0000     		.space	2
  56              		.global	aileronBT
  57              		.align	1
  60              	aileronBT:
  61 0014 0000     		.space	2
  62              		.global	elevatorBT
  63              		.align	1
  66              	elevatorBT:
  67 0016 0000     		.space	2
  68              		.global	modeBT
  71              	modeBT:
  72 0018 00       		.space	1
  73              		.global	flightmode
  76              	flightmode:
  77 0019 00       		.space	1
  78              		.global	RCTimeOut
  79              		.data
  82              	RCTimeOut:
  83 0000 01       		.byte	1
  84              		.global	RCCount
  85              		.bss
  88              	RCCount:
  89 001a 00       		.space	1
  90              		.global	BTTimeOut
  91              		.data
  94              	BTTimeOut:
  95 0001 01       		.byte	1
  96              		.global	BTCount
  97              		.bss
 100              	BTCount:
 101 001b 00       		.space	1
 102              		.comm	TimerWatchRC,4,4
 103              		.section	.text.mergeBytes,"ax",%progbits
 104              		.align	2
 105              		.global	mergeBytes
 106              		.thumb
 107              		.thumb_func
 109              	mergeBytes:
 110              	.LFB120:
 111              		.file 1 "../_Quadrocopter/RemoteControl/RCReceive.c"
   1:../_Quadrocopter/RemoteControl/RCReceive.c **** /*
   2:../_Quadrocopter/RemoteControl/RCReceive.c ****  * RCReceive.c
   3:../_Quadrocopter/RemoteControl/RCReceive.c ****  *
   4:../_Quadrocopter/RemoteControl/RCReceive.c ****  *  Created on: 22.12.2014
   5:../_Quadrocopter/RemoteControl/RCReceive.c ****  *      Author: maan
   6:../_Quadrocopter/RemoteControl/RCReceive.c ****  */
   7:../_Quadrocopter/RemoteControl/RCReceive.c **** 
   8:../_Quadrocopter/RemoteControl/RCReceive.c **** #include "RCReceive.h"
   9:../_Quadrocopter/RemoteControl/RCReceive.c **** 
  10:../_Quadrocopter/RemoteControl/RCReceive.c **** //Joystick values (range between -1 and 1, 0 in middle position)
  11:../_Quadrocopter/RemoteControl/RCReceive.c **** float throttle = 0.0;
  12:../_Quadrocopter/RemoteControl/RCReceive.c **** float rudder = 0.0;
  13:../_Quadrocopter/RemoteControl/RCReceive.c **** float elevator = 0.0;
  14:../_Quadrocopter/RemoteControl/RCReceive.c **** float aileron = 0.0;
  15:../_Quadrocopter/RemoteControl/RCReceive.c **** 
  16:../_Quadrocopter/RemoteControl/RCReceive.c **** short throttleBT = 0;
  17:../_Quadrocopter/RemoteControl/RCReceive.c **** short rudderBT = 0;
  18:../_Quadrocopter/RemoteControl/RCReceive.c **** short aileronBT = 0;
  19:../_Quadrocopter/RemoteControl/RCReceive.c **** short elevatorBT = 0;
  20:../_Quadrocopter/RemoteControl/RCReceive.c **** uint8_t modeBT = 0;
  21:../_Quadrocopter/RemoteControl/RCReceive.c **** 
  22:../_Quadrocopter/RemoteControl/RCReceive.c **** uint8_t flightmode = 0; //Flightmode switch
  23:../_Quadrocopter/RemoteControl/RCReceive.c **** 
  24:../_Quadrocopter/RemoteControl/RCReceive.c **** uint8_t RCTimeOut = 1; //Timeout remote control 0:OK 1:TimeOut
  25:../_Quadrocopter/RemoteControl/RCReceive.c **** uint8_t RCCount = 0; //Counter for RC read (used for TimeOut)
  26:../_Quadrocopter/RemoteControl/RCReceive.c **** 
  27:../_Quadrocopter/RemoteControl/RCReceive.c **** uint8_t BTTimeOut = 1;
  28:../_Quadrocopter/RemoteControl/RCReceive.c **** uint8_t BTCount = 0;
  29:../_Quadrocopter/RemoteControl/RCReceive.c **** 
  30:../_Quadrocopter/RemoteControl/RCReceive.c **** // Software timer
  31:../_Quadrocopter/RemoteControl/RCReceive.c **** handle_t TimerWatchRC; //Timer for RC watchdog
  32:../_Quadrocopter/RemoteControl/RCReceive.c **** 
  33:../_Quadrocopter/RemoteControl/RCReceive.c **** /*
  34:../_Quadrocopter/RemoteControl/RCReceive.c ****  * Merge two bytes to one integer
  35:../_Quadrocopter/RemoteControl/RCReceive.c ****  *
  36:../_Quadrocopter/RemoteControl/RCReceive.c ****  * Parameters:
  37:../_Quadrocopter/RemoteControl/RCReceive.c ****  * uint8_t a: high-byte
  38:../_Quadrocopter/RemoteControl/RCReceive.c ****  * uint8_t b: low-byte
  39:../_Quadrocopter/RemoteControl/RCReceive.c ****  *
  40:../_Quadrocopter/RemoteControl/RCReceive.c ****  * Returnvalue:
  41:../_Quadrocopter/RemoteControl/RCReceive.c ****  * int Merged bytes
  42:../_Quadrocopter/RemoteControl/RCReceive.c ****  */
  43:../_Quadrocopter/RemoteControl/RCReceive.c **** int mergeBytes (uint8_t a, uint8_t b) {
 112              		.loc 1 43 0
 113              		.cfi_startproc
 114              		@ args = 0, pretend = 0, frame = 16
 115              		@ frame_needed = 1, uses_anonymous_args = 0
 116              		@ link register save eliminated.
 117 0000 80B4     		push	{r7}
 118              	.LCFI0:
 119              		.cfi_def_cfa_offset 4
 120              		.cfi_offset 7, -4
 121 0002 85B0     		sub	sp, sp, #20
 122              	.LCFI1:
 123              		.cfi_def_cfa_offset 24
 124 0004 00AF     		add	r7, sp, #0
 125              	.LCFI2:
 126              		.cfi_def_cfa_register 7
 127 0006 0246     		mov	r2, r0
 128 0008 0B46     		mov	r3, r1
 129 000a FA71     		strb	r2, [r7, #7]
 130 000c BB71     		strb	r3, [r7, #6]
  44:../_Quadrocopter/RemoteControl/RCReceive.c ****    int c = a;
 131              		.loc 1 44 0
 132 000e FB79     		ldrb	r3, [r7, #7]	@ zero_extendqisi2
 133 0010 FB60     		str	r3, [r7, #12]
  45:../_Quadrocopter/RemoteControl/RCReceive.c ****    return (c << 8) | b;
 134              		.loc 1 45 0
 135 0012 FB68     		ldr	r3, [r7, #12]
 136 0014 4FEA0322 		lsl	r2, r3, #8
 137 0018 BB79     		ldrb	r3, [r7, #6]	@ zero_extendqisi2
 138 001a 1343     		orrs	r3, r3, r2
  46:../_Quadrocopter/RemoteControl/RCReceive.c **** }
 139              		.loc 1 46 0
 140 001c 1846     		mov	r0, r3
 141 001e 07F11407 		add	r7, r7, #20
 142 0022 BD46     		mov	sp, r7
 143 0024 80BC     		pop	{r7}
 144 0026 7047     		bx	lr
 145              		.cfi_endproc
 146              	.LFE120:
 148              		.global	__aeabi_i2d
 149              		.global	__aeabi_ddiv
 150              		.global	__aeabi_d2f
 151              		.section	.text.USIC1_0_IRQHandler,"ax",%progbits
 152              		.align	2
 153              		.global	USIC1_0_IRQHandler
 154              		.thumb
 155              		.thumb_func
 157              	USIC1_0_IRQHandler:
 158              	.LFB121:
  47:../_Quadrocopter/RemoteControl/RCReceive.c **** 
  48:../_Quadrocopter/RemoteControl/RCReceive.c **** /**
  49:../_Quadrocopter/RemoteControl/RCReceive.c ****  * Interrupt routine from UART FIFO in buffer
  50:../_Quadrocopter/RemoteControl/RCReceive.c ****  * Buffer is full, new data is ready to read
  51:../_Quadrocopter/RemoteControl/RCReceive.c ****  */
  52:../_Quadrocopter/RemoteControl/RCReceive.c **** void RC_RECEIVE_ISR()
  53:../_Quadrocopter/RemoteControl/RCReceive.c **** {
 159              		.loc 1 53 0
 160              		.cfi_startproc
 161              		@ args = 0, pretend = 0, frame = 56
 162              		@ frame_needed = 1, uses_anonymous_args = 0
 163 0000 80B5     		push	{r7, lr}
 164              	.LCFI3:
 165              		.cfi_def_cfa_offset 8
 166              		.cfi_offset 7, -8
 167              		.cfi_offset 14, -4
 168 0002 90B0     		sub	sp, sp, #64
 169              	.LCFI4:
 170              		.cfi_def_cfa_offset 72
 171 0004 02AF     		add	r7, sp, #8
 172              	.LCFI5:
 173              		.cfi_def_cfa 7, 64
  54:../_Quadrocopter/RemoteControl/RCReceive.c **** 	//Raw values from receiver
  55:../_Quadrocopter/RemoteControl/RCReceive.c **** 	int throttleRaw;
  56:../_Quadrocopter/RemoteControl/RCReceive.c **** 	int rudderRaw;
  57:../_Quadrocopter/RemoteControl/RCReceive.c **** 	int elevatorRaw;
  58:../_Quadrocopter/RemoteControl/RCReceive.c **** 	int aileronRaw;
  59:../_Quadrocopter/RemoteControl/RCReceive.c **** 	int flightmodeRaw;
  60:../_Quadrocopter/RemoteControl/RCReceive.c **** 
  61:../_Quadrocopter/RemoteControl/RCReceive.c **** 	uint8_t ReadBufRC[32]; //Readbuffer
  62:../_Quadrocopter/RemoteControl/RCReceive.c **** 	int start = 0; //Index of start byte (contains 0x30)
 174              		.loc 1 62 0
 175 0006 4FF00003 		mov	r3, #0
 176 000a 7B63     		str	r3, [r7, #52]
  63:../_Quadrocopter/RemoteControl/RCReceive.c **** 
  64:../_Quadrocopter/RemoteControl/RCReceive.c **** 	//Check if receive buffer interrupt is set
  65:../_Quadrocopter/RemoteControl/RCReceive.c **** 	if(UART001_GetFlagStatus(&RC_UART_Handle,UART001_FIFO_STD_RECV_BUF_FLAG) == UART001_SET)
 177              		.loc 1 65 0
 178 000c 40F20000 		movw	r0, #:lower16:UART001_Handle0
 179 0010 C0F20000 		movt	r0, #:upper16:UART001_Handle0
 180 0014 4FF01001 		mov	r1, #16
 181 0018 FFF7FEFF 		bl	UART001_GetFlagStatus
 182 001c 0346     		mov	r3, r0
 183 001e 022B     		cmp	r3, #2
 184 0020 40F07D81 		bne	.L3
  66:../_Quadrocopter/RemoteControl/RCReceive.c **** 	{
  67:../_Quadrocopter/RemoteControl/RCReceive.c **** 		//Read data from UART buffer
  68:../_Quadrocopter/RemoteControl/RCReceive.c **** 		UART001_ReadDataBytes(&RC_UART_Handle,ReadBufRC,32);
 185              		.loc 1 68 0
 186 0024 3B46     		mov	r3, r7
 187 0026 40F20000 		movw	r0, #:lower16:UART001_Handle0
 188 002a C0F20000 		movt	r0, #:upper16:UART001_Handle0
 189 002e 1946     		mov	r1, r3
 190 0030 4FF02002 		mov	r2, #32
 191 0034 FFF7FEFF 		bl	UART001_ReadDataBytes
  69:../_Quadrocopter/RemoteControl/RCReceive.c **** 		//Clear receive buffer interrupt flag
  70:../_Quadrocopter/RemoteControl/RCReceive.c **** 		UART001_ClearFlag(&RC_UART_Handle,UART001_FIFO_STD_RECV_BUF_FLAG);
 192              		.loc 1 70 0
 193 0038 40F20000 		movw	r0, #:lower16:UART001_Handle0
 194 003c C0F20000 		movt	r0, #:upper16:UART001_Handle0
 195 0040 4FF01001 		mov	r1, #16
 196 0044 FFF7FEFF 		bl	UART001_ClearFlag
  71:../_Quadrocopter/RemoteControl/RCReceive.c **** 
  72:../_Quadrocopter/RemoteControl/RCReceive.c **** 		//Search for start byte and check static values
  73:../_Quadrocopter/RemoteControl/RCReceive.c **** 		while (ReadBufRC[start] != 0x30 || ReadBufRC[start+1] != 0x00 || ReadBufRC[start+5] != 0xA2 || Re
 197              		.loc 1 73 0
 198 0048 0CE0     		b	.L5
 199              	.L7:
  74:../_Quadrocopter/RemoteControl/RCReceive.c **** 		{
  75:../_Quadrocopter/RemoteControl/RCReceive.c **** 			if (start++ > 16) {
 200              		.loc 1 75 0
 201 004a 7B6B     		ldr	r3, [r7, #52]
 202 004c 102B     		cmp	r3, #16
 203 004e D4BF     		ite	le
 204 0050 0023     		movle	r3, #0
 205 0052 0123     		movgt	r3, #1
 206 0054 DBB2     		uxtb	r3, r3
 207 0056 7A6B     		ldr	r2, [r7, #52]
 208 0058 02F10102 		add	r2, r2, #1
 209 005c 7A63     		str	r2, [r7, #52]
 210 005e 002B     		cmp	r3, #0
 211 0060 40F05D81 		bne	.L3
 212              	.L5:
  73:../_Quadrocopter/RemoteControl/RCReceive.c **** 		while (ReadBufRC[start] != 0x30 || ReadBufRC[start+1] != 0x00 || ReadBufRC[start+5] != 0xA2 || Re
 213              		.loc 1 73 0 discriminator 1
 214 0064 3A46     		mov	r2, r7
 215 0066 7B6B     		ldr	r3, [r7, #52]
 216 0068 D318     		adds	r3, r2, r3
 217 006a 1B78     		ldrb	r3, [r3, #0]	@ zero_extendqisi2
 218 006c 302B     		cmp	r3, #48
 219 006e ECD1     		bne	.L7
  73:../_Quadrocopter/RemoteControl/RCReceive.c **** 		while (ReadBufRC[start] != 0x30 || ReadBufRC[start+1] != 0x00 || ReadBufRC[start+5] != 0xA2 || Re
 220              		.loc 1 73 0 is_stmt 0 discriminator 2
 221 0070 7B6B     		ldr	r3, [r7, #52]
 222 0072 03F10103 		add	r3, r3, #1
 223 0076 07F13801 		add	r1, r7, #56
 224 007a CB18     		adds	r3, r1, r3
 225 007c 13F8383C 		ldrb	r3, [r3, #-56]	@ zero_extendqisi2
 226 0080 002B     		cmp	r3, #0
 227 0082 E2D1     		bne	.L7
  73:../_Quadrocopter/RemoteControl/RCReceive.c **** 		while (ReadBufRC[start] != 0x30 || ReadBufRC[start+1] != 0x00 || ReadBufRC[start+5] != 0xA2 || Re
 228              		.loc 1 73 0 discriminator 1
 229 0084 7B6B     		ldr	r3, [r7, #52]
 230 0086 03F10503 		add	r3, r3, #5
 231 008a 07F13802 		add	r2, r7, #56
 232 008e D318     		adds	r3, r2, r3
 233 0090 13F8383C 		ldrb	r3, [r3, #-56]	@ zero_extendqisi2
 234 0094 A22B     		cmp	r3, #162
 235 0096 D8D1     		bne	.L7
 236 0098 7B6B     		ldr	r3, [r7, #52]
 237 009a 03F10803 		add	r3, r3, #8
 238 009e 07F13801 		add	r1, r7, #56
 239 00a2 CB18     		adds	r3, r1, r3
 240 00a4 13F8383C 		ldrb	r3, [r3, #-56]	@ zero_extendqisi2
 241 00a8 2B2B     		cmp	r3, #43
 242 00aa CED1     		bne	.L7
 243 00ac 7B6B     		ldr	r3, [r7, #52]
 244 00ae 03F10903 		add	r3, r3, #9
 245 00b2 07F13802 		add	r2, r7, #56
 246 00b6 D318     		adds	r3, r2, r3
 247 00b8 13F8383C 		ldrb	r3, [r3, #-56]	@ zero_extendqisi2
 248 00bc FE2B     		cmp	r3, #254
 249 00be C4D1     		bne	.L7
  76:../_Quadrocopter/RemoteControl/RCReceive.c **** 				//Communication check bytes not in buffer
  77:../_Quadrocopter/RemoteControl/RCReceive.c **** 				return;
  78:../_Quadrocopter/RemoteControl/RCReceive.c **** 			}
  79:../_Quadrocopter/RemoteControl/RCReceive.c **** 		}
  80:../_Quadrocopter/RemoteControl/RCReceive.c **** 
  81:../_Quadrocopter/RemoteControl/RCReceive.c **** 		//Get data from stream
  82:../_Quadrocopter/RemoteControl/RCReceive.c **** 		throttleRaw = mergeBytes(ReadBufRC[start+2],ReadBufRC[start+3]);
 250              		.loc 1 82 0 is_stmt 1
 251 00c0 7B6B     		ldr	r3, [r7, #52]
 252 00c2 03F10203 		add	r3, r3, #2
 253 00c6 07F13801 		add	r1, r7, #56
 254 00ca CB18     		adds	r3, r1, r3
 255 00cc 13F8382C 		ldrb	r2, [r3, #-56]	@ zero_extendqisi2
 256 00d0 7B6B     		ldr	r3, [r7, #52]
 257 00d2 03F10303 		add	r3, r3, #3
 258 00d6 07F13801 		add	r1, r7, #56
 259 00da CB18     		adds	r3, r1, r3
 260 00dc 13F8383C 		ldrb	r3, [r3, #-56]	@ zero_extendqisi2
 261 00e0 1046     		mov	r0, r2
 262 00e2 1946     		mov	r1, r3
 263 00e4 FFF7FEFF 		bl	mergeBytes
 264 00e8 3863     		str	r0, [r7, #48]
  83:../_Quadrocopter/RemoteControl/RCReceive.c **** 		throttle = map(throttleRaw, THROTTLE_MIN, THROTTLE_MAX, 0, 60000)/60000.0;
 265              		.loc 1 83 0
 266 00ea 4EF66023 		movw	r3, #60000
 267 00ee 0093     		str	r3, [sp, #0]
 268 00f0 386B     		ldr	r0, [r7, #48]
 269 00f2 4FF49971 		mov	r1, #306
 270 00f6 40F2F762 		movw	r2, #1783
 271 00fa 4FF00003 		mov	r3, #0
 272 00fe FFF7FEFF 		bl	map
 273 0102 0346     		mov	r3, r0
 274 0104 1846     		mov	r0, r3
 275 0106 FFF7FEFF 		bl	__aeabi_i2d
 276 010a 0246     		mov	r2, r0
 277 010c 0B46     		mov	r3, r1
 278 010e 1046     		mov	r0, r2
 279 0110 1946     		mov	r1, r3
 280 0112 85A3     		adr	r3, .L11
 281 0114 D3E90023 		ldrd	r2, [r3]
 282 0118 FFF7FEFF 		bl	__aeabi_ddiv
 283 011c 0246     		mov	r2, r0
 284 011e 0B46     		mov	r3, r1
 285 0120 1046     		mov	r0, r2
 286 0122 1946     		mov	r1, r3
 287 0124 FFF7FEFF 		bl	__aeabi_d2f
 288 0128 0246     		mov	r2, r0	@ float
 289 012a 40F20003 		movw	r3, #:lower16:throttle
 290 012e C0F20003 		movt	r3, #:upper16:throttle
 291 0132 1A60     		str	r2, [r3, #0]	@ float
  84:../_Quadrocopter/RemoteControl/RCReceive.c **** 		aileronRaw = mergeBytes(ReadBufRC[start+6],ReadBufRC[start+7]);
 292              		.loc 1 84 0
 293 0134 7B6B     		ldr	r3, [r7, #52]
 294 0136 03F10603 		add	r3, r3, #6
 295 013a 07F13802 		add	r2, r7, #56
 296 013e D318     		adds	r3, r2, r3
 297 0140 13F8382C 		ldrb	r2, [r3, #-56]	@ zero_extendqisi2
 298 0144 7B6B     		ldr	r3, [r7, #52]
 299 0146 03F10703 		add	r3, r3, #7
 300 014a 07F13801 		add	r1, r7, #56
 301 014e CB18     		adds	r3, r1, r3
 302 0150 13F8383C 		ldrb	r3, [r3, #-56]	@ zero_extendqisi2
 303 0154 1046     		mov	r0, r2
 304 0156 1946     		mov	r1, r3
 305 0158 FFF7FEFF 		bl	mergeBytes
 306 015c F862     		str	r0, [r7, #44]
  85:../_Quadrocopter/RemoteControl/RCReceive.c **** 		aileron = map(aileronRaw, AILERON_MIN, AILERON_MAX, -30000, 30000)/30000.0;
 307              		.loc 1 85 0
 308 015e 47F23053 		movw	r3, #30000
 309 0162 0093     		str	r3, [sp, #0]
 310 0164 F86A     		ldr	r0, [r7, #44]
 311 0166 40F63211 		movw	r1, #2354
 312 016a 40F6CC62 		movw	r2, #3788
 313 016e 48F6D023 		movw	r3, #35536
 314 0172 CFF6FF73 		movt	r3, 65535
 315 0176 FFF7FEFF 		bl	map
 316 017a 0346     		mov	r3, r0
 317 017c 1846     		mov	r0, r3
 318 017e FFF7FEFF 		bl	__aeabi_i2d
 319 0182 0246     		mov	r2, r0
 320 0184 0B46     		mov	r3, r1
 321 0186 1046     		mov	r0, r2
 322 0188 1946     		mov	r1, r3
 323 018a 69A3     		adr	r3, .L11+8
 324 018c D3E90023 		ldrd	r2, [r3]
 325 0190 FFF7FEFF 		bl	__aeabi_ddiv
 326 0194 0246     		mov	r2, r0
 327 0196 0B46     		mov	r3, r1
 328 0198 1046     		mov	r0, r2
 329 019a 1946     		mov	r1, r3
 330 019c FFF7FEFF 		bl	__aeabi_d2f
 331 01a0 0246     		mov	r2, r0	@ float
 332 01a2 40F20003 		movw	r3, #:lower16:aileron
 333 01a6 C0F20003 		movt	r3, #:upper16:aileron
 334 01aa 1A60     		str	r2, [r3, #0]	@ float
  86:../_Quadrocopter/RemoteControl/RCReceive.c **** 		elevatorRaw = mergeBytes(ReadBufRC[start+10],ReadBufRC[start+11]);
 335              		.loc 1 86 0
 336 01ac 7B6B     		ldr	r3, [r7, #52]
 337 01ae 03F10A03 		add	r3, r3, #10
 338 01b2 07F13802 		add	r2, r7, #56
 339 01b6 D318     		adds	r3, r2, r3
 340 01b8 13F8382C 		ldrb	r2, [r3, #-56]	@ zero_extendqisi2
 341 01bc 7B6B     		ldr	r3, [r7, #52]
 342 01be 03F10B03 		add	r3, r3, #11
 343 01c2 07F13801 		add	r1, r7, #56
 344 01c6 CB18     		adds	r3, r1, r3
 345 01c8 13F8383C 		ldrb	r3, [r3, #-56]	@ zero_extendqisi2
 346 01cc 1046     		mov	r0, r2
 347 01ce 1946     		mov	r1, r3
 348 01d0 FFF7FEFF 		bl	mergeBytes
 349 01d4 B862     		str	r0, [r7, #40]
  87:../_Quadrocopter/RemoteControl/RCReceive.c **** 		elevator = map(elevatorRaw, ELEVATOR_MIN, ELEVATOR_MAX, -30000, 30000)/30000.0;
 350              		.loc 1 87 0
 351 01d6 47F23053 		movw	r3, #30000
 352 01da 0093     		str	r3, [sp, #0]
 353 01dc B86A     		ldr	r0, [r7, #40]
 354 01de 41F23011 		movw	r1, #4400
 355 01e2 41F2CA62 		movw	r2, #5834
 356 01e6 48F6D023 		movw	r3, #35536
 357 01ea CFF6FF73 		movt	r3, 65535
 358 01ee FFF7FEFF 		bl	map
 359 01f2 0346     		mov	r3, r0
 360 01f4 1846     		mov	r0, r3
 361 01f6 FFF7FEFF 		bl	__aeabi_i2d
 362 01fa 0246     		mov	r2, r0
 363 01fc 0B46     		mov	r3, r1
 364 01fe 1046     		mov	r0, r2
 365 0200 1946     		mov	r1, r3
 366 0202 4BA3     		adr	r3, .L11+8
 367 0204 D3E90023 		ldrd	r2, [r3]
 368 0208 FFF7FEFF 		bl	__aeabi_ddiv
 369 020c 0246     		mov	r2, r0
 370 020e 0B46     		mov	r3, r1
 371 0210 1046     		mov	r0, r2
 372 0212 1946     		mov	r1, r3
 373 0214 FFF7FEFF 		bl	__aeabi_d2f
 374 0218 0246     		mov	r2, r0	@ float
 375 021a 40F20003 		movw	r3, #:lower16:elevator
 376 021e C0F20003 		movt	r3, #:upper16:elevator
 377 0222 1A60     		str	r2, [r3, #0]	@ float
  88:../_Quadrocopter/RemoteControl/RCReceive.c **** 		rudderRaw = mergeBytes(ReadBufRC[start+14],ReadBufRC[start+15]);
 378              		.loc 1 88 0
 379 0224 7B6B     		ldr	r3, [r7, #52]
 380 0226 03F10E03 		add	r3, r3, #14
 381 022a 07F13802 		add	r2, r7, #56
 382 022e D318     		adds	r3, r2, r3
 383 0230 13F8382C 		ldrb	r2, [r3, #-56]	@ zero_extendqisi2
 384 0234 7B6B     		ldr	r3, [r7, #52]
 385 0236 03F10F03 		add	r3, r3, #15
 386 023a 07F13801 		add	r1, r7, #56
 387 023e CB18     		adds	r3, r1, r3
 388 0240 13F8383C 		ldrb	r3, [r3, #-56]	@ zero_extendqisi2
 389 0244 1046     		mov	r0, r2
 390 0246 1946     		mov	r1, r3
 391 0248 FFF7FEFF 		bl	mergeBytes
 392 024c 7862     		str	r0, [r7, #36]
  89:../_Quadrocopter/RemoteControl/RCReceive.c **** 		rudder = map(rudderRaw, RUDDER_MIN, RUDDER_MAX, -30000, 30000)/30000.0;
 393              		.loc 1 89 0
 394 024e 47F23053 		movw	r3, #30000
 395 0252 0093     		str	r3, [sp, #0]
 396 0254 786A     		ldr	r0, [r7, #36]
 397 0256 41F63211 		movw	r1, #6450
 398 025a 41F6CC62 		movw	r2, #7884
 399 025e 48F6D023 		movw	r3, #35536
 400 0262 CFF6FF73 		movt	r3, 65535
 401 0266 FFF7FEFF 		bl	map
 402 026a 0346     		mov	r3, r0
 403 026c 1846     		mov	r0, r3
 404 026e FFF7FEFF 		bl	__aeabi_i2d
 405 0272 0246     		mov	r2, r0
 406 0274 0B46     		mov	r3, r1
 407 0276 1046     		mov	r0, r2
 408 0278 1946     		mov	r1, r3
 409 027a 2DA3     		adr	r3, .L11+8
 410 027c D3E90023 		ldrd	r2, [r3]
 411 0280 FFF7FEFF 		bl	__aeabi_ddiv
 412 0284 0246     		mov	r2, r0
 413 0286 0B46     		mov	r3, r1
 414 0288 1046     		mov	r0, r2
 415 028a 1946     		mov	r1, r3
 416 028c FFF7FEFF 		bl	__aeabi_d2f
 417 0290 0246     		mov	r2, r0	@ float
 418 0292 40F20003 		movw	r3, #:lower16:rudder
 419 0296 C0F20003 		movt	r3, #:upper16:rudder
 420 029a 1A60     		str	r2, [r3, #0]	@ float
  90:../_Quadrocopter/RemoteControl/RCReceive.c **** 		flightmodeRaw = mergeBytes(ReadBufRC[start+12],ReadBufRC[start+13]);
 421              		.loc 1 90 0
 422 029c 7B6B     		ldr	r3, [r7, #52]
 423 029e 03F10C03 		add	r3, r3, #12
 424 02a2 07F13802 		add	r2, r7, #56
 425 02a6 D318     		adds	r3, r2, r3
 426 02a8 13F8382C 		ldrb	r2, [r3, #-56]	@ zero_extendqisi2
 427 02ac 7B6B     		ldr	r3, [r7, #52]
 428 02ae 03F10D03 		add	r3, r3, #13
 429 02b2 07F13801 		add	r1, r7, #56
 430 02b6 CB18     		adds	r3, r1, r3
 431 02b8 13F8383C 		ldrb	r3, [r3, #-56]	@ zero_extendqisi2
 432 02bc 1046     		mov	r0, r2
 433 02be 1946     		mov	r1, r3
 434 02c0 FFF7FEFF 		bl	mergeBytes
 435 02c4 3862     		str	r0, [r7, #32]
  91:../_Quadrocopter/RemoteControl/RCReceive.c **** 		if (flightmodeRaw == FLIGHTMODE0) flightmode = 0;
 436              		.loc 1 91 0
 437 02c6 3A6A     		ldr	r2, [r7, #32]
 438 02c8 42F23213 		movw	r3, #8498
 439 02cc 9A42     		cmp	r2, r3
 440 02ce 06D1     		bne	.L8
 441              		.loc 1 91 0 is_stmt 0 discriminator 1
 442 02d0 40F20003 		movw	r3, #:lower16:flightmode
 443 02d4 C0F20003 		movt	r3, #:upper16:flightmode
 444 02d8 4FF00002 		mov	r2, #0
 445 02dc 1A70     		strb	r2, [r3, #0]
 446              	.L8:
  92:../_Quadrocopter/RemoteControl/RCReceive.c **** 		if (flightmodeRaw == FLIGHTMODE1) flightmode = 1;
 447              		.loc 1 92 0 is_stmt 1
 448 02de 3A6A     		ldr	r2, [r7, #32]
 449 02e0 42F2CA63 		movw	r3, #9930
 450 02e4 9A42     		cmp	r2, r3
 451 02e6 06D1     		bne	.L9
 452              		.loc 1 92 0 is_stmt 0 discriminator 1
 453 02e8 40F20003 		movw	r3, #:lower16:flightmode
 454 02ec C0F20003 		movt	r3, #:upper16:flightmode
 455 02f0 4FF00102 		mov	r2, #1
 456 02f4 1A70     		strb	r2, [r3, #0]
 457              	.L9:
  93:../_Quadrocopter/RemoteControl/RCReceive.c **** 
  94:../_Quadrocopter/RemoteControl/RCReceive.c **** 		//Set values for RC Timeout check
  95:../_Quadrocopter/RemoteControl/RCReceive.c **** 		RCTimeOut = 0;
 458              		.loc 1 95 0 is_stmt 1
 459 02f6 40F20003 		movw	r3, #:lower16:RCTimeOut
 460 02fa C0F20003 		movt	r3, #:upper16:RCTimeOut
 461 02fe 4FF00002 		mov	r2, #0
 462 0302 1A70     		strb	r2, [r3, #0]
  96:../_Quadrocopter/RemoteControl/RCReceive.c **** 		RCCount++;
 463              		.loc 1 96 0
 464 0304 40F20003 		movw	r3, #:lower16:RCCount
 465 0308 C0F20003 		movt	r3, #:upper16:RCCount
 466 030c 1B78     		ldrb	r3, [r3, #0]	@ zero_extendqisi2
 467 030e 03F10103 		add	r3, r3, #1
 468 0312 DAB2     		uxtb	r2, r3
 469 0314 40F20003 		movw	r3, #:lower16:RCCount
 470 0318 C0F20003 		movt	r3, #:upper16:RCCount
 471 031c 1A70     		strb	r2, [r3, #0]
 472              	.L3:
  97:../_Quadrocopter/RemoteControl/RCReceive.c **** 	}
  98:../_Quadrocopter/RemoteControl/RCReceive.c **** }
 473              		.loc 1 98 0
 474 031e 07F13807 		add	r7, r7, #56
 475 0322 BD46     		mov	sp, r7
 476 0324 80BD     		pop	{r7, pc}
 477              	.L12:
 478 0326 00BF     		.align	3
 479              	.L11:
 480 0328 00000000 		.word	0
 481 032c 004CED40 		.word	1089293312
 482 0330 00000000 		.word	0
 483 0334 004CDD40 		.word	1088244736
 484              		.cfi_endproc
 485              	.LFE121:
 487              		.section	.text.USIC0_5_IRQHandler,"ax",%progbits
 488              		.align	2
 489              		.global	USIC0_5_IRQHandler
 490              		.thumb
 491              		.thumb_func
 493              	USIC0_5_IRQHandler:
 494              	.LFB122:
  99:../_Quadrocopter/RemoteControl/RCReceive.c **** 
 100:../_Quadrocopter/RemoteControl/RCReceive.c **** void BT_RECEIVE_ISR()
 101:../_Quadrocopter/RemoteControl/RCReceive.c **** {
 495              		.loc 1 101 0
 496              		.cfi_startproc
 497              		@ args = 0, pretend = 0, frame = 24
 498              		@ frame_needed = 1, uses_anonymous_args = 0
 499 0000 80B5     		push	{r7, lr}
 500              	.LCFI6:
 501              		.cfi_def_cfa_offset 8
 502              		.cfi_offset 7, -8
 503              		.cfi_offset 14, -4
 504 0002 86B0     		sub	sp, sp, #24
 505              	.LCFI7:
 506              		.cfi_def_cfa_offset 32
 507 0004 00AF     		add	r7, sp, #0
 508              	.LCFI8:
 509              		.cfi_def_cfa_register 7
 102:../_Quadrocopter/RemoteControl/RCReceive.c **** 	uint8_t ReadBufRC[20] = {0}; //Readbuffer
 510              		.loc 1 102 0
 511 0006 3B46     		mov	r3, r7
 512 0008 4FF00002 		mov	r2, #0
 513 000c 1A60     		str	r2, [r3, #0]
 514 000e 03F10403 		add	r3, r3, #4
 515 0012 4FF00002 		mov	r2, #0
 516 0016 1A60     		str	r2, [r3, #0]
 517 0018 03F10403 		add	r3, r3, #4
 518 001c 4FF00002 		mov	r2, #0
 519 0020 1A60     		str	r2, [r3, #0]
 520 0022 03F10403 		add	r3, r3, #4
 521 0026 4FF00002 		mov	r2, #0
 522 002a 1A60     		str	r2, [r3, #0]
 523 002c 03F10403 		add	r3, r3, #4
 524 0030 4FF00002 		mov	r2, #0
 525 0034 1A60     		str	r2, [r3, #0]
 526 0036 03F10403 		add	r3, r3, #4
 103:../_Quadrocopter/RemoteControl/RCReceive.c **** 	int start = 0; //Index of start byte
 527              		.loc 1 103 0
 528 003a 4FF00003 		mov	r3, #0
 529 003e 7B61     		str	r3, [r7, #20]
 104:../_Quadrocopter/RemoteControl/RCReceive.c **** 
 105:../_Quadrocopter/RemoteControl/RCReceive.c **** 	//Check if receive buffer interrupt is set
 106:../_Quadrocopter/RemoteControl/RCReceive.c **** 	if(UART001_GetFlagStatus(&BT_UART_Handle,UART001_FIFO_STD_RECV_BUF_FLAG) == UART001_SET)
 530              		.loc 1 106 0
 531 0040 40F20000 		movw	r0, #:lower16:UART001_Handle2
 532 0044 C0F20000 		movt	r0, #:upper16:UART001_Handle2
 533 0048 4FF01001 		mov	r1, #16
 534 004c FFF7FEFF 		bl	UART001_GetFlagStatus
 535 0050 0346     		mov	r3, r0
 536 0052 022B     		cmp	r3, #2
 537 0054 40F0AF80 		bne	.L13
 107:../_Quadrocopter/RemoteControl/RCReceive.c **** 	{
 108:../_Quadrocopter/RemoteControl/RCReceive.c **** 		//Read data from UART buffer
 109:../_Quadrocopter/RemoteControl/RCReceive.c **** 		UART001_ReadDataBytes(&BT_UART_Handle,ReadBufRC,20);
 538              		.loc 1 109 0
 539 0058 3B46     		mov	r3, r7
 540 005a 40F20000 		movw	r0, #:lower16:UART001_Handle2
 541 005e C0F20000 		movt	r0, #:upper16:UART001_Handle2
 542 0062 1946     		mov	r1, r3
 543 0064 4FF01402 		mov	r2, #20
 544 0068 FFF7FEFF 		bl	UART001_ReadDataBytes
 110:../_Quadrocopter/RemoteControl/RCReceive.c **** 
 111:../_Quadrocopter/RemoteControl/RCReceive.c **** 		//Clear receive buffer interrupt flag
 112:../_Quadrocopter/RemoteControl/RCReceive.c **** 		UART001_ClearFlag(&BT_UART_Handle,UART001_FIFO_STD_RECV_BUF_FLAG);
 545              		.loc 1 112 0
 546 006c 40F20000 		movw	r0, #:lower16:UART001_Handle2
 547 0070 C0F20000 		movt	r0, #:upper16:UART001_Handle2
 548 0074 4FF01001 		mov	r1, #16
 549 0078 FFF7FEFF 		bl	UART001_ClearFlag
 113:../_Quadrocopter/RemoteControl/RCReceive.c **** 
 114:../_Quadrocopter/RemoteControl/RCReceive.c **** 		//Search for start byte and check static values
 115:../_Quadrocopter/RemoteControl/RCReceive.c **** 		while (ReadBufRC[start] != 0x02)
 550              		.loc 1 115 0
 551 007c 0CE0     		b	.L15
 552              	.L17:
 116:../_Quadrocopter/RemoteControl/RCReceive.c **** 		{
 117:../_Quadrocopter/RemoteControl/RCReceive.c **** 			if (start++ > 6) {
 553              		.loc 1 117 0
 554 007e 7B69     		ldr	r3, [r7, #20]
 555 0080 062B     		cmp	r3, #6
 556 0082 D4BF     		ite	le
 557 0084 0023     		movle	r3, #0
 558 0086 0123     		movgt	r3, #1
 559 0088 DBB2     		uxtb	r3, r3
 560 008a 7A69     		ldr	r2, [r7, #20]
 561 008c 02F10102 		add	r2, r2, #1
 562 0090 7A61     		str	r2, [r7, #20]
 563 0092 002B     		cmp	r3, #0
 564 0094 40F08F80 		bne	.L13
 565              	.L15:
 115:../_Quadrocopter/RemoteControl/RCReceive.c **** 		while (ReadBufRC[start] != 0x02)
 566              		.loc 1 115 0 discriminator 1
 567 0098 3A46     		mov	r2, r7
 568 009a 7B69     		ldr	r3, [r7, #20]
 569 009c D318     		adds	r3, r2, r3
 570 009e 1B78     		ldrb	r3, [r3, #0]	@ zero_extendqisi2
 571 00a0 022B     		cmp	r3, #2
 572 00a2 ECD1     		bne	.L17
 118:../_Quadrocopter/RemoteControl/RCReceive.c **** 				//Communication check bytes not in buffer
 119:../_Quadrocopter/RemoteControl/RCReceive.c **** 				return;
 120:../_Quadrocopter/RemoteControl/RCReceive.c **** 			}
 121:../_Quadrocopter/RemoteControl/RCReceive.c **** 		}
 122:../_Quadrocopter/RemoteControl/RCReceive.c **** 
 123:../_Quadrocopter/RemoteControl/RCReceive.c **** 		throttleBT=(ReadBufRC[start+1] << 8 | ReadBufRC[start+2]);
 573              		.loc 1 123 0
 574 00a4 7B69     		ldr	r3, [r7, #20]
 575 00a6 03F10103 		add	r3, r3, #1
 576 00aa 07F11801 		add	r1, r7, #24
 577 00ae CB18     		adds	r3, r1, r3
 578 00b0 13F8183C 		ldrb	r3, [r3, #-24]	@ zero_extendqisi2
 579 00b4 4FEA0323 		lsl	r3, r3, #8
 580 00b8 9AB2     		uxth	r2, r3
 581 00ba 7B69     		ldr	r3, [r7, #20]
 582 00bc 03F10203 		add	r3, r3, #2
 583 00c0 07F11801 		add	r1, r7, #24
 584 00c4 CB18     		adds	r3, r1, r3
 585 00c6 13F8183C 		ldrb	r3, [r3, #-24]	@ zero_extendqisi2
 586 00ca 1343     		orrs	r3, r3, r2
 587 00cc 9AB2     		uxth	r2, r3
 588 00ce 40F20003 		movw	r3, #:lower16:throttleBT
 589 00d2 C0F20003 		movt	r3, #:upper16:throttleBT
 590 00d6 1A80     		strh	r2, [r3, #0]	@ movhi
 124:../_Quadrocopter/RemoteControl/RCReceive.c **** 		rudderBT=(ReadBufRC[start+3] << 8 | ReadBufRC[start+4]);
 591              		.loc 1 124 0
 592 00d8 7B69     		ldr	r3, [r7, #20]
 593 00da 03F10303 		add	r3, r3, #3
 594 00de 07F11802 		add	r2, r7, #24
 595 00e2 D318     		adds	r3, r2, r3
 596 00e4 13F8183C 		ldrb	r3, [r3, #-24]	@ zero_extendqisi2
 597 00e8 4FEA0323 		lsl	r3, r3, #8
 598 00ec 9AB2     		uxth	r2, r3
 599 00ee 7B69     		ldr	r3, [r7, #20]
 600 00f0 03F10403 		add	r3, r3, #4
 601 00f4 07F11801 		add	r1, r7, #24
 602 00f8 CB18     		adds	r3, r1, r3
 603 00fa 13F8183C 		ldrb	r3, [r3, #-24]	@ zero_extendqisi2
 604 00fe 1343     		orrs	r3, r3, r2
 605 0100 9AB2     		uxth	r2, r3
 606 0102 40F20003 		movw	r3, #:lower16:rudderBT
 607 0106 C0F20003 		movt	r3, #:upper16:rudderBT
 608 010a 1A80     		strh	r2, [r3, #0]	@ movhi
 125:../_Quadrocopter/RemoteControl/RCReceive.c **** 		elevatorBT=(ReadBufRC[start+5] << 8 | ReadBufRC[start+6]);
 609              		.loc 1 125 0
 610 010c 7B69     		ldr	r3, [r7, #20]
 611 010e 03F10503 		add	r3, r3, #5
 612 0112 07F11802 		add	r2, r7, #24
 613 0116 D318     		adds	r3, r2, r3
 614 0118 13F8183C 		ldrb	r3, [r3, #-24]	@ zero_extendqisi2
 615 011c 4FEA0323 		lsl	r3, r3, #8
 616 0120 9AB2     		uxth	r2, r3
 617 0122 7B69     		ldr	r3, [r7, #20]
 618 0124 03F10603 		add	r3, r3, #6
 619 0128 07F11801 		add	r1, r7, #24
 620 012c CB18     		adds	r3, r1, r3
 621 012e 13F8183C 		ldrb	r3, [r3, #-24]	@ zero_extendqisi2
 622 0132 1343     		orrs	r3, r3, r2
 623 0134 9AB2     		uxth	r2, r3
 624 0136 40F20003 		movw	r3, #:lower16:elevatorBT
 625 013a C0F20003 		movt	r3, #:upper16:elevatorBT
 626 013e 1A80     		strh	r2, [r3, #0]	@ movhi
 126:../_Quadrocopter/RemoteControl/RCReceive.c **** 		aileronBT=(ReadBufRC[start+7] << 8 | ReadBufRC[start+8]);
 627              		.loc 1 126 0
 628 0140 7B69     		ldr	r3, [r7, #20]
 629 0142 03F10703 		add	r3, r3, #7
 630 0146 07F11802 		add	r2, r7, #24
 631 014a D318     		adds	r3, r2, r3
 632 014c 13F8183C 		ldrb	r3, [r3, #-24]	@ zero_extendqisi2
 633 0150 4FEA0323 		lsl	r3, r3, #8
 634 0154 9AB2     		uxth	r2, r3
 635 0156 7B69     		ldr	r3, [r7, #20]
 636 0158 03F10803 		add	r3, r3, #8
 637 015c 07F11801 		add	r1, r7, #24
 638 0160 CB18     		adds	r3, r1, r3
 639 0162 13F8183C 		ldrb	r3, [r3, #-24]	@ zero_extendqisi2
 640 0166 1343     		orrs	r3, r3, r2
 641 0168 9AB2     		uxth	r2, r3
 642 016a 40F20003 		movw	r3, #:lower16:aileronBT
 643 016e C0F20003 		movt	r3, #:upper16:aileronBT
 644 0172 1A80     		strh	r2, [r3, #0]	@ movhi
 127:../_Quadrocopter/RemoteControl/RCReceive.c **** 		modeBT=(ReadBufRC[start+9]);
 645              		.loc 1 127 0
 646 0174 7B69     		ldr	r3, [r7, #20]
 647 0176 03F10903 		add	r3, r3, #9
 648 017a 07F11802 		add	r2, r7, #24
 649 017e D318     		adds	r3, r2, r3
 650 0180 13F8182C 		ldrb	r2, [r3, #-24]	@ zero_extendqisi2
 651 0184 40F20003 		movw	r3, #:lower16:modeBT
 652 0188 C0F20003 		movt	r3, #:upper16:modeBT
 653 018c 1A70     		strb	r2, [r3, #0]
 128:../_Quadrocopter/RemoteControl/RCReceive.c **** 
 129:../_Quadrocopter/RemoteControl/RCReceive.c **** 		BTTimeOut = 0;
 654              		.loc 1 129 0
 655 018e 40F20003 		movw	r3, #:lower16:BTTimeOut
 656 0192 C0F20003 		movt	r3, #:upper16:BTTimeOut
 657 0196 4FF00002 		mov	r2, #0
 658 019a 1A70     		strb	r2, [r3, #0]
 130:../_Quadrocopter/RemoteControl/RCReceive.c **** 		BTCount++;
 659              		.loc 1 130 0
 660 019c 40F20003 		movw	r3, #:lower16:BTCount
 661 01a0 C0F20003 		movt	r3, #:upper16:BTCount
 662 01a4 1B78     		ldrb	r3, [r3, #0]	@ zero_extendqisi2
 663 01a6 03F10103 		add	r3, r3, #1
 664 01aa DAB2     		uxtb	r2, r3
 665 01ac 40F20003 		movw	r3, #:lower16:BTCount
 666 01b0 C0F20003 		movt	r3, #:upper16:BTCount
 667 01b4 1A70     		strb	r2, [r3, #0]
 668              	.L13:
 131:../_Quadrocopter/RemoteControl/RCReceive.c **** 	}
 132:../_Quadrocopter/RemoteControl/RCReceive.c **** }
 669              		.loc 1 132 0
 670 01b6 07F11807 		add	r7, r7, #24
 671 01ba BD46     		mov	sp, r7
 672 01bc 80BD     		pop	{r7, pc}
 673              		.cfi_endproc
 674              	.LFE122:
 676 01be 00BF     		.section	.text.WatchRC,"ax",%progbits
 677              		.align	2
 678              		.global	WatchRC
 679              		.thumb
 680              		.thumb_func
 682              	WatchRC:
 683              	.LFB123:
 133:../_Quadrocopter/RemoteControl/RCReceive.c **** 
 134:../_Quadrocopter/RemoteControl/RCReceive.c **** /*
 135:../_Quadrocopter/RemoteControl/RCReceive.c ****  * Check if new data has been arrived since last function call
 136:../_Quadrocopter/RemoteControl/RCReceive.c ****  * This function is called from software Timer "TimerWatchRC"
 137:../_Quadrocopter/RemoteControl/RCReceive.c ****  */
 138:../_Quadrocopter/RemoteControl/RCReceive.c **** void WatchRC(void* Temp)
 139:../_Quadrocopter/RemoteControl/RCReceive.c **** {
 684              		.loc 1 139 0
 685              		.cfi_startproc
 686              		@ args = 0, pretend = 0, frame = 8
 687              		@ frame_needed = 1, uses_anonymous_args = 0
 688              		@ link register save eliminated.
 689 0000 80B4     		push	{r7}
 690              	.LCFI9:
 691              		.cfi_def_cfa_offset 4
 692              		.cfi_offset 7, -4
 693 0002 83B0     		sub	sp, sp, #12
 694              	.LCFI10:
 695              		.cfi_def_cfa_offset 16
 696 0004 00AF     		add	r7, sp, #0
 697              	.LCFI11:
 698              		.cfi_def_cfa_register 7
 699 0006 7860     		str	r0, [r7, #4]
 140:../_Quadrocopter/RemoteControl/RCReceive.c **** 	static uint8_t lastCount;
 141:../_Quadrocopter/RemoteControl/RCReceive.c **** 	static uint8_t lastBTCount;
 142:../_Quadrocopter/RemoteControl/RCReceive.c **** 
 143:../_Quadrocopter/RemoteControl/RCReceive.c **** 	if (lastCount == RCCount) RCTimeOut = 1;
 700              		.loc 1 143 0
 701 0008 40F20003 		movw	r3, #:lower16:lastCount.10653
 702 000c C0F20003 		movt	r3, #:upper16:lastCount.10653
 703 0010 1A78     		ldrb	r2, [r3, #0]	@ zero_extendqisi2
 704 0012 40F20003 		movw	r3, #:lower16:RCCount
 705 0016 C0F20003 		movt	r3, #:upper16:RCCount
 706 001a 1B78     		ldrb	r3, [r3, #0]	@ zero_extendqisi2
 707 001c 9A42     		cmp	r2, r3
 708 001e 06D1     		bne	.L20
 709              		.loc 1 143 0 is_stmt 0 discriminator 1
 710 0020 40F20003 		movw	r3, #:lower16:RCTimeOut
 711 0024 C0F20003 		movt	r3, #:upper16:RCTimeOut
 712 0028 4FF00102 		mov	r2, #1
 713 002c 1A70     		strb	r2, [r3, #0]
 714              	.L20:
 144:../_Quadrocopter/RemoteControl/RCReceive.c **** 	lastCount = RCCount;
 715              		.loc 1 144 0 is_stmt 1
 716 002e 40F20003 		movw	r3, #:lower16:RCCount
 717 0032 C0F20003 		movt	r3, #:upper16:RCCount
 718 0036 1A78     		ldrb	r2, [r3, #0]	@ zero_extendqisi2
 719 0038 40F20003 		movw	r3, #:lower16:lastCount.10653
 720 003c C0F20003 		movt	r3, #:upper16:lastCount.10653
 721 0040 1A70     		strb	r2, [r3, #0]
 145:../_Quadrocopter/RemoteControl/RCReceive.c **** 
 146:../_Quadrocopter/RemoteControl/RCReceive.c **** 	if (lastBTCount == BTCount) BTTimeOut = 1;
 722              		.loc 1 146 0
 723 0042 40F20003 		movw	r3, #:lower16:lastBTCount.10654
 724 0046 C0F20003 		movt	r3, #:upper16:lastBTCount.10654
 725 004a 1A78     		ldrb	r2, [r3, #0]	@ zero_extendqisi2
 726 004c 40F20003 		movw	r3, #:lower16:BTCount
 727 0050 C0F20003 		movt	r3, #:upper16:BTCount
 728 0054 1B78     		ldrb	r3, [r3, #0]	@ zero_extendqisi2
 729 0056 9A42     		cmp	r2, r3
 730 0058 06D1     		bne	.L21
 731              		.loc 1 146 0 is_stmt 0 discriminator 1
 732 005a 40F20003 		movw	r3, #:lower16:BTTimeOut
 733 005e C0F20003 		movt	r3, #:upper16:BTTimeOut
 734 0062 4FF00102 		mov	r2, #1
 735 0066 1A70     		strb	r2, [r3, #0]
 736              	.L21:
 147:../_Quadrocopter/RemoteControl/RCReceive.c **** 	lastBTCount = BTCount;
 737              		.loc 1 147 0 is_stmt 1
 738 0068 40F20003 		movw	r3, #:lower16:BTCount
 739 006c C0F20003 		movt	r3, #:upper16:BTCount
 740 0070 1A78     		ldrb	r2, [r3, #0]	@ zero_extendqisi2
 741 0072 40F20003 		movw	r3, #:lower16:lastBTCount.10654
 742 0076 C0F20003 		movt	r3, #:upper16:lastBTCount.10654
 743 007a 1A70     		strb	r2, [r3, #0]
 148:../_Quadrocopter/RemoteControl/RCReceive.c **** }
 744              		.loc 1 148 0
 745 007c 07F10C07 		add	r7, r7, #12
 746 0080 BD46     		mov	sp, r7
 747 0082 80BC     		pop	{r7}
 748 0084 7047     		bx	lr
 749              		.cfi_endproc
 750              	.LFE123:
 752 0086 00BF     		.section	.text.WatchRC_Init,"ax",%progbits
 753              		.align	2
 754              		.global	WatchRC_Init
 755              		.thumb
 756              		.thumb_func
 758              	WatchRC_Init:
 759              	.LFB124:
 149:../_Quadrocopter/RemoteControl/RCReceive.c **** 
 150:../_Quadrocopter/RemoteControl/RCReceive.c **** /*
 151:../_Quadrocopter/RemoteControl/RCReceive.c ****  * Initialize RC watchdog
 152:../_Quadrocopter/RemoteControl/RCReceive.c ****  */
 153:../_Quadrocopter/RemoteControl/RCReceive.c **** void WatchRC_Init()
 154:../_Quadrocopter/RemoteControl/RCReceive.c **** {
 760              		.loc 1 154 0
 761              		.cfi_startproc
 762              		@ args = 0, pretend = 0, frame = 0
 763              		@ frame_needed = 1, uses_anonymous_args = 0
 764 0000 80B5     		push	{r7, lr}
 765              	.LCFI12:
 766              		.cfi_def_cfa_offset 8
 767              		.cfi_offset 7, -8
 768              		.cfi_offset 14, -4
 769 0002 00AF     		add	r7, sp, #0
 770              	.LCFI13:
 771              		.cfi_def_cfa_register 7
 155:../_Quadrocopter/RemoteControl/RCReceive.c **** 	//Set timer to check every 100ms, if new data has arrived
 156:../_Quadrocopter/RemoteControl/RCReceive.c **** 	TimerWatchRC = SYSTM001_CreateTimer(100,SYSTM001_PERIODIC,WatchRC,NULL);
 772              		.loc 1 156 0
 773 0004 4FF06400 		mov	r0, #100
 774 0008 4FF00101 		mov	r1, #1
 775 000c 40F20002 		movw	r2, #:lower16:WatchRC
 776 0010 C0F20002 		movt	r2, #:upper16:WatchRC
 777 0014 4FF00003 		mov	r3, #0
 778 0018 FFF7FEFF 		bl	SYSTM001_CreateTimer
 779 001c 0246     		mov	r2, r0
 780 001e 40F20003 		movw	r3, #:lower16:TimerWatchRC
 781 0022 C0F20003 		movt	r3, #:upper16:TimerWatchRC
 782 0026 1A60     		str	r2, [r3, #0]
 157:../_Quadrocopter/RemoteControl/RCReceive.c **** 	if(TimerWatchRC != 0)
 783              		.loc 1 157 0
 784 0028 40F20003 		movw	r3, #:lower16:TimerWatchRC
 785 002c C0F20003 		movt	r3, #:upper16:TimerWatchRC
 786 0030 1B68     		ldr	r3, [r3, #0]
 787 0032 002B     		cmp	r3, #0
 788 0034 07D0     		beq	.L22
 158:../_Quadrocopter/RemoteControl/RCReceive.c **** 	{
 159:../_Quadrocopter/RemoteControl/RCReceive.c **** 		//Timer is created successfully
 160:../_Quadrocopter/RemoteControl/RCReceive.c **** 		if(SYSTM001_StartTimer(TimerWatchRC) == DAVEApp_SUCCESS)
 789              		.loc 1 160 0
 790 0036 40F20003 		movw	r3, #:lower16:TimerWatchRC
 791 003a C0F20003 		movt	r3, #:upper16:TimerWatchRC
 792 003e 1B68     		ldr	r3, [r3, #0]
 793 0040 1846     		mov	r0, r3
 794 0042 FFF7FEFF 		bl	SYSTM001_StartTimer
 795              	.L22:
 161:../_Quadrocopter/RemoteControl/RCReceive.c **** 		{
 162:../_Quadrocopter/RemoteControl/RCReceive.c **** 			//Timer started
 163:../_Quadrocopter/RemoteControl/RCReceive.c **** 		}
 164:../_Quadrocopter/RemoteControl/RCReceive.c **** 	}
 165:../_Quadrocopter/RemoteControl/RCReceive.c **** }
 796              		.loc 1 165 0
 797 0046 80BD     		pop	{r7, pc}
 798              		.cfi_endproc
 799              	.LFE124:
 801              		.section	.text.GetRCCount,"ax",%progbits
 802              		.align	2
 803              		.global	GetRCCount
 804              		.thumb
 805              		.thumb_func
 807              	GetRCCount:
 808              	.LFB125:
 166:../_Quadrocopter/RemoteControl/RCReceive.c **** 
 167:../_Quadrocopter/RemoteControl/RCReceive.c **** uint8_t GetRCCount()
 168:../_Quadrocopter/RemoteControl/RCReceive.c **** {
 809              		.loc 1 168 0
 810              		.cfi_startproc
 811              		@ args = 0, pretend = 0, frame = 0
 812              		@ frame_needed = 1, uses_anonymous_args = 0
 813              		@ link register save eliminated.
 814 0000 80B4     		push	{r7}
 815              	.LCFI14:
 816              		.cfi_def_cfa_offset 4
 817              		.cfi_offset 7, -4
 818 0002 00AF     		add	r7, sp, #0
 819              	.LCFI15:
 820              		.cfi_def_cfa_register 7
 169:../_Quadrocopter/RemoteControl/RCReceive.c **** 	return RCCount;
 821              		.loc 1 169 0
 822 0004 40F20003 		movw	r3, #:lower16:RCCount
 823 0008 C0F20003 		movt	r3, #:upper16:RCCount
 824 000c 1B78     		ldrb	r3, [r3, #0]	@ zero_extendqisi2
 170:../_Quadrocopter/RemoteControl/RCReceive.c **** }
 825              		.loc 1 170 0
 826 000e 1846     		mov	r0, r3
 827 0010 BD46     		mov	sp, r7
 828 0012 80BC     		pop	{r7}
 829 0014 7047     		bx	lr
 830              		.cfi_endproc
 831              	.LFE125:
 833 0016 00BF     		.section	.text.GetRCTimeOut,"ax",%progbits
 834              		.align	2
 835              		.global	GetRCTimeOut
 836              		.thumb
 837              		.thumb_func
 839              	GetRCTimeOut:
 840              	.LFB126:
 171:../_Quadrocopter/RemoteControl/RCReceive.c **** 
 172:../_Quadrocopter/RemoteControl/RCReceive.c **** uint8_t GetRCTimeOut()
 173:../_Quadrocopter/RemoteControl/RCReceive.c **** {
 841              		.loc 1 173 0
 842              		.cfi_startproc
 843              		@ args = 0, pretend = 0, frame = 0
 844              		@ frame_needed = 1, uses_anonymous_args = 0
 845              		@ link register save eliminated.
 846 0000 80B4     		push	{r7}
 847              	.LCFI16:
 848              		.cfi_def_cfa_offset 4
 849              		.cfi_offset 7, -4
 850 0002 00AF     		add	r7, sp, #0
 851              	.LCFI17:
 852              		.cfi_def_cfa_register 7
 174:../_Quadrocopter/RemoteControl/RCReceive.c **** 	return RCTimeOut;
 853              		.loc 1 174 0
 854 0004 40F20003 		movw	r3, #:lower16:RCTimeOut
 855 0008 C0F20003 		movt	r3, #:upper16:RCTimeOut
 856 000c 1B78     		ldrb	r3, [r3, #0]	@ zero_extendqisi2
 175:../_Quadrocopter/RemoteControl/RCReceive.c **** }
 857              		.loc 1 175 0
 858 000e 1846     		mov	r0, r3
 859 0010 BD46     		mov	sp, r7
 860 0012 80BC     		pop	{r7}
 861 0014 7047     		bx	lr
 862              		.cfi_endproc
 863              	.LFE126:
 865              		.global	__aeabi_f2d
 866              		.global	__aeabi_dcmpgt
 867              		.global	__aeabi_dcmplt
 868              		.global	__aeabi_dadd
 869              		.global	__aeabi_dmul
 870 0016 00BF     		.section	.text.GetRCData,"ax",%progbits
 871              		.align	2
 872              		.global	GetRCData
 873              		.thumb
 874              		.thumb_func
 876              	GetRCData:
 877              	.LFB127:
 176:../_Quadrocopter/RemoteControl/RCReceive.c **** 
 177:../_Quadrocopter/RemoteControl/RCReceive.c **** void GetRCData(float* power, float* yaw_dot, float* pitch, float* roll)
 178:../_Quadrocopter/RemoteControl/RCReceive.c **** {
 878              		.loc 1 178 0
 879              		.cfi_startproc
 880              		@ args = 0, pretend = 0, frame = 16
 881              		@ frame_needed = 1, uses_anonymous_args = 0
 882 0000 80B5     		push	{r7, lr}
 883              	.LCFI18:
 884              		.cfi_def_cfa_offset 8
 885              		.cfi_offset 7, -8
 886              		.cfi_offset 14, -4
 887 0002 84B0     		sub	sp, sp, #16
 888              	.LCFI19:
 889              		.cfi_def_cfa_offset 24
 890 0004 00AF     		add	r7, sp, #0
 891              	.LCFI20:
 892              		.cfi_def_cfa_register 7
 893 0006 F860     		str	r0, [r7, #12]
 894 0008 B960     		str	r1, [r7, #8]
 895 000a 7A60     		str	r2, [r7, #4]
 896 000c 3B60     		str	r3, [r7, #0]
 179:../_Quadrocopter/RemoteControl/RCReceive.c **** 	if (flightmode == 0)
 897              		.loc 1 179 0
 898 000e 40F20003 		movw	r3, #:lower16:flightmode
 899 0012 C0F20003 		movt	r3, #:upper16:flightmode
 900 0016 1B78     		ldrb	r3, [r3, #0]	@ zero_extendqisi2
 901 0018 002B     		cmp	r3, #0
 902 001a 7BD1     		bne	.L29
 180:../_Quadrocopter/RemoteControl/RCReceive.c **** 	{
 181:../_Quadrocopter/RemoteControl/RCReceive.c **** 		if (RCTimeOut)
 903              		.loc 1 181 0
 904 001c 40F20003 		movw	r3, #:lower16:RCTimeOut
 905 0020 C0F20003 		movt	r3, #:upper16:RCTimeOut
 906 0024 1B78     		ldrb	r3, [r3, #0]	@ zero_extendqisi2
 907 0026 002B     		cmp	r3, #0
 908 0028 10D0     		beq	.L30
 182:../_Quadrocopter/RemoteControl/RCReceive.c **** 		{
 183:../_Quadrocopter/RemoteControl/RCReceive.c **** 			*power=0;
 909              		.loc 1 183 0
 910 002a FB68     		ldr	r3, [r7, #12]
 911 002c 4FF00002 		mov	r2, #0
 912 0030 1A60     		str	r2, [r3, #0]	@ float
 184:../_Quadrocopter/RemoteControl/RCReceive.c **** 			*yaw_dot=0;
 913              		.loc 1 184 0
 914 0032 BB68     		ldr	r3, [r7, #8]
 915 0034 4FF00002 		mov	r2, #0
 916 0038 1A60     		str	r2, [r3, #0]	@ float
 185:../_Quadrocopter/RemoteControl/RCReceive.c **** 			*pitch=0;
 917              		.loc 1 185 0
 918 003a 7B68     		ldr	r3, [r7, #4]
 919 003c 4FF00002 		mov	r2, #0
 920 0040 1A60     		str	r2, [r3, #0]	@ float
 186:../_Quadrocopter/RemoteControl/RCReceive.c **** 			*roll=0;
 921              		.loc 1 186 0
 922 0042 3B68     		ldr	r3, [r7, #0]
 923 0044 4FF00002 		mov	r2, #0
 924 0048 1A60     		str	r2, [r3, #0]	@ float
 925 004a 9FE1     		b	.L28
 926              	.L30:
 187:../_Quadrocopter/RemoteControl/RCReceive.c **** 		}
 188:../_Quadrocopter/RemoteControl/RCReceive.c **** 		else
 189:../_Quadrocopter/RemoteControl/RCReceive.c **** 		{
 190:../_Quadrocopter/RemoteControl/RCReceive.c **** 			*power=SCALE_POWER*throttle;
 927              		.loc 1 190 0
 928 004c 40F20003 		movw	r3, #:lower16:throttle
 929 0050 C0F20003 		movt	r3, #:upper16:throttle
 930 0054 93ED007A 		flds	s14, [r3, #0]
 931 0058 DFEDA37A 		flds	s15, .L40+24
 932 005c 67EE277A 		fmuls	s15, s14, s15
 933 0060 FB68     		ldr	r3, [r7, #12]
 934 0062 C3ED007A 		fsts	s15, [r3, #0]
 191:../_Quadrocopter/RemoteControl/RCReceive.c **** 			if (rudder > 0.01 || rudder < -0.01)
 935              		.loc 1 191 0
 936 0066 40F20003 		movw	r3, #:lower16:rudder
 937 006a C0F20003 		movt	r3, #:upper16:rudder
 938 006e 1B68     		ldr	r3, [r3, #0]	@ float
 939 0070 1846     		mov	r0, r3	@ float
 940 0072 FFF7FEFF 		bl	__aeabi_f2d
 941 0076 0246     		mov	r2, r0
 942 0078 0B46     		mov	r3, r1
 943 007a 1046     		mov	r0, r2
 944 007c 1946     		mov	r1, r3
 945 007e 94A3     		adr	r3, .L40
 946 0080 D3E90023 		ldrd	r2, [r3]
 947 0084 FFF7FEFF 		bl	__aeabi_dcmpgt
 948 0088 0346     		mov	r3, r0
 949 008a 002B     		cmp	r3, #0
 950 008c 13D1     		bne	.L32
 951              		.loc 1 191 0 is_stmt 0 discriminator 1
 952 008e 40F20003 		movw	r3, #:lower16:rudder
 953 0092 C0F20003 		movt	r3, #:upper16:rudder
 954 0096 1B68     		ldr	r3, [r3, #0]	@ float
 955 0098 1846     		mov	r0, r3	@ float
 956 009a FFF7FEFF 		bl	__aeabi_f2d
 957 009e 0246     		mov	r2, r0
 958 00a0 0B46     		mov	r3, r1
 959 00a2 1046     		mov	r0, r2
 960 00a4 1946     		mov	r1, r3
 961 00a6 8CA3     		adr	r3, .L40+8
 962 00a8 D3E90023 		ldrd	r2, [r3]
 963 00ac FFF7FEFF 		bl	__aeabi_dcmplt
 964 00b0 0346     		mov	r3, r0
 965 00b2 002B     		cmp	r3, #0
 966 00b4 0DD0     		beq	.L39
 967              	.L32:
 192:../_Quadrocopter/RemoteControl/RCReceive.c **** 				*yaw_dot=rudder*SCALE_YAW;
 968              		.loc 1 192 0 is_stmt 1
 969 00b6 40F20003 		movw	r3, #:lower16:rudder
 970 00ba C0F20003 		movt	r3, #:upper16:rudder
 971 00be 93ED007A 		flds	s14, [r3, #0]
 972 00c2 DFED8A7A 		flds	s15, .L40+28
 973 00c6 67EE277A 		fmuls	s15, s14, s15
 974 00ca BB68     		ldr	r3, [r7, #8]
 975 00cc C3ED007A 		fsts	s15, [r3, #0]
 976 00d0 03E0     		b	.L35
 977              	.L39:
 193:../_Quadrocopter/RemoteControl/RCReceive.c **** 			else
 194:../_Quadrocopter/RemoteControl/RCReceive.c **** 				*yaw_dot = 0;
 978              		.loc 1 194 0
 979 00d2 BB68     		ldr	r3, [r7, #8]
 980 00d4 4FF00002 		mov	r2, #0
 981 00d8 1A60     		str	r2, [r3, #0]	@ float
 982              	.L35:
 195:../_Quadrocopter/RemoteControl/RCReceive.c **** 			*pitch=elevator*SCALE_PITCH;
 983              		.loc 1 195 0
 984 00da 40F20003 		movw	r3, #:lower16:elevator
 985 00de C0F20003 		movt	r3, #:upper16:elevator
 986 00e2 93ED007A 		flds	s14, [r3, #0]
 987 00e6 DFED817A 		flds	s15, .L40+28
 988 00ea 67EE277A 		fmuls	s15, s14, s15
 989 00ee 7B68     		ldr	r3, [r7, #4]
 990 00f0 C3ED007A 		fsts	s15, [r3, #0]
 196:../_Quadrocopter/RemoteControl/RCReceive.c **** 			*roll=-aileron*SCALE_ROLL;
 991              		.loc 1 196 0
 992 00f4 40F20003 		movw	r3, #:lower16:aileron
 993 00f8 C0F20003 		movt	r3, #:upper16:aileron
 994 00fc D3ED007A 		flds	s15, [r3, #0]
 995 0100 B1EE677A 		fnegs	s14, s15
 996 0104 DFED797A 		flds	s15, .L40+28
 997 0108 67EE277A 		fmuls	s15, s14, s15
 998 010c 3B68     		ldr	r3, [r7, #0]
 999 010e C3ED007A 		fsts	s15, [r3, #0]
 1000 0112 3BE1     		b	.L28
 1001              	.L29:
 197:../_Quadrocopter/RemoteControl/RCReceive.c **** 		}
 198:../_Quadrocopter/RemoteControl/RCReceive.c **** 	}
 199:../_Quadrocopter/RemoteControl/RCReceive.c **** 	else
 200:../_Quadrocopter/RemoteControl/RCReceive.c **** 	{
 201:../_Quadrocopter/RemoteControl/RCReceive.c **** 		if (BTTimeOut || RCTimeOut)
 1002              		.loc 1 201 0
 1003 0114 40F20003 		movw	r3, #:lower16:BTTimeOut
 1004 0118 C0F20003 		movt	r3, #:upper16:BTTimeOut
 1005 011c 1B78     		ldrb	r3, [r3, #0]	@ zero_extendqisi2
 1006 011e 002B     		cmp	r3, #0
 1007 0120 06D1     		bne	.L36
 1008              		.loc 1 201 0 is_stmt 0 discriminator 1
 1009 0122 40F20003 		movw	r3, #:lower16:RCTimeOut
 1010 0126 C0F20003 		movt	r3, #:upper16:RCTimeOut
 1011 012a 1B78     		ldrb	r3, [r3, #0]	@ zero_extendqisi2
 1012 012c 002B     		cmp	r3, #0
 1013 012e 10D0     		beq	.L37
 1014              	.L36:
 202:../_Quadrocopter/RemoteControl/RCReceive.c **** 		{
 203:../_Quadrocopter/RemoteControl/RCReceive.c **** 			*power=0;
 1015              		.loc 1 203 0 is_stmt 1
 1016 0130 FB68     		ldr	r3, [r7, #12]
 1017 0132 4FF00002 		mov	r2, #0
 1018 0136 1A60     		str	r2, [r3, #0]	@ float
 204:../_Quadrocopter/RemoteControl/RCReceive.c **** 			*yaw_dot=0;
 1019              		.loc 1 204 0
 1020 0138 BB68     		ldr	r3, [r7, #8]
 1021 013a 4FF00002 		mov	r2, #0
 1022 013e 1A60     		str	r2, [r3, #0]	@ float
 205:../_Quadrocopter/RemoteControl/RCReceive.c **** 			*pitch=0;
 1023              		.loc 1 205 0
 1024 0140 7B68     		ldr	r3, [r7, #4]
 1025 0142 4FF00002 		mov	r2, #0
 1026 0146 1A60     		str	r2, [r3, #0]	@ float
 206:../_Quadrocopter/RemoteControl/RCReceive.c **** 			*roll=0;
 1027              		.loc 1 206 0
 1028 0148 3B68     		ldr	r3, [r7, #0]
 1029 014a 4FF00002 		mov	r2, #0
 1030 014e 1A60     		str	r2, [r3, #0]	@ float
 1031 0150 1CE1     		b	.L28
 1032              	.L37:
 207:../_Quadrocopter/RemoteControl/RCReceive.c **** 		}
 208:../_Quadrocopter/RemoteControl/RCReceive.c **** 		else
 209:../_Quadrocopter/RemoteControl/RCReceive.c **** 		{
 210:../_Quadrocopter/RemoteControl/RCReceive.c **** 			*power=SCALE_POWER*(throttleBT/32767.0+1)/2;
 1033              		.loc 1 210 0
 1034 0152 40F20003 		movw	r3, #:lower16:throttleBT
 1035 0156 C0F20003 		movt	r3, #:upper16:throttleBT
 1036 015a 1B88     		ldrh	r3, [r3, #0]
 1037 015c 1BB2     		sxth	r3, r3
 1038 015e 1846     		mov	r0, r3
 1039 0160 FFF7FEFF 		bl	__aeabi_i2d
 1040 0164 0246     		mov	r2, r0
 1041 0166 0B46     		mov	r3, r1
 1042 0168 1046     		mov	r0, r2
 1043 016a 1946     		mov	r1, r3
 1044 016c 5CA3     		adr	r3, .L40+16
 1045 016e D3E90023 		ldrd	r2, [r3]
 1046 0172 FFF7FEFF 		bl	__aeabi_ddiv
 1047 0176 0246     		mov	r2, r0
 1048 0178 0B46     		mov	r3, r1
 1049 017a 1046     		mov	r0, r2
 1050 017c 1946     		mov	r1, r3
 1051 017e 4FF00002 		mov	r2, #0
 1052 0182 4FF00003 		mov	r3, #0
 1053 0186 C3F6F073 		movt	r3, 16368
 1054 018a FFF7FEFF 		bl	__aeabi_dadd
 1055 018e 0246     		mov	r2, r0
 1056 0190 0B46     		mov	r3, r1
 1057 0192 1046     		mov	r0, r2
 1058 0194 1946     		mov	r1, r3
 1059 0196 4FF00002 		mov	r2, #0
 1060 019a 4FF00003 		mov	r3, #0
 1061 019e C4F25903 		movt	r3, 16473
 1062 01a2 FFF7FEFF 		bl	__aeabi_dmul
 1063 01a6 0246     		mov	r2, r0
 1064 01a8 0B46     		mov	r3, r1
 1065 01aa 1046     		mov	r0, r2
 1066 01ac 1946     		mov	r1, r3
 1067 01ae 4FF00002 		mov	r2, #0
 1068 01b2 4FF08043 		mov	r3, #1073741824
 1069 01b6 FFF7FEFF 		bl	__aeabi_ddiv
 1070 01ba 0246     		mov	r2, r0
 1071 01bc 0B46     		mov	r3, r1
 1072 01be 1046     		mov	r0, r2
 1073 01c0 1946     		mov	r1, r3
 1074 01c2 FFF7FEFF 		bl	__aeabi_d2f
 1075 01c6 0246     		mov	r2, r0	@ float
 1076 01c8 FB68     		ldr	r3, [r7, #12]
 1077 01ca 1A60     		str	r2, [r3, #0]	@ float
 211:../_Quadrocopter/RemoteControl/RCReceive.c **** 			*yaw_dot=-rudderBT/32767.0*SCALE_YAW;
 1078              		.loc 1 211 0
 1079 01cc 40F20003 		movw	r3, #:lower16:rudderBT
 1080 01d0 C0F20003 		movt	r3, #:upper16:rudderBT
 1081 01d4 1B88     		ldrh	r3, [r3, #0]
 1082 01d6 1BB2     		sxth	r3, r3
 1083 01d8 C3F10003 		rsb	r3, r3, #0
 1084 01dc 1846     		mov	r0, r3
 1085 01de FFF7FEFF 		bl	__aeabi_i2d
 1086 01e2 0246     		mov	r2, r0
 1087 01e4 0B46     		mov	r3, r1
 1088 01e6 1046     		mov	r0, r2
 1089 01e8 1946     		mov	r1, r3
 1090 01ea 3DA3     		adr	r3, .L40+16
 1091 01ec D3E90023 		ldrd	r2, [r3]
 1092 01f0 FFF7FEFF 		bl	__aeabi_ddiv
 1093 01f4 0246     		mov	r2, r0
 1094 01f6 0B46     		mov	r3, r1
 1095 01f8 1046     		mov	r0, r2
 1096 01fa 1946     		mov	r1, r3
 1097 01fc 4FF00002 		mov	r2, #0
 1098 0200 4FF40043 		mov	r3, #32768
 1099 0204 C4F25603 		movt	r3, 16470
 1100 0208 FFF7FEFF 		bl	__aeabi_dmul
 1101 020c 0246     		mov	r2, r0
 1102 020e 0B46     		mov	r3, r1
 1103 0210 1046     		mov	r0, r2
 1104 0212 1946     		mov	r1, r3
 1105 0214 FFF7FEFF 		bl	__aeabi_d2f
 1106 0218 0246     		mov	r2, r0	@ float
 1107 021a BB68     		ldr	r3, [r7, #8]
 1108 021c 1A60     		str	r2, [r3, #0]	@ float
 212:../_Quadrocopter/RemoteControl/RCReceive.c **** 			if (modeBT == 1)
 1109              		.loc 1 212 0
 1110 021e 40F20003 		movw	r3, #:lower16:modeBT
 1111 0222 C0F20003 		movt	r3, #:upper16:modeBT
 1112 0226 1B78     		ldrb	r3, [r3, #0]	@ zero_extendqisi2
 1113 0228 012B     		cmp	r3, #1
 1114 022a 61D1     		bne	.L38
 213:../_Quadrocopter/RemoteControl/RCReceive.c **** 			{
 214:../_Quadrocopter/RemoteControl/RCReceive.c **** 				*pitch=-elevatorBT/32767.0*90;
 1115              		.loc 1 214 0
 1116 022c 40F20003 		movw	r3, #:lower16:elevatorBT
 1117 0230 C0F20003 		movt	r3, #:upper16:elevatorBT
 1118 0234 1B88     		ldrh	r3, [r3, #0]
 1119 0236 1BB2     		sxth	r3, r3
 1120 0238 C3F10003 		rsb	r3, r3, #0
 1121 023c 1846     		mov	r0, r3
 1122 023e FFF7FEFF 		bl	__aeabi_i2d
 1123 0242 0246     		mov	r2, r0
 1124 0244 0B46     		mov	r3, r1
 1125 0246 1046     		mov	r0, r2
 1126 0248 1946     		mov	r1, r3
 1127 024a 25A3     		adr	r3, .L40+16
 1128 024c D3E90023 		ldrd	r2, [r3]
 1129 0250 FFF7FEFF 		bl	__aeabi_ddiv
 1130 0254 0246     		mov	r2, r0
 1131 0256 0B46     		mov	r3, r1
 1132 0258 1046     		mov	r0, r2
 1133 025a 1946     		mov	r1, r3
 1134 025c 4FF00002 		mov	r2, #0
 1135 0260 4FF40043 		mov	r3, #32768
 1136 0264 C4F25603 		movt	r3, 16470
 1137 0268 FFF7FEFF 		bl	__aeabi_dmul
 1138 026c 0246     		mov	r2, r0
 1139 026e 0B46     		mov	r3, r1
 1140 0270 1046     		mov	r0, r2
 1141 0272 1946     		mov	r1, r3
 1142 0274 FFF7FEFF 		bl	__aeabi_d2f
 1143 0278 0246     		mov	r2, r0	@ float
 1144 027a 7B68     		ldr	r3, [r7, #4]
 1145 027c 1A60     		str	r2, [r3, #0]	@ float
 215:../_Quadrocopter/RemoteControl/RCReceive.c **** 				*roll=aileronBT/32767.0*90;
 1146              		.loc 1 215 0
 1147 027e 40F20003 		movw	r3, #:lower16:aileronBT
 1148 0282 C0F20003 		movt	r3, #:upper16:aileronBT
 1149 0286 1B88     		ldrh	r3, [r3, #0]
 1150 0288 1BB2     		sxth	r3, r3
 1151 028a 1846     		mov	r0, r3
 1152 028c FFF7FEFF 		bl	__aeabi_i2d
 1153 0290 0246     		mov	r2, r0
 1154 0292 0B46     		mov	r3, r1
 1155 0294 1046     		mov	r0, r2
 1156 0296 1946     		mov	r1, r3
 1157 0298 11A3     		adr	r3, .L40+16
 1158 029a D3E90023 		ldrd	r2, [r3]
 1159 029e FFF7FEFF 		bl	__aeabi_ddiv
 1160 02a2 0246     		mov	r2, r0
 1161 02a4 0B46     		mov	r3, r1
 1162 02a6 1046     		mov	r0, r2
 1163 02a8 1946     		mov	r1, r3
 1164 02aa 4FF00002 		mov	r2, #0
 1165 02ae 4FF40043 		mov	r3, #32768
 1166 02b2 C4F25603 		movt	r3, 16470
 1167 02b6 FFF7FEFF 		bl	__aeabi_dmul
 1168 02ba 0246     		mov	r2, r0
 1169 02bc 0B46     		mov	r3, r1
 1170 02be 1046     		mov	r0, r2
 1171 02c0 1946     		mov	r1, r3
 1172 02c2 FFF7FEFF 		bl	__aeabi_d2f
 1173 02c6 0246     		mov	r2, r0	@ float
 1174 02c8 3B68     		ldr	r3, [r7, #0]
 1175 02ca 1A60     		str	r2, [r3, #0]	@ float
 1176 02cc 5EE0     		b	.L28
 1177              	.L41:
 1178 02ce 00BF     		.align	3
 1179              	.L40:
 1180 02d0 7B14AE47 		.word	1202590843
 1181 02d4 E17A843F 		.word	1065646817
 1182 02d8 7B14AE47 		.word	1202590843
 1183 02dc E17A84BF 		.word	-1081836831
 1184 02e0 00000000 		.word	0
 1185 02e4 C0FFDF40 		.word	1088421824
 1186 02e8 0000C842 		.word	1120403456
 1187 02ec 0000B442 		.word	1119092736
 1188              	.L38:
 216:../_Quadrocopter/RemoteControl/RCReceive.c **** 			}
 217:../_Quadrocopter/RemoteControl/RCReceive.c **** 			else
 218:../_Quadrocopter/RemoteControl/RCReceive.c **** 			{
 219:../_Quadrocopter/RemoteControl/RCReceive.c **** 				*pitch=elevatorBT/32767.0*SCALE_PITCH;
 1189              		.loc 1 219 0
 1190 02f0 40F20003 		movw	r3, #:lower16:elevatorBT
 1191 02f4 C0F20003 		movt	r3, #:upper16:elevatorBT
 1192 02f8 1B88     		ldrh	r3, [r3, #0]
 1193 02fa 1BB2     		sxth	r3, r3
 1194 02fc 1846     		mov	r0, r3
 1195 02fe FFF7FEFF 		bl	__aeabi_i2d
 1196 0302 0246     		mov	r2, r0
 1197 0304 0B46     		mov	r3, r1
 1198 0306 1046     		mov	r0, r2
 1199 0308 1946     		mov	r1, r3
 1200 030a 23A3     		adr	r3, .L42
 1201 030c D3E90023 		ldrd	r2, [r3]
 1202 0310 FFF7FEFF 		bl	__aeabi_ddiv
 1203 0314 0246     		mov	r2, r0
 1204 0316 0B46     		mov	r3, r1
 1205 0318 1046     		mov	r0, r2
 1206 031a 1946     		mov	r1, r3
 1207 031c 4FF00002 		mov	r2, #0
 1208 0320 4FF40043 		mov	r3, #32768
 1209 0324 C4F25603 		movt	r3, 16470
 1210 0328 FFF7FEFF 		bl	__aeabi_dmul
 1211 032c 0246     		mov	r2, r0
 1212 032e 0B46     		mov	r3, r1
 1213 0330 1046     		mov	r0, r2
 1214 0332 1946     		mov	r1, r3
 1215 0334 FFF7FEFF 		bl	__aeabi_d2f
 1216 0338 0246     		mov	r2, r0	@ float
 1217 033a 7B68     		ldr	r3, [r7, #4]
 1218 033c 1A60     		str	r2, [r3, #0]	@ float
 220:../_Quadrocopter/RemoteControl/RCReceive.c **** 				*roll=aileronBT/32767.0*SCALE_ROLL;
 1219              		.loc 1 220 0
 1220 033e 40F20003 		movw	r3, #:lower16:aileronBT
 1221 0342 C0F20003 		movt	r3, #:upper16:aileronBT
 1222 0346 1B88     		ldrh	r3, [r3, #0]
 1223 0348 1BB2     		sxth	r3, r3
 1224 034a 1846     		mov	r0, r3
 1225 034c FFF7FEFF 		bl	__aeabi_i2d
 1226 0350 0246     		mov	r2, r0
 1227 0352 0B46     		mov	r3, r1
 1228 0354 1046     		mov	r0, r2
 1229 0356 1946     		mov	r1, r3
 1230 0358 0FA3     		adr	r3, .L42
 1231 035a D3E90023 		ldrd	r2, [r3]
 1232 035e FFF7FEFF 		bl	__aeabi_ddiv
 1233 0362 0246     		mov	r2, r0
 1234 0364 0B46     		mov	r3, r1
 1235 0366 1046     		mov	r0, r2
 1236 0368 1946     		mov	r1, r3
 1237 036a 4FF00002 		mov	r2, #0
 1238 036e 4FF40043 		mov	r3, #32768
 1239 0372 C4F25603 		movt	r3, 16470
 1240 0376 FFF7FEFF 		bl	__aeabi_dmul
 1241 037a 0246     		mov	r2, r0
 1242 037c 0B46     		mov	r3, r1
 1243 037e 1046     		mov	r0, r2
 1244 0380 1946     		mov	r1, r3
 1245 0382 FFF7FEFF 		bl	__aeabi_d2f
 1246 0386 0246     		mov	r2, r0	@ float
 1247 0388 3B68     		ldr	r3, [r7, #0]
 1248 038a 1A60     		str	r2, [r3, #0]	@ float
 1249              	.L28:
 221:../_Quadrocopter/RemoteControl/RCReceive.c **** 			}
 222:../_Quadrocopter/RemoteControl/RCReceive.c **** 		}
 223:../_Quadrocopter/RemoteControl/RCReceive.c **** 	}
 224:../_Quadrocopter/RemoteControl/RCReceive.c **** }
 1250              		.loc 1 224 0
 1251 038c 07F11007 		add	r7, r7, #16
 1252 0390 BD46     		mov	sp, r7
 1253 0392 80BD     		pop	{r7, pc}
 1254              	.L43:
 1255 0394 AFF30080 		.align	3
 1256              	.L42:
 1257 0398 00000000 		.word	0
 1258 039c C0FFDF40 		.word	1088421824
 1259              		.cfi_endproc
 1260              	.LFE127:
 1262              		.section	.text.map,"ax",%progbits
 1263              		.align	2
 1264              		.global	map
 1265              		.thumb
 1266              		.thumb_func
 1268              	map:
 1269              	.LFB128:
 225:../_Quadrocopter/RemoteControl/RCReceive.c **** 
 226:../_Quadrocopter/RemoteControl/RCReceive.c **** long map(long x, long in_min, long in_max, long out_min, long out_max)
 227:../_Quadrocopter/RemoteControl/RCReceive.c **** {
 1270              		.loc 1 227 0
 1271              		.cfi_startproc
 1272              		@ args = 4, pretend = 0, frame = 16
 1273              		@ frame_needed = 1, uses_anonymous_args = 0
 1274              		@ link register save eliminated.
 1275 0000 80B4     		push	{r7}
 1276              	.LCFI21:
 1277              		.cfi_def_cfa_offset 4
 1278              		.cfi_offset 7, -4
 1279 0002 85B0     		sub	sp, sp, #20
 1280              	.LCFI22:
 1281              		.cfi_def_cfa_offset 24
 1282 0004 00AF     		add	r7, sp, #0
 1283              	.LCFI23:
 1284              		.cfi_def_cfa_register 7
 1285 0006 F860     		str	r0, [r7, #12]
 1286 0008 B960     		str	r1, [r7, #8]
 1287 000a 7A60     		str	r2, [r7, #4]
 1288 000c 3B60     		str	r3, [r7, #0]
 228:../_Quadrocopter/RemoteControl/RCReceive.c ****   return (x - in_min) * (out_max - out_min) / (in_max - in_min) + out_min;
 1289              		.loc 1 228 0
 1290 000e FA68     		ldr	r2, [r7, #12]
 1291 0010 BB68     		ldr	r3, [r7, #8]
 1292 0012 D31A     		subs	r3, r2, r3
 1293 0014 B969     		ldr	r1, [r7, #24]
 1294 0016 3A68     		ldr	r2, [r7, #0]
 1295 0018 8A1A     		subs	r2, r1, r2
 1296 001a 02FB03F2 		mul	r2, r2, r3
 1297 001e 7968     		ldr	r1, [r7, #4]
 1298 0020 BB68     		ldr	r3, [r7, #8]
 1299 0022 CB1A     		subs	r3, r1, r3
 1300 0024 92FBF3F2 		sdiv	r2, r2, r3
 1301 0028 3B68     		ldr	r3, [r7, #0]
 1302 002a D318     		adds	r3, r2, r3
 229:../_Quadrocopter/RemoteControl/RCReceive.c **** }
 1303              		.loc 1 229 0
 1304 002c 1846     		mov	r0, r3
 1305 002e 07F11407 		add	r7, r7, #20
 1306 0032 BD46     		mov	sp, r7
 1307 0034 80BC     		pop	{r7}
 1308 0036 7047     		bx	lr
 1309              		.cfi_endproc
 1310              	.LFE128:
 1312              		.bss
 1313              	lastCount.10653:
 1314 001c 00       		.space	1
 1315              	lastBTCount.10654:
 1316 001d 00       		.space	1
 1317 001e 0000     		.text
 1318              	.Letext0:
 1319              		.file 2 "c:\\dave-3.1.10\\arm-gcc\\bin\\../lib/gcc/arm-none-eabi/4.7.4/../../../../arm-none-eabi/i
 1320              		.file 3 "C:\\DAVE-3.1.10\\eclipse\\/../CMSIS/Infineon/XMC4500_series/Include/XMC4500.h"
 1321              		.file 4 "C:\\DAVE3_workspace\\ws3.1.10\\CORE_Larix_V1.0\\Dave\\Generated\\inc\\DAVESupport/../../i
 1322              		.file 5 "C:\\DAVE3_workspace\\ws3.1.10\\CORE_Larix_V1.0\\Dave\\Generated\\inc\\DAVESupport/../../i
 1323              		.file 6 "C:\\DAVE3_workspace\\ws3.1.10\\CORE_Larix_V1.0\\Dave\\Generated\\inc\\DAVESupport/../../i
 1324              		.file 7 "C:\\DAVE3_workspace\\ws3.1.10\\CORE_Larix_V1.0\\Dave\\Generated\\inc\\DAVESupport/../../i
 1325              		.file 8 "C:\\DAVE3_workspace\\ws3.1.10\\CORE_Larix_V1.0\\Dave\\Generated\\inc\\DAVESupport/../../i
 1326              		.file 9 "C:\\DAVE-3.1.10\\eclipse\\/../CMSIS/Include/core_cm4.h"
 1327              		.file 10 "C:\\DAVE3_workspace\\ws3.1.10\\CORE_Larix_V1.0\\Dave\\Generated\\inc\\DAVESupport/../../