   1              		.syntax unified
   2              		.cpu cortex-m4
   3              		.eabi_attribute 27, 3
   4              		.fpu fpv4-sp-d16
   5              		.eabi_attribute 20, 1
   6              		.eabi_attribute 21, 1
   7              		.eabi_attribute 23, 3
   8              		.eabi_attribute 24, 1
   9              		.eabi_attribute 25, 1
  10              		.eabi_attribute 26, 1
  11              		.eabi_attribute 30, 6
  12              		.eabi_attribute 34, 1
  13              		.eabi_attribute 18, 4
  14              		.thumb
  15              		.file	"dwc_otg_pcd_intr.c"
  16              		.text
  17              	.Ltext0:
  18              		.cfi_sections	.debug_frame
  19              		.section	.text.dwc_otg_read_core_intr,"ax",%progbits
  20              		.align	2
  21              		.thumb
  22              		.thumb_func
  24              	dwc_otg_read_core_intr:
  25              	.LFB2:
  26              		.file 1 "../Dave/Generated/src/USBLD001/driver/dwc_otg_cil.h"
   1:../Dave/Generated/src/USBLD001/driver/dwc_otg_cil.h **** /* ==========================================================================
   2:../Dave/Generated/src/USBLD001/driver/dwc_otg_cil.h ****  * $File: //dwh/usb_iip/dev/software/otg/linux/drivers/dwc_otg_cil.h $
   3:../Dave/Generated/src/USBLD001/driver/dwc_otg_cil.h ****  * $Revision: #115 $
   4:../Dave/Generated/src/USBLD001/driver/dwc_otg_cil.h ****  * $Date: 2010/11/29 $
   5:../Dave/Generated/src/USBLD001/driver/dwc_otg_cil.h ****  * $Change: 1636033 $
   6:../Dave/Generated/src/USBLD001/driver/dwc_otg_cil.h ****  *
   7:../Dave/Generated/src/USBLD001/driver/dwc_otg_cil.h ****  * Synopsys HS OTG Linux Software Driver and documentation (hereinafter,
   8:../Dave/Generated/src/USBLD001/driver/dwc_otg_cil.h ****  * "Software") is an Unsupported proprietary work of Synopsys, Inc. unless
   9:../Dave/Generated/src/USBLD001/driver/dwc_otg_cil.h ****  * otherwise expressly agreed to in writing between Synopsys and you.
  10:../Dave/Generated/src/USBLD001/driver/dwc_otg_cil.h ****  *
  11:../Dave/Generated/src/USBLD001/driver/dwc_otg_cil.h ****  * The Software IS NOT an item of Licensed Software or Licensed Product under
  12:../Dave/Generated/src/USBLD001/driver/dwc_otg_cil.h ****  * any End User Software License Agreement or Agreement for Licensed Product
  13:../Dave/Generated/src/USBLD001/driver/dwc_otg_cil.h ****  * with Synopsys or any supplement thereto. You are permitted to use and
  14:../Dave/Generated/src/USBLD001/driver/dwc_otg_cil.h ****  * redistribute this Software in source and binary forms, with or without
  15:../Dave/Generated/src/USBLD001/driver/dwc_otg_cil.h ****  * modification, provided that redistributions of source code must retain this
  16:../Dave/Generated/src/USBLD001/driver/dwc_otg_cil.h ****  * notice. You may not view, use, disclose, copy or distribute this file or
  17:../Dave/Generated/src/USBLD001/driver/dwc_otg_cil.h ****  * any information contained herein except pursuant to this license grant from
  18:../Dave/Generated/src/USBLD001/driver/dwc_otg_cil.h ****  * Synopsys. If you do not agree with this notice, including the disclaimer
  19:../Dave/Generated/src/USBLD001/driver/dwc_otg_cil.h ****  * below, then you are not authorized to use the Software.
  20:../Dave/Generated/src/USBLD001/driver/dwc_otg_cil.h ****  *
  21:../Dave/Generated/src/USBLD001/driver/dwc_otg_cil.h ****  * THIS SOFTWARE IS BEING DISTRIBUTED BY SYNOPSYS SOLELY ON AN "AS IS" BASIS
  22:../Dave/Generated/src/USBLD001/driver/dwc_otg_cil.h ****  * AND ANY EXPRESS OR IMPLIED WARRANTIES, INCLUDING, BUT NOT LIMITED TO, THE
  23:../Dave/Generated/src/USBLD001/driver/dwc_otg_cil.h ****  * IMPLIED WARRANTIES OF MERCHANTABILITY AND FITNESS FOR A PARTICULAR PURPOSE
  24:../Dave/Generated/src/USBLD001/driver/dwc_otg_cil.h ****  * ARE HEREBY DISCLAIMED. IN NO EVENT SHALL SYNOPSYS BE LIABLE FOR ANY DIRECT,
  25:../Dave/Generated/src/USBLD001/driver/dwc_otg_cil.h ****  * INDIRECT, INCIDENTAL, SPECIAL, EXEMPLARY, OR CONSEQUENTIAL DAMAGES
  26:../Dave/Generated/src/USBLD001/driver/dwc_otg_cil.h ****  * (INCLUDING, BUT NOT LIMITED TO, PROCUREMENT OF SUBSTITUTE GOODS OR
  27:../Dave/Generated/src/USBLD001/driver/dwc_otg_cil.h ****  * SERVICES; LOSS OF USE, DATA, OR PROFITS; OR BUSINESS INTERRUPTION) HOWEVER
  28:../Dave/Generated/src/USBLD001/driver/dwc_otg_cil.h ****  * CAUSED AND ON ANY THEORY OF LIABILITY, WHETHER IN CONTRACT, STRICT
  29:../Dave/Generated/src/USBLD001/driver/dwc_otg_cil.h ****  * LIABILITY, OR TORT (INCLUDING NEGLIGENCE OR OTHERWISE) ARISING IN ANY WAY
  30:../Dave/Generated/src/USBLD001/driver/dwc_otg_cil.h ****  * OUT OF THE USE OF THIS SOFTWARE, EVEN IF ADVISED OF THE POSSIBILITY OF SUCH
  31:../Dave/Generated/src/USBLD001/driver/dwc_otg_cil.h ****  * DAMAGE.
  32:../Dave/Generated/src/USBLD001/driver/dwc_otg_cil.h ****  * ========================================================================== */
  33:../Dave/Generated/src/USBLD001/driver/dwc_otg_cil.h **** 
  34:../Dave/Generated/src/USBLD001/driver/dwc_otg_cil.h **** /* THIS FILE IS PROVIDED BY DAVE.
  35:../Dave/Generated/src/USBLD001/driver/dwc_otg_cil.h ****  * THIS FILE IS GENERATED.
  36:../Dave/Generated/src/USBLD001/driver/dwc_otg_cil.h ****  */
  37:../Dave/Generated/src/USBLD001/driver/dwc_otg_cil.h **** 
  38:../Dave/Generated/src/USBLD001/driver/dwc_otg_cil.h **** /*******************************************************************************
  39:../Dave/Generated/src/USBLD001/driver/dwc_otg_cil.h ****  *
  40:../Dave/Generated/src/USBLD001/driver/dwc_otg_cil.h ****  * Copyright (C) 2011 Infineon Technologies AG. All rights reserved.
  41:../Dave/Generated/src/USBLD001/driver/dwc_otg_cil.h ****  *
  42:../Dave/Generated/src/USBLD001/driver/dwc_otg_cil.h ****  * Infineon Technologies AG (Infineon) is supplying this software for use with
  43:../Dave/Generated/src/USBLD001/driver/dwc_otg_cil.h ****  * Infineon's microcontrollers.
  44:../Dave/Generated/src/USBLD001/driver/dwc_otg_cil.h ****  * This file can be freely distributed within development tools that are
  45:../Dave/Generated/src/USBLD001/driver/dwc_otg_cil.h ****  * supporting such microcontrollers.
  46:../Dave/Generated/src/USBLD001/driver/dwc_otg_cil.h ****  *
  47:../Dave/Generated/src/USBLD001/driver/dwc_otg_cil.h ****  * THIS SOFTWARE IS PROVIDED "AS IS".  NO WARRANTIES, WHETHER EXPRESS, IMPLIED
  48:../Dave/Generated/src/USBLD001/driver/dwc_otg_cil.h ****  * OR STATUTORY, INCLUDING, BUT NOT LIMITED TO, IMPLIED WARRANTIES OF
  49:../Dave/Generated/src/USBLD001/driver/dwc_otg_cil.h ****  * MERCHANTABILITY AND FITNESS FOR A PARTICULAR PURPOSE APPLY TO THIS SOFTWARE.
  50:../Dave/Generated/src/USBLD001/driver/dwc_otg_cil.h ****  * INFINEON SHALL NOT, IN ANY CIRCUMSTANCES, BE LIABLE FOR SPECIAL, INCIDENTAL,
  51:../Dave/Generated/src/USBLD001/driver/dwc_otg_cil.h ****  * OR CONSEQUENTIAL DAMAGES, FOR ANY REASON WHATSOEVER.
  52:../Dave/Generated/src/USBLD001/driver/dwc_otg_cil.h ****  *
  53:../Dave/Generated/src/USBLD001/driver/dwc_otg_cil.h **** ********************************************************************************
  54:../Dave/Generated/src/USBLD001/driver/dwc_otg_cil.h **** **                                                                            **
  55:../Dave/Generated/src/USBLD001/driver/dwc_otg_cil.h **** **                                                                            **
  56:../Dave/Generated/src/USBLD001/driver/dwc_otg_cil.h **** ** PLATFORM : Infineon XMC4000 Series                                         **
  57:../Dave/Generated/src/USBLD001/driver/dwc_otg_cil.h **** **                                                                            **
  58:../Dave/Generated/src/USBLD001/driver/dwc_otg_cil.h **** ** COMPILER : Compiler Independent                                            **
  59:../Dave/Generated/src/USBLD001/driver/dwc_otg_cil.h **** **                                                                            **
  60:../Dave/Generated/src/USBLD001/driver/dwc_otg_cil.h **** ** AUTHOR : App Developer                                                     **
  61:../Dave/Generated/src/USBLD001/driver/dwc_otg_cil.h **** **                                                                            **
  62:../Dave/Generated/src/USBLD001/driver/dwc_otg_cil.h **** ** MAY BE CHANGED BY USER [yes/no]: Yes                                       **
  63:../Dave/Generated/src/USBLD001/driver/dwc_otg_cil.h **** **                                                                            **
  64:../Dave/Generated/src/USBLD001/driver/dwc_otg_cil.h **** ** MODIFICATION DATE : Apr 8, 2012                                            **
  65:../Dave/Generated/src/USBLD001/driver/dwc_otg_cil.h **** **                                                                            **
  66:../Dave/Generated/src/USBLD001/driver/dwc_otg_cil.h **** *******************************************************************************/
  67:../Dave/Generated/src/USBLD001/driver/dwc_otg_cil.h **** 
  68:../Dave/Generated/src/USBLD001/driver/dwc_otg_cil.h **** /*******************************************************************************
  69:../Dave/Generated/src/USBLD001/driver/dwc_otg_cil.h **** **                       Author(s) Identity                                   **
  70:../Dave/Generated/src/USBLD001/driver/dwc_otg_cil.h **** ********************************************************************************
  71:../Dave/Generated/src/USBLD001/driver/dwc_otg_cil.h **** **                                                                            **
  72:../Dave/Generated/src/USBLD001/driver/dwc_otg_cil.h **** ** Initials    Name                                                           **
  73:../Dave/Generated/src/USBLD001/driver/dwc_otg_cil.h **** ** ---------------------------------------------------------------------------**
  74:../Dave/Generated/src/USBLD001/driver/dwc_otg_cil.h **** ** CM          App Developer                                                  **
  75:../Dave/Generated/src/USBLD001/driver/dwc_otg_cil.h **** *******************************************************************************/
  76:../Dave/Generated/src/USBLD001/driver/dwc_otg_cil.h **** 
  77:../Dave/Generated/src/USBLD001/driver/dwc_otg_cil.h **** 
  78:../Dave/Generated/src/USBLD001/driver/dwc_otg_cil.h **** #if !defined(__DWC_CIL_H__)
  79:../Dave/Generated/src/USBLD001/driver/dwc_otg_cil.h **** #define __DWC_CIL_H__
  80:../Dave/Generated/src/USBLD001/driver/dwc_otg_cil.h **** 
  81:../Dave/Generated/src/USBLD001/driver/dwc_otg_cil.h **** #ifdef __cplusplus
  82:../Dave/Generated/src/USBLD001/driver/dwc_otg_cil.h **** extern "C"{
  83:../Dave/Generated/src/USBLD001/driver/dwc_otg_cil.h **** #endif
  84:../Dave/Generated/src/USBLD001/driver/dwc_otg_cil.h **** 
  85:../Dave/Generated/src/USBLD001/driver/dwc_otg_cil.h **** #include "../dwc_common_port/dwc_list.h"
  86:../Dave/Generated/src/USBLD001/driver/dwc_otg_cil.h **** #include "dwc_otg_dbg.h"
  87:../Dave/Generated/src/USBLD001/driver/dwc_otg_cil.h **** #include "dwc_otg_regs.h"
  88:../Dave/Generated/src/USBLD001/driver/dwc_otg_cil.h **** 
  89:../Dave/Generated/src/USBLD001/driver/dwc_otg_cil.h **** #include "dwc_otg_core_if.h"
  90:../Dave/Generated/src/USBLD001/driver/dwc_otg_cil.h **** #include "dwc_otg_adp.h"
  91:../Dave/Generated/src/USBLD001/driver/dwc_otg_cil.h **** 
  92:../Dave/Generated/src/USBLD001/driver/dwc_otg_cil.h **** /**
  93:../Dave/Generated/src/USBLD001/driver/dwc_otg_cil.h ****  * @file
  94:../Dave/Generated/src/USBLD001/driver/dwc_otg_cil.h ****  * This file contains the interface to the Core Interface Layer.
  95:../Dave/Generated/src/USBLD001/driver/dwc_otg_cil.h ****  */
  96:../Dave/Generated/src/USBLD001/driver/dwc_otg_cil.h **** 
  97:../Dave/Generated/src/USBLD001/driver/dwc_otg_cil.h **** #ifdef DWC_UTE_CFI
  98:../Dave/Generated/src/USBLD001/driver/dwc_otg_cil.h **** 
  99:../Dave/Generated/src/USBLD001/driver/dwc_otg_cil.h **** #define MAX_DMA_DESCS_PER_EP	256
 100:../Dave/Generated/src/USBLD001/driver/dwc_otg_cil.h **** 
 101:../Dave/Generated/src/USBLD001/driver/dwc_otg_cil.h **** /**
 102:../Dave/Generated/src/USBLD001/driver/dwc_otg_cil.h ****  * Enumeration for the data buffer mode
 103:../Dave/Generated/src/USBLD001/driver/dwc_otg_cil.h ****  */
 104:../Dave/Generated/src/USBLD001/driver/dwc_otg_cil.h **** typedef enum _data_buffer_mode {
 105:../Dave/Generated/src/USBLD001/driver/dwc_otg_cil.h **** 	BM_STANDARD = 0,	/* data buffer is in normal mode */
 106:../Dave/Generated/src/USBLD001/driver/dwc_otg_cil.h **** 	BM_SG = 1,		/* data buffer uses the scatter/gather mode */
 107:../Dave/Generated/src/USBLD001/driver/dwc_otg_cil.h **** 	BM_CONCAT = 2,		/* data buffer uses the concatenation mode */
 108:../Dave/Generated/src/USBLD001/driver/dwc_otg_cil.h **** 	BM_CIRCULAR = 3,	/* data buffer uses the circular DMA mode */
 109:../Dave/Generated/src/USBLD001/driver/dwc_otg_cil.h **** 	BM_ALIGN = 4		/* data buffer is in buffer alignment mode */
 110:../Dave/Generated/src/USBLD001/driver/dwc_otg_cil.h **** } data_buffer_mode_e;
 111:../Dave/Generated/src/USBLD001/driver/dwc_otg_cil.h **** #endif //DWC_UTE_CFI
 112:../Dave/Generated/src/USBLD001/driver/dwc_otg_cil.h **** 
 113:../Dave/Generated/src/USBLD001/driver/dwc_otg_cil.h **** /** Macros defined for DWC OTG HW Release verison */
 114:../Dave/Generated/src/USBLD001/driver/dwc_otg_cil.h **** 
 115:../Dave/Generated/src/USBLD001/driver/dwc_otg_cil.h **** #define OTG_CORE_REV_2_60a	0x4F54260A
 116:../Dave/Generated/src/USBLD001/driver/dwc_otg_cil.h **** #define OTG_CORE_REV_2_71a	0x4F54271A
 117:../Dave/Generated/src/USBLD001/driver/dwc_otg_cil.h **** #define OTG_CORE_REV_2_72a	0x4F54272A
 118:../Dave/Generated/src/USBLD001/driver/dwc_otg_cil.h **** #define OTG_CORE_REV_2_80a	0x4F54280A
 119:../Dave/Generated/src/USBLD001/driver/dwc_otg_cil.h **** #define OTG_CORE_REV_2_81a	0x4F54281A
 120:../Dave/Generated/src/USBLD001/driver/dwc_otg_cil.h **** #define OTG_CORE_REV_2_90a	0x4F54290A
 121:../Dave/Generated/src/USBLD001/driver/dwc_otg_cil.h **** #define OTG_CORE_REV_2_91a	0x4F54291A
 122:../Dave/Generated/src/USBLD001/driver/dwc_otg_cil.h **** #define OTG_CORE_REV_2_92a	0x4F54292A
 123:../Dave/Generated/src/USBLD001/driver/dwc_otg_cil.h **** 
 124:../Dave/Generated/src/USBLD001/driver/dwc_otg_cil.h **** /**
 125:../Dave/Generated/src/USBLD001/driver/dwc_otg_cil.h ****  * Information for each ISOC packet.
 126:../Dave/Generated/src/USBLD001/driver/dwc_otg_cil.h ****  */
 127:../Dave/Generated/src/USBLD001/driver/dwc_otg_cil.h **** typedef struct iso_pkt_info {
 128:../Dave/Generated/src/USBLD001/driver/dwc_otg_cil.h **** 	uint32_t offset;
 129:../Dave/Generated/src/USBLD001/driver/dwc_otg_cil.h **** 	uint32_t length;
 130:../Dave/Generated/src/USBLD001/driver/dwc_otg_cil.h **** 	int32_t status;
 131:../Dave/Generated/src/USBLD001/driver/dwc_otg_cil.h **** } iso_pkt_info_t;
 132:../Dave/Generated/src/USBLD001/driver/dwc_otg_cil.h **** 
 133:../Dave/Generated/src/USBLD001/driver/dwc_otg_cil.h **** /**
 134:../Dave/Generated/src/USBLD001/driver/dwc_otg_cil.h ****  * The <code>dwc_ep</code> structure represents the state of a single
 135:../Dave/Generated/src/USBLD001/driver/dwc_otg_cil.h ****  * endpoint when acting in device mode. It contains the data items
 136:../Dave/Generated/src/USBLD001/driver/dwc_otg_cil.h ****  * needed for an endpoint to be activated and transfer packets.
 137:../Dave/Generated/src/USBLD001/driver/dwc_otg_cil.h ****  */
 138:../Dave/Generated/src/USBLD001/driver/dwc_otg_cil.h **** typedef struct dwc_ep {
 139:../Dave/Generated/src/USBLD001/driver/dwc_otg_cil.h **** 	/** EP number used for register address lookup */
 140:../Dave/Generated/src/USBLD001/driver/dwc_otg_cil.h **** 	uint8_t num;
 141:../Dave/Generated/src/USBLD001/driver/dwc_otg_cil.h **** 	/** EP direction 0 = OUT */
 142:../Dave/Generated/src/USBLD001/driver/dwc_otg_cil.h **** 	unsigned is_in:1;
 143:../Dave/Generated/src/USBLD001/driver/dwc_otg_cil.h **** 	/** EP active. */
 144:../Dave/Generated/src/USBLD001/driver/dwc_otg_cil.h **** 	unsigned active:1;
 145:../Dave/Generated/src/USBLD001/driver/dwc_otg_cil.h **** 
 146:../Dave/Generated/src/USBLD001/driver/dwc_otg_cil.h **** 	/**
 147:../Dave/Generated/src/USBLD001/driver/dwc_otg_cil.h **** 	 *Periodic Tx FIFO # for IN EPs For INTR EP set to 0 to use non-periodic Tx FIFO
 148:../Dave/Generated/src/USBLD001/driver/dwc_otg_cil.h **** 	 * If dedicated Tx FIFOs are enabled for all IN Eps - Tx FIFO # FOR IN EPs*/
 149:../Dave/Generated/src/USBLD001/driver/dwc_otg_cil.h **** 	unsigned tx_fifo_num:4;
 150:../Dave/Generated/src/USBLD001/driver/dwc_otg_cil.h **** 	/** EP type: 0 - Control, 1 - ISOC,	 2 - BULK,	3 - INTR */
 151:../Dave/Generated/src/USBLD001/driver/dwc_otg_cil.h **** 	unsigned type:2;
 152:../Dave/Generated/src/USBLD001/driver/dwc_otg_cil.h **** #define DWC_OTG_EP_TYPE_CONTROL	   0
 153:../Dave/Generated/src/USBLD001/driver/dwc_otg_cil.h **** #define DWC_OTG_EP_TYPE_ISOC	   1
 154:../Dave/Generated/src/USBLD001/driver/dwc_otg_cil.h **** #define DWC_OTG_EP_TYPE_BULK	   2
 155:../Dave/Generated/src/USBLD001/driver/dwc_otg_cil.h **** #define DWC_OTG_EP_TYPE_INTR	   3
 156:../Dave/Generated/src/USBLD001/driver/dwc_otg_cil.h **** 
 157:../Dave/Generated/src/USBLD001/driver/dwc_otg_cil.h **** 	/** DATA start PID for INTR and BULK EP */
 158:../Dave/Generated/src/USBLD001/driver/dwc_otg_cil.h **** 	unsigned data_pid_start:1;
 159:../Dave/Generated/src/USBLD001/driver/dwc_otg_cil.h **** 	/** Frame (even/odd) for ISOC EP */
 160:../Dave/Generated/src/USBLD001/driver/dwc_otg_cil.h **** 	unsigned even_odd_frame:1;
 161:../Dave/Generated/src/USBLD001/driver/dwc_otg_cil.h **** 	/** Max Packet bytes */
 162:../Dave/Generated/src/USBLD001/driver/dwc_otg_cil.h **** 	unsigned maxpacket:11;
 163:../Dave/Generated/src/USBLD001/driver/dwc_otg_cil.h **** 
 164:../Dave/Generated/src/USBLD001/driver/dwc_otg_cil.h **** 	/** Max Transfer size */
 165:../Dave/Generated/src/USBLD001/driver/dwc_otg_cil.h **** 	uint32_t maxxfer;
 166:../Dave/Generated/src/USBLD001/driver/dwc_otg_cil.h **** 
 167:../Dave/Generated/src/USBLD001/driver/dwc_otg_cil.h **** 	/** @name Transfer state */
 168:../Dave/Generated/src/USBLD001/driver/dwc_otg_cil.h **** 	/** @{ */
 169:../Dave/Generated/src/USBLD001/driver/dwc_otg_cil.h **** 
 170:../Dave/Generated/src/USBLD001/driver/dwc_otg_cil.h **** 	/**
 171:../Dave/Generated/src/USBLD001/driver/dwc_otg_cil.h **** 	 * Pointer to the beginning of the transfer buffer -- do not modify
 172:../Dave/Generated/src/USBLD001/driver/dwc_otg_cil.h **** 	 * during transfer.
 173:../Dave/Generated/src/USBLD001/driver/dwc_otg_cil.h **** 	 */
 174:../Dave/Generated/src/USBLD001/driver/dwc_otg_cil.h **** 
 175:../Dave/Generated/src/USBLD001/driver/dwc_otg_cil.h **** 	dwc_dma_t dma_addr;
 176:../Dave/Generated/src/USBLD001/driver/dwc_otg_cil.h **** 
 177:../Dave/Generated/src/USBLD001/driver/dwc_otg_cil.h **** 	dwc_dma_t dma_desc_addr;
 178:../Dave/Generated/src/USBLD001/driver/dwc_otg_cil.h **** 	dwc_otg_dev_dma_desc_t *desc_addr;
 179:../Dave/Generated/src/USBLD001/driver/dwc_otg_cil.h **** 
 180:../Dave/Generated/src/USBLD001/driver/dwc_otg_cil.h **** 	uint8_t *start_xfer_buff;
 181:../Dave/Generated/src/USBLD001/driver/dwc_otg_cil.h **** 	/** pointer to the transfer buffer */
 182:../Dave/Generated/src/USBLD001/driver/dwc_otg_cil.h **** 	uint8_t *xfer_buff;
 183:../Dave/Generated/src/USBLD001/driver/dwc_otg_cil.h **** 	/** Number of bytes to transfer */
 184:../Dave/Generated/src/USBLD001/driver/dwc_otg_cil.h **** 	unsigned xfer_len:19;
 185:../Dave/Generated/src/USBLD001/driver/dwc_otg_cil.h **** 	/** Number of bytes transferred. */
 186:../Dave/Generated/src/USBLD001/driver/dwc_otg_cil.h **** 	unsigned xfer_count:19;
 187:../Dave/Generated/src/USBLD001/driver/dwc_otg_cil.h **** 	/** Sent ZLP */
 188:../Dave/Generated/src/USBLD001/driver/dwc_otg_cil.h **** 	unsigned sent_zlp:1;
 189:../Dave/Generated/src/USBLD001/driver/dwc_otg_cil.h **** 	/** Total len for control transfer */
 190:../Dave/Generated/src/USBLD001/driver/dwc_otg_cil.h **** 	unsigned total_len:19;
 191:../Dave/Generated/src/USBLD001/driver/dwc_otg_cil.h **** 
 192:../Dave/Generated/src/USBLD001/driver/dwc_otg_cil.h **** 	/** stall clear flag */
 193:../Dave/Generated/src/USBLD001/driver/dwc_otg_cil.h **** 	unsigned stall_clear_flag:1;
 194:../Dave/Generated/src/USBLD001/driver/dwc_otg_cil.h **** 
 195:../Dave/Generated/src/USBLD001/driver/dwc_otg_cil.h **** #ifdef DWC_UTE_CFI
 196:../Dave/Generated/src/USBLD001/driver/dwc_otg_cil.h **** 	/* The buffer mode */
 197:../Dave/Generated/src/USBLD001/driver/dwc_otg_cil.h **** 	data_buffer_mode_e buff_mode;
 198:../Dave/Generated/src/USBLD001/driver/dwc_otg_cil.h **** 
 199:../Dave/Generated/src/USBLD001/driver/dwc_otg_cil.h **** 	/* The chain of DMA descriptors.
 200:../Dave/Generated/src/USBLD001/driver/dwc_otg_cil.h **** 	 * MAX_DMA_DESCS_PER_EP will be allocated for each active EP.
 201:../Dave/Generated/src/USBLD001/driver/dwc_otg_cil.h **** 	 */
 202:../Dave/Generated/src/USBLD001/driver/dwc_otg_cil.h **** 	dwc_otg_dma_desc_t *descs;
 203:../Dave/Generated/src/USBLD001/driver/dwc_otg_cil.h **** 
 204:../Dave/Generated/src/USBLD001/driver/dwc_otg_cil.h **** 	/* The DMA address of the descriptors chain start */
 205:../Dave/Generated/src/USBLD001/driver/dwc_otg_cil.h **** 	dma_addr_t descs_dma_addr;
 206:../Dave/Generated/src/USBLD001/driver/dwc_otg_cil.h **** 	/** This variable stores the length of the last enqueued request */
 207:../Dave/Generated/src/USBLD001/driver/dwc_otg_cil.h **** 	uint32_t cfi_req_len;
 208:../Dave/Generated/src/USBLD001/driver/dwc_otg_cil.h **** #endif				//DWC_UTE_CFI
 209:../Dave/Generated/src/USBLD001/driver/dwc_otg_cil.h **** 
 210:../Dave/Generated/src/USBLD001/driver/dwc_otg_cil.h **** 	/** Allocated DMA Desc count */
 211:../Dave/Generated/src/USBLD001/driver/dwc_otg_cil.h **** 	uint32_t desc_cnt;
 212:../Dave/Generated/src/USBLD001/driver/dwc_otg_cil.h **** 
 213:../Dave/Generated/src/USBLD001/driver/dwc_otg_cil.h **** #ifdef DWC_UTE_PER_IO
 214:../Dave/Generated/src/USBLD001/driver/dwc_otg_cil.h **** 	/** Next frame num for which will be setup DMA Desc */
 215:../Dave/Generated/src/USBLD001/driver/dwc_otg_cil.h **** 	uint32_t xiso_frame_num;
 216:../Dave/Generated/src/USBLD001/driver/dwc_otg_cil.h **** 	/** bInterval */
 217:../Dave/Generated/src/USBLD001/driver/dwc_otg_cil.h **** 	uint32_t xiso_bInterval;
 218:../Dave/Generated/src/USBLD001/driver/dwc_otg_cil.h **** 	/** Count of currently active transfers - shall be either 0 or 1 */
 219:../Dave/Generated/src/USBLD001/driver/dwc_otg_cil.h **** 	int xiso_active_xfers;
 220:../Dave/Generated/src/USBLD001/driver/dwc_otg_cil.h **** 	int xiso_queued_xfers;
 221:../Dave/Generated/src/USBLD001/driver/dwc_otg_cil.h **** #endif
 222:../Dave/Generated/src/USBLD001/driver/dwc_otg_cil.h **** #ifdef DWC_EN_ISOC
 223:../Dave/Generated/src/USBLD001/driver/dwc_otg_cil.h **** 	/**
 224:../Dave/Generated/src/USBLD001/driver/dwc_otg_cil.h **** 	 * Variables specific for ISOC EPs
 225:../Dave/Generated/src/USBLD001/driver/dwc_otg_cil.h **** 	 *
 226:../Dave/Generated/src/USBLD001/driver/dwc_otg_cil.h **** 	 */
 227:../Dave/Generated/src/USBLD001/driver/dwc_otg_cil.h **** 	/** DMA addresses of ISOC buffers */
 228:../Dave/Generated/src/USBLD001/driver/dwc_otg_cil.h **** 	dwc_dma_t dma_addr0;
 229:../Dave/Generated/src/USBLD001/driver/dwc_otg_cil.h **** 	dwc_dma_t dma_addr1;
 230:../Dave/Generated/src/USBLD001/driver/dwc_otg_cil.h **** 
 231:../Dave/Generated/src/USBLD001/driver/dwc_otg_cil.h **** 	dwc_dma_t iso_dma_desc_addr;
 232:../Dave/Generated/src/USBLD001/driver/dwc_otg_cil.h **** 	dwc_otg_dev_dma_desc_t *iso_desc_addr;
 233:../Dave/Generated/src/USBLD001/driver/dwc_otg_cil.h **** 
 234:../Dave/Generated/src/USBLD001/driver/dwc_otg_cil.h **** 	/** pointer to the transfer buffers */
 235:../Dave/Generated/src/USBLD001/driver/dwc_otg_cil.h **** 	uint8_t *xfer_buff0;
 236:../Dave/Generated/src/USBLD001/driver/dwc_otg_cil.h **** 	uint8_t *xfer_buff1;
 237:../Dave/Generated/src/USBLD001/driver/dwc_otg_cil.h **** 
 238:../Dave/Generated/src/USBLD001/driver/dwc_otg_cil.h **** 	/** number of ISOC Buffer is processing */
 239:../Dave/Generated/src/USBLD001/driver/dwc_otg_cil.h **** 	uint32_t proc_buf_num;
 240:../Dave/Generated/src/USBLD001/driver/dwc_otg_cil.h **** 	/** Interval of ISOC Buffer processing */
 241:../Dave/Generated/src/USBLD001/driver/dwc_otg_cil.h **** 	uint32_t buf_proc_intrvl;
 242:../Dave/Generated/src/USBLD001/driver/dwc_otg_cil.h **** 	/** Data size for regular frame */
 243:../Dave/Generated/src/USBLD001/driver/dwc_otg_cil.h **** 	uint32_t data_per_frame;
 244:../Dave/Generated/src/USBLD001/driver/dwc_otg_cil.h **** 
 245:../Dave/Generated/src/USBLD001/driver/dwc_otg_cil.h **** 	/* todo - pattern data support is to be implemented in the future */
 246:../Dave/Generated/src/USBLD001/driver/dwc_otg_cil.h **** 	/** Data size for pattern frame */
 247:../Dave/Generated/src/USBLD001/driver/dwc_otg_cil.h **** 	uint32_t data_pattern_frame;
 248:../Dave/Generated/src/USBLD001/driver/dwc_otg_cil.h **** 	/** Frame number of pattern data */
 249:../Dave/Generated/src/USBLD001/driver/dwc_otg_cil.h **** 	uint32_t sync_frame;
 250:../Dave/Generated/src/USBLD001/driver/dwc_otg_cil.h **** 
 251:../Dave/Generated/src/USBLD001/driver/dwc_otg_cil.h **** 	/** bInterval */
 252:../Dave/Generated/src/USBLD001/driver/dwc_otg_cil.h **** 	uint32_t bInterval;
 253:../Dave/Generated/src/USBLD001/driver/dwc_otg_cil.h **** 	/** ISO Packet number per frame */
 254:../Dave/Generated/src/USBLD001/driver/dwc_otg_cil.h **** 	uint32_t pkt_per_frm;
 255:../Dave/Generated/src/USBLD001/driver/dwc_otg_cil.h **** 	/** Next frame num for which will be setup DMA Desc */
 256:../Dave/Generated/src/USBLD001/driver/dwc_otg_cil.h **** 	uint32_t next_frame;
 257:../Dave/Generated/src/USBLD001/driver/dwc_otg_cil.h **** 	/** Number of packets per buffer processing */
 258:../Dave/Generated/src/USBLD001/driver/dwc_otg_cil.h **** 	uint32_t pkt_cnt;
 259:../Dave/Generated/src/USBLD001/driver/dwc_otg_cil.h **** 	/** Info for all isoc packets */
 260:../Dave/Generated/src/USBLD001/driver/dwc_otg_cil.h **** 	iso_pkt_info_t *pkt_info;
 261:../Dave/Generated/src/USBLD001/driver/dwc_otg_cil.h **** 	/** current pkt number */
 262:../Dave/Generated/src/USBLD001/driver/dwc_otg_cil.h **** 	uint32_t cur_pkt;
 263:../Dave/Generated/src/USBLD001/driver/dwc_otg_cil.h **** 	/** current pkt number */
 264:../Dave/Generated/src/USBLD001/driver/dwc_otg_cil.h **** 	uint8_t *cur_pkt_addr;
 265:../Dave/Generated/src/USBLD001/driver/dwc_otg_cil.h **** 	/** current pkt number */
 266:../Dave/Generated/src/USBLD001/driver/dwc_otg_cil.h **** 	uint32_t cur_pkt_dma_addr;
 267:../Dave/Generated/src/USBLD001/driver/dwc_otg_cil.h **** #endif				/* DWC_EN_ISOC */
 268:../Dave/Generated/src/USBLD001/driver/dwc_otg_cil.h **** 
 269:../Dave/Generated/src/USBLD001/driver/dwc_otg_cil.h **** /** @} */
 270:../Dave/Generated/src/USBLD001/driver/dwc_otg_cil.h **** } dwc_ep_t;
 271:../Dave/Generated/src/USBLD001/driver/dwc_otg_cil.h **** 
 272:../Dave/Generated/src/USBLD001/driver/dwc_otg_cil.h **** /*
 273:../Dave/Generated/src/USBLD001/driver/dwc_otg_cil.h ****  * Reasons for halting a host channel.
 274:../Dave/Generated/src/USBLD001/driver/dwc_otg_cil.h ****  */
 275:../Dave/Generated/src/USBLD001/driver/dwc_otg_cil.h **** typedef enum dwc_otg_halt_status {
 276:../Dave/Generated/src/USBLD001/driver/dwc_otg_cil.h **** 	DWC_OTG_HC_XFER_NO_HALT_STATUS,
 277:../Dave/Generated/src/USBLD001/driver/dwc_otg_cil.h **** 	DWC_OTG_HC_XFER_COMPLETE,
 278:../Dave/Generated/src/USBLD001/driver/dwc_otg_cil.h **** 	DWC_OTG_HC_XFER_URB_COMPLETE,
 279:../Dave/Generated/src/USBLD001/driver/dwc_otg_cil.h **** 	DWC_OTG_HC_XFER_ACK,
 280:../Dave/Generated/src/USBLD001/driver/dwc_otg_cil.h **** 	DWC_OTG_HC_XFER_NAK,
 281:../Dave/Generated/src/USBLD001/driver/dwc_otg_cil.h **** 	DWC_OTG_HC_XFER_NYET,
 282:../Dave/Generated/src/USBLD001/driver/dwc_otg_cil.h **** 	DWC_OTG_HC_XFER_STALL,
 283:../Dave/Generated/src/USBLD001/driver/dwc_otg_cil.h **** 	DWC_OTG_HC_XFER_XACT_ERR,
 284:../Dave/Generated/src/USBLD001/driver/dwc_otg_cil.h **** 	DWC_OTG_HC_XFER_FRAME_OVERRUN,
 285:../Dave/Generated/src/USBLD001/driver/dwc_otg_cil.h **** 	DWC_OTG_HC_XFER_BABBLE_ERR,
 286:../Dave/Generated/src/USBLD001/driver/dwc_otg_cil.h **** 	DWC_OTG_HC_XFER_DATA_TOGGLE_ERR,
 287:../Dave/Generated/src/USBLD001/driver/dwc_otg_cil.h **** 	DWC_OTG_HC_XFER_AHB_ERR,
 288:../Dave/Generated/src/USBLD001/driver/dwc_otg_cil.h **** 	DWC_OTG_HC_XFER_PERIODIC_INCOMPLETE,
 289:../Dave/Generated/src/USBLD001/driver/dwc_otg_cil.h **** 	DWC_OTG_HC_XFER_URB_DEQUEUE
 290:../Dave/Generated/src/USBLD001/driver/dwc_otg_cil.h **** } dwc_otg_halt_status_e;
 291:../Dave/Generated/src/USBLD001/driver/dwc_otg_cil.h **** 
 292:../Dave/Generated/src/USBLD001/driver/dwc_otg_cil.h **** /**
 293:../Dave/Generated/src/USBLD001/driver/dwc_otg_cil.h ****  * Host channel descriptor. This structure represents the state of a single
 294:../Dave/Generated/src/USBLD001/driver/dwc_otg_cil.h ****  * host channel when acting in host mode. It contains the data items needed to
 295:../Dave/Generated/src/USBLD001/driver/dwc_otg_cil.h ****  * transfer packets to an endpoint via a host channel.
 296:../Dave/Generated/src/USBLD001/driver/dwc_otg_cil.h ****  */
 297:../Dave/Generated/src/USBLD001/driver/dwc_otg_cil.h **** typedef struct dwc_hc {
 298:../Dave/Generated/src/USBLD001/driver/dwc_otg_cil.h **** 	/** Host channel number used for register address lookup */
 299:../Dave/Generated/src/USBLD001/driver/dwc_otg_cil.h **** 	uint8_t hc_num;
 300:../Dave/Generated/src/USBLD001/driver/dwc_otg_cil.h **** 
 301:../Dave/Generated/src/USBLD001/driver/dwc_otg_cil.h **** 	/** Device to access */
 302:../Dave/Generated/src/USBLD001/driver/dwc_otg_cil.h **** 	unsigned dev_addr:7;
 303:../Dave/Generated/src/USBLD001/driver/dwc_otg_cil.h **** 
 304:../Dave/Generated/src/USBLD001/driver/dwc_otg_cil.h **** 	/** EP to access */
 305:../Dave/Generated/src/USBLD001/driver/dwc_otg_cil.h **** 	unsigned ep_num:4;
 306:../Dave/Generated/src/USBLD001/driver/dwc_otg_cil.h **** 
 307:../Dave/Generated/src/USBLD001/driver/dwc_otg_cil.h **** 	/** EP direction. 0: OUT, 1: IN */
 308:../Dave/Generated/src/USBLD001/driver/dwc_otg_cil.h **** 	unsigned ep_is_in:1;
 309:../Dave/Generated/src/USBLD001/driver/dwc_otg_cil.h **** 
 310:../Dave/Generated/src/USBLD001/driver/dwc_otg_cil.h **** 	/**
 311:../Dave/Generated/src/USBLD001/driver/dwc_otg_cil.h **** 	 * EP speed.
 312:../Dave/Generated/src/USBLD001/driver/dwc_otg_cil.h **** 	 * One of the following values:
 313:../Dave/Generated/src/USBLD001/driver/dwc_otg_cil.h **** 	 *	- DWC_OTG_EP_SPEED_LOW
 314:../Dave/Generated/src/USBLD001/driver/dwc_otg_cil.h **** 	 *	- DWC_OTG_EP_SPEED_FULL
 315:../Dave/Generated/src/USBLD001/driver/dwc_otg_cil.h **** 	 *	- DWC_OTG_EP_SPEED_HIGH
 316:../Dave/Generated/src/USBLD001/driver/dwc_otg_cil.h **** 	 */
 317:../Dave/Generated/src/USBLD001/driver/dwc_otg_cil.h **** 	unsigned speed:2;
 318:../Dave/Generated/src/USBLD001/driver/dwc_otg_cil.h **** #define DWC_OTG_EP_SPEED_LOW	0
 319:../Dave/Generated/src/USBLD001/driver/dwc_otg_cil.h **** #define DWC_OTG_EP_SPEED_FULL	1
 320:../Dave/Generated/src/USBLD001/driver/dwc_otg_cil.h **** #define DWC_OTG_EP_SPEED_HIGH	2
 321:../Dave/Generated/src/USBLD001/driver/dwc_otg_cil.h **** 
 322:../Dave/Generated/src/USBLD001/driver/dwc_otg_cil.h **** 	/**
 323:../Dave/Generated/src/USBLD001/driver/dwc_otg_cil.h **** 	 * Endpoint type.
 324:../Dave/Generated/src/USBLD001/driver/dwc_otg_cil.h **** 	 * One of the following values:
 325:../Dave/Generated/src/USBLD001/driver/dwc_otg_cil.h **** 	 *	- DWC_OTG_EP_TYPE_CONTROL: 0
 326:../Dave/Generated/src/USBLD001/driver/dwc_otg_cil.h **** 	 *	- DWC_OTG_EP_TYPE_ISOC: 1
 327:../Dave/Generated/src/USBLD001/driver/dwc_otg_cil.h **** 	 *	- DWC_OTG_EP_TYPE_BULK: 2
 328:../Dave/Generated/src/USBLD001/driver/dwc_otg_cil.h **** 	 *	- DWC_OTG_EP_TYPE_INTR: 3
 329:../Dave/Generated/src/USBLD001/driver/dwc_otg_cil.h **** 	 */
 330:../Dave/Generated/src/USBLD001/driver/dwc_otg_cil.h **** 	unsigned ep_type:2;
 331:../Dave/Generated/src/USBLD001/driver/dwc_otg_cil.h **** 
 332:../Dave/Generated/src/USBLD001/driver/dwc_otg_cil.h **** 	/** Max packet size in bytes */
 333:../Dave/Generated/src/USBLD001/driver/dwc_otg_cil.h **** 	unsigned max_packet:11;
 334:../Dave/Generated/src/USBLD001/driver/dwc_otg_cil.h **** 
 335:../Dave/Generated/src/USBLD001/driver/dwc_otg_cil.h **** 	/**
 336:../Dave/Generated/src/USBLD001/driver/dwc_otg_cil.h **** 	 * PID for initial transaction.
 337:../Dave/Generated/src/USBLD001/driver/dwc_otg_cil.h **** 	 * 0: DATA0,<br>
 338:../Dave/Generated/src/USBLD001/driver/dwc_otg_cil.h **** 	 * 1: DATA2,<br>
 339:../Dave/Generated/src/USBLD001/driver/dwc_otg_cil.h **** 	 * 2: DATA1,<br>
 340:../Dave/Generated/src/USBLD001/driver/dwc_otg_cil.h **** 	 * 3: MDATA (non-Control EP),
 341:../Dave/Generated/src/USBLD001/driver/dwc_otg_cil.h **** 	 *	  SETUP (Control EP)
 342:../Dave/Generated/src/USBLD001/driver/dwc_otg_cil.h **** 	 */
 343:../Dave/Generated/src/USBLD001/driver/dwc_otg_cil.h **** 	unsigned data_pid_start:2;
 344:../Dave/Generated/src/USBLD001/driver/dwc_otg_cil.h **** #define DWC_OTG_HC_PID_DATA0 0
 345:../Dave/Generated/src/USBLD001/driver/dwc_otg_cil.h **** #define DWC_OTG_HC_PID_DATA2 1
 346:../Dave/Generated/src/USBLD001/driver/dwc_otg_cil.h **** #define DWC_OTG_HC_PID_DATA1 2
 347:../Dave/Generated/src/USBLD001/driver/dwc_otg_cil.h **** #define DWC_OTG_HC_PID_MDATA 3
 348:../Dave/Generated/src/USBLD001/driver/dwc_otg_cil.h **** #define DWC_OTG_HC_PID_SETUP 3
 349:../Dave/Generated/src/USBLD001/driver/dwc_otg_cil.h **** 
 350:../Dave/Generated/src/USBLD001/driver/dwc_otg_cil.h **** 	/** Number of periodic transactions per (micro)frame */
 351:../Dave/Generated/src/USBLD001/driver/dwc_otg_cil.h **** 	unsigned multi_count:2;
 352:../Dave/Generated/src/USBLD001/driver/dwc_otg_cil.h **** 
 353:../Dave/Generated/src/USBLD001/driver/dwc_otg_cil.h **** 	/** @name Transfer State */
 354:../Dave/Generated/src/USBLD001/driver/dwc_otg_cil.h **** 	/** @{ */
 355:../Dave/Generated/src/USBLD001/driver/dwc_otg_cil.h **** 
 356:../Dave/Generated/src/USBLD001/driver/dwc_otg_cil.h **** 	/** Pointer to the current transfer buffer position. */
 357:../Dave/Generated/src/USBLD001/driver/dwc_otg_cil.h **** 	uint8_t *xfer_buff;
 358:../Dave/Generated/src/USBLD001/driver/dwc_otg_cil.h **** 	/**
 359:../Dave/Generated/src/USBLD001/driver/dwc_otg_cil.h **** 	 * In Buffer DMA mode this buffer will be used
 360:../Dave/Generated/src/USBLD001/driver/dwc_otg_cil.h **** 	 * if xfer_buff is not DWORD aligned.
 361:../Dave/Generated/src/USBLD001/driver/dwc_otg_cil.h **** 	 */
 362:../Dave/Generated/src/USBLD001/driver/dwc_otg_cil.h **** 	dwc_dma_t align_buff;
 363:../Dave/Generated/src/USBLD001/driver/dwc_otg_cil.h **** 	/** Total number of bytes to transfer. */
 364:../Dave/Generated/src/USBLD001/driver/dwc_otg_cil.h **** 	uint32_t xfer_len;
 365:../Dave/Generated/src/USBLD001/driver/dwc_otg_cil.h **** 	/** Number of bytes transferred so far. */
 366:../Dave/Generated/src/USBLD001/driver/dwc_otg_cil.h **** 	uint32_t xfer_count;
 367:../Dave/Generated/src/USBLD001/driver/dwc_otg_cil.h **** 	/** Packet count at start of transfer.*/
 368:../Dave/Generated/src/USBLD001/driver/dwc_otg_cil.h **** 	uint16_t start_pkt_count;
 369:../Dave/Generated/src/USBLD001/driver/dwc_otg_cil.h **** 
 370:../Dave/Generated/src/USBLD001/driver/dwc_otg_cil.h **** 	/**
 371:../Dave/Generated/src/USBLD001/driver/dwc_otg_cil.h **** 	 * Flag to indicate whether the transfer has been started. Set to 1 if
 372:../Dave/Generated/src/USBLD001/driver/dwc_otg_cil.h **** 	 * it has been started, 0 otherwise.
 373:../Dave/Generated/src/USBLD001/driver/dwc_otg_cil.h **** 	 */
 374:../Dave/Generated/src/USBLD001/driver/dwc_otg_cil.h **** 	uint8_t xfer_started;
 375:../Dave/Generated/src/USBLD001/driver/dwc_otg_cil.h **** 
 376:../Dave/Generated/src/USBLD001/driver/dwc_otg_cil.h **** 	/**
 377:../Dave/Generated/src/USBLD001/driver/dwc_otg_cil.h **** 	 * Set to 1 to indicate that a PING request should be issued on this
 378:../Dave/Generated/src/USBLD001/driver/dwc_otg_cil.h **** 	 * channel. If 0, process normally.
 379:../Dave/Generated/src/USBLD001/driver/dwc_otg_cil.h **** 	 */
 380:../Dave/Generated/src/USBLD001/driver/dwc_otg_cil.h **** 	uint8_t do_ping;
 381:../Dave/Generated/src/USBLD001/driver/dwc_otg_cil.h **** 
 382:../Dave/Generated/src/USBLD001/driver/dwc_otg_cil.h **** 	/**
 383:../Dave/Generated/src/USBLD001/driver/dwc_otg_cil.h **** 	 * Set to 1 to indicate that the error count for this transaction is
 384:../Dave/Generated/src/USBLD001/driver/dwc_otg_cil.h **** 	 * non-zero. Set to 0 if the error count is 0.
 385:../Dave/Generated/src/USBLD001/driver/dwc_otg_cil.h **** 	 */
 386:../Dave/Generated/src/USBLD001/driver/dwc_otg_cil.h **** 	uint8_t error_state;
 387:../Dave/Generated/src/USBLD001/driver/dwc_otg_cil.h **** 
 388:../Dave/Generated/src/USBLD001/driver/dwc_otg_cil.h **** 	/**
 389:../Dave/Generated/src/USBLD001/driver/dwc_otg_cil.h **** 	 * Set to 1 to indicate that this channel should be halted the next
 390:../Dave/Generated/src/USBLD001/driver/dwc_otg_cil.h **** 	 * time a request is queued for the channel. This is necessary in
 391:../Dave/Generated/src/USBLD001/driver/dwc_otg_cil.h **** 	 * slave mode if no request queue space is available when an attempt
 392:../Dave/Generated/src/USBLD001/driver/dwc_otg_cil.h **** 	 * is made to halt the channel.
 393:../Dave/Generated/src/USBLD001/driver/dwc_otg_cil.h **** 	 */
 394:../Dave/Generated/src/USBLD001/driver/dwc_otg_cil.h **** 	uint8_t halt_on_queue;
 395:../Dave/Generated/src/USBLD001/driver/dwc_otg_cil.h **** 
 396:../Dave/Generated/src/USBLD001/driver/dwc_otg_cil.h **** 	/**
 397:../Dave/Generated/src/USBLD001/driver/dwc_otg_cil.h **** 	 * Set to 1 if the host channel has been halted, but the core is not
 398:../Dave/Generated/src/USBLD001/driver/dwc_otg_cil.h **** 	 * finished flushing queued requests. Otherwise 0.
 399:../Dave/Generated/src/USBLD001/driver/dwc_otg_cil.h **** 	 */
 400:../Dave/Generated/src/USBLD001/driver/dwc_otg_cil.h **** 	uint8_t halt_pending;
 401:../Dave/Generated/src/USBLD001/driver/dwc_otg_cil.h **** 
 402:../Dave/Generated/src/USBLD001/driver/dwc_otg_cil.h **** 	/**
 403:../Dave/Generated/src/USBLD001/driver/dwc_otg_cil.h **** 	 * Reason for halting the host channel.
 404:../Dave/Generated/src/USBLD001/driver/dwc_otg_cil.h **** 	 */
 405:../Dave/Generated/src/USBLD001/driver/dwc_otg_cil.h **** 	dwc_otg_halt_status_e halt_status;
 406:../Dave/Generated/src/USBLD001/driver/dwc_otg_cil.h **** 
 407:../Dave/Generated/src/USBLD001/driver/dwc_otg_cil.h **** 	/*
 408:../Dave/Generated/src/USBLD001/driver/dwc_otg_cil.h **** 	 * Split settings for the host channel
 409:../Dave/Generated/src/USBLD001/driver/dwc_otg_cil.h **** 	 */
 410:../Dave/Generated/src/USBLD001/driver/dwc_otg_cil.h **** 	uint8_t do_split;		   /**< Enable split for the channel */
 411:../Dave/Generated/src/USBLD001/driver/dwc_otg_cil.h **** 	uint8_t complete_split;	   /**< Enable complete split */
 412:../Dave/Generated/src/USBLD001/driver/dwc_otg_cil.h **** 	uint8_t hub_addr;		   /**< Address of high speed hub */
 413:../Dave/Generated/src/USBLD001/driver/dwc_otg_cil.h **** 
 414:../Dave/Generated/src/USBLD001/driver/dwc_otg_cil.h **** 	uint8_t port_addr;		   /**< Port of the low/full speed device */
 415:../Dave/Generated/src/USBLD001/driver/dwc_otg_cil.h **** 	/** Split transaction position
 416:../Dave/Generated/src/USBLD001/driver/dwc_otg_cil.h **** 	 * One of the following values:
 417:../Dave/Generated/src/USBLD001/driver/dwc_otg_cil.h **** 	 *	  - DWC_HCSPLIT_XACTPOS_MID
 418:../Dave/Generated/src/USBLD001/driver/dwc_otg_cil.h **** 	 *	  - DWC_HCSPLIT_XACTPOS_BEGIN
 419:../Dave/Generated/src/USBLD001/driver/dwc_otg_cil.h **** 	 *	  - DWC_HCSPLIT_XACTPOS_END
 420:../Dave/Generated/src/USBLD001/driver/dwc_otg_cil.h **** 	 *	  - DWC_HCSPLIT_XACTPOS_ALL */
 421:../Dave/Generated/src/USBLD001/driver/dwc_otg_cil.h **** 	uint8_t xact_pos;
 422:../Dave/Generated/src/USBLD001/driver/dwc_otg_cil.h **** 
 423:../Dave/Generated/src/USBLD001/driver/dwc_otg_cil.h **** 	/** Set when the host channel does a short read. */
 424:../Dave/Generated/src/USBLD001/driver/dwc_otg_cil.h **** 	uint8_t short_read;
 425:../Dave/Generated/src/USBLD001/driver/dwc_otg_cil.h **** 
 426:../Dave/Generated/src/USBLD001/driver/dwc_otg_cil.h **** 	/**
 427:../Dave/Generated/src/USBLD001/driver/dwc_otg_cil.h **** 	 * Number of requests issued for this channel since it was assigned to
 428:../Dave/Generated/src/USBLD001/driver/dwc_otg_cil.h **** 	 * the current transfer (not counting PINGs).
 429:../Dave/Generated/src/USBLD001/driver/dwc_otg_cil.h **** 	 */
 430:../Dave/Generated/src/USBLD001/driver/dwc_otg_cil.h **** 	uint8_t requests;
 431:../Dave/Generated/src/USBLD001/driver/dwc_otg_cil.h **** 
 432:../Dave/Generated/src/USBLD001/driver/dwc_otg_cil.h **** 	/**
 433:../Dave/Generated/src/USBLD001/driver/dwc_otg_cil.h **** 	 * Queue Head for the transfer being processed by this channel.
 434:../Dave/Generated/src/USBLD001/driver/dwc_otg_cil.h **** 	 */
 435:../Dave/Generated/src/USBLD001/driver/dwc_otg_cil.h **** 	struct dwc_otg_qh *qh;
 436:../Dave/Generated/src/USBLD001/driver/dwc_otg_cil.h **** 
 437:../Dave/Generated/src/USBLD001/driver/dwc_otg_cil.h **** 	/** @} */
 438:../Dave/Generated/src/USBLD001/driver/dwc_otg_cil.h **** 
 439:../Dave/Generated/src/USBLD001/driver/dwc_otg_cil.h **** 	/** Entry in list of host channels. */
 440:../Dave/Generated/src/USBLD001/driver/dwc_otg_cil.h **** 	 DWC_CIRCLEQ_ENTRY(dwc_hc) hc_list_entry;
 441:../Dave/Generated/src/USBLD001/driver/dwc_otg_cil.h **** 
 442:../Dave/Generated/src/USBLD001/driver/dwc_otg_cil.h **** 	/** @name Descriptor DMA support */
 443:../Dave/Generated/src/USBLD001/driver/dwc_otg_cil.h **** 	/** @{ */
 444:../Dave/Generated/src/USBLD001/driver/dwc_otg_cil.h **** 
 445:../Dave/Generated/src/USBLD001/driver/dwc_otg_cil.h **** 	/** Number of Transfer Descriptors */
 446:../Dave/Generated/src/USBLD001/driver/dwc_otg_cil.h **** 	uint16_t ntd;
 447:../Dave/Generated/src/USBLD001/driver/dwc_otg_cil.h **** 
 448:../Dave/Generated/src/USBLD001/driver/dwc_otg_cil.h **** 	/** Descriptor List DMA address */
 449:../Dave/Generated/src/USBLD001/driver/dwc_otg_cil.h **** 	dwc_dma_t desc_list_addr;
 450:../Dave/Generated/src/USBLD001/driver/dwc_otg_cil.h **** 
 451:../Dave/Generated/src/USBLD001/driver/dwc_otg_cil.h **** 	/** Scheduling micro-frame bitmap. */
 452:../Dave/Generated/src/USBLD001/driver/dwc_otg_cil.h **** 	uint8_t schinfo;
 453:../Dave/Generated/src/USBLD001/driver/dwc_otg_cil.h **** 
 454:../Dave/Generated/src/USBLD001/driver/dwc_otg_cil.h **** 	/** @} */
 455:../Dave/Generated/src/USBLD001/driver/dwc_otg_cil.h **** } dwc_hc_t;
 456:../Dave/Generated/src/USBLD001/driver/dwc_otg_cil.h **** 
 457:../Dave/Generated/src/USBLD001/driver/dwc_otg_cil.h **** /**
 458:../Dave/Generated/src/USBLD001/driver/dwc_otg_cil.h ****  * The following parameters may be specified when starting the module. These
 459:../Dave/Generated/src/USBLD001/driver/dwc_otg_cil.h ****  * parameters define how the DWC_otg controller should be configured.
 460:../Dave/Generated/src/USBLD001/driver/dwc_otg_cil.h ****  */
 461:../Dave/Generated/src/USBLD001/driver/dwc_otg_cil.h **** typedef struct dwc_otg_core_params {
 462:../Dave/Generated/src/USBLD001/driver/dwc_otg_cil.h **** 	int32_t opt;
 463:../Dave/Generated/src/USBLD001/driver/dwc_otg_cil.h **** 
 464:../Dave/Generated/src/USBLD001/driver/dwc_otg_cil.h **** 	/**
 465:../Dave/Generated/src/USBLD001/driver/dwc_otg_cil.h **** 	 * Specifies the OTG capabilities. The driver will automatically
 466:../Dave/Generated/src/USBLD001/driver/dwc_otg_cil.h **** 	 * detect the value for this parameter if none is specified.
 467:../Dave/Generated/src/USBLD001/driver/dwc_otg_cil.h **** 	 * 0 - HNP and SRP capable (default)
 468:../Dave/Generated/src/USBLD001/driver/dwc_otg_cil.h **** 	 * 1 - SRP Only capable
 469:../Dave/Generated/src/USBLD001/driver/dwc_otg_cil.h **** 	 * 2 - No HNP/SRP capable
 470:../Dave/Generated/src/USBLD001/driver/dwc_otg_cil.h **** 	 */
 471:../Dave/Generated/src/USBLD001/driver/dwc_otg_cil.h **** 	int32_t otg_cap;
 472:../Dave/Generated/src/USBLD001/driver/dwc_otg_cil.h **** 
 473:../Dave/Generated/src/USBLD001/driver/dwc_otg_cil.h **** 	/**
 474:../Dave/Generated/src/USBLD001/driver/dwc_otg_cil.h **** 	 * Specifies whether to use slave or DMA mode for accessing the data
 475:../Dave/Generated/src/USBLD001/driver/dwc_otg_cil.h **** 	 * FIFOs. The driver will automatically detect the value for this
 476:../Dave/Generated/src/USBLD001/driver/dwc_otg_cil.h **** 	 * parameter if none is specified.
 477:../Dave/Generated/src/USBLD001/driver/dwc_otg_cil.h **** 	 * 0 - Slave
 478:../Dave/Generated/src/USBLD001/driver/dwc_otg_cil.h **** 	 * 1 - DMA (default, if available)
 479:../Dave/Generated/src/USBLD001/driver/dwc_otg_cil.h **** 	 */
 480:../Dave/Generated/src/USBLD001/driver/dwc_otg_cil.h **** 	int32_t dma_enable;
 481:../Dave/Generated/src/USBLD001/driver/dwc_otg_cil.h **** 
 482:../Dave/Generated/src/USBLD001/driver/dwc_otg_cil.h **** 	/**
 483:../Dave/Generated/src/USBLD001/driver/dwc_otg_cil.h **** 	 * When DMA mode is enabled specifies whether to use address DMA or DMA Descritor mode for accessi
 484:../Dave/Generated/src/USBLD001/driver/dwc_otg_cil.h **** 	 * FIFOs in device mode. The driver will automatically detect the value for this
 485:../Dave/Generated/src/USBLD001/driver/dwc_otg_cil.h **** 	 * parameter if none is specified.
 486:../Dave/Generated/src/USBLD001/driver/dwc_otg_cil.h **** 	 * 0 - address DMA
 487:../Dave/Generated/src/USBLD001/driver/dwc_otg_cil.h **** 	 * 1 - DMA Descriptor(default, if available)
 488:../Dave/Generated/src/USBLD001/driver/dwc_otg_cil.h **** 	 */
 489:../Dave/Generated/src/USBLD001/driver/dwc_otg_cil.h **** 	int32_t dma_desc_enable;
 490:../Dave/Generated/src/USBLD001/driver/dwc_otg_cil.h **** 	/** The DMA Burst size (applicable only for External DMA
 491:../Dave/Generated/src/USBLD001/driver/dwc_otg_cil.h **** 	 * Mode). 1, 4, 8 16, 32, 64, 128, 256 (default 32)
 492:../Dave/Generated/src/USBLD001/driver/dwc_otg_cil.h **** 	 */
 493:../Dave/Generated/src/USBLD001/driver/dwc_otg_cil.h **** 	int32_t dma_burst_size;	/* Translate this to GAHBCFG values */
 494:../Dave/Generated/src/USBLD001/driver/dwc_otg_cil.h **** 
 495:../Dave/Generated/src/USBLD001/driver/dwc_otg_cil.h **** 	/**
 496:../Dave/Generated/src/USBLD001/driver/dwc_otg_cil.h **** 	 * Specifies the maximum speed of operation in host and device mode.
 497:../Dave/Generated/src/USBLD001/driver/dwc_otg_cil.h **** 	 * The actual speed depends on the speed of the attached device and
 498:../Dave/Generated/src/USBLD001/driver/dwc_otg_cil.h **** 	 * the value of phy_type. The actual speed depends on the speed of the
 499:../Dave/Generated/src/USBLD001/driver/dwc_otg_cil.h **** 	 * attached device.
 500:../Dave/Generated/src/USBLD001/driver/dwc_otg_cil.h **** 	 * 0 - High Speed (default)
 501:../Dave/Generated/src/USBLD001/driver/dwc_otg_cil.h **** 	 * 1 - Full Speed
 502:../Dave/Generated/src/USBLD001/driver/dwc_otg_cil.h **** 	 */
 503:../Dave/Generated/src/USBLD001/driver/dwc_otg_cil.h **** 	int32_t speed;
 504:../Dave/Generated/src/USBLD001/driver/dwc_otg_cil.h **** 	/** Specifies whether low power mode is supported when attached
 505:../Dave/Generated/src/USBLD001/driver/dwc_otg_cil.h **** 	 *	to a Full Speed or Low Speed device in host mode.
 506:../Dave/Generated/src/USBLD001/driver/dwc_otg_cil.h **** 	 * 0 - Don't support low power mode (default)
 507:../Dave/Generated/src/USBLD001/driver/dwc_otg_cil.h **** 	 * 1 - Support low power mode
 508:../Dave/Generated/src/USBLD001/driver/dwc_otg_cil.h **** 	 */
 509:../Dave/Generated/src/USBLD001/driver/dwc_otg_cil.h **** 	int32_t host_support_fs_ls_low_power;
 510:../Dave/Generated/src/USBLD001/driver/dwc_otg_cil.h **** 
 511:../Dave/Generated/src/USBLD001/driver/dwc_otg_cil.h **** 	/** Specifies the PHY clock rate in low power mode when connected to a
 512:../Dave/Generated/src/USBLD001/driver/dwc_otg_cil.h **** 	 * Low Speed device in host mode. This parameter is applicable only if
 513:../Dave/Generated/src/USBLD001/driver/dwc_otg_cil.h **** 	 * HOST_SUPPORT_FS_LS_LOW_POWER is enabled. If PHY_TYPE is set to FS
 514:../Dave/Generated/src/USBLD001/driver/dwc_otg_cil.h **** 	 * then defaults to 6 MHZ otherwise 48 MHZ.
 515:../Dave/Generated/src/USBLD001/driver/dwc_otg_cil.h **** 	 *
 516:../Dave/Generated/src/USBLD001/driver/dwc_otg_cil.h **** 	 * 0 - 48 MHz
 517:../Dave/Generated/src/USBLD001/driver/dwc_otg_cil.h **** 	 * 1 - 6 MHz
 518:../Dave/Generated/src/USBLD001/driver/dwc_otg_cil.h **** 	 */
 519:../Dave/Generated/src/USBLD001/driver/dwc_otg_cil.h **** 	int32_t host_ls_low_power_phy_clk;
 520:../Dave/Generated/src/USBLD001/driver/dwc_otg_cil.h **** 
 521:../Dave/Generated/src/USBLD001/driver/dwc_otg_cil.h **** 	/**
 522:../Dave/Generated/src/USBLD001/driver/dwc_otg_cil.h **** 	 * 0 - Use cC FIFO size parameters
 523:../Dave/Generated/src/USBLD001/driver/dwc_otg_cil.h **** 	 * 1 - Allow dynamic FIFO sizing (default)
 524:../Dave/Generated/src/USBLD001/driver/dwc_otg_cil.h **** 	 */
 525:../Dave/Generated/src/USBLD001/driver/dwc_otg_cil.h **** 	int32_t enable_dynamic_fifo;
 526:../Dave/Generated/src/USBLD001/driver/dwc_otg_cil.h **** 
 527:../Dave/Generated/src/USBLD001/driver/dwc_otg_cil.h **** 	/** Total number of 4-byte words in the data FIFO memory. This
 528:../Dave/Generated/src/USBLD001/driver/dwc_otg_cil.h **** 	 * memory includes the Rx FIFO, non-periodic Tx FIFO, and periodic
 529:../Dave/Generated/src/USBLD001/driver/dwc_otg_cil.h **** 	 * Tx FIFOs.
 530:../Dave/Generated/src/USBLD001/driver/dwc_otg_cil.h **** 	 * 32 to 32768 (default 8192)
 531:../Dave/Generated/src/USBLD001/driver/dwc_otg_cil.h **** 	 * Note: The total FIFO memory depth in the FPGA configuration is 8192.
 532:../Dave/Generated/src/USBLD001/driver/dwc_otg_cil.h **** 	 */
 533:../Dave/Generated/src/USBLD001/driver/dwc_otg_cil.h **** 	int32_t data_fifo_size;
 534:../Dave/Generated/src/USBLD001/driver/dwc_otg_cil.h **** 
 535:../Dave/Generated/src/USBLD001/driver/dwc_otg_cil.h **** 	/** Number of 4-byte words in the Rx FIFO in device mode when dynamic
 536:../Dave/Generated/src/USBLD001/driver/dwc_otg_cil.h **** 	 * FIFO sizing is enabled.
 537:../Dave/Generated/src/USBLD001/driver/dwc_otg_cil.h **** 	 * 16 to 32768 (default 1064)
 538:../Dave/Generated/src/USBLD001/driver/dwc_otg_cil.h **** 	 */
 539:../Dave/Generated/src/USBLD001/driver/dwc_otg_cil.h **** 	int32_t dev_rx_fifo_size;
 540:../Dave/Generated/src/USBLD001/driver/dwc_otg_cil.h **** 
 541:../Dave/Generated/src/USBLD001/driver/dwc_otg_cil.h **** 	/** Number of 4-byte words in the non-periodic Tx FIFO in device mode
 542:../Dave/Generated/src/USBLD001/driver/dwc_otg_cil.h **** 	 * when dynamic FIFO sizing is enabled.
 543:../Dave/Generated/src/USBLD001/driver/dwc_otg_cil.h **** 	 * 16 to 32768 (default 1024)
 544:../Dave/Generated/src/USBLD001/driver/dwc_otg_cil.h **** 	 */
 545:../Dave/Generated/src/USBLD001/driver/dwc_otg_cil.h **** 	int32_t dev_nperio_tx_fifo_size;
 546:../Dave/Generated/src/USBLD001/driver/dwc_otg_cil.h **** 
 547:../Dave/Generated/src/USBLD001/driver/dwc_otg_cil.h **** 	/** Number of 4-byte words in each of the periodic Tx FIFOs in device
 548:../Dave/Generated/src/USBLD001/driver/dwc_otg_cil.h **** 	 * mode when dynamic FIFO sizing is enabled.
 549:../Dave/Generated/src/USBLD001/driver/dwc_otg_cil.h **** 	 * 4 to 768 (default 256)
 550:../Dave/Generated/src/USBLD001/driver/dwc_otg_cil.h **** 	 */
 551:../Dave/Generated/src/USBLD001/driver/dwc_otg_cil.h **** 	uint32_t dev_perio_tx_fifo_size[MAX_PERIO_FIFOS];
 552:../Dave/Generated/src/USBLD001/driver/dwc_otg_cil.h **** 
 553:../Dave/Generated/src/USBLD001/driver/dwc_otg_cil.h **** 	/** Number of 4-byte words in the Rx FIFO in host mode when dynamic
 554:../Dave/Generated/src/USBLD001/driver/dwc_otg_cil.h **** 	 * FIFO sizing is enabled.
 555:../Dave/Generated/src/USBLD001/driver/dwc_otg_cil.h **** 	 * 16 to 32768 (default 1024)
 556:../Dave/Generated/src/USBLD001/driver/dwc_otg_cil.h **** 	 */
 557:../Dave/Generated/src/USBLD001/driver/dwc_otg_cil.h **** 	int32_t host_rx_fifo_size;
 558:../Dave/Generated/src/USBLD001/driver/dwc_otg_cil.h **** 
 559:../Dave/Generated/src/USBLD001/driver/dwc_otg_cil.h **** 	/** Number of 4-byte words in the non-periodic Tx FIFO in host mode
 560:../Dave/Generated/src/USBLD001/driver/dwc_otg_cil.h **** 	 * when Dynamic FIFO sizing is enabled in the core.
 561:../Dave/Generated/src/USBLD001/driver/dwc_otg_cil.h **** 	 * 16 to 32768 (default 1024)
 562:../Dave/Generated/src/USBLD001/driver/dwc_otg_cil.h **** 	 */
 563:../Dave/Generated/src/USBLD001/driver/dwc_otg_cil.h **** 	int32_t host_nperio_tx_fifo_size;
 564:../Dave/Generated/src/USBLD001/driver/dwc_otg_cil.h **** 
 565:../Dave/Generated/src/USBLD001/driver/dwc_otg_cil.h **** 	/** Number of 4-byte words in the host periodic Tx FIFO when dynamic
 566:../Dave/Generated/src/USBLD001/driver/dwc_otg_cil.h **** 	 * FIFO sizing is enabled.
 567:../Dave/Generated/src/USBLD001/driver/dwc_otg_cil.h **** 	 * 16 to 32768 (default 1024)
 568:../Dave/Generated/src/USBLD001/driver/dwc_otg_cil.h **** 	 */
 569:../Dave/Generated/src/USBLD001/driver/dwc_otg_cil.h **** 	int32_t host_perio_tx_fifo_size;
 570:../Dave/Generated/src/USBLD001/driver/dwc_otg_cil.h **** 
 571:../Dave/Generated/src/USBLD001/driver/dwc_otg_cil.h **** 	/** The maximum transfer size supported in bytes.
 572:../Dave/Generated/src/USBLD001/driver/dwc_otg_cil.h **** 	 * 2047 to 65,535  (default 65,535)
 573:../Dave/Generated/src/USBLD001/driver/dwc_otg_cil.h **** 	 */
 574:../Dave/Generated/src/USBLD001/driver/dwc_otg_cil.h **** 	int32_t max_transfer_size;
 575:../Dave/Generated/src/USBLD001/driver/dwc_otg_cil.h **** 
 576:../Dave/Generated/src/USBLD001/driver/dwc_otg_cil.h **** 	/** The maximum number of packets in a transfer.
 577:../Dave/Generated/src/USBLD001/driver/dwc_otg_cil.h **** 	 * 15 to 511  (default 511)
 578:../Dave/Generated/src/USBLD001/driver/dwc_otg_cil.h **** 	 */
 579:../Dave/Generated/src/USBLD001/driver/dwc_otg_cil.h **** 	int32_t max_packet_count;
 580:../Dave/Generated/src/USBLD001/driver/dwc_otg_cil.h **** 
 581:../Dave/Generated/src/USBLD001/driver/dwc_otg_cil.h **** 	/** The number of host channel registers to use.
 582:../Dave/Generated/src/USBLD001/driver/dwc_otg_cil.h **** 	 * 1 to 16 (default 12)
 583:../Dave/Generated/src/USBLD001/driver/dwc_otg_cil.h **** 	 * Note: The FPGA configuration supports a maximum of 12 host channels.
 584:../Dave/Generated/src/USBLD001/driver/dwc_otg_cil.h **** 	 */
 585:../Dave/Generated/src/USBLD001/driver/dwc_otg_cil.h **** 	int32_t host_channels;
 586:../Dave/Generated/src/USBLD001/driver/dwc_otg_cil.h **** 
 587:../Dave/Generated/src/USBLD001/driver/dwc_otg_cil.h **** 	/** The number of endpoints in addition to EP0 available for device
 588:../Dave/Generated/src/USBLD001/driver/dwc_otg_cil.h **** 	 * mode operations.
 589:../Dave/Generated/src/USBLD001/driver/dwc_otg_cil.h **** 	 * 1 to 15 (default 6 IN and OUT)
 590:../Dave/Generated/src/USBLD001/driver/dwc_otg_cil.h **** 	 * Note: The FPGA configuration supports a maximum of 6 IN and OUT
 591:../Dave/Generated/src/USBLD001/driver/dwc_otg_cil.h **** 	 * endpoints in addition to EP0.
 592:../Dave/Generated/src/USBLD001/driver/dwc_otg_cil.h **** 	 */
 593:../Dave/Generated/src/USBLD001/driver/dwc_otg_cil.h **** 	int32_t dev_endpoints;
 594:../Dave/Generated/src/USBLD001/driver/dwc_otg_cil.h **** 
 595:../Dave/Generated/src/USBLD001/driver/dwc_otg_cil.h **** 		/**
 596:../Dave/Generated/src/USBLD001/driver/dwc_otg_cil.h **** 		 * Specifies the type of PHY interface to use. By default, the driver
 597:../Dave/Generated/src/USBLD001/driver/dwc_otg_cil.h **** 		 * will automatically detect the phy_type.
 598:../Dave/Generated/src/USBLD001/driver/dwc_otg_cil.h **** 		 *
 599:../Dave/Generated/src/USBLD001/driver/dwc_otg_cil.h **** 		 * 0 - Full Speed PHY
 600:../Dave/Generated/src/USBLD001/driver/dwc_otg_cil.h **** 		 * 1 - UTMI+ (default)
 601:../Dave/Generated/src/USBLD001/driver/dwc_otg_cil.h **** 		 * 2 - ULPI
 602:../Dave/Generated/src/USBLD001/driver/dwc_otg_cil.h **** 		 */
 603:../Dave/Generated/src/USBLD001/driver/dwc_otg_cil.h **** 	int32_t phy_type;
 604:../Dave/Generated/src/USBLD001/driver/dwc_otg_cil.h **** 
 605:../Dave/Generated/src/USBLD001/driver/dwc_otg_cil.h **** 	/**
 606:../Dave/Generated/src/USBLD001/driver/dwc_otg_cil.h **** 	 * Specifies the UTMI+ Data Width. This parameter is
 607:../Dave/Generated/src/USBLD001/driver/dwc_otg_cil.h **** 	 * applicable for a PHY_TYPE of UTMI+ or ULPI. (For a ULPI
 608:../Dave/Generated/src/USBLD001/driver/dwc_otg_cil.h **** 	 * PHY_TYPE, this parameter indicates the data width between
 609:../Dave/Generated/src/USBLD001/driver/dwc_otg_cil.h **** 	 * the MAC and the ULPI Wrapper.) Also, this parameter is
 610:../Dave/Generated/src/USBLD001/driver/dwc_otg_cil.h **** 	 * applicable only if the OTG_HSPHY_WIDTH cC parameter was set
 611:../Dave/Generated/src/USBLD001/driver/dwc_otg_cil.h **** 	 * to "8 and 16 bits", meaning that the core has been
 612:../Dave/Generated/src/USBLD001/driver/dwc_otg_cil.h **** 	 * configured to work at either data path width.
 613:../Dave/Generated/src/USBLD001/driver/dwc_otg_cil.h **** 	 *
 614:../Dave/Generated/src/USBLD001/driver/dwc_otg_cil.h **** 	 * 8 or 16 bits (default 16)
 615:../Dave/Generated/src/USBLD001/driver/dwc_otg_cil.h **** 	 */
 616:../Dave/Generated/src/USBLD001/driver/dwc_otg_cil.h **** 	int32_t phy_utmi_width;
 617:../Dave/Generated/src/USBLD001/driver/dwc_otg_cil.h **** 
 618:../Dave/Generated/src/USBLD001/driver/dwc_otg_cil.h **** 	/**
 619:../Dave/Generated/src/USBLD001/driver/dwc_otg_cil.h **** 	 * Specifies whether the ULPI operates at double or single
 620:../Dave/Generated/src/USBLD001/driver/dwc_otg_cil.h **** 	 * data rate. This parameter is only applicable if PHY_TYPE is
 621:../Dave/Generated/src/USBLD001/driver/dwc_otg_cil.h **** 	 * ULPI.
 622:../Dave/Generated/src/USBLD001/driver/dwc_otg_cil.h **** 	 *
 623:../Dave/Generated/src/USBLD001/driver/dwc_otg_cil.h **** 	 * 0 - single data rate ULPI interface with 8 bit wide data
 624:../Dave/Generated/src/USBLD001/driver/dwc_otg_cil.h **** 	 * bus (default)
 625:../Dave/Generated/src/USBLD001/driver/dwc_otg_cil.h **** 	 * 1 - double data rate ULPI interface with 4 bit wide data
 626:../Dave/Generated/src/USBLD001/driver/dwc_otg_cil.h **** 	 * bus
 627:../Dave/Generated/src/USBLD001/driver/dwc_otg_cil.h **** 	 */
 628:../Dave/Generated/src/USBLD001/driver/dwc_otg_cil.h **** 	int32_t phy_ulpi_ddr;
 629:../Dave/Generated/src/USBLD001/driver/dwc_otg_cil.h **** 
 630:../Dave/Generated/src/USBLD001/driver/dwc_otg_cil.h **** 	/**
 631:../Dave/Generated/src/USBLD001/driver/dwc_otg_cil.h **** 	 * Specifies whether to use the internal or external supply to
 632:../Dave/Generated/src/USBLD001/driver/dwc_otg_cil.h **** 	 * drive the vbus with a ULPI phy.
 633:../Dave/Generated/src/USBLD001/driver/dwc_otg_cil.h **** 	 */
 634:../Dave/Generated/src/USBLD001/driver/dwc_otg_cil.h **** 	int32_t phy_ulpi_ext_vbus;
 635:../Dave/Generated/src/USBLD001/driver/dwc_otg_cil.h **** 
 636:../Dave/Generated/src/USBLD001/driver/dwc_otg_cil.h **** 	/**
 637:../Dave/Generated/src/USBLD001/driver/dwc_otg_cil.h **** 	 * Specifies whether to use the I2Cinterface for full speed PHY. This
 638:../Dave/Generated/src/USBLD001/driver/dwc_otg_cil.h **** 	 * parameter is only applicable if PHY_TYPE is FS.
 639:../Dave/Generated/src/USBLD001/driver/dwc_otg_cil.h **** 	 * 0 - No (default)
 640:../Dave/Generated/src/USBLD001/driver/dwc_otg_cil.h **** 	 * 1 - Yes
 641:../Dave/Generated/src/USBLD001/driver/dwc_otg_cil.h **** 	 */
 642:../Dave/Generated/src/USBLD001/driver/dwc_otg_cil.h **** 	int32_t i2c_enable;
 643:../Dave/Generated/src/USBLD001/driver/dwc_otg_cil.h **** 
 644:../Dave/Generated/src/USBLD001/driver/dwc_otg_cil.h **** 	int32_t ulpi_fs_ls;
 645:../Dave/Generated/src/USBLD001/driver/dwc_otg_cil.h **** 
 646:../Dave/Generated/src/USBLD001/driver/dwc_otg_cil.h **** 	int32_t ts_dline;
 647:../Dave/Generated/src/USBLD001/driver/dwc_otg_cil.h **** 
 648:../Dave/Generated/src/USBLD001/driver/dwc_otg_cil.h **** 	/**
 649:../Dave/Generated/src/USBLD001/driver/dwc_otg_cil.h **** 	 * Specifies whether dedicated transmit FIFOs are
 650:../Dave/Generated/src/USBLD001/driver/dwc_otg_cil.h **** 	 * enabled for non periodic IN endpoints in device mode
 651:../Dave/Generated/src/USBLD001/driver/dwc_otg_cil.h **** 	 * 0 - No
 652:../Dave/Generated/src/USBLD001/driver/dwc_otg_cil.h **** 	 * 1 - Yes
 653:../Dave/Generated/src/USBLD001/driver/dwc_otg_cil.h **** 	 */
 654:../Dave/Generated/src/USBLD001/driver/dwc_otg_cil.h **** 	int32_t en_multiple_tx_fifo;
 655:../Dave/Generated/src/USBLD001/driver/dwc_otg_cil.h **** 
 656:../Dave/Generated/src/USBLD001/driver/dwc_otg_cil.h **** 	/** Number of 4-byte words in each of the Tx FIFOs in device
 657:../Dave/Generated/src/USBLD001/driver/dwc_otg_cil.h **** 	 * mode when dynamic FIFO sizing is enabled.
 658:../Dave/Generated/src/USBLD001/driver/dwc_otg_cil.h **** 	 * 4 to 768 (default 256)
 659:../Dave/Generated/src/USBLD001/driver/dwc_otg_cil.h **** 	 */
 660:../Dave/Generated/src/USBLD001/driver/dwc_otg_cil.h **** 	uint32_t dev_tx_fifo_size[MAX_TX_FIFOS];
 661:../Dave/Generated/src/USBLD001/driver/dwc_otg_cil.h **** 
 662:../Dave/Generated/src/USBLD001/driver/dwc_otg_cil.h **** 	/** Thresholding enable flag-
 663:../Dave/Generated/src/USBLD001/driver/dwc_otg_cil.h **** 	 * bit 0 - enable non-ISO Tx thresholding
 664:../Dave/Generated/src/USBLD001/driver/dwc_otg_cil.h **** 	 * bit 1 - enable ISO Tx thresholding
 665:../Dave/Generated/src/USBLD001/driver/dwc_otg_cil.h **** 	 * bit 2 - enable Rx thresholding
 666:../Dave/Generated/src/USBLD001/driver/dwc_otg_cil.h **** 	 */
 667:../Dave/Generated/src/USBLD001/driver/dwc_otg_cil.h **** 	uint32_t thr_ctl;
 668:../Dave/Generated/src/USBLD001/driver/dwc_otg_cil.h **** 
 669:../Dave/Generated/src/USBLD001/driver/dwc_otg_cil.h **** 	/** Thresholding length for Tx
 670:../Dave/Generated/src/USBLD001/driver/dwc_otg_cil.h **** 	 *	FIFOs in 32 bit DWORDs
 671:../Dave/Generated/src/USBLD001/driver/dwc_otg_cil.h **** 	 */
 672:../Dave/Generated/src/USBLD001/driver/dwc_otg_cil.h **** 	uint32_t tx_thr_length;
 673:../Dave/Generated/src/USBLD001/driver/dwc_otg_cil.h **** 
 674:../Dave/Generated/src/USBLD001/driver/dwc_otg_cil.h **** 	/** Thresholding length for Rx
 675:../Dave/Generated/src/USBLD001/driver/dwc_otg_cil.h **** 	 *	FIFOs in 32 bit DWORDs
 676:../Dave/Generated/src/USBLD001/driver/dwc_otg_cil.h **** 	 */
 677:../Dave/Generated/src/USBLD001/driver/dwc_otg_cil.h **** 	uint32_t rx_thr_length;
 678:../Dave/Generated/src/USBLD001/driver/dwc_otg_cil.h **** 
 679:../Dave/Generated/src/USBLD001/driver/dwc_otg_cil.h **** 	/**
 680:../Dave/Generated/src/USBLD001/driver/dwc_otg_cil.h **** 	 * Specifies whether LPM (Link Power Management) support is enabled
 681:../Dave/Generated/src/USBLD001/driver/dwc_otg_cil.h **** 	 */
 682:../Dave/Generated/src/USBLD001/driver/dwc_otg_cil.h **** 	int32_t lpm_enable;
 683:../Dave/Generated/src/USBLD001/driver/dwc_otg_cil.h **** 
 684:../Dave/Generated/src/USBLD001/driver/dwc_otg_cil.h **** 	/** Per Transfer Interrupt
 685:../Dave/Generated/src/USBLD001/driver/dwc_otg_cil.h **** 	 *	mode enable flag
 686:../Dave/Generated/src/USBLD001/driver/dwc_otg_cil.h **** 	 * 1 - Enabled
 687:../Dave/Generated/src/USBLD001/driver/dwc_otg_cil.h **** 	 * 0 - Disabled
 688:../Dave/Generated/src/USBLD001/driver/dwc_otg_cil.h **** 	 */
 689:../Dave/Generated/src/USBLD001/driver/dwc_otg_cil.h **** 	int32_t pti_enable;
 690:../Dave/Generated/src/USBLD001/driver/dwc_otg_cil.h **** 
 691:../Dave/Generated/src/USBLD001/driver/dwc_otg_cil.h **** 	/** Multi Processor Interrupt
 692:../Dave/Generated/src/USBLD001/driver/dwc_otg_cil.h **** 	 *	mode enable flag
 693:../Dave/Generated/src/USBLD001/driver/dwc_otg_cil.h **** 	 * 1 - Enabled
 694:../Dave/Generated/src/USBLD001/driver/dwc_otg_cil.h **** 	 * 0 - Disabled
 695:../Dave/Generated/src/USBLD001/driver/dwc_otg_cil.h **** 	 */
 696:../Dave/Generated/src/USBLD001/driver/dwc_otg_cil.h **** 	int32_t mpi_enable;
 697:../Dave/Generated/src/USBLD001/driver/dwc_otg_cil.h **** 
 698:../Dave/Generated/src/USBLD001/driver/dwc_otg_cil.h **** 	/** IS_USB Capability
 699:../Dave/Generated/src/USBLD001/driver/dwc_otg_cil.h **** 	 * 1 - Enabled
 700:../Dave/Generated/src/USBLD001/driver/dwc_otg_cil.h **** 	 * 0 - Disabled
 701:../Dave/Generated/src/USBLD001/driver/dwc_otg_cil.h **** 	 */
 702:../Dave/Generated/src/USBLD001/driver/dwc_otg_cil.h **** 	int32_t ic_usb_cap;
 703:../Dave/Generated/src/USBLD001/driver/dwc_otg_cil.h **** 
 704:../Dave/Generated/src/USBLD001/driver/dwc_otg_cil.h **** 	/** AHB Threshold Ratio
 705:../Dave/Generated/src/USBLD001/driver/dwc_otg_cil.h **** 	 * 2'b00 AHB Threshold = 	MAC Threshold
 706:../Dave/Generated/src/USBLD001/driver/dwc_otg_cil.h **** 	 * 2'b01 AHB Threshold = 1/2 	MAC Threshold
 707:../Dave/Generated/src/USBLD001/driver/dwc_otg_cil.h **** 	 * 2'b10 AHB Threshold = 1/4	MAC Threshold
 708:../Dave/Generated/src/USBLD001/driver/dwc_otg_cil.h **** 	 * 2'b11 AHB Threshold = 1/8	MAC Threshold
 709:../Dave/Generated/src/USBLD001/driver/dwc_otg_cil.h **** 	 */
 710:../Dave/Generated/src/USBLD001/driver/dwc_otg_cil.h **** 	int32_t ahb_thr_ratio;
 711:../Dave/Generated/src/USBLD001/driver/dwc_otg_cil.h **** 
 712:../Dave/Generated/src/USBLD001/driver/dwc_otg_cil.h **** 	/** ADP Support
 713:../Dave/Generated/src/USBLD001/driver/dwc_otg_cil.h **** 	 * 1 - Enabled
 714:../Dave/Generated/src/USBLD001/driver/dwc_otg_cil.h **** 	 * 0 - Disabled
 715:../Dave/Generated/src/USBLD001/driver/dwc_otg_cil.h **** 	 */
 716:../Dave/Generated/src/USBLD001/driver/dwc_otg_cil.h **** 	int32_t adp_supp_enable;
 717:../Dave/Generated/src/USBLD001/driver/dwc_otg_cil.h **** 
 718:../Dave/Generated/src/USBLD001/driver/dwc_otg_cil.h **** 	/** HFIR Reload Control
 719:../Dave/Generated/src/USBLD001/driver/dwc_otg_cil.h **** 	 * 0 - The HFIR cannot be reloaded dynamically.
 720:../Dave/Generated/src/USBLD001/driver/dwc_otg_cil.h **** 	 * 1 - Allow dynamic reloading of the HFIR register during runtime.
 721:../Dave/Generated/src/USBLD001/driver/dwc_otg_cil.h **** 	 */
 722:../Dave/Generated/src/USBLD001/driver/dwc_otg_cil.h **** 	int32_t reload_ctl;
 723:../Dave/Generated/src/USBLD001/driver/dwc_otg_cil.h **** 
 724:../Dave/Generated/src/USBLD001/driver/dwc_otg_cil.h **** 	/** Core Power down mode
 725:../Dave/Generated/src/USBLD001/driver/dwc_otg_cil.h **** 	 * 0 - No Power Down is enabled
 726:../Dave/Generated/src/USBLD001/driver/dwc_otg_cil.h **** 	 * 1 - Reserved
 727:../Dave/Generated/src/USBLD001/driver/dwc_otg_cil.h **** 	 * 2 - Complete Power Down (Hibernation)
 728:../Dave/Generated/src/USBLD001/driver/dwc_otg_cil.h **** 	 */
 729:../Dave/Generated/src/USBLD001/driver/dwc_otg_cil.h **** 	int32_t power_down;
 730:../Dave/Generated/src/USBLD001/driver/dwc_otg_cil.h **** 
 731:../Dave/Generated/src/USBLD001/driver/dwc_otg_cil.h **** 	/** OTG revision supported
 732:../Dave/Generated/src/USBLD001/driver/dwc_otg_cil.h **** 	 * 0 - OTG 1.3 revision
 733:../Dave/Generated/src/USBLD001/driver/dwc_otg_cil.h **** 	 * 1 - OTG 2.0 revision
 734:../Dave/Generated/src/USBLD001/driver/dwc_otg_cil.h **** 	 */
 735:../Dave/Generated/src/USBLD001/driver/dwc_otg_cil.h **** 	int32_t otg_ver;
 736:../Dave/Generated/src/USBLD001/driver/dwc_otg_cil.h **** 
 737:../Dave/Generated/src/USBLD001/driver/dwc_otg_cil.h **** } dwc_otg_core_params_t;
 738:../Dave/Generated/src/USBLD001/driver/dwc_otg_cil.h **** 
 739:../Dave/Generated/src/USBLD001/driver/dwc_otg_cil.h **** #ifdef DEBUG
 740:../Dave/Generated/src/USBLD001/driver/dwc_otg_cil.h **** struct dwc_otg_core_if;
 741:../Dave/Generated/src/USBLD001/driver/dwc_otg_cil.h **** typedef struct hc_xfer_info {
 742:../Dave/Generated/src/USBLD001/driver/dwc_otg_cil.h **** 	struct dwc_otg_core_if *core_if;
 743:../Dave/Generated/src/USBLD001/driver/dwc_otg_cil.h **** 	dwc_hc_t *hc;
 744:../Dave/Generated/src/USBLD001/driver/dwc_otg_cil.h **** } hc_xfer_info_t;
 745:../Dave/Generated/src/USBLD001/driver/dwc_otg_cil.h **** #endif
 746:../Dave/Generated/src/USBLD001/driver/dwc_otg_cil.h **** /*
 747:../Dave/Generated/src/USBLD001/driver/dwc_otg_cil.h ****  * Device States
 748:../Dave/Generated/src/USBLD001/driver/dwc_otg_cil.h ****  */
 749:../Dave/Generated/src/USBLD001/driver/dwc_otg_cil.h **** typedef enum dwc_otg_lx_state {
 750:../Dave/Generated/src/USBLD001/driver/dwc_otg_cil.h **** 	/** On state */
 751:../Dave/Generated/src/USBLD001/driver/dwc_otg_cil.h **** 	DWC_OTG_L0,
 752:../Dave/Generated/src/USBLD001/driver/dwc_otg_cil.h **** 	/** LPM sleep state*/
 753:../Dave/Generated/src/USBLD001/driver/dwc_otg_cil.h **** 	DWC_OTG_L1,
 754:../Dave/Generated/src/USBLD001/driver/dwc_otg_cil.h **** 	/** USB suspend state*/
 755:../Dave/Generated/src/USBLD001/driver/dwc_otg_cil.h **** 	DWC_OTG_L2,
 756:../Dave/Generated/src/USBLD001/driver/dwc_otg_cil.h **** 	/** Off state*/
 757:../Dave/Generated/src/USBLD001/driver/dwc_otg_cil.h **** 	DWC_OTG_L3
 758:../Dave/Generated/src/USBLD001/driver/dwc_otg_cil.h **** } dwc_otg_lx_state_e;
 759:../Dave/Generated/src/USBLD001/driver/dwc_otg_cil.h **** 
 760:../Dave/Generated/src/USBLD001/driver/dwc_otg_cil.h **** struct dwc_otg_global_regs_backup {
 761:../Dave/Generated/src/USBLD001/driver/dwc_otg_cil.h **** 	uint32_t gotgctl_local;
 762:../Dave/Generated/src/USBLD001/driver/dwc_otg_cil.h **** 	uint32_t gintmsk_local;
 763:../Dave/Generated/src/USBLD001/driver/dwc_otg_cil.h **** 	uint32_t gahbcfg_local;
 764:../Dave/Generated/src/USBLD001/driver/dwc_otg_cil.h **** 	uint32_t gusbcfg_local;
 765:../Dave/Generated/src/USBLD001/driver/dwc_otg_cil.h **** 	uint32_t grxfsiz_local;
 766:../Dave/Generated/src/USBLD001/driver/dwc_otg_cil.h **** 	uint32_t gnptxfsiz_local;
 767:../Dave/Generated/src/USBLD001/driver/dwc_otg_cil.h **** #ifdef CONFIG_USB_DWC_OTG_LPM
 768:../Dave/Generated/src/USBLD001/driver/dwc_otg_cil.h **** 	uint32_t glpmcfg_local;
 769:../Dave/Generated/src/USBLD001/driver/dwc_otg_cil.h **** #endif
 770:../Dave/Generated/src/USBLD001/driver/dwc_otg_cil.h **** 	uint32_t gi2cctl_local;
 771:../Dave/Generated/src/USBLD001/driver/dwc_otg_cil.h **** 	uint32_t hptxfsiz_local;
 772:../Dave/Generated/src/USBLD001/driver/dwc_otg_cil.h **** 	uint32_t pcgcctl_local;
 773:../Dave/Generated/src/USBLD001/driver/dwc_otg_cil.h **** 	uint32_t gdfifocfg_local;
 774:../Dave/Generated/src/USBLD001/driver/dwc_otg_cil.h **** 	uint32_t dtxfsiz_local[MAX_EPS_CHANNELS];
 775:../Dave/Generated/src/USBLD001/driver/dwc_otg_cil.h **** 	uint32_t gpwrdn_local;
 776:../Dave/Generated/src/USBLD001/driver/dwc_otg_cil.h **** };
 777:../Dave/Generated/src/USBLD001/driver/dwc_otg_cil.h **** 
 778:../Dave/Generated/src/USBLD001/driver/dwc_otg_cil.h **** struct dwc_otg_host_regs_backup {
 779:../Dave/Generated/src/USBLD001/driver/dwc_otg_cil.h **** 	uint32_t hcfg_local;
 780:../Dave/Generated/src/USBLD001/driver/dwc_otg_cil.h **** 	uint32_t haintmsk_local;
 781:../Dave/Generated/src/USBLD001/driver/dwc_otg_cil.h **** 	uint32_t hcintmsk_local[MAX_EPS_CHANNELS];
 782:../Dave/Generated/src/USBLD001/driver/dwc_otg_cil.h **** 	uint32_t hprt0_local;
 783:../Dave/Generated/src/USBLD001/driver/dwc_otg_cil.h **** 	uint32_t hfir_local;
 784:../Dave/Generated/src/USBLD001/driver/dwc_otg_cil.h **** };
 785:../Dave/Generated/src/USBLD001/driver/dwc_otg_cil.h **** 
 786:../Dave/Generated/src/USBLD001/driver/dwc_otg_cil.h **** struct dwc_otg_dev_regs_backup {
 787:../Dave/Generated/src/USBLD001/driver/dwc_otg_cil.h **** 	uint32_t dcfg;
 788:../Dave/Generated/src/USBLD001/driver/dwc_otg_cil.h **** 	uint32_t dctl;
 789:../Dave/Generated/src/USBLD001/driver/dwc_otg_cil.h **** 	uint32_t daintmsk;
 790:../Dave/Generated/src/USBLD001/driver/dwc_otg_cil.h **** 	uint32_t diepmsk;
 791:../Dave/Generated/src/USBLD001/driver/dwc_otg_cil.h **** 	uint32_t doepmsk;
 792:../Dave/Generated/src/USBLD001/driver/dwc_otg_cil.h **** 	uint32_t diepctl[MAX_EPS_CHANNELS];
 793:../Dave/Generated/src/USBLD001/driver/dwc_otg_cil.h **** 	uint32_t dieptsiz[MAX_EPS_CHANNELS];
 794:../Dave/Generated/src/USBLD001/driver/dwc_otg_cil.h **** 	uint32_t diepdma[MAX_EPS_CHANNELS];
 795:../Dave/Generated/src/USBLD001/driver/dwc_otg_cil.h **** 	uint32_t doepfn[MAX_EPS_CHANNELS];
 796:../Dave/Generated/src/USBLD001/driver/dwc_otg_cil.h **** };
 797:../Dave/Generated/src/USBLD001/driver/dwc_otg_cil.h **** /**
 798:../Dave/Generated/src/USBLD001/driver/dwc_otg_cil.h ****  * The <code>dwc_otg_core_if</code> structure contains information needed to manage
 799:../Dave/Generated/src/USBLD001/driver/dwc_otg_cil.h ****  * the DWC_otg controller acting in either host or device mode. It
 800:../Dave/Generated/src/USBLD001/driver/dwc_otg_cil.h ****  * represents the programming view of the controller as a whole.
 801:../Dave/Generated/src/USBLD001/driver/dwc_otg_cil.h ****  */
 802:../Dave/Generated/src/USBLD001/driver/dwc_otg_cil.h **** struct dwc_otg_core_if {
 803:../Dave/Generated/src/USBLD001/driver/dwc_otg_cil.h **** 	/** Parameters that define how the core should be configured.*/
 804:../Dave/Generated/src/USBLD001/driver/dwc_otg_cil.h **** 	dwc_otg_core_params_t *core_params;
 805:../Dave/Generated/src/USBLD001/driver/dwc_otg_cil.h **** 
 806:../Dave/Generated/src/USBLD001/driver/dwc_otg_cil.h **** 	/** Core Global registers starting at offset 000h. */
 807:../Dave/Generated/src/USBLD001/driver/dwc_otg_cil.h **** 	dwc_otg_core_global_regs_t *core_global_regs;
 808:../Dave/Generated/src/USBLD001/driver/dwc_otg_cil.h **** 
 809:../Dave/Generated/src/USBLD001/driver/dwc_otg_cil.h **** 	/** Device-specific information */
 810:../Dave/Generated/src/USBLD001/driver/dwc_otg_cil.h **** 	dwc_otg_dev_if_t *dev_if;
 811:../Dave/Generated/src/USBLD001/driver/dwc_otg_cil.h **** 	/** Host-specific information */
 812:../Dave/Generated/src/USBLD001/driver/dwc_otg_cil.h **** 	dwc_otg_host_if_t *host_if;
 813:../Dave/Generated/src/USBLD001/driver/dwc_otg_cil.h **** 
 814:../Dave/Generated/src/USBLD001/driver/dwc_otg_cil.h **** 	/** Value from SNPSID register */
 815:../Dave/Generated/src/USBLD001/driver/dwc_otg_cil.h **** 	uint32_t snpsid;
 816:../Dave/Generated/src/USBLD001/driver/dwc_otg_cil.h **** 
 817:../Dave/Generated/src/USBLD001/driver/dwc_otg_cil.h **** 	/*
 818:../Dave/Generated/src/USBLD001/driver/dwc_otg_cil.h **** 	 * Set to 1 if the core PHY interface bits in USBCFG have been
 819:../Dave/Generated/src/USBLD001/driver/dwc_otg_cil.h **** 	 * initialized.
 820:../Dave/Generated/src/USBLD001/driver/dwc_otg_cil.h **** 	 */
 821:../Dave/Generated/src/USBLD001/driver/dwc_otg_cil.h **** 	uint8_t phy_init_done;
 822:../Dave/Generated/src/USBLD001/driver/dwc_otg_cil.h **** 
 823:../Dave/Generated/src/USBLD001/driver/dwc_otg_cil.h **** 	/*
 824:../Dave/Generated/src/USBLD001/driver/dwc_otg_cil.h **** 	 * SRP Success flag, set by srp success interrupt in FS I2C mode
 825:../Dave/Generated/src/USBLD001/driver/dwc_otg_cil.h **** 	 */
 826:../Dave/Generated/src/USBLD001/driver/dwc_otg_cil.h **** 	uint8_t srp_success;
 827:../Dave/Generated/src/USBLD001/driver/dwc_otg_cil.h **** 	uint8_t srp_timer_started;
 828:../Dave/Generated/src/USBLD001/driver/dwc_otg_cil.h **** 	/** Timer for SRP. If it expires before SRP is successful
 829:../Dave/Generated/src/USBLD001/driver/dwc_otg_cil.h **** 	 * clear the SRP. */
 830:../Dave/Generated/src/USBLD001/driver/dwc_otg_cil.h **** 	dwc_timer_t *srp_timer;
 831:../Dave/Generated/src/USBLD001/driver/dwc_otg_cil.h **** 
 832:../Dave/Generated/src/USBLD001/driver/dwc_otg_cil.h **** #ifdef DWC_DEV_SRPCAP
 833:../Dave/Generated/src/USBLD001/driver/dwc_otg_cil.h **** 	/* This timer is needed to power on the hibernated host core if SRP is not
 834:../Dave/Generated/src/USBLD001/driver/dwc_otg_cil.h **** 	 * initiated on connected SRP capable device for limited period of time
 835:../Dave/Generated/src/USBLD001/driver/dwc_otg_cil.h **** 	 */
 836:../Dave/Generated/src/USBLD001/driver/dwc_otg_cil.h **** 	uint8_t pwron_timer_started;
 837:../Dave/Generated/src/USBLD001/driver/dwc_otg_cil.h **** 	dwc_timer_t *pwron_timer;
 838:../Dave/Generated/src/USBLD001/driver/dwc_otg_cil.h **** #endif
 839:../Dave/Generated/src/USBLD001/driver/dwc_otg_cil.h **** 	/* Common configuration information */
 840:../Dave/Generated/src/USBLD001/driver/dwc_otg_cil.h **** 	/** Power and Clock Gating Control Register */
 841:../Dave/Generated/src/USBLD001/driver/dwc_otg_cil.h **** 	volatile uint32_t *pcgcctl;
 842:../Dave/Generated/src/USBLD001/driver/dwc_otg_cil.h **** #define DWC_OTG_PCGCCTL_OFFSET 0xE00
 843:../Dave/Generated/src/USBLD001/driver/dwc_otg_cil.h **** 
 844:../Dave/Generated/src/USBLD001/driver/dwc_otg_cil.h **** 	/** Push/pop addresses for endpoints or host channels.*/
 845:../Dave/Generated/src/USBLD001/driver/dwc_otg_cil.h **** 	uint32_t *data_fifo[MAX_EPS_CHANNELS];
 846:../Dave/Generated/src/USBLD001/driver/dwc_otg_cil.h **** #define DWC_OTG_DATA_FIFO_OFFSET 0x1000
 847:../Dave/Generated/src/USBLD001/driver/dwc_otg_cil.h **** #define DWC_OTG_DATA_FIFO_SIZE 0x1000
 848:../Dave/Generated/src/USBLD001/driver/dwc_otg_cil.h **** 
 849:../Dave/Generated/src/USBLD001/driver/dwc_otg_cil.h **** 	/** Total RAM for FIFOs (Bytes) */
 850:../Dave/Generated/src/USBLD001/driver/dwc_otg_cil.h **** 	uint16_t total_fifo_size;
 851:../Dave/Generated/src/USBLD001/driver/dwc_otg_cil.h **** 	/** Size of Rx FIFO (Bytes) */
 852:../Dave/Generated/src/USBLD001/driver/dwc_otg_cil.h **** 	uint16_t rx_fifo_size;
 853:../Dave/Generated/src/USBLD001/driver/dwc_otg_cil.h **** 	/** Size of Non-periodic Tx FIFO (Bytes) */
 854:../Dave/Generated/src/USBLD001/driver/dwc_otg_cil.h **** 	uint16_t nperio_tx_fifo_size;
 855:../Dave/Generated/src/USBLD001/driver/dwc_otg_cil.h **** 
 856:../Dave/Generated/src/USBLD001/driver/dwc_otg_cil.h **** 	/** 1 if DMA is enabled, 0 otherwise. */
 857:../Dave/Generated/src/USBLD001/driver/dwc_otg_cil.h **** 	uint8_t dma_enable;
 858:../Dave/Generated/src/USBLD001/driver/dwc_otg_cil.h **** 
 859:../Dave/Generated/src/USBLD001/driver/dwc_otg_cil.h **** 	/** 1 if DMA descriptor is enabled, 0 otherwise. */
 860:../Dave/Generated/src/USBLD001/driver/dwc_otg_cil.h **** 	uint8_t dma_desc_enable;
 861:../Dave/Generated/src/USBLD001/driver/dwc_otg_cil.h **** 
 862:../Dave/Generated/src/USBLD001/driver/dwc_otg_cil.h **** 	/** 1 if PTI Enhancement mode is enabled, 0 otherwise. */
 863:../Dave/Generated/src/USBLD001/driver/dwc_otg_cil.h **** 	uint8_t pti_enh_enable;
 864:../Dave/Generated/src/USBLD001/driver/dwc_otg_cil.h **** 
 865:../Dave/Generated/src/USBLD001/driver/dwc_otg_cil.h **** 	/** 1 if MPI Enhancement mode is enabled, 0 otherwise. */
 866:../Dave/Generated/src/USBLD001/driver/dwc_otg_cil.h **** 	uint8_t multiproc_int_enable;
 867:../Dave/Generated/src/USBLD001/driver/dwc_otg_cil.h **** 
 868:../Dave/Generated/src/USBLD001/driver/dwc_otg_cil.h **** 	/** 1 if dedicated Tx FIFOs are enabled, 0 otherwise. */
 869:../Dave/Generated/src/USBLD001/driver/dwc_otg_cil.h **** 	uint8_t en_multiple_tx_fifo;
 870:../Dave/Generated/src/USBLD001/driver/dwc_otg_cil.h **** 
 871:../Dave/Generated/src/USBLD001/driver/dwc_otg_cil.h **** 	/** Set to 1 if multiple packets of a high-bandwidth transfer is in
 872:../Dave/Generated/src/USBLD001/driver/dwc_otg_cil.h **** 	 * process of being queued */
 873:../Dave/Generated/src/USBLD001/driver/dwc_otg_cil.h **** 	uint8_t queuing_high_bandwidth;
 874:../Dave/Generated/src/USBLD001/driver/dwc_otg_cil.h **** 
 875:../Dave/Generated/src/USBLD001/driver/dwc_otg_cil.h **** 	/** Hardware Configuration -- stored here for convenience.*/
 876:../Dave/Generated/src/USBLD001/driver/dwc_otg_cil.h **** 	hwcfg1_data_t hwcfg1;
 877:../Dave/Generated/src/USBLD001/driver/dwc_otg_cil.h **** 	hwcfg2_data_t hwcfg2;
 878:../Dave/Generated/src/USBLD001/driver/dwc_otg_cil.h **** 	hwcfg3_data_t hwcfg3;
 879:../Dave/Generated/src/USBLD001/driver/dwc_otg_cil.h **** 	hwcfg4_data_t hwcfg4;
 880:../Dave/Generated/src/USBLD001/driver/dwc_otg_cil.h **** 
 881:../Dave/Generated/src/USBLD001/driver/dwc_otg_cil.h **** 	/** Host and Device Configuration -- stored here for convenience.*/
 882:../Dave/Generated/src/USBLD001/driver/dwc_otg_cil.h **** 	hcfg_data_t hcfg;
 883:../Dave/Generated/src/USBLD001/driver/dwc_otg_cil.h **** 	dcfg_data_t dcfg;
 884:../Dave/Generated/src/USBLD001/driver/dwc_otg_cil.h **** 
 885:../Dave/Generated/src/USBLD001/driver/dwc_otg_cil.h **** 	/** The operational State, during transations
 886:../Dave/Generated/src/USBLD001/driver/dwc_otg_cil.h **** 	 * (a_host>>a_peripherial and b_device=>b_host) this may not
 887:../Dave/Generated/src/USBLD001/driver/dwc_otg_cil.h **** 	 * match the core but allows the software to determine
 888:../Dave/Generated/src/USBLD001/driver/dwc_otg_cil.h **** 	 * transitions.
 889:../Dave/Generated/src/USBLD001/driver/dwc_otg_cil.h **** 	 */
 890:../Dave/Generated/src/USBLD001/driver/dwc_otg_cil.h **** 	uint8_t op_state;
 891:../Dave/Generated/src/USBLD001/driver/dwc_otg_cil.h **** 
 892:../Dave/Generated/src/USBLD001/driver/dwc_otg_cil.h **** 	/**
 893:../Dave/Generated/src/USBLD001/driver/dwc_otg_cil.h **** 	 * Set to 1 if the HCD needs to be restarted on a session request
 894:../Dave/Generated/src/USBLD001/driver/dwc_otg_cil.h **** 	 * interrupt. This is required if no connector ID status change has
 895:../Dave/Generated/src/USBLD001/driver/dwc_otg_cil.h **** 	 * occurred since the HCD was last disconnected.
 896:../Dave/Generated/src/USBLD001/driver/dwc_otg_cil.h **** 	 */
 897:../Dave/Generated/src/USBLD001/driver/dwc_otg_cil.h **** 	uint8_t restart_hcd_on_session_req;
 898:../Dave/Generated/src/USBLD001/driver/dwc_otg_cil.h **** 
 899:../Dave/Generated/src/USBLD001/driver/dwc_otg_cil.h **** 	/** HCD callbacks */
 900:../Dave/Generated/src/USBLD001/driver/dwc_otg_cil.h **** 	/** A-Device is a_host */
 901:../Dave/Generated/src/USBLD001/driver/dwc_otg_cil.h **** #define A_HOST		(1)
 902:../Dave/Generated/src/USBLD001/driver/dwc_otg_cil.h **** 	/** A-Device is a_suspend */
 903:../Dave/Generated/src/USBLD001/driver/dwc_otg_cil.h **** #define A_SUSPEND	(2)
 904:../Dave/Generated/src/USBLD001/driver/dwc_otg_cil.h **** 	/** A-Device is a_peripherial */
 905:../Dave/Generated/src/USBLD001/driver/dwc_otg_cil.h **** #define A_PERIPHERAL	(3)
 906:../Dave/Generated/src/USBLD001/driver/dwc_otg_cil.h **** 	/** B-Device is operating as a Peripheral. */
 907:../Dave/Generated/src/USBLD001/driver/dwc_otg_cil.h **** #define B_PERIPHERAL	(4)
 908:../Dave/Generated/src/USBLD001/driver/dwc_otg_cil.h **** 	/** B-Device is operating as a Host. */
 909:../Dave/Generated/src/USBLD001/driver/dwc_otg_cil.h **** #define B_HOST		(5)
 910:../Dave/Generated/src/USBLD001/driver/dwc_otg_cil.h **** 
 911:../Dave/Generated/src/USBLD001/driver/dwc_otg_cil.h **** 	/** HCD callbacks */
 912:../Dave/Generated/src/USBLD001/driver/dwc_otg_cil.h **** 	struct dwc_otg_cil_callbacks *hcd_cb;
 913:../Dave/Generated/src/USBLD001/driver/dwc_otg_cil.h **** 	/** PCD callbacks */
 914:../Dave/Generated/src/USBLD001/driver/dwc_otg_cil.h **** 	struct dwc_otg_cil_callbacks *pcd_cb;
 915:../Dave/Generated/src/USBLD001/driver/dwc_otg_cil.h **** 
 916:../Dave/Generated/src/USBLD001/driver/dwc_otg_cil.h **** 	/** Device mode Periodic Tx FIFO Mask */
 917:../Dave/Generated/src/USBLD001/driver/dwc_otg_cil.h **** 	uint32_t p_tx_msk;
 918:../Dave/Generated/src/USBLD001/driver/dwc_otg_cil.h **** 	/** Device mode Periodic Tx FIFO Mask */
 919:../Dave/Generated/src/USBLD001/driver/dwc_otg_cil.h **** 	uint32_t tx_msk;
 920:../Dave/Generated/src/USBLD001/driver/dwc_otg_cil.h **** 
 921:../Dave/Generated/src/USBLD001/driver/dwc_otg_cil.h **** 	/** Workqueue object used for handling several interrupts */
 922:../Dave/Generated/src/USBLD001/driver/dwc_otg_cil.h **** 	dwc_workq_t *wq_otg;
 923:../Dave/Generated/src/USBLD001/driver/dwc_otg_cil.h **** 
 924:../Dave/Generated/src/USBLD001/driver/dwc_otg_cil.h **** 	/** Timer object used for handling "Wakeup Detected" Interrupt */
 925:../Dave/Generated/src/USBLD001/driver/dwc_otg_cil.h **** 	dwc_timer_t *wkp_timer;
 926:../Dave/Generated/src/USBLD001/driver/dwc_otg_cil.h **** 
 927:../Dave/Generated/src/USBLD001/driver/dwc_otg_cil.h **** #ifdef DEBUG
 928:../Dave/Generated/src/USBLD001/driver/dwc_otg_cil.h **** 	uint32_t start_hcchar_val[MAX_EPS_CHANNELS];
 929:../Dave/Generated/src/USBLD001/driver/dwc_otg_cil.h **** 
 930:../Dave/Generated/src/USBLD001/driver/dwc_otg_cil.h **** 	hc_xfer_info_t hc_xfer_info[MAX_EPS_CHANNELS];
 931:../Dave/Generated/src/USBLD001/driver/dwc_otg_cil.h **** 	dwc_timer_t *hc_xfer_timer[MAX_EPS_CHANNELS];
 932:../Dave/Generated/src/USBLD001/driver/dwc_otg_cil.h **** 
 933:../Dave/Generated/src/USBLD001/driver/dwc_otg_cil.h **** 	uint32_t hfnum_7_samples;
 934:../Dave/Generated/src/USBLD001/driver/dwc_otg_cil.h **** 	uint64_t hfnum_7_frrem_accum;
 935:../Dave/Generated/src/USBLD001/driver/dwc_otg_cil.h **** 	uint32_t hfnum_0_samples;
 936:../Dave/Generated/src/USBLD001/driver/dwc_otg_cil.h **** 	uint64_t hfnum_0_frrem_accum;
 937:../Dave/Generated/src/USBLD001/driver/dwc_otg_cil.h **** 	uint32_t hfnum_other_samples;
 938:../Dave/Generated/src/USBLD001/driver/dwc_otg_cil.h **** 	uint64_t hfnum_other_frrem_accum;
 939:../Dave/Generated/src/USBLD001/driver/dwc_otg_cil.h **** #endif
 940:../Dave/Generated/src/USBLD001/driver/dwc_otg_cil.h **** 
 941:../Dave/Generated/src/USBLD001/driver/dwc_otg_cil.h **** #ifdef DWC_UTE_CFI
 942:../Dave/Generated/src/USBLD001/driver/dwc_otg_cil.h **** 	uint16_t pwron_rxfsiz;
 943:../Dave/Generated/src/USBLD001/driver/dwc_otg_cil.h **** 	uint16_t pwron_gnptxfsiz;
 944:../Dave/Generated/src/USBLD001/driver/dwc_otg_cil.h **** 	uint16_t pwron_txfsiz[15];
 945:../Dave/Generated/src/USBLD001/driver/dwc_otg_cil.h **** 
 946:../Dave/Generated/src/USBLD001/driver/dwc_otg_cil.h **** 	uint16_t init_rxfsiz;
 947:../Dave/Generated/src/USBLD001/driver/dwc_otg_cil.h **** 	uint16_t init_gnptxfsiz;
 948:../Dave/Generated/src/USBLD001/driver/dwc_otg_cil.h **** 	uint16_t init_txfsiz[15];
 949:../Dave/Generated/src/USBLD001/driver/dwc_otg_cil.h **** #endif
 950:../Dave/Generated/src/USBLD001/driver/dwc_otg_cil.h **** 
 951:../Dave/Generated/src/USBLD001/driver/dwc_otg_cil.h **** 	/** Lx state of device */
 952:../Dave/Generated/src/USBLD001/driver/dwc_otg_cil.h **** 	dwc_otg_lx_state_e lx_state;
 953:../Dave/Generated/src/USBLD001/driver/dwc_otg_cil.h **** 
 954:../Dave/Generated/src/USBLD001/driver/dwc_otg_cil.h **** 	/** Saved Core Global registers */
 955:../Dave/Generated/src/USBLD001/driver/dwc_otg_cil.h **** 	struct dwc_otg_global_regs_backup *gr_backup;
 956:../Dave/Generated/src/USBLD001/driver/dwc_otg_cil.h **** 	/** Saved Host registers */
 957:../Dave/Generated/src/USBLD001/driver/dwc_otg_cil.h **** 	struct dwc_otg_host_regs_backup *hr_backup;
 958:../Dave/Generated/src/USBLD001/driver/dwc_otg_cil.h **** 	/** Saved Device registers */
 959:../Dave/Generated/src/USBLD001/driver/dwc_otg_cil.h **** 	struct dwc_otg_dev_regs_backup *dr_backup;
 960:../Dave/Generated/src/USBLD001/driver/dwc_otg_cil.h **** 
 961:../Dave/Generated/src/USBLD001/driver/dwc_otg_cil.h **** 	/** Power Down Enable */
 962:../Dave/Generated/src/USBLD001/driver/dwc_otg_cil.h **** 	uint32_t power_down;
 963:../Dave/Generated/src/USBLD001/driver/dwc_otg_cil.h **** 
 964:../Dave/Generated/src/USBLD001/driver/dwc_otg_cil.h **** 	/** ADP support Enable */
 965:../Dave/Generated/src/USBLD001/driver/dwc_otg_cil.h **** 	uint32_t adp_enable;
 966:../Dave/Generated/src/USBLD001/driver/dwc_otg_cil.h **** 
 967:../Dave/Generated/src/USBLD001/driver/dwc_otg_cil.h **** 	/** ADP structure object */
 968:../Dave/Generated/src/USBLD001/driver/dwc_otg_cil.h **** 	dwc_otg_adp_t adp;
 969:../Dave/Generated/src/USBLD001/driver/dwc_otg_cil.h **** 
 970:../Dave/Generated/src/USBLD001/driver/dwc_otg_cil.h **** 	/** hibernation/suspend flag */
 971:../Dave/Generated/src/USBLD001/driver/dwc_otg_cil.h **** 	int hibernation_suspend;
 972:../Dave/Generated/src/USBLD001/driver/dwc_otg_cil.h **** 
 973:../Dave/Generated/src/USBLD001/driver/dwc_otg_cil.h **** 	/** OTG revision supported */
 974:../Dave/Generated/src/USBLD001/driver/dwc_otg_cil.h **** 	uint32_t otg_ver;
 975:../Dave/Generated/src/USBLD001/driver/dwc_otg_cil.h **** 
 976:../Dave/Generated/src/USBLD001/driver/dwc_otg_cil.h **** 	/** OTG status flag used for HNP polling */
 977:../Dave/Generated/src/USBLD001/driver/dwc_otg_cil.h **** 	uint8_t otg_sts;
 978:../Dave/Generated/src/USBLD001/driver/dwc_otg_cil.h **** 
 979:../Dave/Generated/src/USBLD001/driver/dwc_otg_cil.h **** 	/** Pointer to either hcd->lock or pcd->lock */
 980:../Dave/Generated/src/USBLD001/driver/dwc_otg_cil.h **** 	dwc_spinlock_t *lock;
 981:../Dave/Generated/src/USBLD001/driver/dwc_otg_cil.h **** };
 982:../Dave/Generated/src/USBLD001/driver/dwc_otg_cil.h **** 
 983:../Dave/Generated/src/USBLD001/driver/dwc_otg_cil.h **** #ifdef DEBUG
 984:../Dave/Generated/src/USBLD001/driver/dwc_otg_cil.h **** /*
 985:../Dave/Generated/src/USBLD001/driver/dwc_otg_cil.h ****  * This function is called when transfer is timed out.
 986:../Dave/Generated/src/USBLD001/driver/dwc_otg_cil.h ****  */
 987:../Dave/Generated/src/USBLD001/driver/dwc_otg_cil.h **** extern void hc_xfer_timeout(void *ptr);
 988:../Dave/Generated/src/USBLD001/driver/dwc_otg_cil.h **** #endif
 989:../Dave/Generated/src/USBLD001/driver/dwc_otg_cil.h **** 
 990:../Dave/Generated/src/USBLD001/driver/dwc_otg_cil.h **** /*
 991:../Dave/Generated/src/USBLD001/driver/dwc_otg_cil.h ****  * The following functions are functions for works
 992:../Dave/Generated/src/USBLD001/driver/dwc_otg_cil.h ****  * using during handling some interrupts
 993:../Dave/Generated/src/USBLD001/driver/dwc_otg_cil.h ****  */
 994:../Dave/Generated/src/USBLD001/driver/dwc_otg_cil.h **** extern void w_conn_id_status_change(void *p);
 995:../Dave/Generated/src/USBLD001/driver/dwc_otg_cil.h **** 
 996:../Dave/Generated/src/USBLD001/driver/dwc_otg_cil.h **** extern void w_wakeup_detected(void *p);
 997:../Dave/Generated/src/USBLD001/driver/dwc_otg_cil.h **** 
 998:../Dave/Generated/src/USBLD001/driver/dwc_otg_cil.h **** /** Saves global register values into system memory. */
 999:../Dave/Generated/src/USBLD001/driver/dwc_otg_cil.h **** extern int dwc_otg_save_global_regs(dwc_otg_core_if_t * core_if);
1000:../Dave/Generated/src/USBLD001/driver/dwc_otg_cil.h **** /** Saves device register values into system memory. */
1001:../Dave/Generated/src/USBLD001/driver/dwc_otg_cil.h **** extern int dwc_otg_save_dev_regs(dwc_otg_core_if_t * core_if);
1002:../Dave/Generated/src/USBLD001/driver/dwc_otg_cil.h **** /** Saves host register values into system memory. */
1003:../Dave/Generated/src/USBLD001/driver/dwc_otg_cil.h **** extern int dwc_otg_save_host_regs(dwc_otg_core_if_t * core_if);
1004:../Dave/Generated/src/USBLD001/driver/dwc_otg_cil.h **** /** Restore global register values. */
1005:../Dave/Generated/src/USBLD001/driver/dwc_otg_cil.h **** extern int dwc_otg_restore_global_regs(dwc_otg_core_if_t * core_if);
1006:../Dave/Generated/src/USBLD001/driver/dwc_otg_cil.h **** /** Restore host register values. */
1007:../Dave/Generated/src/USBLD001/driver/dwc_otg_cil.h **** extern int dwc_otg_restore_host_regs(dwc_otg_core_if_t * core_if, int reset);
1008:../Dave/Generated/src/USBLD001/driver/dwc_otg_cil.h **** /** Restore device register values. */
1009:../Dave/Generated/src/USBLD001/driver/dwc_otg_cil.h **** extern int dwc_otg_restore_dev_regs(dwc_otg_core_if_t * core_if,
1010:../Dave/Generated/src/USBLD001/driver/dwc_otg_cil.h **** 				    int rem_wakeup);
1011:../Dave/Generated/src/USBLD001/driver/dwc_otg_cil.h **** extern int restore_lpm_i2c_regs(dwc_otg_core_if_t * core_if);
1012:../Dave/Generated/src/USBLD001/driver/dwc_otg_cil.h **** extern int restore_essential_regs(dwc_otg_core_if_t * core_if, int rmode,
1013:../Dave/Generated/src/USBLD001/driver/dwc_otg_cil.h **** 				  int is_host);
1014:../Dave/Generated/src/USBLD001/driver/dwc_otg_cil.h **** 
1015:../Dave/Generated/src/USBLD001/driver/dwc_otg_cil.h **** extern int dwc_otg_host_hibernation_restore(dwc_otg_core_if_t * core_if,
1016:../Dave/Generated/src/USBLD001/driver/dwc_otg_cil.h **** 					    int restore_mode, int reset);
1017:../Dave/Generated/src/USBLD001/driver/dwc_otg_cil.h **** extern int dwc_otg_device_hibernation_restore(dwc_otg_core_if_t * core_if,
1018:../Dave/Generated/src/USBLD001/driver/dwc_otg_cil.h **** 					      int rem_wakeup, int reset);
1019:../Dave/Generated/src/USBLD001/driver/dwc_otg_cil.h **** 
1020:../Dave/Generated/src/USBLD001/driver/dwc_otg_cil.h **** /*
1021:../Dave/Generated/src/USBLD001/driver/dwc_otg_cil.h ****  * The following functions support initialization of the CIL driver component
1022:../Dave/Generated/src/USBLD001/driver/dwc_otg_cil.h ****  * and the DWC_otg controller.
1023:../Dave/Generated/src/USBLD001/driver/dwc_otg_cil.h ****  */
1024:../Dave/Generated/src/USBLD001/driver/dwc_otg_cil.h **** extern void dwc_otg_core_host_init(dwc_otg_core_if_t * _core_if);
1025:../Dave/Generated/src/USBLD001/driver/dwc_otg_cil.h **** extern void dwc_otg_core_dev_init(dwc_otg_core_if_t * _core_if);
1026:../Dave/Generated/src/USBLD001/driver/dwc_otg_cil.h **** 
1027:../Dave/Generated/src/USBLD001/driver/dwc_otg_cil.h **** /** @name Device CIL Functions
1028:../Dave/Generated/src/USBLD001/driver/dwc_otg_cil.h ****  * The following functions support managing the DWC_otg controller in device
1029:../Dave/Generated/src/USBLD001/driver/dwc_otg_cil.h ****  * mode.
1030:../Dave/Generated/src/USBLD001/driver/dwc_otg_cil.h ****  */
1031:../Dave/Generated/src/USBLD001/driver/dwc_otg_cil.h **** /**@{*/
1032:../Dave/Generated/src/USBLD001/driver/dwc_otg_cil.h **** extern void dwc_otg_wakeup(dwc_otg_core_if_t * _core_if);
1033:../Dave/Generated/src/USBLD001/driver/dwc_otg_cil.h **** extern void dwc_otg_read_setup_packet(dwc_otg_core_if_t * _core_if,
1034:../Dave/Generated/src/USBLD001/driver/dwc_otg_cil.h **** 				      uint32_t * _dest);
1035:../Dave/Generated/src/USBLD001/driver/dwc_otg_cil.h **** extern uint32_t dwc_otg_get_frame_number(dwc_otg_core_if_t * _core_if);
1036:../Dave/Generated/src/USBLD001/driver/dwc_otg_cil.h **** extern void dwc_otg_ep0_activate(dwc_otg_core_if_t * _core_if, dwc_ep_t * _ep);
1037:../Dave/Generated/src/USBLD001/driver/dwc_otg_cil.h **** extern void dwc_otg_ep_activate(dwc_otg_core_if_t * _core_if, dwc_ep_t * _ep);
1038:../Dave/Generated/src/USBLD001/driver/dwc_otg_cil.h **** extern void dwc_otg_ep_deactivate(dwc_otg_core_if_t * _core_if, dwc_ep_t * _ep);
1039:../Dave/Generated/src/USBLD001/driver/dwc_otg_cil.h **** extern void dwc_otg_ep_start_transfer(dwc_otg_core_if_t * _core_if,
1040:../Dave/Generated/src/USBLD001/driver/dwc_otg_cil.h **** 				      dwc_ep_t * _ep);
1041:../Dave/Generated/src/USBLD001/driver/dwc_otg_cil.h **** extern void dwc_otg_ep_start_zl_transfer(dwc_otg_core_if_t * _core_if,
1042:../Dave/Generated/src/USBLD001/driver/dwc_otg_cil.h **** 					 dwc_ep_t * _ep);
1043:../Dave/Generated/src/USBLD001/driver/dwc_otg_cil.h **** extern void dwc_otg_ep0_start_transfer(dwc_otg_core_if_t * _core_if,
1044:../Dave/Generated/src/USBLD001/driver/dwc_otg_cil.h **** 				       dwc_ep_t * _ep);
1045:../Dave/Generated/src/USBLD001/driver/dwc_otg_cil.h **** extern void dwc_otg_ep0_continue_transfer(dwc_otg_core_if_t * _core_if,
1046:../Dave/Generated/src/USBLD001/driver/dwc_otg_cil.h **** 					  dwc_ep_t * _ep);
1047:../Dave/Generated/src/USBLD001/driver/dwc_otg_cil.h **** extern void dwc_otg_ep_write_packet(dwc_otg_core_if_t * _core_if,
1048:../Dave/Generated/src/USBLD001/driver/dwc_otg_cil.h **** 				    dwc_ep_t * _ep, int _dma);
1049:../Dave/Generated/src/USBLD001/driver/dwc_otg_cil.h **** extern void dwc_otg_ep_set_stall(dwc_otg_core_if_t * _core_if, dwc_ep_t * _ep);
1050:../Dave/Generated/src/USBLD001/driver/dwc_otg_cil.h **** extern void dwc_otg_ep_clear_stall(dwc_otg_core_if_t * _core_if,
1051:../Dave/Generated/src/USBLD001/driver/dwc_otg_cil.h **** 				   dwc_ep_t * _ep);
1052:../Dave/Generated/src/USBLD001/driver/dwc_otg_cil.h **** extern void dwc_otg_enable_device_interrupts(dwc_otg_core_if_t * _core_if);
1053:../Dave/Generated/src/USBLD001/driver/dwc_otg_cil.h **** 
1054:../Dave/Generated/src/USBLD001/driver/dwc_otg_cil.h **** #ifdef DWC_EN_ISOC
1055:../Dave/Generated/src/USBLD001/driver/dwc_otg_cil.h **** extern void dwc_otg_iso_ep_start_frm_transfer(dwc_otg_core_if_t * core_if,
1056:../Dave/Generated/src/USBLD001/driver/dwc_otg_cil.h **** 					      dwc_ep_t * ep);
1057:../Dave/Generated/src/USBLD001/driver/dwc_otg_cil.h **** extern void dwc_otg_iso_ep_start_buf_transfer(dwc_otg_core_if_t * core_if,
1058:../Dave/Generated/src/USBLD001/driver/dwc_otg_cil.h **** 					      dwc_ep_t * ep);
1059:../Dave/Generated/src/USBLD001/driver/dwc_otg_cil.h **** #endif /* DWC_EN_ISOC */
1060:../Dave/Generated/src/USBLD001/driver/dwc_otg_cil.h **** /**@}*/
1061:../Dave/Generated/src/USBLD001/driver/dwc_otg_cil.h **** 
1062:../Dave/Generated/src/USBLD001/driver/dwc_otg_cil.h **** /** @name Host CIL Functions
1063:../Dave/Generated/src/USBLD001/driver/dwc_otg_cil.h ****  * The following functions support managing the DWC_otg controller in host
1064:../Dave/Generated/src/USBLD001/driver/dwc_otg_cil.h ****  * mode.
1065:../Dave/Generated/src/USBLD001/driver/dwc_otg_cil.h ****  */
1066:../Dave/Generated/src/USBLD001/driver/dwc_otg_cil.h **** /**@{*/
1067:../Dave/Generated/src/USBLD001/driver/dwc_otg_cil.h **** extern void dwc_otg_hc_init(dwc_otg_core_if_t * _core_if, dwc_hc_t * _hc);
1068:../Dave/Generated/src/USBLD001/driver/dwc_otg_cil.h **** extern void dwc_otg_hc_halt(dwc_otg_core_if_t * _core_if,
1069:../Dave/Generated/src/USBLD001/driver/dwc_otg_cil.h **** 			    dwc_hc_t * _hc, dwc_otg_halt_status_e _halt_status);
1070:../Dave/Generated/src/USBLD001/driver/dwc_otg_cil.h **** extern void dwc_otg_hc_cleanup(dwc_otg_core_if_t * _core_if, dwc_hc_t * _hc);
1071:../Dave/Generated/src/USBLD001/driver/dwc_otg_cil.h **** extern void dwc_otg_hc_start_transfer(dwc_otg_core_if_t * _core_if,
1072:../Dave/Generated/src/USBLD001/driver/dwc_otg_cil.h **** 				      dwc_hc_t * _hc);
1073:../Dave/Generated/src/USBLD001/driver/dwc_otg_cil.h **** extern int dwc_otg_hc_continue_transfer(dwc_otg_core_if_t * _core_if,
1074:../Dave/Generated/src/USBLD001/driver/dwc_otg_cil.h **** 					dwc_hc_t * _hc);
1075:../Dave/Generated/src/USBLD001/driver/dwc_otg_cil.h **** extern void dwc_otg_hc_do_ping(dwc_otg_core_if_t * _core_if, dwc_hc_t * _hc);
1076:../Dave/Generated/src/USBLD001/driver/dwc_otg_cil.h **** extern void dwc_otg_hc_write_packet(dwc_otg_core_if_t * _core_if,
1077:../Dave/Generated/src/USBLD001/driver/dwc_otg_cil.h **** 				    dwc_hc_t * _hc);
1078:../Dave/Generated/src/USBLD001/driver/dwc_otg_cil.h **** extern void dwc_otg_enable_host_interrupts(dwc_otg_core_if_t * _core_if);
1079:../Dave/Generated/src/USBLD001/driver/dwc_otg_cil.h **** extern void dwc_otg_disable_host_interrupts(dwc_otg_core_if_t * _core_if);
1080:../Dave/Generated/src/USBLD001/driver/dwc_otg_cil.h **** 
1081:../Dave/Generated/src/USBLD001/driver/dwc_otg_cil.h **** extern void dwc_otg_hc_start_transfer_ddma(dwc_otg_core_if_t * core_if,
1082:../Dave/Generated/src/USBLD001/driver/dwc_otg_cil.h **** 					   dwc_hc_t * hc);
1083:../Dave/Generated/src/USBLD001/driver/dwc_otg_cil.h **** 
1084:../Dave/Generated/src/USBLD001/driver/dwc_otg_cil.h **** extern uint32_t calc_frame_interval(dwc_otg_core_if_t * core_if);
1085:../Dave/Generated/src/USBLD001/driver/dwc_otg_cil.h **** 
1086:../Dave/Generated/src/USBLD001/driver/dwc_otg_cil.h **** #ifdef USE_IFX_DEV 
1087:../Dave/Generated/src/USBLD001/driver/dwc_otg_cil.h **** int32_t dwc_otg_handle_disconnect_intr(dwc_otg_core_if_t * core_if);
1088:../Dave/Generated/src/USBLD001/driver/dwc_otg_cil.h **** #endif
1089:../Dave/Generated/src/USBLD001/driver/dwc_otg_cil.h **** 
1090:../Dave/Generated/src/USBLD001/driver/dwc_otg_cil.h **** /* Macro used to clear one channel interrupt */
1091:../Dave/Generated/src/USBLD001/driver/dwc_otg_cil.h **** #define clear_hc_int(_hc_regs_, _intr_) \
1092:../Dave/Generated/src/USBLD001/driver/dwc_otg_cil.h **** do { \
1093:../Dave/Generated/src/USBLD001/driver/dwc_otg_cil.h **** 	hcint_data_t hcint_clear = {.d32 = 0}; \
1094:../Dave/Generated/src/USBLD001/driver/dwc_otg_cil.h **** 	hcint_clear.b._intr_ = 1; \
1095:../Dave/Generated/src/USBLD001/driver/dwc_otg_cil.h **** 	DWC_WRITE_REG32(&(_hc_regs_)->hcint, hcint_clear.d32); \
1096:../Dave/Generated/src/USBLD001/driver/dwc_otg_cil.h **** } while (0)
1097:../Dave/Generated/src/USBLD001/driver/dwc_otg_cil.h **** 
1098:../Dave/Generated/src/USBLD001/driver/dwc_otg_cil.h **** 
1099:../Dave/Generated/src/USBLD001/driver/dwc_otg_cil.h **** 
1100:../Dave/Generated/src/USBLD001/driver/dwc_otg_cil.h **** /*
1101:../Dave/Generated/src/USBLD001/driver/dwc_otg_cil.h ****  * Macro used to disable one channel interrupt. Channel interrupts are
1102:../Dave/Generated/src/USBLD001/driver/dwc_otg_cil.h ****  * disabled when the channel is halted or released by the interrupt handler.
1103:../Dave/Generated/src/USBLD001/driver/dwc_otg_cil.h ****  * There is no need to handle further interrupts of that type until the
1104:../Dave/Generated/src/USBLD001/driver/dwc_otg_cil.h ****  * channel is re-assigned. In fact, subsequent handling may cause crashes
1105:../Dave/Generated/src/USBLD001/driver/dwc_otg_cil.h ****  * because the channel structures are cleaned up when the channel is released.
1106:../Dave/Generated/src/USBLD001/driver/dwc_otg_cil.h ****  */
1107:../Dave/Generated/src/USBLD001/driver/dwc_otg_cil.h **** #define disable_hc_int(_hc_regs_, _intr_) \
1108:../Dave/Generated/src/USBLD001/driver/dwc_otg_cil.h **** do { \
1109:../Dave/Generated/src/USBLD001/driver/dwc_otg_cil.h **** 	hcintmsk_data_t hcintmsk = {.d32 = 0}; \
1110:../Dave/Generated/src/USBLD001/driver/dwc_otg_cil.h **** 	hcintmsk.b._intr_ = 1; \
1111:../Dave/Generated/src/USBLD001/driver/dwc_otg_cil.h **** 	DWC_MODIFY_REG32(&(_hc_regs_)->hcintmsk, hcintmsk.d32, 0); \
1112:../Dave/Generated/src/USBLD001/driver/dwc_otg_cil.h **** } while (0)
1113:../Dave/Generated/src/USBLD001/driver/dwc_otg_cil.h **** 
1114:../Dave/Generated/src/USBLD001/driver/dwc_otg_cil.h **** /**
1115:../Dave/Generated/src/USBLD001/driver/dwc_otg_cil.h ****  * This function Reads HPRT0 in preparation to modify. It keeps the
1116:../Dave/Generated/src/USBLD001/driver/dwc_otg_cil.h ****  * WC bits 0 so that if they are read as 1, they won't clear when you
1117:../Dave/Generated/src/USBLD001/driver/dwc_otg_cil.h ****  * write it back
1118:../Dave/Generated/src/USBLD001/driver/dwc_otg_cil.h ****  */
1119:../Dave/Generated/src/USBLD001/driver/dwc_otg_cil.h **** static inline uint32_t dwc_otg_read_hprt0(dwc_otg_core_if_t * _core_if)
1120:../Dave/Generated/src/USBLD001/driver/dwc_otg_cil.h **** {
1121:../Dave/Generated/src/USBLD001/driver/dwc_otg_cil.h **** 	hprt0_data_t hprt0;
1122:../Dave/Generated/src/USBLD001/driver/dwc_otg_cil.h **** 	hprt0.d32 = DWC_READ_REG32(_core_if->host_if->hprt0);
1123:../Dave/Generated/src/USBLD001/driver/dwc_otg_cil.h **** 	hprt0.b.prtena = 0;
1124:../Dave/Generated/src/USBLD001/driver/dwc_otg_cil.h **** 	hprt0.b.prtconndet = 0;
1125:../Dave/Generated/src/USBLD001/driver/dwc_otg_cil.h **** 	hprt0.b.prtenchng = 0;
1126:../Dave/Generated/src/USBLD001/driver/dwc_otg_cil.h **** 	hprt0.b.prtovrcurrchng = 0;
1127:../Dave/Generated/src/USBLD001/driver/dwc_otg_cil.h **** 	return hprt0.d32;
1128:../Dave/Generated/src/USBLD001/driver/dwc_otg_cil.h **** }
1129:../Dave/Generated/src/USBLD001/driver/dwc_otg_cil.h **** 
1130:../Dave/Generated/src/USBLD001/driver/dwc_otg_cil.h **** /**@}*/
1131:../Dave/Generated/src/USBLD001/driver/dwc_otg_cil.h **** 
1132:../Dave/Generated/src/USBLD001/driver/dwc_otg_cil.h **** /** @name Common CIL Functions
1133:../Dave/Generated/src/USBLD001/driver/dwc_otg_cil.h ****  * The following functions support managing the DWC_otg controller in either
1134:../Dave/Generated/src/USBLD001/driver/dwc_otg_cil.h ****  * device or host mode.
1135:../Dave/Generated/src/USBLD001/driver/dwc_otg_cil.h ****  */
1136:../Dave/Generated/src/USBLD001/driver/dwc_otg_cil.h **** /**@{*/
1137:../Dave/Generated/src/USBLD001/driver/dwc_otg_cil.h **** 
1138:../Dave/Generated/src/USBLD001/driver/dwc_otg_cil.h **** extern void dwc_otg_read_packet(dwc_otg_core_if_t * core_if,
1139:../Dave/Generated/src/USBLD001/driver/dwc_otg_cil.h **** 				uint8_t * dest, uint16_t bytes);
1140:../Dave/Generated/src/USBLD001/driver/dwc_otg_cil.h **** 
1141:../Dave/Generated/src/USBLD001/driver/dwc_otg_cil.h **** extern void dwc_otg_flush_tx_fifo(dwc_otg_core_if_t * _core_if, const int _num);
1142:../Dave/Generated/src/USBLD001/driver/dwc_otg_cil.h **** extern void dwc_otg_flush_rx_fifo(dwc_otg_core_if_t * _core_if);
1143:../Dave/Generated/src/USBLD001/driver/dwc_otg_cil.h **** extern void dwc_otg_core_reset(dwc_otg_core_if_t * _core_if);
1144:../Dave/Generated/src/USBLD001/driver/dwc_otg_cil.h **** 
1145:../Dave/Generated/src/USBLD001/driver/dwc_otg_cil.h **** /**
1146:../Dave/Generated/src/USBLD001/driver/dwc_otg_cil.h ****  * This function returns the Core Interrupt register.
1147:../Dave/Generated/src/USBLD001/driver/dwc_otg_cil.h ****  */
1148:../Dave/Generated/src/USBLD001/driver/dwc_otg_cil.h **** static inline uint32_t dwc_otg_read_core_intr(dwc_otg_core_if_t * core_if)
1149:../Dave/Generated/src/USBLD001/driver/dwc_otg_cil.h **** {
  27              		.loc 1 1149 0
  28              		.cfi_startproc
  29              		@ args = 0, pretend = 0, frame = 8
  30              		@ frame_needed = 1, uses_anonymous_args = 0
  31 0000 90B5     		push	{r4, r7, lr}
  32              	.LCFI0:
  33              		.cfi_def_cfa_offset 12
  34              		.cfi_offset 4, -12
  35              		.cfi_offset 7, -8
  36              		.cfi_offset 14, -4
  37 0002 83B0     		sub	sp, sp, #12
  38              	.LCFI1:
  39              		.cfi_def_cfa_offset 24
  40 0004 00AF     		add	r7, sp, #0
  41              	.LCFI2:
  42              		.cfi_def_cfa_register 7
  43 0006 7860     		str	r0, [r7, #4]
1150:../Dave/Generated/src/USBLD001/driver/dwc_otg_cil.h **** 	return (DWC_READ_REG32(&core_if->core_global_regs->gintsts) &
  44              		.loc 1 1150 0
  45 0008 7B68     		ldr	r3, [r7, #4]
  46 000a 5B68     		ldr	r3, [r3, #4]
  47 000c 03F11403 		add	r3, r3, #20
  48 0010 1846     		mov	r0, r3
  49 0012 FFF7FEFF 		bl	DWC_READ_REG32
  50 0016 0446     		mov	r4, r0
1151:../Dave/Generated/src/USBLD001/driver/dwc_otg_cil.h **** 		DWC_READ_REG32(&core_if->core_global_regs->gintmsk));
  51              		.loc 1 1151 0
  52 0018 7B68     		ldr	r3, [r7, #4]
  53 001a 5B68     		ldr	r3, [r3, #4]
  54 001c 03F11803 		add	r3, r3, #24
  55 0020 1846     		mov	r0, r3
  56 0022 FFF7FEFF 		bl	DWC_READ_REG32
  57 0026 0346     		mov	r3, r0
1150:../Dave/Generated/src/USBLD001/driver/dwc_otg_cil.h **** 	return (DWC_READ_REG32(&core_if->core_global_regs->gintsts) &
  58              		.loc 1 1150 0
  59 0028 2340     		ands	r3, r3, r4
1152:../Dave/Generated/src/USBLD001/driver/dwc_otg_cil.h **** }
  60              		.loc 1 1152 0
  61 002a 1846     		mov	r0, r3
  62 002c 07F10C07 		add	r7, r7, #12
  63 0030 BD46     		mov	sp, r7
  64 0032 90BD     		pop	{r4, r7, pc}
  65              		.cfi_endproc
  66              	.LFE2:
  68              		.section	.text.dwc_otg_read_dev_all_in_ep_intr,"ax",%progbits
  69              		.align	2
  70              		.thumb
  71              		.thumb_func
  73              	dwc_otg_read_dev_all_in_ep_intr:
  74              	.LFB4:
1153:../Dave/Generated/src/USBLD001/driver/dwc_otg_cil.h **** 
1154:../Dave/Generated/src/USBLD001/driver/dwc_otg_cil.h **** /**
1155:../Dave/Generated/src/USBLD001/driver/dwc_otg_cil.h ****  * This function returns the OTG Interrupt register.
1156:../Dave/Generated/src/USBLD001/driver/dwc_otg_cil.h ****  */
1157:../Dave/Generated/src/USBLD001/driver/dwc_otg_cil.h **** static inline uint32_t dwc_otg_read_otg_intr(dwc_otg_core_if_t * core_if)
1158:../Dave/Generated/src/USBLD001/driver/dwc_otg_cil.h **** {
1159:../Dave/Generated/src/USBLD001/driver/dwc_otg_cil.h **** 	return (DWC_READ_REG32(&core_if->core_global_regs->gotgint));
1160:../Dave/Generated/src/USBLD001/driver/dwc_otg_cil.h **** }
1161:../Dave/Generated/src/USBLD001/driver/dwc_otg_cil.h **** 
1162:../Dave/Generated/src/USBLD001/driver/dwc_otg_cil.h **** /**
1163:../Dave/Generated/src/USBLD001/driver/dwc_otg_cil.h ****  * This function reads the Device All Endpoints Interrupt register and
1164:../Dave/Generated/src/USBLD001/driver/dwc_otg_cil.h ****  * returns the IN endpoint interrupt bits.
1165:../Dave/Generated/src/USBLD001/driver/dwc_otg_cil.h ****  */
1166:../Dave/Generated/src/USBLD001/driver/dwc_otg_cil.h **** static inline uint32_t dwc_otg_read_dev_all_in_ep_intr(dwc_otg_core_if_t *
1167:../Dave/Generated/src/USBLD001/driver/dwc_otg_cil.h **** 						       core_if)
1168:../Dave/Generated/src/USBLD001/driver/dwc_otg_cil.h **** {
  75              		.loc 1 1168 0
  76              		.cfi_startproc
  77              		@ args = 0, pretend = 0, frame = 16
  78              		@ frame_needed = 1, uses_anonymous_args = 0
  79 0000 90B5     		push	{r4, r7, lr}
  80              	.LCFI3:
  81              		.cfi_def_cfa_offset 12
  82              		.cfi_offset 4, -12
  83              		.cfi_offset 7, -8
  84              		.cfi_offset 14, -4
  85 0002 85B0     		sub	sp, sp, #20
  86              	.LCFI4:
  87              		.cfi_def_cfa_offset 32
  88 0004 00AF     		add	r7, sp, #0
  89              	.LCFI5:
  90              		.cfi_def_cfa_register 7
  91 0006 7860     		str	r0, [r7, #4]
1169:../Dave/Generated/src/USBLD001/driver/dwc_otg_cil.h **** 
1170:../Dave/Generated/src/USBLD001/driver/dwc_otg_cil.h **** 	uint32_t v;
1171:../Dave/Generated/src/USBLD001/driver/dwc_otg_cil.h **** 
1172:../Dave/Generated/src/USBLD001/driver/dwc_otg_cil.h **** 	if (core_if->multiproc_int_enable) {
  92              		.loc 1 1172 0
  93 0008 7B68     		ldr	r3, [r7, #4]
  94 000a 93F84930 		ldrb	r3, [r3, #73]	@ zero_extendqisi2
  95 000e 002B     		cmp	r3, #0
  96 0010 14D0     		beq	.L4
1173:../Dave/Generated/src/USBLD001/driver/dwc_otg_cil.h **** 		v = DWC_READ_REG32(&core_if->dev_if->
  97              		.loc 1 1173 0
  98 0012 7B68     		ldr	r3, [r7, #4]
  99 0014 9B68     		ldr	r3, [r3, #8]
 100 0016 1B68     		ldr	r3, [r3, #0]
 101 0018 03F13803 		add	r3, r3, #56
 102 001c 1846     		mov	r0, r3
 103 001e FFF7FEFF 		bl	DWC_READ_REG32
 104 0022 0446     		mov	r4, r0
1174:../Dave/Generated/src/USBLD001/driver/dwc_otg_cil.h **** 				   dev_global_regs->deachint) &
1175:../Dave/Generated/src/USBLD001/driver/dwc_otg_cil.h **** 		    DWC_READ_REG32(&core_if->
 105              		.loc 1 1175 0
 106 0024 7B68     		ldr	r3, [r7, #4]
 107 0026 9B68     		ldr	r3, [r3, #8]
1176:../Dave/Generated/src/USBLD001/driver/dwc_otg_cil.h **** 				   dev_if->dev_global_regs->deachintmsk);
 108              		.loc 1 1176 0
 109 0028 1B68     		ldr	r3, [r3, #0]
1175:../Dave/Generated/src/USBLD001/driver/dwc_otg_cil.h **** 		    DWC_READ_REG32(&core_if->
 110              		.loc 1 1175 0
 111 002a 03F13C03 		add	r3, r3, #60
 112 002e 1846     		mov	r0, r3
 113 0030 FFF7FEFF 		bl	DWC_READ_REG32
 114 0034 0346     		mov	r3, r0
1173:../Dave/Generated/src/USBLD001/driver/dwc_otg_cil.h **** 		v = DWC_READ_REG32(&core_if->dev_if->
 115              		.loc 1 1173 0
 116 0036 2340     		ands	r3, r3, r4
 117 0038 FB60     		str	r3, [r7, #12]
 118 003a 13E0     		b	.L5
 119              	.L4:
1177:../Dave/Generated/src/USBLD001/driver/dwc_otg_cil.h **** 	} else {
1178:../Dave/Generated/src/USBLD001/driver/dwc_otg_cil.h **** 		v = DWC_READ_REG32(&core_if->dev_if->dev_global_regs->daint) &
 120              		.loc 1 1178 0
 121 003c 7B68     		ldr	r3, [r7, #4]
 122 003e 9B68     		ldr	r3, [r3, #8]
 123 0040 1B68     		ldr	r3, [r3, #0]
 124 0042 03F11803 		add	r3, r3, #24
 125 0046 1846     		mov	r0, r3
 126 0048 FFF7FEFF 		bl	DWC_READ_REG32
 127 004c 0446     		mov	r4, r0
1179:../Dave/Generated/src/USBLD001/driver/dwc_otg_cil.h **** 		    DWC_READ_REG32(&core_if->dev_if->dev_global_regs->daintmsk);
 128              		.loc 1 1179 0
 129 004e 7B68     		ldr	r3, [r7, #4]
 130 0050 9B68     		ldr	r3, [r3, #8]
 131 0052 1B68     		ldr	r3, [r3, #0]
 132 0054 03F11C03 		add	r3, r3, #28
 133 0058 1846     		mov	r0, r3
 134 005a FFF7FEFF 		bl	DWC_READ_REG32
 135 005e 0346     		mov	r3, r0
1178:../Dave/Generated/src/USBLD001/driver/dwc_otg_cil.h **** 		v = DWC_READ_REG32(&core_if->dev_if->dev_global_regs->daint) &
 136              		.loc 1 1178 0
 137 0060 2340     		ands	r3, r3, r4
 138 0062 FB60     		str	r3, [r7, #12]
 139              	.L5:
1180:../Dave/Generated/src/USBLD001/driver/dwc_otg_cil.h **** 	}
1181:../Dave/Generated/src/USBLD001/driver/dwc_otg_cil.h **** 	return (v & 0xffff);
 140              		.loc 1 1181 0
 141 0064 FB68     		ldr	r3, [r7, #12]
 142 0066 4FEA0343 		lsl	r3, r3, #16
 143 006a 4FEA1343 		lsr	r3, r3, #16
1182:../Dave/Generated/src/USBLD001/driver/dwc_otg_cil.h **** }
 144              		.loc 1 1182 0
 145 006e 1846     		mov	r0, r3
 146 0070 07F11407 		add	r7, r7, #20
 147 0074 BD46     		mov	sp, r7
 148 0076 90BD     		pop	{r4, r7, pc}
 149              		.cfi_endproc
 150              	.LFE4:
 152              		.section	.text.dwc_otg_read_dev_all_out_ep_intr,"ax",%progbits
 153              		.align	2
 154              		.thumb
 155              		.thumb_func
 157              	dwc_otg_read_dev_all_out_ep_intr:
 158              	.LFB5:
1183:../Dave/Generated/src/USBLD001/driver/dwc_otg_cil.h **** 
1184:../Dave/Generated/src/USBLD001/driver/dwc_otg_cil.h **** /**
1185:../Dave/Generated/src/USBLD001/driver/dwc_otg_cil.h ****  * This function reads the Device All Endpoints Interrupt register and
1186:../Dave/Generated/src/USBLD001/driver/dwc_otg_cil.h ****  * returns the OUT endpoint interrupt bits.
1187:../Dave/Generated/src/USBLD001/driver/dwc_otg_cil.h ****  */
1188:../Dave/Generated/src/USBLD001/driver/dwc_otg_cil.h **** static inline uint32_t dwc_otg_read_dev_all_out_ep_intr(dwc_otg_core_if_t *
1189:../Dave/Generated/src/USBLD001/driver/dwc_otg_cil.h **** 							core_if)
1190:../Dave/Generated/src/USBLD001/driver/dwc_otg_cil.h **** {
 159              		.loc 1 1190 0
 160              		.cfi_startproc
 161              		@ args = 0, pretend = 0, frame = 16
 162              		@ frame_needed = 1, uses_anonymous_args = 0
 163 0000 90B5     		push	{r4, r7, lr}
 164              	.LCFI6:
 165              		.cfi_def_cfa_offset 12
 166              		.cfi_offset 4, -12
 167              		.cfi_offset 7, -8
 168              		.cfi_offset 14, -4
 169 0002 85B0     		sub	sp, sp, #20
 170              	.LCFI7:
 171              		.cfi_def_cfa_offset 32
 172 0004 00AF     		add	r7, sp, #0
 173              	.LCFI8:
 174              		.cfi_def_cfa_register 7
 175 0006 7860     		str	r0, [r7, #4]
1191:../Dave/Generated/src/USBLD001/driver/dwc_otg_cil.h **** 	uint32_t v;
1192:../Dave/Generated/src/USBLD001/driver/dwc_otg_cil.h **** 
1193:../Dave/Generated/src/USBLD001/driver/dwc_otg_cil.h **** 	if (core_if->multiproc_int_enable) {
 176              		.loc 1 1193 0
 177 0008 7B68     		ldr	r3, [r7, #4]
 178 000a 93F84930 		ldrb	r3, [r3, #73]	@ zero_extendqisi2
 179 000e 002B     		cmp	r3, #0
 180 0010 14D0     		beq	.L8
1194:../Dave/Generated/src/USBLD001/driver/dwc_otg_cil.h **** 		v = DWC_READ_REG32(&core_if->dev_if->
 181              		.loc 1 1194 0
 182 0012 7B68     		ldr	r3, [r7, #4]
 183 0014 9B68     		ldr	r3, [r3, #8]
 184 0016 1B68     		ldr	r3, [r3, #0]
 185 0018 03F13803 		add	r3, r3, #56
 186 001c 1846     		mov	r0, r3
 187 001e FFF7FEFF 		bl	DWC_READ_REG32
 188 0022 0446     		mov	r4, r0
1195:../Dave/Generated/src/USBLD001/driver/dwc_otg_cil.h **** 				   dev_global_regs->deachint) &
1196:../Dave/Generated/src/USBLD001/driver/dwc_otg_cil.h **** 		    DWC_READ_REG32(&core_if->
 189              		.loc 1 1196 0
 190 0024 7B68     		ldr	r3, [r7, #4]
 191 0026 9B68     		ldr	r3, [r3, #8]
1197:../Dave/Generated/src/USBLD001/driver/dwc_otg_cil.h **** 				   dev_if->dev_global_regs->deachintmsk);
 192              		.loc 1 1197 0
 193 0028 1B68     		ldr	r3, [r3, #0]
1196:../Dave/Generated/src/USBLD001/driver/dwc_otg_cil.h **** 		    DWC_READ_REG32(&core_if->
 194              		.loc 1 1196 0
 195 002a 03F13C03 		add	r3, r3, #60
 196 002e 1846     		mov	r0, r3
 197 0030 FFF7FEFF 		bl	DWC_READ_REG32
 198 0034 0346     		mov	r3, r0
1194:../Dave/Generated/src/USBLD001/driver/dwc_otg_cil.h **** 		v = DWC_READ_REG32(&core_if->dev_if->
 199              		.loc 1 1194 0
 200 0036 2340     		ands	r3, r3, r4
 201 0038 FB60     		str	r3, [r7, #12]
 202 003a 13E0     		b	.L9
 203              	.L8:
1198:../Dave/Generated/src/USBLD001/driver/dwc_otg_cil.h **** 	} else {
1199:../Dave/Generated/src/USBLD001/driver/dwc_otg_cil.h **** 		v = DWC_READ_REG32(&core_if->dev_if->dev_global_regs->daint) &
 204              		.loc 1 1199 0
 205 003c 7B68     		ldr	r3, [r7, #4]
 206 003e 9B68     		ldr	r3, [r3, #8]
 207 0040 1B68     		ldr	r3, [r3, #0]
 208 0042 03F11803 		add	r3, r3, #24
 209 0046 1846     		mov	r0, r3
 210 0048 FFF7FEFF 		bl	DWC_READ_REG32
 211 004c 0446     		mov	r4, r0
1200:../Dave/Generated/src/USBLD001/driver/dwc_otg_cil.h **** 		    DWC_READ_REG32(&core_if->dev_if->dev_global_regs->daintmsk);
 212              		.loc 1 1200 0
 213 004e 7B68     		ldr	r3, [r7, #4]
 214 0050 9B68     		ldr	r3, [r3, #8]
 215 0052 1B68     		ldr	r3, [r3, #0]
 216 0054 03F11C03 		add	r3, r3, #28
 217 0058 1846     		mov	r0, r3
 218 005a FFF7FEFF 		bl	DWC_READ_REG32
 219 005e 0346     		mov	r3, r0
1199:../Dave/Generated/src/USBLD001/driver/dwc_otg_cil.h **** 		v = DWC_READ_REG32(&core_if->dev_if->dev_global_regs->daint) &
 220              		.loc 1 1199 0
 221 0060 2340     		ands	r3, r3, r4
 222 0062 FB60     		str	r3, [r7, #12]
 223              	.L9:
1201:../Dave/Generated/src/USBLD001/driver/dwc_otg_cil.h **** 	}
1202:../Dave/Generated/src/USBLD001/driver/dwc_otg_cil.h **** 
1203:../Dave/Generated/src/USBLD001/driver/dwc_otg_cil.h **** 	return ((v & 0xffff0000) >> 16);
 224              		.loc 1 1203 0
 225 0064 FB68     		ldr	r3, [r7, #12]
 226 0066 4FEA1343 		lsr	r3, r3, #16
1204:../Dave/Generated/src/USBLD001/driver/dwc_otg_cil.h **** }
 227              		.loc 1 1204 0
 228 006a 1846     		mov	r0, r3
 229 006c 07F11407 		add	r7, r7, #20
 230 0070 BD46     		mov	sp, r7
 231 0072 90BD     		pop	{r4, r7, pc}
 232              		.cfi_endproc
 233              	.LFE5:
 235              		.section	.text.dwc_otg_read_dev_in_ep_intr,"ax",%progbits
 236              		.align	2
 237              		.thumb
 238              		.thumb_func
 240              	dwc_otg_read_dev_in_ep_intr:
 241              	.LFB6:
1205:../Dave/Generated/src/USBLD001/driver/dwc_otg_cil.h **** 
1206:../Dave/Generated/src/USBLD001/driver/dwc_otg_cil.h **** /**
1207:../Dave/Generated/src/USBLD001/driver/dwc_otg_cil.h ****  * This function returns the Device IN EP Interrupt register
1208:../Dave/Generated/src/USBLD001/driver/dwc_otg_cil.h ****  */
1209:../Dave/Generated/src/USBLD001/driver/dwc_otg_cil.h **** static inline uint32_t dwc_otg_read_dev_in_ep_intr(dwc_otg_core_if_t * core_if,
1210:../Dave/Generated/src/USBLD001/driver/dwc_otg_cil.h **** 						   dwc_ep_t * ep)
1211:../Dave/Generated/src/USBLD001/driver/dwc_otg_cil.h **** {
 242              		.loc 1 1211 0
 243              		.cfi_startproc
 244              		@ args = 0, pretend = 0, frame = 24
 245              		@ frame_needed = 1, uses_anonymous_args = 0
 246 0000 80B5     		push	{r7, lr}
 247              	.LCFI9:
 248              		.cfi_def_cfa_offset 8
 249              		.cfi_offset 7, -8
 250              		.cfi_offset 14, -4
 251 0002 86B0     		sub	sp, sp, #24
 252              	.LCFI10:
 253              		.cfi_def_cfa_offset 32
 254 0004 00AF     		add	r7, sp, #0
 255              	.LCFI11:
 256              		.cfi_def_cfa_register 7
 257 0006 7860     		str	r0, [r7, #4]
 258 0008 3960     		str	r1, [r7, #0]
1212:../Dave/Generated/src/USBLD001/driver/dwc_otg_cil.h **** 	dwc_otg_dev_if_t *dev_if = core_if->dev_if;
 259              		.loc 1 1212 0
 260 000a 7B68     		ldr	r3, [r7, #4]
 261 000c 9B68     		ldr	r3, [r3, #8]
 262 000e 3B61     		str	r3, [r7, #16]
1213:../Dave/Generated/src/USBLD001/driver/dwc_otg_cil.h **** 	uint32_t v, msk, emp;
1214:../Dave/Generated/src/USBLD001/driver/dwc_otg_cil.h **** 
1215:../Dave/Generated/src/USBLD001/driver/dwc_otg_cil.h **** 	if (core_if->multiproc_int_enable) {
 263              		.loc 1 1215 0
 264 0010 7B68     		ldr	r3, [r7, #4]
 265 0012 93F84930 		ldrb	r3, [r3, #73]	@ zero_extendqisi2
 266 0016 002B     		cmp	r3, #0
 267 0018 30D0     		beq	.L12
1216:../Dave/Generated/src/USBLD001/driver/dwc_otg_cil.h **** 		msk =
1217:../Dave/Generated/src/USBLD001/driver/dwc_otg_cil.h **** 		    DWC_READ_REG32(&dev_if->
 268              		.loc 1 1217 0
 269 001a 3B69     		ldr	r3, [r7, #16]
 270 001c 1A68     		ldr	r2, [r3, #0]
1218:../Dave/Generated/src/USBLD001/driver/dwc_otg_cil.h **** 				   dev_global_regs->diepeachintmsk[ep->num]);
 271              		.loc 1 1218 0
 272 001e 3B68     		ldr	r3, [r7, #0]
 273 0020 1B78     		ldrb	r3, [r3, #0]	@ zero_extendqisi2
1217:../Dave/Generated/src/USBLD001/driver/dwc_otg_cil.h **** 		    DWC_READ_REG32(&dev_if->
 274              		.loc 1 1217 0
 275 0022 03F11003 		add	r3, r3, #16
 276 0026 4FEA8303 		lsl	r3, r3, #2
 277 002a D318     		adds	r3, r2, r3
1216:../Dave/Generated/src/USBLD001/driver/dwc_otg_cil.h **** 		msk =
 278              		.loc 1 1216 0
 279 002c 1846     		mov	r0, r3
 280 002e FFF7FEFF 		bl	DWC_READ_REG32
 281 0032 F860     		str	r0, [r7, #12]
1219:../Dave/Generated/src/USBLD001/driver/dwc_otg_cil.h **** 		emp =
1220:../Dave/Generated/src/USBLD001/driver/dwc_otg_cil.h **** 		    DWC_READ_REG32(&dev_if->
 282              		.loc 1 1220 0
 283 0034 3B69     		ldr	r3, [r7, #16]
 284 0036 1B68     		ldr	r3, [r3, #0]
 285 0038 03F13403 		add	r3, r3, #52
1219:../Dave/Generated/src/USBLD001/driver/dwc_otg_cil.h **** 		emp =
 286              		.loc 1 1219 0
 287 003c 1846     		mov	r0, r3
 288 003e FFF7FEFF 		bl	DWC_READ_REG32
 289 0042 B860     		str	r0, [r7, #8]
1221:../Dave/Generated/src/USBLD001/driver/dwc_otg_cil.h **** 				   dev_global_regs->dtknqr4_fifoemptymsk);
1222:../Dave/Generated/src/USBLD001/driver/dwc_otg_cil.h **** 		msk |= ((emp >> ep->num) & 0x1) << 7;
 290              		.loc 1 1222 0
 291 0044 3B68     		ldr	r3, [r7, #0]
 292 0046 1B78     		ldrb	r3, [r3, #0]	@ zero_extendqisi2
 293 0048 BA68     		ldr	r2, [r7, #8]
 294 004a 22FA03F3 		lsr	r3, r2, r3
 295 004e 4FEAC313 		lsl	r3, r3, #7
 296 0052 DBB2     		uxtb	r3, r3
 297 0054 FA68     		ldr	r2, [r7, #12]
 298 0056 1343     		orrs	r3, r3, r2
 299 0058 FB60     		str	r3, [r7, #12]
1223:../Dave/Generated/src/USBLD001/driver/dwc_otg_cil.h **** 		v = DWC_READ_REG32(&dev_if->in_ep_regs[ep->num]->diepint) & msk;
 300              		.loc 1 1223 0
 301 005a 3B68     		ldr	r3, [r7, #0]
 302 005c 1B78     		ldrb	r3, [r3, #0]	@ zero_extendqisi2
 303 005e 3A69     		ldr	r2, [r7, #16]
 304 0060 4FEA8303 		lsl	r3, r3, #2
 305 0064 D318     		adds	r3, r2, r3
 306 0066 5B68     		ldr	r3, [r3, #4]
 307 0068 03F10803 		add	r3, r3, #8
 308 006c 1846     		mov	r0, r3
 309 006e FFF7FEFF 		bl	DWC_READ_REG32
 310 0072 0246     		mov	r2, r0
 311 0074 FB68     		ldr	r3, [r7, #12]
 312 0076 1340     		ands	r3, r3, r2
 313 0078 7B61     		str	r3, [r7, #20]
 314 007a 2AE0     		b	.L13
 315              	.L12:
1224:../Dave/Generated/src/USBLD001/driver/dwc_otg_cil.h **** 	} else {
1225:../Dave/Generated/src/USBLD001/driver/dwc_otg_cil.h **** 		msk = DWC_READ_REG32(&dev_if->dev_global_regs->diepmsk);
 316              		.loc 1 1225 0
 317 007c 3B69     		ldr	r3, [r7, #16]
 318 007e 1B68     		ldr	r3, [r3, #0]
 319 0080 03F11003 		add	r3, r3, #16
 320 0084 1846     		mov	r0, r3
 321 0086 FFF7FEFF 		bl	DWC_READ_REG32
 322 008a F860     		str	r0, [r7, #12]
1226:../Dave/Generated/src/USBLD001/driver/dwc_otg_cil.h **** 		emp =
1227:../Dave/Generated/src/USBLD001/driver/dwc_otg_cil.h **** 		    DWC_READ_REG32(&dev_if->
 323              		.loc 1 1227 0
 324 008c 3B69     		ldr	r3, [r7, #16]
 325 008e 1B68     		ldr	r3, [r3, #0]
 326 0090 03F13403 		add	r3, r3, #52
1226:../Dave/Generated/src/USBLD001/driver/dwc_otg_cil.h **** 		emp =
 327              		.loc 1 1226 0
 328 0094 1846     		mov	r0, r3
 329 0096 FFF7FEFF 		bl	DWC_READ_REG32
 330 009a B860     		str	r0, [r7, #8]
1228:../Dave/Generated/src/USBLD001/driver/dwc_otg_cil.h **** 				   dev_global_regs->dtknqr4_fifoemptymsk);
1229:../Dave/Generated/src/USBLD001/driver/dwc_otg_cil.h **** 		msk |= ((emp >> ep->num) & 0x1) << 7;
 331              		.loc 1 1229 0
 332 009c 3B68     		ldr	r3, [r7, #0]
 333 009e 1B78     		ldrb	r3, [r3, #0]	@ zero_extendqisi2
 334 00a0 BA68     		ldr	r2, [r7, #8]
 335 00a2 22FA03F3 		lsr	r3, r2, r3
 336 00a6 4FEAC313 		lsl	r3, r3, #7
 337 00aa DBB2     		uxtb	r3, r3
 338 00ac FA68     		ldr	r2, [r7, #12]
 339 00ae 1343     		orrs	r3, r3, r2
 340 00b0 FB60     		str	r3, [r7, #12]
1230:../Dave/Generated/src/USBLD001/driver/dwc_otg_cil.h **** 		v = DWC_READ_REG32(&dev_if->in_ep_regs[ep->num]->diepint) & msk;
 341              		.loc 1 1230 0
 342 00b2 3B68     		ldr	r3, [r7, #0]
 343 00b4 1B78     		ldrb	r3, [r3, #0]	@ zero_extendqisi2
 344 00b6 3A69     		ldr	r2, [r7, #16]
 345 00b8 4FEA8303 		lsl	r3, r3, #2
 346 00bc D318     		adds	r3, r2, r3
 347 00be 5B68     		ldr	r3, [r3, #4]
 348 00c0 03F10803 		add	r3, r3, #8
 349 00c4 1846     		mov	r0, r3
 350 00c6 FFF7FEFF 		bl	DWC_READ_REG32
 351 00ca 0246     		mov	r2, r0
 352 00cc FB68     		ldr	r3, [r7, #12]
 353 00ce 1340     		ands	r3, r3, r2
 354 00d0 7B61     		str	r3, [r7, #20]
 355              	.L13:
1231:../Dave/Generated/src/USBLD001/driver/dwc_otg_cil.h **** 	}
1232:../Dave/Generated/src/USBLD001/driver/dwc_otg_cil.h **** 
1233:../Dave/Generated/src/USBLD001/driver/dwc_otg_cil.h **** 	return v;
 356              		.loc 1 1233 0
 357 00d2 7B69     		ldr	r3, [r7, #20]
1234:../Dave/Generated/src/USBLD001/driver/dwc_otg_cil.h **** }
 358              		.loc 1 1234 0
 359 00d4 1846     		mov	r0, r3
 360 00d6 07F11807 		add	r7, r7, #24
 361 00da BD46     		mov	sp, r7
 362 00dc 80BD     		pop	{r7, pc}
 363              		.cfi_endproc
 364              	.LFE6:
 366 00de 00BF     		.section	.text.dwc_otg_read_dev_out_ep_intr,"ax",%progbits
 367              		.align	2
 368              		.thumb
 369              		.thumb_func
 371              	dwc_otg_read_dev_out_ep_intr:
 372              	.LFB7:
1235:../Dave/Generated/src/USBLD001/driver/dwc_otg_cil.h **** 
1236:../Dave/Generated/src/USBLD001/driver/dwc_otg_cil.h **** /**
1237:../Dave/Generated/src/USBLD001/driver/dwc_otg_cil.h ****  * This function returns the Device OUT EP Interrupt register
1238:../Dave/Generated/src/USBLD001/driver/dwc_otg_cil.h ****  */
1239:../Dave/Generated/src/USBLD001/driver/dwc_otg_cil.h **** static inline uint32_t dwc_otg_read_dev_out_ep_intr(dwc_otg_core_if_t *
1240:../Dave/Generated/src/USBLD001/driver/dwc_otg_cil.h **** 						    _core_if, dwc_ep_t * _ep)
1241:../Dave/Generated/src/USBLD001/driver/dwc_otg_cil.h **** {
 373              		.loc 1 1241 0
 374              		.cfi_startproc
 375              		@ args = 0, pretend = 0, frame = 24
 376              		@ frame_needed = 1, uses_anonymous_args = 0
 377 0000 80B5     		push	{r7, lr}
 378              	.LCFI12:
 379              		.cfi_def_cfa_offset 8
 380              		.cfi_offset 7, -8
 381              		.cfi_offset 14, -4
 382 0002 86B0     		sub	sp, sp, #24
 383              	.LCFI13:
 384              		.cfi_def_cfa_offset 32
 385 0004 00AF     		add	r7, sp, #0
 386              	.LCFI14:
 387              		.cfi_def_cfa_register 7
 388 0006 7860     		str	r0, [r7, #4]
 389 0008 3960     		str	r1, [r7, #0]
1242:../Dave/Generated/src/USBLD001/driver/dwc_otg_cil.h **** 	dwc_otg_dev_if_t *dev_if = _core_if->dev_if;
 390              		.loc 1 1242 0
 391 000a 7B68     		ldr	r3, [r7, #4]
 392 000c 9B68     		ldr	r3, [r3, #8]
 393 000e 3B61     		str	r3, [r7, #16]
1243:../Dave/Generated/src/USBLD001/driver/dwc_otg_cil.h **** 	uint32_t v;
1244:../Dave/Generated/src/USBLD001/driver/dwc_otg_cil.h **** 	//doepmsk_data_t msk = {.d32 = 0 };
1245:../Dave/Generated/src/USBLD001/driver/dwc_otg_cil.h **** 	doepmsk_data_t msk;
1246:../Dave/Generated/src/USBLD001/driver/dwc_otg_cil.h **** 
1247:../Dave/Generated/src/USBLD001/driver/dwc_otg_cil.h **** 	if (_core_if->multiproc_int_enable) {
 394              		.loc 1 1247 0
 395 0010 7B68     		ldr	r3, [r7, #4]
 396 0012 93F84930 		ldrb	r3, [r3, #73]	@ zero_extendqisi2
 397 0016 002B     		cmp	r3, #0
 398 0018 29D0     		beq	.L16
1248:../Dave/Generated/src/USBLD001/driver/dwc_otg_cil.h **** 		msk.d32 =
1249:../Dave/Generated/src/USBLD001/driver/dwc_otg_cil.h **** 		    DWC_READ_REG32(&dev_if->
 399              		.loc 1 1249 0
 400 001a 3B69     		ldr	r3, [r7, #16]
 401 001c 1A68     		ldr	r2, [r3, #0]
1250:../Dave/Generated/src/USBLD001/driver/dwc_otg_cil.h **** 				   dev_global_regs->doepeachintmsk[_ep->num]);
 402              		.loc 1 1250 0
 403 001e 3B68     		ldr	r3, [r7, #0]
 404 0020 1B78     		ldrb	r3, [r3, #0]	@ zero_extendqisi2
1249:../Dave/Generated/src/USBLD001/driver/dwc_otg_cil.h **** 		    DWC_READ_REG32(&dev_if->
 405              		.loc 1 1249 0
 406 0022 03F11803 		add	r3, r3, #24
 407 0026 4FEA8303 		lsl	r3, r3, #2
 408 002a D318     		adds	r3, r2, r3
 409 002c 1846     		mov	r0, r3
 410 002e FFF7FEFF 		bl	DWC_READ_REG32
 411 0032 0346     		mov	r3, r0
1248:../Dave/Generated/src/USBLD001/driver/dwc_otg_cil.h **** 		msk.d32 =
 412              		.loc 1 1248 0
 413 0034 FB60     		str	r3, [r7, #12]
1251:../Dave/Generated/src/USBLD001/driver/dwc_otg_cil.h **** 		if (_core_if->pti_enh_enable) {
 414              		.loc 1 1251 0
 415 0036 7B68     		ldr	r3, [r7, #4]
 416 0038 93F84830 		ldrb	r3, [r3, #72]	@ zero_extendqisi2
 417 003c 002B     		cmp	r3, #0
 418 003e 03D0     		beq	.L17
1252:../Dave/Generated/src/USBLD001/driver/dwc_otg_cil.h **** 			msk.b.pktdrpsts = 1;
 419              		.loc 1 1252 0
 420 0040 FB68     		ldr	r3, [r7, #12]
 421 0042 43F40063 		orr	r3, r3, #2048
 422 0046 FB60     		str	r3, [r7, #12]
 423              	.L17:
1253:../Dave/Generated/src/USBLD001/driver/dwc_otg_cil.h **** 		}
1254:../Dave/Generated/src/USBLD001/driver/dwc_otg_cil.h **** 		v = DWC_READ_REG32(&dev_if->
1255:../Dave/Generated/src/USBLD001/driver/dwc_otg_cil.h **** 				   out_ep_regs[_ep->num]->doepint) & msk.d32;
 424              		.loc 1 1255 0
 425 0048 3B68     		ldr	r3, [r7, #0]
 426 004a 1B78     		ldrb	r3, [r3, #0]	@ zero_extendqisi2
1254:../Dave/Generated/src/USBLD001/driver/dwc_otg_cil.h **** 		v = DWC_READ_REG32(&dev_if->
 427              		.loc 1 1254 0
 428 004c 3A69     		ldr	r2, [r7, #16]
 429              		.loc 1 1255 0
 430 004e 03F10803 		add	r3, r3, #8
 431 0052 4FEA8303 		lsl	r3, r3, #2
 432 0056 D318     		adds	r3, r2, r3
 433 0058 5B68     		ldr	r3, [r3, #4]
1254:../Dave/Generated/src/USBLD001/driver/dwc_otg_cil.h **** 		v = DWC_READ_REG32(&dev_if->
 434              		.loc 1 1254 0
 435 005a 03F10803 		add	r3, r3, #8
 436 005e 1846     		mov	r0, r3
 437 0060 FFF7FEFF 		bl	DWC_READ_REG32
 438 0064 0246     		mov	r2, r0
 439              		.loc 1 1255 0
 440 0066 FB68     		ldr	r3, [r7, #12]
1254:../Dave/Generated/src/USBLD001/driver/dwc_otg_cil.h **** 		v = DWC_READ_REG32(&dev_if->
 441              		.loc 1 1254 0
 442 0068 1340     		ands	r3, r3, r2
 443 006a 7B61     		str	r3, [r7, #20]
 444 006c 23E0     		b	.L18
 445              	.L16:
1256:../Dave/Generated/src/USBLD001/driver/dwc_otg_cil.h **** 	} else {
1257:../Dave/Generated/src/USBLD001/driver/dwc_otg_cil.h **** 		msk.d32 = DWC_READ_REG32(&dev_if->dev_global_regs->doepmsk);
 446              		.loc 1 1257 0
 447 006e 3B69     		ldr	r3, [r7, #16]
 448 0070 1B68     		ldr	r3, [r3, #0]
 449 0072 03F11403 		add	r3, r3, #20
 450 0076 1846     		mov	r0, r3
 451 0078 FFF7FEFF 		bl	DWC_READ_REG32
 452 007c 0346     		mov	r3, r0
 453 007e FB60     		str	r3, [r7, #12]
1258:../Dave/Generated/src/USBLD001/driver/dwc_otg_cil.h **** 		if (_core_if->pti_enh_enable) {
 454              		.loc 1 1258 0
 455 0080 7B68     		ldr	r3, [r7, #4]
 456 0082 93F84830 		ldrb	r3, [r3, #72]	@ zero_extendqisi2
 457 0086 002B     		cmp	r3, #0
 458 0088 03D0     		beq	.L19
1259:../Dave/Generated/src/USBLD001/driver/dwc_otg_cil.h **** 			msk.b.pktdrpsts = 1;
 459              		.loc 1 1259 0
 460 008a FB68     		ldr	r3, [r7, #12]
 461 008c 43F40063 		orr	r3, r3, #2048
 462 0090 FB60     		str	r3, [r7, #12]
 463              	.L19:
1260:../Dave/Generated/src/USBLD001/driver/dwc_otg_cil.h **** 		}
1261:../Dave/Generated/src/USBLD001/driver/dwc_otg_cil.h **** 		v = DWC_READ_REG32(&dev_if->
1262:../Dave/Generated/src/USBLD001/driver/dwc_otg_cil.h **** 				   out_ep_regs[_ep->num]->doepint) & msk.d32;
 464              		.loc 1 1262 0
 465 0092 3B68     		ldr	r3, [r7, #0]
 466 0094 1B78     		ldrb	r3, [r3, #0]	@ zero_extendqisi2
1261:../Dave/Generated/src/USBLD001/driver/dwc_otg_cil.h **** 		v = DWC_READ_REG32(&dev_if->
 467              		.loc 1 1261 0
 468 0096 3A69     		ldr	r2, [r7, #16]
 469              		.loc 1 1262 0
 470 0098 03F10803 		add	r3, r3, #8
 471 009c 4FEA8303 		lsl	r3, r3, #2
 472 00a0 D318     		adds	r3, r2, r3
 473 00a2 5B68     		ldr	r3, [r3, #4]
1261:../Dave/Generated/src/USBLD001/driver/dwc_otg_cil.h **** 		v = DWC_READ_REG32(&dev_if->
 474              		.loc 1 1261 0
 475 00a4 03F10803 		add	r3, r3, #8
 476 00a8 1846     		mov	r0, r3
 477 00aa FFF7FEFF 		bl	DWC_READ_REG32
 478 00ae 0246     		mov	r2, r0
 479              		.loc 1 1262 0
 480 00b0 FB68     		ldr	r3, [r7, #12]
1261:../Dave/Generated/src/USBLD001/driver/dwc_otg_cil.h **** 		v = DWC_READ_REG32(&dev_if->
 481              		.loc 1 1261 0
 482 00b2 1340     		ands	r3, r3, r2
 483 00b4 7B61     		str	r3, [r7, #20]
 484              	.L18:
1263:../Dave/Generated/src/USBLD001/driver/dwc_otg_cil.h **** 	}
1264:../Dave/Generated/src/USBLD001/driver/dwc_otg_cil.h **** 	return v;
 485              		.loc 1 1264 0
 486 00b6 7B69     		ldr	r3, [r7, #20]
1265:../Dave/Generated/src/USBLD001/driver/dwc_otg_cil.h **** }
 487              		.loc 1 1265 0
 488 00b8 1846     		mov	r0, r3
 489 00ba 07F11807 		add	r7, r7, #24
 490 00be BD46     		mov	sp, r7
 491 00c0 80BD     		pop	{r7, pc}
 492              		.cfi_endproc
 493              	.LFE7:
 495 00c2 00BF     		.section	.text.dwc_otg_pcd_update_otg,"ax",%progbits
 496              		.align	2
 497              		.thumb
 498              		.thumb_func
 500              	dwc_otg_pcd_update_otg:
 501              	.LFB20:
 502              		.file 2 "../Dave/Generated/src/USBLD001/driver/dwc_otg_pcd_intr.c"
   1:../Dave/Generated/src/USBLD001/driver/dwc_otg_pcd_intr.c **** /* ==========================================================================
   2:../Dave/Generated/src/USBLD001/driver/dwc_otg_pcd_intr.c ****  * $File: //dwh/usb_iip/dev/software/otg/linux/drivers/dwc_otg_pcd_intr.c $
   3:../Dave/Generated/src/USBLD001/driver/dwc_otg_pcd_intr.c ****  * $Revision: #105 $
   4:../Dave/Generated/src/USBLD001/driver/dwc_otg_pcd_intr.c ****  * $Date: 2010/11/29 $
   5:../Dave/Generated/src/USBLD001/driver/dwc_otg_pcd_intr.c ****  * $Change: 1636033 $
   6:../Dave/Generated/src/USBLD001/driver/dwc_otg_pcd_intr.c ****  *
   7:../Dave/Generated/src/USBLD001/driver/dwc_otg_pcd_intr.c ****  * Synopsys HS OTG Linux Software Driver and documentation (hereinafter,
   8:../Dave/Generated/src/USBLD001/driver/dwc_otg_pcd_intr.c ****  * "Software") is an Unsupported proprietary work of Synopsys, Inc. unless
   9:../Dave/Generated/src/USBLD001/driver/dwc_otg_pcd_intr.c ****  * otherwise expressly agreed to in writing between Synopsys and you.
  10:../Dave/Generated/src/USBLD001/driver/dwc_otg_pcd_intr.c ****  *
  11:../Dave/Generated/src/USBLD001/driver/dwc_otg_pcd_intr.c ****  * The Software IS NOT an item of Licensed Software or Licensed Product under
  12:../Dave/Generated/src/USBLD001/driver/dwc_otg_pcd_intr.c ****  * any End User Software License Agreement or Agreement for Licensed Product
  13:../Dave/Generated/src/USBLD001/driver/dwc_otg_pcd_intr.c ****  * with Synopsys or any supplement thereto. You are permitted to use and
  14:../Dave/Generated/src/USBLD001/driver/dwc_otg_pcd_intr.c ****  * redistribute this Software in source and binary forms, with or without
  15:../Dave/Generated/src/USBLD001/driver/dwc_otg_pcd_intr.c ****  * modification, provided that redistributions of source code must retain this
  16:../Dave/Generated/src/USBLD001/driver/dwc_otg_pcd_intr.c ****  * notice. You may not view, use, disclose, copy or distribute this file or
  17:../Dave/Generated/src/USBLD001/driver/dwc_otg_pcd_intr.c ****  * any information contained herein except pursuant to this license grant from
  18:../Dave/Generated/src/USBLD001/driver/dwc_otg_pcd_intr.c ****  * Synopsys. If you do not agree with this notice, including the disclaimer
  19:../Dave/Generated/src/USBLD001/driver/dwc_otg_pcd_intr.c ****  * below, then you are not authorized to use the Software.
  20:../Dave/Generated/src/USBLD001/driver/dwc_otg_pcd_intr.c ****  *
  21:../Dave/Generated/src/USBLD001/driver/dwc_otg_pcd_intr.c ****  * THIS SOFTWARE IS BEING DISTRIBUTED BY SYNOPSYS SOLELY ON AN "AS IS" BASIS
  22:../Dave/Generated/src/USBLD001/driver/dwc_otg_pcd_intr.c ****  * AND ANY EXPRESS OR IMPLIED WARRANTIES, INCLUDING, BUT NOT LIMITED TO, THE
  23:../Dave/Generated/src/USBLD001/driver/dwc_otg_pcd_intr.c ****  * IMPLIED WARRANTIES OF MERCHANTABILITY AND FITNESS FOR A PARTICULAR PURPOSE
  24:../Dave/Generated/src/USBLD001/driver/dwc_otg_pcd_intr.c ****  * ARE HEREBY DISCLAIMED. IN NO EVENT SHALL SYNOPSYS BE LIABLE FOR ANY DIRECT,
  25:../Dave/Generated/src/USBLD001/driver/dwc_otg_pcd_intr.c ****  * INDIRECT, INCIDENTAL, SPECIAL, EXEMPLARY, OR CONSEQUENTIAL DAMAGES
  26:../Dave/Generated/src/USBLD001/driver/dwc_otg_pcd_intr.c ****  * (INCLUDING, BUT NOT LIMITED TO, PROCUREMENT OF SUBSTITUTE GOODS OR
  27:../Dave/Generated/src/USBLD001/driver/dwc_otg_pcd_intr.c ****  * SERVICES; LOSS OF USE, DATA, OR PROFITS; OR BUSINESS INTERRUPTION) HOWEVER
  28:../Dave/Generated/src/USBLD001/driver/dwc_otg_pcd_intr.c ****  * CAUSED AND ON ANY THEORY OF LIABILITY, WHETHER IN CONTRACT, STRICT
  29:../Dave/Generated/src/USBLD001/driver/dwc_otg_pcd_intr.c ****  * LIABILITY, OR TORT (INCLUDING NEGLIGENCE OR OTHERWISE) ARISING IN ANY WAY
  30:../Dave/Generated/src/USBLD001/driver/dwc_otg_pcd_intr.c ****  * OUT OF THE USE OF THIS SOFTWARE, EVEN IF ADVISED OF THE POSSIBILITY OF SUCH
  31:../Dave/Generated/src/USBLD001/driver/dwc_otg_pcd_intr.c ****  * DAMAGE.
  32:../Dave/Generated/src/USBLD001/driver/dwc_otg_pcd_intr.c ****  * ========================================================================== */
  33:../Dave/Generated/src/USBLD001/driver/dwc_otg_pcd_intr.c **** 
  34:../Dave/Generated/src/USBLD001/driver/dwc_otg_pcd_intr.c **** /*******************************************************************************
  35:../Dave/Generated/src/USBLD001/driver/dwc_otg_pcd_intr.c ****  Copyright (c) 2011, Infineon Technologies AG                                 **
  36:../Dave/Generated/src/USBLD001/driver/dwc_otg_pcd_intr.c ****  All rights reserved.                                                         **
  37:../Dave/Generated/src/USBLD001/driver/dwc_otg_pcd_intr.c ****                                                                               **
  38:../Dave/Generated/src/USBLD001/driver/dwc_otg_pcd_intr.c ****  Redistribution and use in source and binary forms, with or without           **
  39:../Dave/Generated/src/USBLD001/driver/dwc_otg_pcd_intr.c ****  modification,are permitted provided that the following conditions are met:   **
  40:../Dave/Generated/src/USBLD001/driver/dwc_otg_pcd_intr.c ****                                                                               **
  41:../Dave/Generated/src/USBLD001/driver/dwc_otg_pcd_intr.c ****  *Redistributions of source code must retain the above copyright notice,      **
  42:../Dave/Generated/src/USBLD001/driver/dwc_otg_pcd_intr.c ****  this list of conditions and the following disclaimer.                        **
  43:../Dave/Generated/src/USBLD001/driver/dwc_otg_pcd_intr.c ****  *Redistributions in binary form must reproduce the above copyright notice,   **
  44:../Dave/Generated/src/USBLD001/driver/dwc_otg_pcd_intr.c ****  this list of conditions and the following disclaimer in the documentation    **
  45:../Dave/Generated/src/USBLD001/driver/dwc_otg_pcd_intr.c ****  and/or other materials provided with the distribution.                       **
  46:../Dave/Generated/src/USBLD001/driver/dwc_otg_pcd_intr.c ****  *Neither the name of the copyright holders nor the names of its contributors **
  47:../Dave/Generated/src/USBLD001/driver/dwc_otg_pcd_intr.c ****  may be used to endorse or promote products derived from this software without**
  48:../Dave/Generated/src/USBLD001/driver/dwc_otg_pcd_intr.c ****  specific prior written permission.                                           **
  49:../Dave/Generated/src/USBLD001/driver/dwc_otg_pcd_intr.c ****                                                                               **
  50:../Dave/Generated/src/USBLD001/driver/dwc_otg_pcd_intr.c ****  THIS SOFTWARE IS PROVIDED BY THE COPYRIGHT HOLDERS AND CONTRIBUTORS "AS IS"  **
  51:../Dave/Generated/src/USBLD001/driver/dwc_otg_pcd_intr.c ****  AND ANY EXPRESS OR IMPLIED WARRANTIES, INCLUDING, BUT NOT LIMITED TO, THE    **
  52:../Dave/Generated/src/USBLD001/driver/dwc_otg_pcd_intr.c ****  IMPLIED WARRANTIES OF MERCHANTABILITY AND FITNESS FOR A PARTICULAR PURPOSE   **
  53:../Dave/Generated/src/USBLD001/driver/dwc_otg_pcd_intr.c ****  ARE  DISCLAIMED. IN NO EVENT SHALL THE COPYRIGHT HOLDER OR CONTRIBUTORS BE   **
  54:../Dave/Generated/src/USBLD001/driver/dwc_otg_pcd_intr.c ****  LIABLE  FOR ANY DIRECT, INDIRECT, INCIDENTAL, SPECIAL, EXEMPLARY, OR         **
  55:../Dave/Generated/src/USBLD001/driver/dwc_otg_pcd_intr.c ****  CONSEQUENTIAL DAMAGES (INCLUDING, BUT NOT LIMITED TO, PROCUREMENT OF         **
  56:../Dave/Generated/src/USBLD001/driver/dwc_otg_pcd_intr.c ****  SUBSTITUTE GOODS OR  SERVICES; LOSS OF USE, DATA, OR PROFITS; OR BUSINESS    **
  57:../Dave/Generated/src/USBLD001/driver/dwc_otg_pcd_intr.c ****  INTERRUPTION) HOWEVER CAUSED AND ON ANY THEORY OF LIABILITY, WHETHER IN      **
  58:../Dave/Generated/src/USBLD001/driver/dwc_otg_pcd_intr.c ****  CONTRACT, STRICT LIABILITY,OR TORT (INCLUDING NEGLIGENCE OR OTHERWISE)       **
  59:../Dave/Generated/src/USBLD001/driver/dwc_otg_pcd_intr.c ****  ARISING IN ANY WAY OUT OF THE USE OF THIS SOFTWARE, EVEN IF ADVISED OF THE   **
  60:../Dave/Generated/src/USBLD001/driver/dwc_otg_pcd_intr.c ****  POSSIBILITY OF SUCH DAMAGE.                                                  **
  61:../Dave/Generated/src/USBLD001/driver/dwc_otg_pcd_intr.c ****                                                                               **
  62:../Dave/Generated/src/USBLD001/driver/dwc_otg_pcd_intr.c ****  To improve the quality of the software, users are encouraged to share        **
  63:../Dave/Generated/src/USBLD001/driver/dwc_otg_pcd_intr.c ****  modifications, enhancements or bug fixes with Infineon Technologies AG       **
  64:../Dave/Generated/src/USBLD001/driver/dwc_otg_pcd_intr.c ****  dave@infineon.com).                                                          **
  65:../Dave/Generated/src/USBLD001/driver/dwc_otg_pcd_intr.c ****                                                                               **
  66:../Dave/Generated/src/USBLD001/driver/dwc_otg_pcd_intr.c **** ********************************************************************************
  67:../Dave/Generated/src/USBLD001/driver/dwc_otg_pcd_intr.c **** **                                                                            **
  68:../Dave/Generated/src/USBLD001/driver/dwc_otg_pcd_intr.c **** **                                                                            **
  69:../Dave/Generated/src/USBLD001/driver/dwc_otg_pcd_intr.c **** ** PLATFORM : Infineon XMC4000 Series                                         **
  70:../Dave/Generated/src/USBLD001/driver/dwc_otg_pcd_intr.c **** **                                                                            **
  71:../Dave/Generated/src/USBLD001/driver/dwc_otg_pcd_intr.c **** ** COMPILER : Compiler Independent                                            **
  72:../Dave/Generated/src/USBLD001/driver/dwc_otg_pcd_intr.c **** **                                                                            **
  73:../Dave/Generated/src/USBLD001/driver/dwc_otg_pcd_intr.c **** ** AUTHOR : App Developer                                                     **
  74:../Dave/Generated/src/USBLD001/driver/dwc_otg_pcd_intr.c **** **                                                                            **
  75:../Dave/Generated/src/USBLD001/driver/dwc_otg_pcd_intr.c **** ** MAY BE CHANGED BY USER [yes/no]: Yes                                       **
  76:../Dave/Generated/src/USBLD001/driver/dwc_otg_pcd_intr.c **** **                                                                            **
  77:../Dave/Generated/src/USBLD001/driver/dwc_otg_pcd_intr.c **** ** MODIFICATION DATE : Dec 4, 2012                                            **
  78:../Dave/Generated/src/USBLD001/driver/dwc_otg_pcd_intr.c **** **                                                                            **
  79:../Dave/Generated/src/USBLD001/driver/dwc_otg_pcd_intr.c **** *******************************************************************************/
  80:../Dave/Generated/src/USBLD001/driver/dwc_otg_pcd_intr.c **** 
  81:../Dave/Generated/src/USBLD001/driver/dwc_otg_pcd_intr.c **** /*******************************************************************************
  82:../Dave/Generated/src/USBLD001/driver/dwc_otg_pcd_intr.c **** **                       Author(s) Identity                                   **
  83:../Dave/Generated/src/USBLD001/driver/dwc_otg_pcd_intr.c **** ********************************************************************************
  84:../Dave/Generated/src/USBLD001/driver/dwc_otg_pcd_intr.c **** **                                                                            **
  85:../Dave/Generated/src/USBLD001/driver/dwc_otg_pcd_intr.c **** ** Initials    Name                                                           **
  86:../Dave/Generated/src/USBLD001/driver/dwc_otg_pcd_intr.c **** ** ---------------------------------------------------------------------------**
  87:../Dave/Generated/src/USBLD001/driver/dwc_otg_pcd_intr.c **** ** CM          App Developer                                                  **
  88:../Dave/Generated/src/USBLD001/driver/dwc_otg_pcd_intr.c **** *******************************************************************************/
  89:../Dave/Generated/src/USBLD001/driver/dwc_otg_pcd_intr.c **** 
  90:../Dave/Generated/src/USBLD001/driver/dwc_otg_pcd_intr.c **** 
  91:../Dave/Generated/src/USBLD001/driver/dwc_otg_pcd_intr.c **** 
  92:../Dave/Generated/src/USBLD001/driver/dwc_otg_pcd_intr.c **** #include "../type_CM.h"
  93:../Dave/Generated/src/USBLD001/driver/dwc_otg_pcd_intr.c **** #ifndef DWC_HOST_ONLY
  94:../Dave/Generated/src/USBLD001/driver/dwc_otg_pcd_intr.c **** //#include "ch9.h"
  95:../Dave/Generated/src/USBLD001/driver/dwc_otg_pcd_intr.c **** #include "dwc_otg_pcd.h"
  96:../Dave/Generated/src/USBLD001/driver/dwc_otg_pcd_intr.c **** 
  97:../Dave/Generated/src/USBLD001/driver/dwc_otg_pcd_intr.c **** #ifdef DWC_UTE_CFI
  98:../Dave/Generated/src/USBLD001/driver/dwc_otg_pcd_intr.c **** #include "dwc_otg_cfi.h"
  99:../Dave/Generated/src/USBLD001/driver/dwc_otg_pcd_intr.c **** #endif
 100:../Dave/Generated/src/USBLD001/driver/dwc_otg_pcd_intr.c **** 
 101:../Dave/Generated/src/USBLD001/driver/dwc_otg_pcd_intr.c **** #ifdef DWC_UTE_PER_IO
 102:../Dave/Generated/src/USBLD001/driver/dwc_otg_pcd_intr.c **** extern void complete_xiso_ep(dwc_otg_pcd_ep_t * ep);
 103:../Dave/Generated/src/USBLD001/driver/dwc_otg_pcd_intr.c **** #endif
 104:../Dave/Generated/src/USBLD001/driver/dwc_otg_pcd_intr.c **** //#define PRINT_CFI_DMA_DESCS
 105:../Dave/Generated/src/USBLD001/driver/dwc_otg_pcd_intr.c **** 
 106:../Dave/Generated/src/USBLD001/driver/dwc_otg_pcd_intr.c **** #define DEBUG_EP0
 107:../Dave/Generated/src/USBLD001/driver/dwc_otg_pcd_intr.c **** 
 108:../Dave/Generated/src/USBLD001/driver/dwc_otg_pcd_intr.c **** /**
 109:../Dave/Generated/src/USBLD001/driver/dwc_otg_pcd_intr.c ****  * This function updates OTG.
 110:../Dave/Generated/src/USBLD001/driver/dwc_otg_pcd_intr.c ****  */
 111:../Dave/Generated/src/USBLD001/driver/dwc_otg_pcd_intr.c **** static void dwc_otg_pcd_update_otg(dwc_otg_pcd_t * pcd, const unsigned reset)
 112:../Dave/Generated/src/USBLD001/driver/dwc_otg_pcd_intr.c **** {
 503              		.loc 2 112 0
 504              		.cfi_startproc
 505              		@ args = 0, pretend = 0, frame = 8
 506              		@ frame_needed = 1, uses_anonymous_args = 0
 507 0000 80B5     		push	{r7, lr}
 508              	.LCFI15:
 509              		.cfi_def_cfa_offset 8
 510              		.cfi_offset 7, -8
 511              		.cfi_offset 14, -4
 512 0002 82B0     		sub	sp, sp, #8
 513              	.LCFI16:
 514              		.cfi_def_cfa_offset 16
 515 0004 00AF     		add	r7, sp, #0
 516              	.LCFI17:
 517              		.cfi_def_cfa_register 7
 518 0006 7860     		str	r0, [r7, #4]
 519 0008 3960     		str	r1, [r7, #0]
 113:../Dave/Generated/src/USBLD001/driver/dwc_otg_pcd_intr.c **** 
 114:../Dave/Generated/src/USBLD001/driver/dwc_otg_pcd_intr.c **** 	if (reset) {
 520              		.loc 2 114 0
 521 000a 3B68     		ldr	r3, [r7, #0]
 522 000c 002B     		cmp	r3, #0
 523 000e 0ED0     		beq	.L22
 115:../Dave/Generated/src/USBLD001/driver/dwc_otg_pcd_intr.c **** 		pcd->b_hnp_enable = 0;
 524              		.loc 2 115 0
 525 0010 7A68     		ldr	r2, [r7, #4]
 526 0012 537B     		ldrb	r3, [r2, #13]
 527 0014 6FF3C303 		bfc	r3, #3, #1
 528 0018 5373     		strb	r3, [r2, #13]
 116:../Dave/Generated/src/USBLD001/driver/dwc_otg_pcd_intr.c **** 		pcd->a_hnp_support = 0;
 529              		.loc 2 116 0
 530 001a 7A68     		ldr	r2, [r7, #4]
 531 001c 537B     		ldrb	r3, [r2, #13]
 532 001e 6FF30413 		bfc	r3, #4, #1
 533 0022 5373     		strb	r3, [r2, #13]
 117:../Dave/Generated/src/USBLD001/driver/dwc_otg_pcd_intr.c **** 		pcd->a_alt_hnp_support = 0;
 534              		.loc 2 117 0
 535 0024 7A68     		ldr	r2, [r7, #4]
 536 0026 537B     		ldrb	r3, [r2, #13]
 537 0028 6FF34513 		bfc	r3, #5, #1
 538 002c 5373     		strb	r3, [r2, #13]
 539              	.L22:
 118:../Dave/Generated/src/USBLD001/driver/dwc_otg_pcd_intr.c **** 	}
 119:../Dave/Generated/src/USBLD001/driver/dwc_otg_pcd_intr.c **** 
 120:../Dave/Generated/src/USBLD001/driver/dwc_otg_pcd_intr.c **** 	if (pcd->fops->hnp_changed) {
 540              		.loc 2 120 0
 541 002e 7B68     		ldr	r3, [r7, #4]
 542 0030 1B68     		ldr	r3, [r3, #0]
 543 0032 5B6A     		ldr	r3, [r3, #36]
 544 0034 002B     		cmp	r3, #0
 545 0036 04D0     		beq	.L21
 121:../Dave/Generated/src/USBLD001/driver/dwc_otg_pcd_intr.c **** 		pcd->fops->hnp_changed(pcd);
 546              		.loc 2 121 0
 547 0038 7B68     		ldr	r3, [r7, #4]
 548 003a 1B68     		ldr	r3, [r3, #0]
 549 003c 5B6A     		ldr	r3, [r3, #36]
 550 003e 7868     		ldr	r0, [r7, #4]
 551 0040 9847     		blx	r3
 552              	.L21:
 122:../Dave/Generated/src/USBLD001/driver/dwc_otg_pcd_intr.c **** 	}
 123:../Dave/Generated/src/USBLD001/driver/dwc_otg_pcd_intr.c **** }
 553              		.loc 2 123 0
 554 0042 07F10807 		add	r7, r7, #8
 555 0046 BD46     		mov	sp, r7
 556 0048 80BD     		pop	{r7, pc}
 557              		.cfi_endproc
 558              	.LFE20:
 560 004a 00BF     		.section	.text.print_ep0_state,"ax",%progbits
 561              		.align	2
 562              		.thumb
 563              		.thumb_func
 565              	print_ep0_state:
 566              	.LFB21:
 124:../Dave/Generated/src/USBLD001/driver/dwc_otg_pcd_intr.c **** 
 125:../Dave/Generated/src/USBLD001/driver/dwc_otg_pcd_intr.c **** /** @file
 126:../Dave/Generated/src/USBLD001/driver/dwc_otg_pcd_intr.c ****  * This file contains the implementation of the PCD Interrupt handlers.
 127:../Dave/Generated/src/USBLD001/driver/dwc_otg_pcd_intr.c ****  *
 128:../Dave/Generated/src/USBLD001/driver/dwc_otg_pcd_intr.c ****  * The PCD handles the device interrupts.  Many conditions can cause a
 129:../Dave/Generated/src/USBLD001/driver/dwc_otg_pcd_intr.c ****  * device interrupt. When an interrupt occurs, the device interrupt
 130:../Dave/Generated/src/USBLD001/driver/dwc_otg_pcd_intr.c ****  * service routine determines the cause of the interrupt and
 131:../Dave/Generated/src/USBLD001/driver/dwc_otg_pcd_intr.c ****  * dispatches handling to the appropriate function. These interrupt
 132:../Dave/Generated/src/USBLD001/driver/dwc_otg_pcd_intr.c ****  * handling functions are described below.
 133:../Dave/Generated/src/USBLD001/driver/dwc_otg_pcd_intr.c ****  * All interrupt registers are processed from LSB to MSB.
 134:../Dave/Generated/src/USBLD001/driver/dwc_otg_pcd_intr.c ****  */
 135:../Dave/Generated/src/USBLD001/driver/dwc_otg_pcd_intr.c **** 
 136:../Dave/Generated/src/USBLD001/driver/dwc_otg_pcd_intr.c **** /**
 137:../Dave/Generated/src/USBLD001/driver/dwc_otg_pcd_intr.c ****  * This function prints the ep0 state for debug purposes.
 138:../Dave/Generated/src/USBLD001/driver/dwc_otg_pcd_intr.c ****  */
 139:../Dave/Generated/src/USBLD001/driver/dwc_otg_pcd_intr.c **** static inline void print_ep0_state(dwc_otg_pcd_t * pcd)
 140:../Dave/Generated/src/USBLD001/driver/dwc_otg_pcd_intr.c **** {
 567              		.loc 2 140 0
 568              		.cfi_startproc
 569              		@ args = 0, pretend = 0, frame = 8
 570              		@ frame_needed = 1, uses_anonymous_args = 0
 571              		@ link register save eliminated.
 572 0000 80B4     		push	{r7}
 573              	.LCFI18:
 574              		.cfi_def_cfa_offset 4
 575              		.cfi_offset 7, -4
 576 0002 83B0     		sub	sp, sp, #12
 577              	.LCFI19:
 578              		.cfi_def_cfa_offset 16
 579 0004 00AF     		add	r7, sp, #0
 580              	.LCFI20:
 581              		.cfi_def_cfa_register 7
 582 0006 7860     		str	r0, [r7, #4]
 141:../Dave/Generated/src/USBLD001/driver/dwc_otg_pcd_intr.c **** #ifdef DEBUG
 142:../Dave/Generated/src/USBLD001/driver/dwc_otg_pcd_intr.c **** 	char str[40];
 143:../Dave/Generated/src/USBLD001/driver/dwc_otg_pcd_intr.c **** 
 144:../Dave/Generated/src/USBLD001/driver/dwc_otg_pcd_intr.c **** 	switch (pcd->ep0state) {
 145:../Dave/Generated/src/USBLD001/driver/dwc_otg_pcd_intr.c **** 	case EP0_DISCONNECT:
 146:../Dave/Generated/src/USBLD001/driver/dwc_otg_pcd_intr.c **** 		dwc_strcpy(str, "EP0_DISCONNECT");
 147:../Dave/Generated/src/USBLD001/driver/dwc_otg_pcd_intr.c **** 		break;
 148:../Dave/Generated/src/USBLD001/driver/dwc_otg_pcd_intr.c **** 	case EP0_IDLE:
 149:../Dave/Generated/src/USBLD001/driver/dwc_otg_pcd_intr.c **** 		dwc_strcpy(str, "EP0_IDLE");
 150:../Dave/Generated/src/USBLD001/driver/dwc_otg_pcd_intr.c **** 		break;
 151:../Dave/Generated/src/USBLD001/driver/dwc_otg_pcd_intr.c **** 	case EP0_IN_DATA_PHASE:
 152:../Dave/Generated/src/USBLD001/driver/dwc_otg_pcd_intr.c **** 		dwc_strcpy(str, "EP0_IN_DATA_PHASE");
 153:../Dave/Generated/src/USBLD001/driver/dwc_otg_pcd_intr.c **** 		break;
 154:../Dave/Generated/src/USBLD001/driver/dwc_otg_pcd_intr.c **** 	case EP0_OUT_DATA_PHASE:
 155:../Dave/Generated/src/USBLD001/driver/dwc_otg_pcd_intr.c **** 		dwc_strcpy(str, "EP0_OUT_DATA_PHASE");
 156:../Dave/Generated/src/USBLD001/driver/dwc_otg_pcd_intr.c **** 		break;
 157:../Dave/Generated/src/USBLD001/driver/dwc_otg_pcd_intr.c **** 	case EP0_IN_STATUS_PHASE:
 158:../Dave/Generated/src/USBLD001/driver/dwc_otg_pcd_intr.c **** 		dwc_strcpy(str, "EP0_IN_STATUS_PHASE");
 159:../Dave/Generated/src/USBLD001/driver/dwc_otg_pcd_intr.c **** 		break;
 160:../Dave/Generated/src/USBLD001/driver/dwc_otg_pcd_intr.c **** 	case EP0_OUT_STATUS_PHASE:
 161:../Dave/Generated/src/USBLD001/driver/dwc_otg_pcd_intr.c **** 		dwc_strcpy(str, "EP0_OUT_STATUS_PHASE");
 162:../Dave/Generated/src/USBLD001/driver/dwc_otg_pcd_intr.c **** 		break;
 163:../Dave/Generated/src/USBLD001/driver/dwc_otg_pcd_intr.c **** 	case EP0_STALL:
 164:../Dave/Generated/src/USBLD001/driver/dwc_otg_pcd_intr.c **** 		dwc_strcpy(str, "EP0_STALL");
 165:../Dave/Generated/src/USBLD001/driver/dwc_otg_pcd_intr.c **** 		break;
 166:../Dave/Generated/src/USBLD001/driver/dwc_otg_pcd_intr.c **** 	default:
 167:../Dave/Generated/src/USBLD001/driver/dwc_otg_pcd_intr.c **** 		dwc_strcpy(str, "EP0_INVALID");
 168:../Dave/Generated/src/USBLD001/driver/dwc_otg_pcd_intr.c **** 	}
 169:../Dave/Generated/src/USBLD001/driver/dwc_otg_pcd_intr.c **** 
 170:../Dave/Generated/src/USBLD001/driver/dwc_otg_pcd_intr.c **** 	DWC_DEBUGPL(DBG_ANY, "%s(%d)\n", str, pcd->ep0state);
 171:../Dave/Generated/src/USBLD001/driver/dwc_otg_pcd_intr.c **** #endif
 172:../Dave/Generated/src/USBLD001/driver/dwc_otg_pcd_intr.c **** }
 583              		.loc 2 172 0
 584 0008 07F10C07 		add	r7, r7, #12
 585 000c BD46     		mov	sp, r7
 586 000e 80BC     		pop	{r7}
 587 0010 7047     		bx	lr
 588              		.cfi_endproc
 589              	.LFE21:
 591 0012 00BF     		.section	.text.get_in_ep,"ax",%progbits
 592              		.align	2
 593              		.thumb
 594              		.thumb_func
 596              	get_in_ep:
 597              	.LFB22:
 173:../Dave/Generated/src/USBLD001/driver/dwc_otg_pcd_intr.c **** 
 174:../Dave/Generated/src/USBLD001/driver/dwc_otg_pcd_intr.c **** #ifdef DWC_UTE_CFI
 175:../Dave/Generated/src/USBLD001/driver/dwc_otg_pcd_intr.c **** static inline void print_desc(struct dwc_otg_dma_desc *ddesc,
 176:../Dave/Generated/src/USBLD001/driver/dwc_otg_pcd_intr.c **** 			      const uint8_t * epname, int descnum)
 177:../Dave/Generated/src/USBLD001/driver/dwc_otg_pcd_intr.c **** {
 178:../Dave/Generated/src/USBLD001/driver/dwc_otg_pcd_intr.c **** 	CFI_INFO
 179:../Dave/Generated/src/USBLD001/driver/dwc_otg_pcd_intr.c **** 	    ("%s DMA_DESC(%d) buf=0x%08x bytes=0x%04x; sp=0x%x; l=0x%x; sts=0x%02x; bs=0x%02x\n",
 180:../Dave/Generated/src/USBLD001/driver/dwc_otg_pcd_intr.c **** 	     epname, descnum, ddesc->buf, ddesc->status.b.bytes,
 181:../Dave/Generated/src/USBLD001/driver/dwc_otg_pcd_intr.c **** 	     ddesc->status.b.sp, ddesc->status.b.l, ddesc->status.b.sts,
 182:../Dave/Generated/src/USBLD001/driver/dwc_otg_pcd_intr.c **** 	     ddesc->status.b.bs);
 183:../Dave/Generated/src/USBLD001/driver/dwc_otg_pcd_intr.c **** }
 184:../Dave/Generated/src/USBLD001/driver/dwc_otg_pcd_intr.c **** #endif
 185:../Dave/Generated/src/USBLD001/driver/dwc_otg_pcd_intr.c **** 
 186:../Dave/Generated/src/USBLD001/driver/dwc_otg_pcd_intr.c **** /**
 187:../Dave/Generated/src/USBLD001/driver/dwc_otg_pcd_intr.c ****  * This function returns pointer to in ep struct with number ep_num
 188:../Dave/Generated/src/USBLD001/driver/dwc_otg_pcd_intr.c ****  */
 189:../Dave/Generated/src/USBLD001/driver/dwc_otg_pcd_intr.c **** static inline dwc_otg_pcd_ep_t *get_in_ep(dwc_otg_pcd_t * pcd, uint32_t ep_num)
 190:../Dave/Generated/src/USBLD001/driver/dwc_otg_pcd_intr.c **** {
 598              		.loc 2 190 0
 599              		.cfi_startproc
 600              		@ args = 0, pretend = 0, frame = 16
 601              		@ frame_needed = 1, uses_anonymous_args = 0
 602              		@ link register save eliminated.
 603 0000 80B4     		push	{r7}
 604              	.LCFI21:
 605              		.cfi_def_cfa_offset 4
 606              		.cfi_offset 7, -4
 607 0002 85B0     		sub	sp, sp, #20
 608              	.LCFI22:
 609              		.cfi_def_cfa_offset 24
 610 0004 00AF     		add	r7, sp, #0
 611              	.LCFI23:
 612              		.cfi_def_cfa_register 7
 613 0006 7860     		str	r0, [r7, #4]
 614 0008 3960     		str	r1, [r7, #0]
 191:../Dave/Generated/src/USBLD001/driver/dwc_otg_pcd_intr.c **** 	int i;
 192:../Dave/Generated/src/USBLD001/driver/dwc_otg_pcd_intr.c **** 	int num_in_eps = GET_CORE_IF(pcd)->dev_if->num_in_eps;
 615              		.loc 2 192 0
 616 000a 7B68     		ldr	r3, [r7, #4]
 617 000c 9B68     		ldr	r3, [r3, #8]
 618 000e 9B68     		ldr	r3, [r3, #8]
 619 0010 93F84530 		ldrb	r3, [r3, #69]	@ zero_extendqisi2
 620 0014 BB60     		str	r3, [r7, #8]
 193:../Dave/Generated/src/USBLD001/driver/dwc_otg_pcd_intr.c **** 	if (ep_num == 0) {
 621              		.loc 2 193 0
 622 0016 3B68     		ldr	r3, [r7, #0]
 623 0018 002B     		cmp	r3, #0
 624 001a 03D1     		bne	.L26
 194:../Dave/Generated/src/USBLD001/driver/dwc_otg_pcd_intr.c **** 		return &pcd->ep0;
 625              		.loc 2 194 0
 626 001c 7B68     		ldr	r3, [r7, #4]
 627 001e 03F12403 		add	r3, r3, #36
 628 0022 29E0     		b	.L27
 629              	.L26:
 195:../Dave/Generated/src/USBLD001/driver/dwc_otg_pcd_intr.c **** 	} else {
 196:../Dave/Generated/src/USBLD001/driver/dwc_otg_pcd_intr.c **** 		for (i = 0; i < num_in_eps; ++i) {
 630              		.loc 2 196 0
 631 0024 4FF00003 		mov	r3, #0
 632 0028 FB60     		str	r3, [r7, #12]
 633 002a 1FE0     		b	.L28
 634              	.L30:
 197:../Dave/Generated/src/USBLD001/driver/dwc_otg_pcd_intr.c **** 			if (pcd->in_ep[i].dwc_ep.num == ep_num)
 635              		.loc 2 197 0
 636 002c 7968     		ldr	r1, [r7, #4]
 637 002e FA68     		ldr	r2, [r7, #12]
 638 0030 1346     		mov	r3, r2
 639 0032 4FEA0313 		lsl	r3, r3, #4
 640 0036 9B18     		adds	r3, r3, r2
 641 0038 4FEA8303 		lsl	r3, r3, #2
 642 003c CB18     		adds	r3, r1, r3
 643 003e 03F17803 		add	r3, r3, #120
 644 0042 1B78     		ldrb	r3, [r3, #0]	@ zero_extendqisi2
 645 0044 1A46     		mov	r2, r3
 646 0046 3B68     		ldr	r3, [r7, #0]
 647 0048 9A42     		cmp	r2, r3
 648 004a 0BD1     		bne	.L29
 198:../Dave/Generated/src/USBLD001/driver/dwc_otg_pcd_intr.c **** 				return &pcd->in_ep[i];
 649              		.loc 2 198 0
 650 004c FA68     		ldr	r2, [r7, #12]
 651 004e 1346     		mov	r3, r2
 652 0050 4FEA0313 		lsl	r3, r3, #4
 653 0054 9B18     		adds	r3, r3, r2
 654 0056 4FEA8303 		lsl	r3, r3, #2
 655 005a 03F16803 		add	r3, r3, #104
 656 005e 7A68     		ldr	r2, [r7, #4]
 657 0060 D318     		adds	r3, r2, r3
 658 0062 09E0     		b	.L27
 659              	.L29:
 196:../Dave/Generated/src/USBLD001/driver/dwc_otg_pcd_intr.c **** 		for (i = 0; i < num_in_eps; ++i) {
 660              		.loc 2 196 0
 661 0064 FB68     		ldr	r3, [r7, #12]
 662 0066 03F10103 		add	r3, r3, #1
 663 006a FB60     		str	r3, [r7, #12]
 664              	.L28:
 196:../Dave/Generated/src/USBLD001/driver/dwc_otg_pcd_intr.c **** 		for (i = 0; i < num_in_eps; ++i) {
 665              		.loc 2 196 0 is_stmt 0 discriminator 1
 666 006c FA68     		ldr	r2, [r7, #12]
 667 006e BB68     		ldr	r3, [r7, #8]
 668 0070 9A42     		cmp	r2, r3
 669 0072 DBDB     		blt	.L30
 199:../Dave/Generated/src/USBLD001/driver/dwc_otg_pcd_intr.c **** 		}
 200:../Dave/Generated/src/USBLD001/driver/dwc_otg_pcd_intr.c **** 		return 0;
 670              		.loc 2 200 0 is_stmt 1
 671 0074 4FF00003 		mov	r3, #0
 672              	.L27:
 201:../Dave/Generated/src/USBLD001/driver/dwc_otg_pcd_intr.c **** 	}
 202:../Dave/Generated/src/USBLD001/driver/dwc_otg_pcd_intr.c **** }
 673              		.loc 2 202 0
 674 0078 1846     		mov	r0, r3
 675 007a 07F11407 		add	r7, r7, #20
 676 007e BD46     		mov	sp, r7
 677 0080 80BC     		pop	{r7}
 678 0082 7047     		bx	lr
 679              		.cfi_endproc
 680              	.LFE22:
 682              		.section	.text.get_out_ep,"ax",%progbits
 683              		.align	2
 684              		.thumb
 685              		.thumb_func
 687              	get_out_ep:
 688              	.LFB23:
 203:../Dave/Generated/src/USBLD001/driver/dwc_otg_pcd_intr.c **** 
 204:../Dave/Generated/src/USBLD001/driver/dwc_otg_pcd_intr.c **** /**
 205:../Dave/Generated/src/USBLD001/driver/dwc_otg_pcd_intr.c ****  * This function returns pointer to out ep struct with number ep_num
 206:../Dave/Generated/src/USBLD001/driver/dwc_otg_pcd_intr.c ****  */
 207:../Dave/Generated/src/USBLD001/driver/dwc_otg_pcd_intr.c **** static inline dwc_otg_pcd_ep_t *get_out_ep(dwc_otg_pcd_t * pcd, uint32_t ep_num)
 208:../Dave/Generated/src/USBLD001/driver/dwc_otg_pcd_intr.c **** {
 689              		.loc 2 208 0
 690              		.cfi_startproc
 691              		@ args = 0, pretend = 0, frame = 16
 692              		@ frame_needed = 1, uses_anonymous_args = 0
 693              		@ link register save eliminated.
 694 0000 80B4     		push	{r7}
 695              	.LCFI24:
 696              		.cfi_def_cfa_offset 4
 697              		.cfi_offset 7, -4
 698 0002 85B0     		sub	sp, sp, #20
 699              	.LCFI25:
 700              		.cfi_def_cfa_offset 24
 701 0004 00AF     		add	r7, sp, #0
 702              	.LCFI26:
 703              		.cfi_def_cfa_register 7
 704 0006 7860     		str	r0, [r7, #4]
 705 0008 3960     		str	r1, [r7, #0]
 209:../Dave/Generated/src/USBLD001/driver/dwc_otg_pcd_intr.c **** 	int i;
 210:../Dave/Generated/src/USBLD001/driver/dwc_otg_pcd_intr.c **** 	int num_out_eps = GET_CORE_IF(pcd)->dev_if->num_out_eps;
 706              		.loc 2 210 0
 707 000a 7B68     		ldr	r3, [r7, #4]
 708 000c 9B68     		ldr	r3, [r3, #8]
 709 000e 9B68     		ldr	r3, [r3, #8]
 710 0010 93F84630 		ldrb	r3, [r3, #70]	@ zero_extendqisi2
 711 0014 BB60     		str	r3, [r7, #8]
 211:../Dave/Generated/src/USBLD001/driver/dwc_otg_pcd_intr.c **** 	if (ep_num == 0) {
 712              		.loc 2 211 0
 713 0016 3B68     		ldr	r3, [r7, #0]
 714 0018 002B     		cmp	r3, #0
 715 001a 03D1     		bne	.L32
 212:../Dave/Generated/src/USBLD001/driver/dwc_otg_pcd_intr.c **** 		return &pcd->ep0;
 716              		.loc 2 212 0
 717 001c 7B68     		ldr	r3, [r7, #4]
 718 001e 03F12403 		add	r3, r3, #36
 719 0022 2BE0     		b	.L33
 720              	.L32:
 213:../Dave/Generated/src/USBLD001/driver/dwc_otg_pcd_intr.c **** 	} else {
 214:../Dave/Generated/src/USBLD001/driver/dwc_otg_pcd_intr.c **** 		for (i = 0; i < num_out_eps; ++i) {
 721              		.loc 2 214 0
 722 0024 4FF00003 		mov	r3, #0
 723 0028 FB60     		str	r3, [r7, #12]
 724 002a 21E0     		b	.L34
 725              	.L36:
 215:../Dave/Generated/src/USBLD001/driver/dwc_otg_pcd_intr.c **** 			if (pcd->out_ep[i].dwc_ep.num == ep_num)
 726              		.loc 2 215 0
 727 002c 7968     		ldr	r1, [r7, #4]
 728 002e FA68     		ldr	r2, [r7, #12]
 729 0030 1346     		mov	r3, r2
 730 0032 4FEA0313 		lsl	r3, r3, #4
 731 0036 9B18     		adds	r3, r3, r2
 732 0038 4FEA8303 		lsl	r3, r3, #2
 733 003c CB18     		adds	r3, r1, r3
 734 003e 03F51473 		add	r3, r3, #592
 735 0042 1B79     		ldrb	r3, [r3, #4]	@ zero_extendqisi2
 736 0044 1A46     		mov	r2, r3
 737 0046 3B68     		ldr	r3, [r7, #0]
 738 0048 9A42     		cmp	r2, r3
 739 004a 0DD1     		bne	.L35
 216:../Dave/Generated/src/USBLD001/driver/dwc_otg_pcd_intr.c **** 				return &pcd->out_ep[i];
 740              		.loc 2 216 0
 741 004c FA68     		ldr	r2, [r7, #12]
 742 004e 1346     		mov	r3, r2
 743 0050 4FEA0313 		lsl	r3, r3, #4
 744 0054 9B18     		adds	r3, r3, r2
 745 0056 4FEA8303 		lsl	r3, r3, #2
 746 005a 03F51073 		add	r3, r3, #576
 747 005e 7A68     		ldr	r2, [r7, #4]
 748 0060 D318     		adds	r3, r2, r3
 749 0062 03F10403 		add	r3, r3, #4
 750 0066 09E0     		b	.L33
 751              	.L35:
 214:../Dave/Generated/src/USBLD001/driver/dwc_otg_pcd_intr.c **** 		for (i = 0; i < num_out_eps; ++i) {
 752              		.loc 2 214 0
 753 0068 FB68     		ldr	r3, [r7, #12]
 754 006a 03F10103 		add	r3, r3, #1
 755 006e FB60     		str	r3, [r7, #12]
 756              	.L34:
 214:../Dave/Generated/src/USBLD001/driver/dwc_otg_pcd_intr.c **** 		for (i = 0; i < num_out_eps; ++i) {
 757              		.loc 2 214 0 is_stmt 0 discriminator 1
 758 0070 FA68     		ldr	r2, [r7, #12]
 759 0072 BB68     		ldr	r3, [r7, #8]
 760 0074 9A42     		cmp	r2, r3
 761 0076 D9DB     		blt	.L36
 217:../Dave/Generated/src/USBLD001/driver/dwc_otg_pcd_intr.c **** 		}
 218:../Dave/Generated/src/USBLD001/driver/dwc_otg_pcd_intr.c **** 		return 0;
 762              		.loc 2 218 0 is_stmt 1
 763 0078 4FF00003 		mov	r3, #0
 764              	.L33:
 219:../Dave/Generated/src/USBLD001/driver/dwc_otg_pcd_intr.c **** 	}
 220:../Dave/Generated/src/USBLD001/driver/dwc_otg_pcd_intr.c **** }
 765              		.loc 2 220 0
 766 007c 1846     		mov	r0, r3
 767 007e 07F11407 		add	r7, r7, #20
 768 0082 BD46     		mov	sp, r7
 769 0084 80BC     		pop	{r7}
 770 0086 7047     		bx	lr
 771              		.cfi_endproc
 772              	.LFE23:
 774              		.section	.text.get_ep_by_addr,"ax",%progbits
 775              		.align	2
 776              		.global	get_ep_by_addr
 777              		.thumb
 778              		.thumb_func
 780              	get_ep_by_addr:
 781              	.LFB24:
 221:../Dave/Generated/src/USBLD001/driver/dwc_otg_pcd_intr.c **** 
 222:../Dave/Generated/src/USBLD001/driver/dwc_otg_pcd_intr.c **** /**
 223:../Dave/Generated/src/USBLD001/driver/dwc_otg_pcd_intr.c ****  * This functions gets a pointer to an EP from the wIndex address
 224:../Dave/Generated/src/USBLD001/driver/dwc_otg_pcd_intr.c ****  * value of the control request.
 225:../Dave/Generated/src/USBLD001/driver/dwc_otg_pcd_intr.c ****  */
 226:../Dave/Generated/src/USBLD001/driver/dwc_otg_pcd_intr.c **** dwc_otg_pcd_ep_t *get_ep_by_addr(dwc_otg_pcd_t * pcd, u16 wIndex)
 227:../Dave/Generated/src/USBLD001/driver/dwc_otg_pcd_intr.c **** {
 782              		.loc 2 227 0
 783              		.cfi_startproc
 784              		@ args = 0, pretend = 0, frame = 16
 785              		@ frame_needed = 1, uses_anonymous_args = 0
 786              		@ link register save eliminated.
 787 0000 80B4     		push	{r7}
 788              	.LCFI27:
 789              		.cfi_def_cfa_offset 4
 790              		.cfi_offset 7, -4
 791 0002 85B0     		sub	sp, sp, #20
 792              	.LCFI28:
 793              		.cfi_def_cfa_offset 24
 794 0004 00AF     		add	r7, sp, #0
 795              	.LCFI29:
 796              		.cfi_def_cfa_register 7
 797 0006 7860     		str	r0, [r7, #4]
 798 0008 3960     		str	r1, [r7, #0]
 228:../Dave/Generated/src/USBLD001/driver/dwc_otg_pcd_intr.c **** 	dwc_otg_pcd_ep_t *ep;
 229:../Dave/Generated/src/USBLD001/driver/dwc_otg_pcd_intr.c **** 	uint32_t ep_num = UE_GET_ADDR(wIndex);
 799              		.loc 2 229 0
 800 000a 3B68     		ldr	r3, [r7, #0]
 801 000c 03F00F03 		and	r3, r3, #15
 802 0010 BB60     		str	r3, [r7, #8]
 230:../Dave/Generated/src/USBLD001/driver/dwc_otg_pcd_intr.c **** 
 231:../Dave/Generated/src/USBLD001/driver/dwc_otg_pcd_intr.c **** 	if (ep_num == 0) {
 803              		.loc 2 231 0
 804 0012 BB68     		ldr	r3, [r7, #8]
 805 0014 002B     		cmp	r3, #0
 806 0016 04D1     		bne	.L38
 232:../Dave/Generated/src/USBLD001/driver/dwc_otg_pcd_intr.c **** 		ep = &pcd->ep0;
 807              		.loc 2 232 0
 808 0018 7B68     		ldr	r3, [r7, #4]
 809 001a 03F12403 		add	r3, r3, #36
 810 001e FB60     		str	r3, [r7, #12]
 811 0020 23E0     		b	.L39
 812              	.L38:
 233:../Dave/Generated/src/USBLD001/driver/dwc_otg_pcd_intr.c **** 	} else if (UE_GET_DIR(wIndex) == UE_DIR_IN) {	/* in ep */
 813              		.loc 2 233 0
 814 0022 3B68     		ldr	r3, [r7, #0]
 815 0024 03F08003 		and	r3, r3, #128
 816 0028 002B     		cmp	r3, #0
 817 002a 0ED0     		beq	.L40
 234:../Dave/Generated/src/USBLD001/driver/dwc_otg_pcd_intr.c **** 		ep = &pcd->in_ep[ep_num - 1];
 818              		.loc 2 234 0
 819 002c BB68     		ldr	r3, [r7, #8]
 820 002e 03F1FF32 		add	r2, r3, #-1
 821 0032 1346     		mov	r3, r2
 822 0034 4FEA0313 		lsl	r3, r3, #4
 823 0038 9B18     		adds	r3, r3, r2
 824 003a 4FEA8303 		lsl	r3, r3, #2
 825 003e 03F16803 		add	r3, r3, #104
 826 0042 7A68     		ldr	r2, [r7, #4]
 827 0044 D318     		adds	r3, r2, r3
 828 0046 FB60     		str	r3, [r7, #12]
 829 0048 0FE0     		b	.L39
 830              	.L40:
 235:../Dave/Generated/src/USBLD001/driver/dwc_otg_pcd_intr.c **** 	} else {
 236:../Dave/Generated/src/USBLD001/driver/dwc_otg_pcd_intr.c **** 		ep = &pcd->out_ep[ep_num - 1];
 831              		.loc 2 236 0
 832 004a BB68     		ldr	r3, [r7, #8]
 833 004c 03F1FF32 		add	r2, r3, #-1
 834 0050 1346     		mov	r3, r2
 835 0052 4FEA0313 		lsl	r3, r3, #4
 836 0056 9B18     		adds	r3, r3, r2
 837 0058 4FEA8303 		lsl	r3, r3, #2
 838 005c 03F51073 		add	r3, r3, #576
 839 0060 7A68     		ldr	r2, [r7, #4]
 840 0062 D318     		adds	r3, r2, r3
 841 0064 03F10403 		add	r3, r3, #4
 842 0068 FB60     		str	r3, [r7, #12]
 843              	.L39:
 237:../Dave/Generated/src/USBLD001/driver/dwc_otg_pcd_intr.c **** 	}
 238:../Dave/Generated/src/USBLD001/driver/dwc_otg_pcd_intr.c **** 
 239:../Dave/Generated/src/USBLD001/driver/dwc_otg_pcd_intr.c **** 	return ep;
 844              		.loc 2 239 0
 845 006a FB68     		ldr	r3, [r7, #12]
 240:../Dave/Generated/src/USBLD001/driver/dwc_otg_pcd_intr.c **** }
 846              		.loc 2 240 0
 847 006c 1846     		mov	r0, r3
 848 006e 07F11407 		add	r7, r7, #20
 849 0072 BD46     		mov	sp, r7
 850 0074 80BC     		pop	{r7}
 851 0076 7047     		bx	lr
 852              		.cfi_endproc
 853              	.LFE24:
 855              		.section	.text.start_next_request,"ax",%progbits
 856              		.align	2
 857              		.global	start_next_request
 858              		.thumb
 859              		.thumb_func
 861              	start_next_request:
 862              	.LFB25:
 241:../Dave/Generated/src/USBLD001/driver/dwc_otg_pcd_intr.c **** 
 242:../Dave/Generated/src/USBLD001/driver/dwc_otg_pcd_intr.c **** /**
 243:../Dave/Generated/src/USBLD001/driver/dwc_otg_pcd_intr.c ****  * This function checks the EP request queue, if the queue is not
 244:../Dave/Generated/src/USBLD001/driver/dwc_otg_pcd_intr.c ****  * empty the next request is started.
 245:../Dave/Generated/src/USBLD001/driver/dwc_otg_pcd_intr.c ****  */
 246:../Dave/Generated/src/USBLD001/driver/dwc_otg_pcd_intr.c **** void start_next_request(dwc_otg_pcd_ep_t * ep)
 247:../Dave/Generated/src/USBLD001/driver/dwc_otg_pcd_intr.c **** {
 863              		.loc 2 247 0
 864              		.cfi_startproc
 865              		@ args = 0, pretend = 0, frame = 24
 866              		@ frame_needed = 1, uses_anonymous_args = 0
 867 0000 80B5     		push	{r7, lr}
 868              	.LCFI30:
 869              		.cfi_def_cfa_offset 8
 870              		.cfi_offset 7, -8
 871              		.cfi_offset 14, -4
 872 0002 86B0     		sub	sp, sp, #24
 873              	.LCFI31:
 874              		.cfi_def_cfa_offset 32
 875 0004 00AF     		add	r7, sp, #0
 876              	.LCFI32:
 877              		.cfi_def_cfa_register 7
 878 0006 7860     		str	r0, [r7, #4]
 248:../Dave/Generated/src/USBLD001/driver/dwc_otg_pcd_intr.c **** 	dwc_otg_pcd_request_t *req = 0;
 879              		.loc 2 248 0
 880 0008 4FF00003 		mov	r3, #0
 881 000c 7B61     		str	r3, [r7, #20]
 249:../Dave/Generated/src/USBLD001/driver/dwc_otg_pcd_intr.c **** 	uint32_t max_transfer =
 250:../Dave/Generated/src/USBLD001/driver/dwc_otg_pcd_intr.c **** 	    GET_CORE_IF(ep->pcd)->core_params->max_transfer_size;
 882              		.loc 2 250 0
 883 000e 7B68     		ldr	r3, [r7, #4]
 884 0010 DB6B     		ldr	r3, [r3, #60]
 885 0012 9B68     		ldr	r3, [r3, #8]
 886 0014 1B68     		ldr	r3, [r3, #0]
 887 0016 9B6F     		ldr	r3, [r3, #120]
 249:../Dave/Generated/src/USBLD001/driver/dwc_otg_pcd_intr.c **** 	uint32_t max_transfer =
 888              		.loc 2 249 0
 889 0018 3B61     		str	r3, [r7, #16]
 251:../Dave/Generated/src/USBLD001/driver/dwc_otg_pcd_intr.c **** 
 252:../Dave/Generated/src/USBLD001/driver/dwc_otg_pcd_intr.c **** #ifdef DWC_UTE_CFI
 253:../Dave/Generated/src/USBLD001/driver/dwc_otg_pcd_intr.c **** 	struct dwc_otg_pcd *pcd;
 254:../Dave/Generated/src/USBLD001/driver/dwc_otg_pcd_intr.c **** 	pcd = ep->pcd;
 255:../Dave/Generated/src/USBLD001/driver/dwc_otg_pcd_intr.c **** #endif
 256:../Dave/Generated/src/USBLD001/driver/dwc_otg_pcd_intr.c **** 
 257:../Dave/Generated/src/USBLD001/driver/dwc_otg_pcd_intr.c **** 	if (!DWC_CIRCLEQ_EMPTY(&ep->queue)) {
 890              		.loc 2 257 0
 891 001a 7B68     		ldr	r3, [r7, #4]
 892 001c 5A68     		ldr	r2, [r3, #4]
 893 001e 7B68     		ldr	r3, [r7, #4]
 894 0020 03F10403 		add	r3, r3, #4
 895 0024 9A42     		cmp	r2, r3
 896 0026 00F0AC80 		beq	.L42
 258:../Dave/Generated/src/USBLD001/driver/dwc_otg_pcd_intr.c **** 		req = DWC_CIRCLEQ_FIRST(&ep->queue);
 897              		.loc 2 258 0
 898 002a 7B68     		ldr	r3, [r7, #4]
 899 002c 5B68     		ldr	r3, [r3, #4]
 900 002e 7B61     		str	r3, [r7, #20]
 259:../Dave/Generated/src/USBLD001/driver/dwc_otg_pcd_intr.c **** 
 260:../Dave/Generated/src/USBLD001/driver/dwc_otg_pcd_intr.c **** #ifdef DWC_UTE_CFI
 261:../Dave/Generated/src/USBLD001/driver/dwc_otg_pcd_intr.c **** 		if (ep->dwc_ep.buff_mode != BM_STANDARD) {
 262:../Dave/Generated/src/USBLD001/driver/dwc_otg_pcd_intr.c **** 			ep->dwc_ep.cfi_req_len = req->length;
 263:../Dave/Generated/src/USBLD001/driver/dwc_otg_pcd_intr.c **** 			pcd->cfi->ops.build_descriptors(pcd->cfi, pcd, ep, req);
 264:../Dave/Generated/src/USBLD001/driver/dwc_otg_pcd_intr.c **** 		} else {
 265:../Dave/Generated/src/USBLD001/driver/dwc_otg_pcd_intr.c **** #endif
 266:../Dave/Generated/src/USBLD001/driver/dwc_otg_pcd_intr.c **** 			/* Setup and start the Transfer */
 267:../Dave/Generated/src/USBLD001/driver/dwc_otg_pcd_intr.c **** 			ep->dwc_ep.dma_addr = req->dma;
 901              		.loc 2 267 0
 902 0030 7B69     		ldr	r3, [r7, #20]
 903 0032 9A68     		ldr	r2, [r3, #8]
 904 0034 7B68     		ldr	r3, [r7, #4]
 905 0036 9A61     		str	r2, [r3, #24]
 268:../Dave/Generated/src/USBLD001/driver/dwc_otg_pcd_intr.c **** 			ep->dwc_ep.start_xfer_buff = req->buf;
 906              		.loc 2 268 0
 907 0038 7B69     		ldr	r3, [r7, #20]
 908 003a 5A68     		ldr	r2, [r3, #4]
 909 003c 7B68     		ldr	r3, [r7, #4]
 910 003e 5A62     		str	r2, [r3, #36]
 269:../Dave/Generated/src/USBLD001/driver/dwc_otg_pcd_intr.c **** 			ep->dwc_ep.xfer_buff = req->buf;
 911              		.loc 2 269 0
 912 0040 7B69     		ldr	r3, [r7, #20]
 913 0042 5A68     		ldr	r2, [r3, #4]
 914 0044 7B68     		ldr	r3, [r7, #4]
 915 0046 9A62     		str	r2, [r3, #40]
 270:../Dave/Generated/src/USBLD001/driver/dwc_otg_pcd_intr.c **** 			ep->dwc_ep.sent_zlp = 0;
 916              		.loc 2 270 0
 917 0048 7A68     		ldr	r2, [r7, #4]
 918 004a 92F83230 		ldrb	r3, [r2, #50]
 919 004e 6FF3C303 		bfc	r3, #3, #1
 920 0052 82F83230 		strb	r3, [r2, #50]
 271:../Dave/Generated/src/USBLD001/driver/dwc_otg_pcd_intr.c **** 			ep->dwc_ep.total_len = req->length;
 921              		.loc 2 271 0
 922 0056 7B69     		ldr	r3, [r7, #20]
 923 0058 DB68     		ldr	r3, [r3, #12]
 924 005a 23F07F43 		bic	r3, r3, #-16777216
 925 005e 23F47803 		bic	r3, r3, #16252928
 926 0062 7A68     		ldr	r2, [r7, #4]
 927 0064 4FEA0341 		lsl	r1, r3, #16
 928 0068 4FEA1141 		lsr	r1, r1, #16
 929 006c 4FF00000 		mov	r0, #0
 930 0070 0143     		orrs	r1, r1, r0
 931 0072 9186     		strh	r1, [r2, #52]	@ movhi
 932 0074 4FEA1343 		lsr	r3, r3, #16
 933 0078 03F00703 		and	r3, r3, #7
 934 007c 03F00703 		and	r3, r3, #7
 935 0080 92F83610 		ldrb	r1, [r2, #54]
 936 0084 21F00701 		bic	r1, r1, #7
 937 0088 0B43     		orrs	r3, r3, r1
 938 008a 82F83630 		strb	r3, [r2, #54]
 272:../Dave/Generated/src/USBLD001/driver/dwc_otg_pcd_intr.c **** 			ep->dwc_ep.xfer_len = 0;
 939              		.loc 2 272 0
 940 008e 7A68     		ldr	r2, [r7, #4]
 941 0090 D36A     		ldr	r3, [r2, #44]
 942 0092 6FF31203 		bfc	r3, #0, #19
 943 0096 D362     		str	r3, [r2, #44]
 273:../Dave/Generated/src/USBLD001/driver/dwc_otg_pcd_intr.c **** 			ep->dwc_ep.xfer_count = 0;
 944              		.loc 2 273 0
 945 0098 7A68     		ldr	r2, [r7, #4]
 946 009a 136B     		ldr	r3, [r2, #48]
 947 009c 6FF31203 		bfc	r3, #0, #19
 948 00a0 1363     		str	r3, [r2, #48]
 274:../Dave/Generated/src/USBLD001/driver/dwc_otg_pcd_intr.c **** 
 275:../Dave/Generated/src/USBLD001/driver/dwc_otg_pcd_intr.c **** 			ep->dwc_ep.maxxfer = max_transfer;
 949              		.loc 2 275 0
 950 00a2 7B68     		ldr	r3, [r7, #4]
 951 00a4 3A69     		ldr	r2, [r7, #16]
 952 00a6 5A61     		str	r2, [r3, #20]
 276:../Dave/Generated/src/USBLD001/driver/dwc_otg_pcd_intr.c **** 			if (GET_CORE_IF(ep->pcd)->dma_desc_enable) {
 953              		.loc 2 276 0
 954 00a8 7B68     		ldr	r3, [r7, #4]
 955 00aa DB6B     		ldr	r3, [r3, #60]
 956 00ac 9B68     		ldr	r3, [r3, #8]
 957 00ae 93F84730 		ldrb	r3, [r3, #71]	@ zero_extendqisi2
 958 00b2 002B     		cmp	r3, #0
 959 00b4 1CD0     		beq	.L44
 960              	.LBB2:
 277:../Dave/Generated/src/USBLD001/driver/dwc_otg_pcd_intr.c **** 				uint32_t out_max_xfer = DDMA_MAX_TRANSFER_SIZE
 961              		.loc 2 277 0
 962 00b6 4FF6FC73 		movw	r3, #65532
 963 00ba FB60     		str	r3, [r7, #12]
 278:../Dave/Generated/src/USBLD001/driver/dwc_otg_pcd_intr.c **** 				    - (DDMA_MAX_TRANSFER_SIZE % 4);
 279:../Dave/Generated/src/USBLD001/driver/dwc_otg_pcd_intr.c **** 				if (ep->dwc_ep.is_in) {
 964              		.loc 2 279 0
 965 00bc 7B68     		ldr	r3, [r7, #4]
 966 00be 5B7C     		ldrb	r3, [r3, #17]	@ zero_extendqisi2
 967 00c0 03F00103 		and	r3, r3, #1
 968 00c4 DBB2     		uxtb	r3, r3
 969 00c6 002B     		cmp	r3, #0
 970 00c8 0AD0     		beq	.L45
 280:../Dave/Generated/src/USBLD001/driver/dwc_otg_pcd_intr.c **** 					if (ep->dwc_ep.maxxfer >
 971              		.loc 2 280 0
 972 00ca 7B68     		ldr	r3, [r7, #4]
 973 00cc 5A69     		ldr	r2, [r3, #20]
 974 00ce 4FF6FF73 		movw	r3, #65535
 975 00d2 9A42     		cmp	r2, r3
 976 00d4 0CD9     		bls	.L44
 281:../Dave/Generated/src/USBLD001/driver/dwc_otg_pcd_intr.c **** 					    DDMA_MAX_TRANSFER_SIZE) {
 282:../Dave/Generated/src/USBLD001/driver/dwc_otg_pcd_intr.c **** 						ep->dwc_ep.maxxfer =
 977              		.loc 2 282 0
 978 00d6 7B68     		ldr	r3, [r7, #4]
 979 00d8 4FF6FF72 		movw	r2, #65535
 980 00dc 5A61     		str	r2, [r3, #20]
 981 00de 07E0     		b	.L44
 982              	.L45:
 283:../Dave/Generated/src/USBLD001/driver/dwc_otg_pcd_intr.c **** 						    DDMA_MAX_TRANSFER_SIZE;
 284:../Dave/Generated/src/USBLD001/driver/dwc_otg_pcd_intr.c **** 					}
 285:../Dave/Generated/src/USBLD001/driver/dwc_otg_pcd_intr.c **** 				} else {
 286:../Dave/Generated/src/USBLD001/driver/dwc_otg_pcd_intr.c **** 					if (ep->dwc_ep.maxxfer > out_max_xfer) {
 983              		.loc 2 286 0
 984 00e0 7B68     		ldr	r3, [r7, #4]
 985 00e2 5A69     		ldr	r2, [r3, #20]
 986 00e4 FB68     		ldr	r3, [r7, #12]
 987 00e6 9A42     		cmp	r2, r3
 988 00e8 02D9     		bls	.L44
 287:../Dave/Generated/src/USBLD001/driver/dwc_otg_pcd_intr.c **** 						ep->dwc_ep.maxxfer =
 989              		.loc 2 287 0
 990 00ea 7B68     		ldr	r3, [r7, #4]
 991 00ec FA68     		ldr	r2, [r7, #12]
 992 00ee 5A61     		str	r2, [r3, #20]
 993              	.L44:
 994              	.LBE2:
 288:../Dave/Generated/src/USBLD001/driver/dwc_otg_pcd_intr.c **** 						    out_max_xfer;
 289:../Dave/Generated/src/USBLD001/driver/dwc_otg_pcd_intr.c **** 					}
 290:../Dave/Generated/src/USBLD001/driver/dwc_otg_pcd_intr.c **** 				}
 291:../Dave/Generated/src/USBLD001/driver/dwc_otg_pcd_intr.c **** 			}
 292:../Dave/Generated/src/USBLD001/driver/dwc_otg_pcd_intr.c **** 			if (ep->dwc_ep.maxxfer < ep->dwc_ep.total_len) {
 995              		.loc 2 292 0
 996 00f0 7B68     		ldr	r3, [r7, #4]
 997 00f2 5A69     		ldr	r2, [r3, #20]
 998 00f4 7B68     		ldr	r3, [r7, #4]
 999 00f6 5B6B     		ldr	r3, [r3, #52]
 1000 00f8 C3F31203 		ubfx	r3, r3, #0, #19
 1001 00fc 9A42     		cmp	r2, r3
 1002 00fe 10D2     		bcs	.L46
 293:../Dave/Generated/src/USBLD001/driver/dwc_otg_pcd_intr.c **** 				ep->dwc_ep.maxxfer -=
 1003              		.loc 2 293 0
 1004 0100 7B68     		ldr	r3, [r7, #4]
 1005 0102 5969     		ldr	r1, [r3, #20]
 294:../Dave/Generated/src/USBLD001/driver/dwc_otg_pcd_intr.c **** 				    (ep->dwc_ep.maxxfer % ep->dwc_ep.maxpacket);
 1006              		.loc 2 294 0
 1007 0104 7B68     		ldr	r3, [r7, #4]
 1008 0106 5B69     		ldr	r3, [r3, #20]
 1009 0108 7A68     		ldr	r2, [r7, #4]
 1010 010a 528A     		ldrh	r2, [r2, #18]	@ movhi
 1011 010c C2F38A02 		ubfx	r2, r2, #2, #11
 1012 0110 92B2     		uxth	r2, r2
 1013 0112 B3FBF2F0 		udiv	r0, r3, r2
 1014 0116 02FB00F2 		mul	r2, r2, r0
 1015 011a 9B1A     		subs	r3, r3, r2
 293:../Dave/Generated/src/USBLD001/driver/dwc_otg_pcd_intr.c **** 				ep->dwc_ep.maxxfer -=
 1016              		.loc 2 293 0
 1017 011c CA1A     		subs	r2, r1, r3
 1018 011e 7B68     		ldr	r3, [r7, #4]
 1019 0120 5A61     		str	r2, [r3, #20]
 1020              	.L46:
 295:../Dave/Generated/src/USBLD001/driver/dwc_otg_pcd_intr.c **** 			}
 296:../Dave/Generated/src/USBLD001/driver/dwc_otg_pcd_intr.c **** 			if (req->sent_zlp) {
 1021              		.loc 2 296 0
 1022 0122 7B69     		ldr	r3, [r7, #20]
 1023 0124 1B7D     		ldrb	r3, [r3, #20]	@ zero_extendqisi2
 1024 0126 03F00103 		and	r3, r3, #1
 1025 012a DBB2     		uxtb	r3, r3
 1026 012c 002B     		cmp	r3, #0
 1027 012e 1ED0     		beq	.L47
 297:../Dave/Generated/src/USBLD001/driver/dwc_otg_pcd_intr.c **** 				if ((ep->dwc_ep.total_len %
 1028              		.loc 2 297 0
 1029 0130 7B68     		ldr	r3, [r7, #4]
 1030 0132 5B6B     		ldr	r3, [r3, #52]
 1031 0134 C3F31203 		ubfx	r3, r3, #0, #19
 298:../Dave/Generated/src/USBLD001/driver/dwc_otg_pcd_intr.c **** 				     ep->dwc_ep.maxpacket == 0)
 1032              		.loc 2 298 0
 1033 0138 7A68     		ldr	r2, [r7, #4]
 1034 013a 528A     		ldrh	r2, [r2, #18]	@ movhi
 1035 013c C2F38A02 		ubfx	r2, r2, #2, #11
 1036 0140 92B2     		uxth	r2, r2
 297:../Dave/Generated/src/USBLD001/driver/dwc_otg_pcd_intr.c **** 				if ((ep->dwc_ep.total_len %
 1037              		.loc 2 297 0
 1038 0142 93FBF2F1 		sdiv	r1, r3, r2
 1039 0146 02FB01F2 		mul	r2, r2, r1
 1040 014a 9B1A     		subs	r3, r3, r2
 1041 014c 002B     		cmp	r3, #0
 1042 014e 0ED1     		bne	.L47
 299:../Dave/Generated/src/USBLD001/driver/dwc_otg_pcd_intr.c **** 				    && (ep->dwc_ep.total_len != 0)) {
 1043              		.loc 2 299 0
 1044 0150 7B68     		ldr	r3, [r7, #4]
 1045 0152 5B6B     		ldr	r3, [r3, #52]
 1046 0154 23F07F43 		bic	r3, r3, #-16777216
 1047 0158 23F47803 		bic	r3, r3, #16252928
 1048 015c 002B     		cmp	r3, #0
 1049 015e 06D0     		beq	.L47
 300:../Dave/Generated/src/USBLD001/driver/dwc_otg_pcd_intr.c **** 					ep->dwc_ep.sent_zlp = 1;
 1050              		.loc 2 300 0
 1051 0160 7A68     		ldr	r2, [r7, #4]
 1052 0162 92F83230 		ldrb	r3, [r2, #50]
 1053 0166 43F00803 		orr	r3, r3, #8
 1054 016a 82F83230 		strb	r3, [r2, #50]
 1055              	.L47:
 301:../Dave/Generated/src/USBLD001/driver/dwc_otg_pcd_intr.c **** 				}
 302:../Dave/Generated/src/USBLD001/driver/dwc_otg_pcd_intr.c **** 
 303:../Dave/Generated/src/USBLD001/driver/dwc_otg_pcd_intr.c **** 			}
 304:../Dave/Generated/src/USBLD001/driver/dwc_otg_pcd_intr.c **** #ifdef DWC_UTE_CFI
 305:../Dave/Generated/src/USBLD001/driver/dwc_otg_pcd_intr.c **** 		}
 306:../Dave/Generated/src/USBLD001/driver/dwc_otg_pcd_intr.c **** #endif
 307:../Dave/Generated/src/USBLD001/driver/dwc_otg_pcd_intr.c **** 		dwc_otg_ep_start_transfer(GET_CORE_IF(ep->pcd), &ep->dwc_ep);
 1056              		.loc 2 307 0
 1057 016e 7B68     		ldr	r3, [r7, #4]
 1058 0170 DB6B     		ldr	r3, [r3, #60]
 1059 0172 9A68     		ldr	r2, [r3, #8]
 1060 0174 7B68     		ldr	r3, [r7, #4]
 1061 0176 03F11003 		add	r3, r3, #16
 1062 017a 1046     		mov	r0, r2
 1063 017c 1946     		mov	r1, r3
 1064 017e FFF7FEFF 		bl	dwc_otg_ep_start_transfer
 1065              	.L42:
 308:../Dave/Generated/src/USBLD001/driver/dwc_otg_pcd_intr.c **** 	}
 309:../Dave/Generated/src/USBLD001/driver/dwc_otg_pcd_intr.c **** }
 1066              		.loc 2 309 0
 1067 0182 07F11807 		add	r7, r7, #24
 1068 0186 BD46     		mov	sp, r7
 1069 0188 80BD     		pop	{r7, pc}
 1070              		.cfi_endproc
 1071              	.LFE25:
 1073 018a 00BF     		.section	.text.dwc_otg_pcd_handle_sof_intr,"ax",%progbits
 1074              		.align	2
 1075              		.global	dwc_otg_pcd_handle_sof_intr
 1076              		.thumb
 1077              		.thumb_func
 1079              	dwc_otg_pcd_handle_sof_intr:
 1080              	.LFB26:
 310:../Dave/Generated/src/USBLD001/driver/dwc_otg_pcd_intr.c **** 
 311:../Dave/Generated/src/USBLD001/driver/dwc_otg_pcd_intr.c **** /**
 312:../Dave/Generated/src/USBLD001/driver/dwc_otg_pcd_intr.c ****  * This function handles the SOF Interrupts. At this time the SOF
 313:../Dave/Generated/src/USBLD001/driver/dwc_otg_pcd_intr.c ****  * Interrupt is disabled.
 314:../Dave/Generated/src/USBLD001/driver/dwc_otg_pcd_intr.c ****  */
 315:../Dave/Generated/src/USBLD001/driver/dwc_otg_pcd_intr.c **** int32_t dwc_otg_pcd_handle_sof_intr(dwc_otg_pcd_t * pcd)
 316:../Dave/Generated/src/USBLD001/driver/dwc_otg_pcd_intr.c **** {
 1081              		.loc 2 316 0
 1082              		.cfi_startproc
 1083              		@ args = 0, pretend = 0, frame = 16
 1084              		@ frame_needed = 1, uses_anonymous_args = 0
 1085 0000 80B5     		push	{r7, lr}
 1086              	.LCFI33:
 1087              		.cfi_def_cfa_offset 8
 1088              		.cfi_offset 7, -8
 1089              		.cfi_offset 14, -4
 1090 0002 84B0     		sub	sp, sp, #16
 1091              	.LCFI34:
 1092              		.cfi_def_cfa_offset 24
 1093 0004 00AF     		add	r7, sp, #0
 1094              	.LCFI35:
 1095              		.cfi_def_cfa_register 7
 1096 0006 7860     		str	r0, [r7, #4]
 317:../Dave/Generated/src/USBLD001/driver/dwc_otg_pcd_intr.c **** 	dwc_otg_core_if_t *core_if = GET_CORE_IF(pcd);
 1097              		.loc 2 317 0
 1098 0008 7B68     		ldr	r3, [r7, #4]
 1099 000a 9B68     		ldr	r3, [r3, #8]
 1100 000c FB60     		str	r3, [r7, #12]
 318:../Dave/Generated/src/USBLD001/driver/dwc_otg_pcd_intr.c **** 
 319:../Dave/Generated/src/USBLD001/driver/dwc_otg_pcd_intr.c **** 	gintsts_data_t gintsts;
 320:../Dave/Generated/src/USBLD001/driver/dwc_otg_pcd_intr.c **** 
 321:../Dave/Generated/src/USBLD001/driver/dwc_otg_pcd_intr.c **** 	DWC_DEBUGPL(DBG_PCD, "SOF\n");
 322:../Dave/Generated/src/USBLD001/driver/dwc_otg_pcd_intr.c **** 
 323:../Dave/Generated/src/USBLD001/driver/dwc_otg_pcd_intr.c **** 	/* Clear interrupt */
 324:../Dave/Generated/src/USBLD001/driver/dwc_otg_pcd_intr.c **** 	gintsts.d32 = 0;
 1101              		.loc 2 324 0
 1102 000e 4FF00003 		mov	r3, #0
 1103 0012 BB60     		str	r3, [r7, #8]
 325:../Dave/Generated/src/USBLD001/driver/dwc_otg_pcd_intr.c **** 	gintsts.b.sofintr = 1;
 1104              		.loc 2 325 0
 1105 0014 BB68     		ldr	r3, [r7, #8]
 1106 0016 43F00803 		orr	r3, r3, #8
 1107 001a BB60     		str	r3, [r7, #8]
 326:../Dave/Generated/src/USBLD001/driver/dwc_otg_pcd_intr.c **** 	DWC_WRITE_REG32(&core_if->core_global_regs->gintsts, gintsts.d32);
 1108              		.loc 2 326 0
 1109 001c FB68     		ldr	r3, [r7, #12]
 1110 001e 5B68     		ldr	r3, [r3, #4]
 1111 0020 03F11402 		add	r2, r3, #20
 1112 0024 BB68     		ldr	r3, [r7, #8]
 1113 0026 1046     		mov	r0, r2
 1114 0028 1946     		mov	r1, r3
 1115 002a FFF7FEFF 		bl	DWC_WRITE_REG32
 327:../Dave/Generated/src/USBLD001/driver/dwc_otg_pcd_intr.c **** 
 328:../Dave/Generated/src/USBLD001/driver/dwc_otg_pcd_intr.c **** 	return 1;
 1116              		.loc 2 328 0
 1117 002e 4FF00103 		mov	r3, #1
 329:../Dave/Generated/src/USBLD001/driver/dwc_otg_pcd_intr.c **** }
 1118              		.loc 2 329 0
 1119 0032 1846     		mov	r0, r3
 1120 0034 07F11007 		add	r7, r7, #16
 1121 0038 BD46     		mov	sp, r7
 1122 003a 80BD     		pop	{r7, pc}
 1123              		.cfi_endproc
 1124              	.LFE26:
 1126              		.section	.text.dwc_otg_pcd_handle_rx_status_q_level_intr,"ax",%progbits
 1127              		.align	2
 1128              		.global	dwc_otg_pcd_handle_rx_status_q_level_intr
 1129              		.thumb
 1130              		.thumb_func
 1132              	dwc_otg_pcd_handle_rx_status_q_level_intr:
 1133              	.LFB27:
 330:../Dave/Generated/src/USBLD001/driver/dwc_otg_pcd_intr.c **** 
 331:../Dave/Generated/src/USBLD001/driver/dwc_otg_pcd_intr.c **** /**
 332:../Dave/Generated/src/USBLD001/driver/dwc_otg_pcd_intr.c ****  * This function handles the Rx Status Queue Level Interrupt, which
 333:../Dave/Generated/src/USBLD001/driver/dwc_otg_pcd_intr.c ****  * indicates that there is a least one packet in the Rx FIFO.  The
 334:../Dave/Generated/src/USBLD001/driver/dwc_otg_pcd_intr.c ****  * packets are moved from the FIFO to memory, where they will be
 335:../Dave/Generated/src/USBLD001/driver/dwc_otg_pcd_intr.c ****  * processed when the Endpoint Interrupt Register indicates Transfer
 336:../Dave/Generated/src/USBLD001/driver/dwc_otg_pcd_intr.c ****  * Complete or SETUP Phase Done.
 337:../Dave/Generated/src/USBLD001/driver/dwc_otg_pcd_intr.c ****  *
 338:../Dave/Generated/src/USBLD001/driver/dwc_otg_pcd_intr.c ****  * Repeat the following until the Rx Status Queue is empty:
 339:../Dave/Generated/src/USBLD001/driver/dwc_otg_pcd_intr.c ****  *	 -# Read the Receive Status Pop Register (GRXSTSP) to get Packet
 340:../Dave/Generated/src/USBLD001/driver/dwc_otg_pcd_intr.c ****  *		info
 341:../Dave/Generated/src/USBLD001/driver/dwc_otg_pcd_intr.c ****  *	 -# If Receive FIFO is empty then skip to step Clear the interrupt
 342:../Dave/Generated/src/USBLD001/driver/dwc_otg_pcd_intr.c ****  *		and exit
 343:../Dave/Generated/src/USBLD001/driver/dwc_otg_pcd_intr.c ****  *	 -# If SETUP Packet call dwc_otg_read_setup_packet to copy the
 344:../Dave/Generated/src/USBLD001/driver/dwc_otg_pcd_intr.c ****  *		SETUP data to the buffer
 345:../Dave/Generated/src/USBLD001/driver/dwc_otg_pcd_intr.c ****  *	 -# If OUT Data Packet call dwc_otg_read_packet to copy the data
 346:../Dave/Generated/src/USBLD001/driver/dwc_otg_pcd_intr.c ****  *		to the destination buffer
 347:../Dave/Generated/src/USBLD001/driver/dwc_otg_pcd_intr.c ****  */
 348:../Dave/Generated/src/USBLD001/driver/dwc_otg_pcd_intr.c **** int32_t dwc_otg_pcd_handle_rx_status_q_level_intr(dwc_otg_pcd_t * pcd)
 349:../Dave/Generated/src/USBLD001/driver/dwc_otg_pcd_intr.c **** {
 1134              		.loc 2 349 0
 1135              		.cfi_startproc
 1136              		@ args = 0, pretend = 0, frame = 32
 1137              		@ frame_needed = 1, uses_anonymous_args = 0
 1138 0000 80B5     		push	{r7, lr}
 1139              	.LCFI36:
 1140              		.cfi_def_cfa_offset 8
 1141              		.cfi_offset 7, -8
 1142              		.cfi_offset 14, -4
 1143 0002 88B0     		sub	sp, sp, #32
 1144              	.LCFI37:
 1145              		.cfi_def_cfa_offset 40
 1146 0004 00AF     		add	r7, sp, #0
 1147              	.LCFI38:
 1148              		.cfi_def_cfa_register 7
 1149 0006 7860     		str	r0, [r7, #4]
 350:../Dave/Generated/src/USBLD001/driver/dwc_otg_pcd_intr.c **** 	dwc_otg_core_if_t *core_if = GET_CORE_IF(pcd);
 1150              		.loc 2 350 0
 1151 0008 7B68     		ldr	r3, [r7, #4]
 1152 000a 9B68     		ldr	r3, [r3, #8]
 1153 000c FB61     		str	r3, [r7, #28]
 351:../Dave/Generated/src/USBLD001/driver/dwc_otg_pcd_intr.c **** 	dwc_otg_core_global_regs_t *global_regs = core_if->core_global_regs;
 1154              		.loc 2 351 0
 1155 000e FB69     		ldr	r3, [r7, #28]
 1156 0010 5B68     		ldr	r3, [r3, #4]
 1157 0012 BB61     		str	r3, [r7, #24]
 352:../Dave/Generated/src/USBLD001/driver/dwc_otg_pcd_intr.c **** 	gintmsk_data_t gintmask = {.d32 = 0 };
 1158              		.loc 2 352 0
 1159 0014 4FF00003 		mov	r3, #0
 1160 0018 3B61     		str	r3, [r7, #16]
 353:../Dave/Generated/src/USBLD001/driver/dwc_otg_pcd_intr.c **** 	device_grxsts_data_t status;
 354:../Dave/Generated/src/USBLD001/driver/dwc_otg_pcd_intr.c **** 	dwc_otg_pcd_ep_t *ep;
 355:../Dave/Generated/src/USBLD001/driver/dwc_otg_pcd_intr.c **** 	gintsts_data_t gintsts;
 356:../Dave/Generated/src/USBLD001/driver/dwc_otg_pcd_intr.c **** #ifdef DEBUG
 357:../Dave/Generated/src/USBLD001/driver/dwc_otg_pcd_intr.c **** 	static char *dpid_str[] = { "D0", "D2", "D1", "MDATA" };
 358:../Dave/Generated/src/USBLD001/driver/dwc_otg_pcd_intr.c **** #endif
 359:../Dave/Generated/src/USBLD001/driver/dwc_otg_pcd_intr.c **** 
 360:../Dave/Generated/src/USBLD001/driver/dwc_otg_pcd_intr.c **** 	//DWC_DEBUGPL(DBG_PCDV, "%s(%p)\n", __func__, _pcd);
 361:../Dave/Generated/src/USBLD001/driver/dwc_otg_pcd_intr.c **** 	/* Disable the Rx Status Queue Level interrupt */
 362:../Dave/Generated/src/USBLD001/driver/dwc_otg_pcd_intr.c **** 	gintmask.b.rxstsqlvl = 1;
 1161              		.loc 2 362 0
 1162 001a 3B69     		ldr	r3, [r7, #16]
 1163 001c 43F01003 		orr	r3, r3, #16
 1164 0020 3B61     		str	r3, [r7, #16]
 363:../Dave/Generated/src/USBLD001/driver/dwc_otg_pcd_intr.c **** 	DWC_MODIFY_REG32(&global_regs->gintmsk, gintmask.d32, 0);
 1165              		.loc 2 363 0
 1166 0022 BB69     		ldr	r3, [r7, #24]
 1167 0024 03F11802 		add	r2, r3, #24
 1168 0028 3B69     		ldr	r3, [r7, #16]
 1169 002a 1046     		mov	r0, r2
 1170 002c 1946     		mov	r1, r3
 1171 002e 4FF00002 		mov	r2, #0
 1172 0032 FFF7FEFF 		bl	DWC_MODIFY_REG32
 364:../Dave/Generated/src/USBLD001/driver/dwc_otg_pcd_intr.c **** 
 365:../Dave/Generated/src/USBLD001/driver/dwc_otg_pcd_intr.c **** 	/* Get the Status from the top of the FIFO */
 366:../Dave/Generated/src/USBLD001/driver/dwc_otg_pcd_intr.c **** 	status.d32 = DWC_READ_REG32(&global_regs->grxstsp);
 1173              		.loc 2 366 0
 1174 0036 BB69     		ldr	r3, [r7, #24]
 1175 0038 03F12003 		add	r3, r3, #32
 1176 003c 1846     		mov	r0, r3
 1177 003e FFF7FEFF 		bl	DWC_READ_REG32
 1178 0042 0346     		mov	r3, r0
 1179 0044 FB60     		str	r3, [r7, #12]
 367:../Dave/Generated/src/USBLD001/driver/dwc_otg_pcd_intr.c **** 
 368:../Dave/Generated/src/USBLD001/driver/dwc_otg_pcd_intr.c **** 	DWC_DEBUGPL(DBG_PCD, "EP:%d BCnt:%d DPID:%s "
 369:../Dave/Generated/src/USBLD001/driver/dwc_otg_pcd_intr.c **** 		    "pktsts:%x Frame:%d(0x%0x)\n",
 370:../Dave/Generated/src/USBLD001/driver/dwc_otg_pcd_intr.c **** 		    status.b.epnum, status.b.bcnt,
 371:../Dave/Generated/src/USBLD001/driver/dwc_otg_pcd_intr.c **** 		    dpid_str[status.b.dpid],
 372:../Dave/Generated/src/USBLD001/driver/dwc_otg_pcd_intr.c **** 		    status.b.pktsts, status.b.fn, status.b.fn);
 373:../Dave/Generated/src/USBLD001/driver/dwc_otg_pcd_intr.c **** 	/* Get pointer to EP structure */
 374:../Dave/Generated/src/USBLD001/driver/dwc_otg_pcd_intr.c **** 	ep = get_out_ep(pcd, status.b.epnum);
 1180              		.loc 2 374 0
 1181 0046 FB68     		ldr	r3, [r7, #12]
 1182 0048 C3F30303 		ubfx	r3, r3, #0, #4
 1183 004c DBB2     		uxtb	r3, r3
 1184 004e 7868     		ldr	r0, [r7, #4]
 1185 0050 1946     		mov	r1, r3
 1186 0052 FFF7FEFF 		bl	get_out_ep
 1187 0056 7861     		str	r0, [r7, #20]
 375:../Dave/Generated/src/USBLD001/driver/dwc_otg_pcd_intr.c **** 
 376:../Dave/Generated/src/USBLD001/driver/dwc_otg_pcd_intr.c **** 	switch (status.b.pktsts) {
 1188              		.loc 2 376 0
 1189 0058 FB68     		ldr	r3, [r7, #12]
 1190 005a C3F34343 		ubfx	r3, r3, #17, #4
 1191 005e DBB2     		uxtb	r3, r3
 1192 0060 03F1FF33 		add	r3, r3, #-1
 1193 0064 052B     		cmp	r3, #5
 1194 0066 5CD8     		bhi	.L61
 1195 0068 01A2     		adr	r2, .L57
 1196 006a 52F823F0 		ldr	pc, [r2, r3, lsl #2]
 1197 006e 00BF     		.align	2
 1198              	.L57:
 1199 0070 23010000 		.word	.L61+1
 1200 0074 89000000 		.word	.L53+1
 1201 0078 23010000 		.word	.L61+1
 1202 007c 23010000 		.word	.L61+1
 1203 0080 23010000 		.word	.L61+1
 1204 0084 EF000000 		.word	.L56+1
 1205              	.L53:
 377:../Dave/Generated/src/USBLD001/driver/dwc_otg_pcd_intr.c **** 	case DWC_DSTS_GOUT_NAK:
 378:../Dave/Generated/src/USBLD001/driver/dwc_otg_pcd_intr.c **** 		DWC_DEBUGPL(DBG_PCDV, "Global OUT NAK\n");
 379:../Dave/Generated/src/USBLD001/driver/dwc_otg_pcd_intr.c **** 		break;
 380:../Dave/Generated/src/USBLD001/driver/dwc_otg_pcd_intr.c **** 	case DWC_STS_DATA_UPDT:
 381:../Dave/Generated/src/USBLD001/driver/dwc_otg_pcd_intr.c **** 		DWC_DEBUGPL(DBG_PCDV, "OUT Data Packet\n");
 382:../Dave/Generated/src/USBLD001/driver/dwc_otg_pcd_intr.c **** 		if (status.b.bcnt && ep->dwc_ep.xfer_buff) {
 1206              		.loc 2 382 0
 1207 0088 BA89     		ldrh	r2, [r7, #12]
 1208 008a 47F6F073 		movw	r3, #32752
 1209 008e 1340     		ands	r3, r3, r2
 1210 0090 9BB2     		uxth	r3, r3
 1211 0092 002B     		cmp	r3, #0
 1212 0094 47D0     		beq	.L62
 1213              		.loc 2 382 0 is_stmt 0 discriminator 1
 1214 0096 7B69     		ldr	r3, [r7, #20]
 1215 0098 9B6A     		ldr	r3, [r3, #40]
 1216 009a 002B     		cmp	r3, #0
 1217 009c 43D0     		beq	.L62
 383:../Dave/Generated/src/USBLD001/driver/dwc_otg_pcd_intr.c **** 			/** @todo NGS Check for buffer overflow? */
 384:../Dave/Generated/src/USBLD001/driver/dwc_otg_pcd_intr.c **** 			dwc_otg_read_packet(core_if,
 385:../Dave/Generated/src/USBLD001/driver/dwc_otg_pcd_intr.c **** 					    ep->dwc_ep.xfer_buff,
 1218              		.loc 2 385 0 is_stmt 1
 1219 009e 7B69     		ldr	r3, [r7, #20]
 384:../Dave/Generated/src/USBLD001/driver/dwc_otg_pcd_intr.c **** 			dwc_otg_read_packet(core_if,
 1220              		.loc 2 384 0
 1221 00a0 9A6A     		ldr	r2, [r3, #40]
 386:../Dave/Generated/src/USBLD001/driver/dwc_otg_pcd_intr.c **** 					    status.b.bcnt);
 1222              		.loc 2 386 0
 1223 00a2 FB68     		ldr	r3, [r7, #12]
 1224 00a4 C3F30A13 		ubfx	r3, r3, #4, #11
 1225 00a8 9BB2     		uxth	r3, r3
 384:../Dave/Generated/src/USBLD001/driver/dwc_otg_pcd_intr.c **** 			dwc_otg_read_packet(core_if,
 1226              		.loc 2 384 0
 1227 00aa F869     		ldr	r0, [r7, #28]
 1228 00ac 1146     		mov	r1, r2
 1229 00ae 1A46     		mov	r2, r3
 1230 00b0 FFF7FEFF 		bl	dwc_otg_read_packet
 387:../Dave/Generated/src/USBLD001/driver/dwc_otg_pcd_intr.c **** 			ep->dwc_ep.xfer_count += status.b.bcnt;
 1231              		.loc 2 387 0
 1232 00b4 7B69     		ldr	r3, [r7, #20]
 1233 00b6 1B6B     		ldr	r3, [r3, #48]
 1234 00b8 C3F31203 		ubfx	r3, r3, #0, #19
 1235 00bc 1A46     		mov	r2, r3
 1236 00be FB68     		ldr	r3, [r7, #12]
 1237 00c0 C3F30A13 		ubfx	r3, r3, #4, #11
 1238 00c4 9BB2     		uxth	r3, r3
 1239 00c6 D318     		adds	r3, r2, r3
 1240 00c8 23F07F42 		bic	r2, r3, #-16777216
 1241 00cc 22F47802 		bic	r2, r2, #16252928
 1242 00d0 7969     		ldr	r1, [r7, #20]
 1243 00d2 0B6B     		ldr	r3, [r1, #48]
 1244 00d4 62F31203 		bfi	r3, r2, #0, #19
 1245 00d8 0B63     		str	r3, [r1, #48]
 388:../Dave/Generated/src/USBLD001/driver/dwc_otg_pcd_intr.c **** 			ep->dwc_ep.xfer_buff += status.b.bcnt;
 1246              		.loc 2 388 0
 1247 00da 7B69     		ldr	r3, [r7, #20]
 1248 00dc 9A6A     		ldr	r2, [r3, #40]
 1249 00de FB68     		ldr	r3, [r7, #12]
 1250 00e0 C3F30A13 		ubfx	r3, r3, #4, #11
 1251 00e4 9BB2     		uxth	r3, r3
 1252 00e6 D218     		adds	r2, r2, r3
 1253 00e8 7B69     		ldr	r3, [r7, #20]
 1254 00ea 9A62     		str	r2, [r3, #40]
 389:../Dave/Generated/src/USBLD001/driver/dwc_otg_pcd_intr.c **** 		}
 390:../Dave/Generated/src/USBLD001/driver/dwc_otg_pcd_intr.c **** 		break;
 1255              		.loc 2 390 0
 1256 00ec 1BE0     		b	.L62
 1257              	.L56:
 391:../Dave/Generated/src/USBLD001/driver/dwc_otg_pcd_intr.c **** 	case DWC_STS_XFER_COMP:
 392:../Dave/Generated/src/USBLD001/driver/dwc_otg_pcd_intr.c **** 		DWC_DEBUGPL(DBG_PCDV, "OUT Complete\n");
 393:../Dave/Generated/src/USBLD001/driver/dwc_otg_pcd_intr.c **** 		break;
 394:../Dave/Generated/src/USBLD001/driver/dwc_otg_pcd_intr.c **** 	case DWC_DSTS_SETUP_COMP:
 395:../Dave/Generated/src/USBLD001/driver/dwc_otg_pcd_intr.c **** #ifdef DEBUG_EP0
 396:../Dave/Generated/src/USBLD001/driver/dwc_otg_pcd_intr.c **** 		DWC_DEBUGPL(DBG_PCDV, "Setup Complete\n");
 397:../Dave/Generated/src/USBLD001/driver/dwc_otg_pcd_intr.c **** #endif
 398:../Dave/Generated/src/USBLD001/driver/dwc_otg_pcd_intr.c **** 		break;
 399:../Dave/Generated/src/USBLD001/driver/dwc_otg_pcd_intr.c **** 	case DWC_DSTS_SETUP_UPDT:
 400:../Dave/Generated/src/USBLD001/driver/dwc_otg_pcd_intr.c **** 		dwc_otg_read_setup_packet(core_if, pcd->setup_pkt->d32);
 1258              		.loc 2 400 0
 1259 00ee 7B68     		ldr	r3, [r7, #4]
 1260 00f0 5B69     		ldr	r3, [r3, #20]
 1261 00f2 F869     		ldr	r0, [r7, #28]
 1262 00f4 1946     		mov	r1, r3
 1263 00f6 FFF7FEFF 		bl	dwc_otg_read_setup_packet
 401:../Dave/Generated/src/USBLD001/driver/dwc_otg_pcd_intr.c **** #ifdef DEBUG_EP0
 402:../Dave/Generated/src/USBLD001/driver/dwc_otg_pcd_intr.c **** 		DWC_DEBUGPL(DBG_PCD,
 403:../Dave/Generated/src/USBLD001/driver/dwc_otg_pcd_intr.c **** 			    "SETUP PKT: %02x.%02x v%04x i%04x l%04x\n",
 404:../Dave/Generated/src/USBLD001/driver/dwc_otg_pcd_intr.c **** 			    pcd->setup_pkt->req.bmRequestType,
 405:../Dave/Generated/src/USBLD001/driver/dwc_otg_pcd_intr.c **** 			    pcd->setup_pkt->req.bRequest,
 406:../Dave/Generated/src/USBLD001/driver/dwc_otg_pcd_intr.c **** 			    UGETW(pcd->setup_pkt->req.wValue),
 407:../Dave/Generated/src/USBLD001/driver/dwc_otg_pcd_intr.c **** 			    UGETW(pcd->setup_pkt->req.wIndex),
 408:../Dave/Generated/src/USBLD001/driver/dwc_otg_pcd_intr.c **** 			    UGETW(pcd->setup_pkt->req.wLength));
 409:../Dave/Generated/src/USBLD001/driver/dwc_otg_pcd_intr.c **** #endif
 410:../Dave/Generated/src/USBLD001/driver/dwc_otg_pcd_intr.c **** 		ep->dwc_ep.xfer_count += status.b.bcnt;
 1264              		.loc 2 410 0
 1265 00fa 7B69     		ldr	r3, [r7, #20]
 1266 00fc 1B6B     		ldr	r3, [r3, #48]
 1267 00fe C3F31203 		ubfx	r3, r3, #0, #19
 1268 0102 1A46     		mov	r2, r3
 1269 0104 FB68     		ldr	r3, [r7, #12]
 1270 0106 C3F30A13 		ubfx	r3, r3, #4, #11
 1271 010a 9BB2     		uxth	r3, r3
 1272 010c D318     		adds	r3, r2, r3
 1273 010e 23F07F42 		bic	r2, r3, #-16777216
 1274 0112 22F47802 		bic	r2, r2, #16252928
 1275 0116 7969     		ldr	r1, [r7, #20]
 1276 0118 0B6B     		ldr	r3, [r1, #48]
 1277 011a 62F31203 		bfi	r3, r2, #0, #19
 1278 011e 0B63     		str	r3, [r1, #48]
 411:../Dave/Generated/src/USBLD001/driver/dwc_otg_pcd_intr.c **** 		break;
 1279              		.loc 2 411 0
 1280 0120 02E0     		b	.L58
 1281              	.L61:
 412:../Dave/Generated/src/USBLD001/driver/dwc_otg_pcd_intr.c **** 	default:
 413:../Dave/Generated/src/USBLD001/driver/dwc_otg_pcd_intr.c **** 		DWC_DEBUGPL(DBG_PCDV, "Invalid Packet Status (0x%0x)\n",
 414:../Dave/Generated/src/USBLD001/driver/dwc_otg_pcd_intr.c **** 			    status.b.pktsts);
 415:../Dave/Generated/src/USBLD001/driver/dwc_otg_pcd_intr.c **** 		break;
 1282              		.loc 2 415 0
 1283 0122 00BF     		nop
 1284 0124 00E0     		b	.L58
 1285              	.L62:
 390:../Dave/Generated/src/USBLD001/driver/dwc_otg_pcd_intr.c **** 		break;
 1286              		.loc 2 390 0
 1287 0126 00BF     		nop
 1288              	.L58:
 416:../Dave/Generated/src/USBLD001/driver/dwc_otg_pcd_intr.c **** 	}
 417:../Dave/Generated/src/USBLD001/driver/dwc_otg_pcd_intr.c **** 
 418:../Dave/Generated/src/USBLD001/driver/dwc_otg_pcd_intr.c **** #ifndef USE_IFX_DEV
 419:../Dave/Generated/src/USBLD001/driver/dwc_otg_pcd_intr.c **** 	/* Enable the Rx Status Queue Level interrupt */
 420:../Dave/Generated/src/USBLD001/driver/dwc_otg_pcd_intr.c **** 	DWC_MODIFY_REG32(&global_regs->gintmsk, 0, gintmask.d32);
 421:../Dave/Generated/src/USBLD001/driver/dwc_otg_pcd_intr.c **** #endif
 422:../Dave/Generated/src/USBLD001/driver/dwc_otg_pcd_intr.c **** 	/* Clear interrupt */
 423:../Dave/Generated/src/USBLD001/driver/dwc_otg_pcd_intr.c **** 	gintsts.d32 = 0;
 1289              		.loc 2 423 0
 1290 0128 4FF00003 		mov	r3, #0
 1291 012c BB60     		str	r3, [r7, #8]
 424:../Dave/Generated/src/USBLD001/driver/dwc_otg_pcd_intr.c **** 	gintsts.b.rxstsqlvl = 1;
 1292              		.loc 2 424 0
 1293 012e BB68     		ldr	r3, [r7, #8]
 1294 0130 43F01003 		orr	r3, r3, #16
 1295 0134 BB60     		str	r3, [r7, #8]
 425:../Dave/Generated/src/USBLD001/driver/dwc_otg_pcd_intr.c **** 	DWC_WRITE_REG32(&global_regs->gintsts, gintsts.d32);
 1296              		.loc 2 425 0
 1297 0136 BB69     		ldr	r3, [r7, #24]
 1298 0138 03F11402 		add	r2, r3, #20
 1299 013c BB68     		ldr	r3, [r7, #8]
 1300 013e 1046     		mov	r0, r2
 1301 0140 1946     		mov	r1, r3
 1302 0142 FFF7FEFF 		bl	DWC_WRITE_REG32
 426:../Dave/Generated/src/USBLD001/driver/dwc_otg_pcd_intr.c **** 
 427:../Dave/Generated/src/USBLD001/driver/dwc_otg_pcd_intr.c **** #ifdef USE_IFX_DEV
 428:../Dave/Generated/src/USBLD001/driver/dwc_otg_pcd_intr.c **** 	/* Enable the Rx Status Queue Level interrupt */
 429:../Dave/Generated/src/USBLD001/driver/dwc_otg_pcd_intr.c **** 	DWC_MODIFY_REG32(&global_regs->gintmsk, 0, gintmask.d32);
 1303              		.loc 2 429 0
 1304 0146 BB69     		ldr	r3, [r7, #24]
 1305 0148 03F11802 		add	r2, r3, #24
 1306 014c 3B69     		ldr	r3, [r7, #16]
 1307 014e 1046     		mov	r0, r2
 1308 0150 4FF00001 		mov	r1, #0
 1309 0154 1A46     		mov	r2, r3
 1310 0156 FFF7FEFF 		bl	DWC_MODIFY_REG32
 430:../Dave/Generated/src/USBLD001/driver/dwc_otg_pcd_intr.c **** #endif
 431:../Dave/Generated/src/USBLD001/driver/dwc_otg_pcd_intr.c **** 	//DWC_DEBUGPL(DBG_PCDV, "EXIT: %s\n", __func__);
 432:../Dave/Generated/src/USBLD001/driver/dwc_otg_pcd_intr.c **** 	return 1;
 1311              		.loc 2 432 0
 1312 015a 4FF00103 		mov	r3, #1
 433:../Dave/Generated/src/USBLD001/driver/dwc_otg_pcd_intr.c **** }
 1313              		.loc 2 433 0
 1314 015e 1846     		mov	r0, r3
 1315 0160 07F12007 		add	r7, r7, #32
 1316 0164 BD46     		mov	sp, r7
 1317 0166 80BD     		pop	{r7, pc}
 1318              		.cfi_endproc
 1319              	.LFE27:
 1321              		.section	.text.get_ep_of_last_in_token,"ax",%progbits
 1322              		.align	2
 1323              		.thumb
 1324              		.thumb_func
 1326              	get_ep_of_last_in_token:
 1327              	.LFB28:
 434:../Dave/Generated/src/USBLD001/driver/dwc_otg_pcd_intr.c **** 
 435:../Dave/Generated/src/USBLD001/driver/dwc_otg_pcd_intr.c **** /**
 436:../Dave/Generated/src/USBLD001/driver/dwc_otg_pcd_intr.c ****  * This function examines the Device IN Token Learning Queue to
 437:../Dave/Generated/src/USBLD001/driver/dwc_otg_pcd_intr.c ****  * determine the EP number of the last IN token received.  This
 438:../Dave/Generated/src/USBLD001/driver/dwc_otg_pcd_intr.c ****  * implementation is for the Mass Storage device where there are only
 439:../Dave/Generated/src/USBLD001/driver/dwc_otg_pcd_intr.c ****  * 2 IN EPs (Control-IN and BULK-IN).
 440:../Dave/Generated/src/USBLD001/driver/dwc_otg_pcd_intr.c ****  *
 441:../Dave/Generated/src/USBLD001/driver/dwc_otg_pcd_intr.c ****  * The EP numbers for the first six IN Tokens are in DTKNQR1 and there
 442:../Dave/Generated/src/USBLD001/driver/dwc_otg_pcd_intr.c ****  * are 8 EP Numbers in each of the other possible DTKNQ Registers.
 443:../Dave/Generated/src/USBLD001/driver/dwc_otg_pcd_intr.c ****  *
 444:../Dave/Generated/src/USBLD001/driver/dwc_otg_pcd_intr.c ****  * @param core_if Programming view of DWC_otg controller.
 445:../Dave/Generated/src/USBLD001/driver/dwc_otg_pcd_intr.c ****  *
 446:../Dave/Generated/src/USBLD001/driver/dwc_otg_pcd_intr.c ****  */
 447:../Dave/Generated/src/USBLD001/driver/dwc_otg_pcd_intr.c **** static inline int get_ep_of_last_in_token(dwc_otg_core_if_t * core_if)
 448:../Dave/Generated/src/USBLD001/driver/dwc_otg_pcd_intr.c **** {
 1328              		.loc 2 448 0
 1329              		.cfi_startproc
 1330              		@ args = 0, pretend = 0, frame = 64
 1331              		@ frame_needed = 1, uses_anonymous_args = 0
 1332 0000 80B5     		push	{r7, lr}
 1333              	.LCFI39:
 1334              		.cfi_def_cfa_offset 8
 1335              		.cfi_offset 7, -8
 1336              		.cfi_offset 14, -4
 1337 0002 90B0     		sub	sp, sp, #64
 1338              	.LCFI40:
 1339              		.cfi_def_cfa_offset 72
 1340 0004 00AF     		add	r7, sp, #0
 1341              	.LCFI41:
 1342              		.cfi_def_cfa_register 7
 1343 0006 7860     		str	r0, [r7, #4]
 449:../Dave/Generated/src/USBLD001/driver/dwc_otg_pcd_intr.c **** 	dwc_otg_device_global_regs_t *dev_global_regs =
 450:../Dave/Generated/src/USBLD001/driver/dwc_otg_pcd_intr.c **** 	    core_if->dev_if->dev_global_regs;
 1344              		.loc 2 450 0
 1345 0008 7B68     		ldr	r3, [r7, #4]
 1346 000a 9B68     		ldr	r3, [r3, #8]
 449:../Dave/Generated/src/USBLD001/driver/dwc_otg_pcd_intr.c **** 	dwc_otg_device_global_regs_t *dev_global_regs =
 1347              		.loc 2 449 0
 1348 000c 1B68     		ldr	r3, [r3, #0]
 1349 000e FB62     		str	r3, [r7, #44]
 451:../Dave/Generated/src/USBLD001/driver/dwc_otg_pcd_intr.c **** 	const uint32_t TOKEN_Q_DEPTH = core_if->hwcfg2.b.dev_token_q_depth;
 1350              		.loc 2 451 0
 1351 0010 7B68     		ldr	r3, [r7, #4]
 1352 0012 93F85330 		ldrb	r3, [r3, #83]
 1353 0016 C3F38403 		ubfx	r3, r3, #2, #5
 1354 001a DBB2     		uxtb	r3, r3
 1355 001c BB62     		str	r3, [r7, #40]
 452:../Dave/Generated/src/USBLD001/driver/dwc_otg_pcd_intr.c **** 	/* Number of Token Queue Registers */
 453:../Dave/Generated/src/USBLD001/driver/dwc_otg_pcd_intr.c **** 	const int DTKNQ_REG_CNT = (TOKEN_Q_DEPTH + 7) / 8;
 1356              		.loc 2 453 0
 1357 001e BB6A     		ldr	r3, [r7, #40]
 1358 0020 03F10703 		add	r3, r3, #7
 1359 0024 4FEAD303 		lsr	r3, r3, #3
 1360 0028 7B62     		str	r3, [r7, #36]
 454:../Dave/Generated/src/USBLD001/driver/dwc_otg_pcd_intr.c **** 	dtknq1_data_t dtknqr1;
 455:../Dave/Generated/src/USBLD001/driver/dwc_otg_pcd_intr.c **** 	uint32_t in_tkn_epnums[4];
 456:../Dave/Generated/src/USBLD001/driver/dwc_otg_pcd_intr.c **** 	int ndx = 0;
 1361              		.loc 2 456 0
 1362 002a 4FF00003 		mov	r3, #0
 1363 002e 3B62     		str	r3, [r7, #32]
 457:../Dave/Generated/src/USBLD001/driver/dwc_otg_pcd_intr.c **** 	int i = 0;
 1364              		.loc 2 457 0
 1365 0030 4FF00003 		mov	r3, #0
 1366 0034 FB63     		str	r3, [r7, #60]
 458:../Dave/Generated/src/USBLD001/driver/dwc_otg_pcd_intr.c **** 	volatile uint32_t *addr = &dev_global_regs->dtknqr1;
 1367              		.loc 2 458 0
 1368 0036 FB6A     		ldr	r3, [r7, #44]
 1369 0038 03F12003 		add	r3, r3, #32
 1370 003c BB63     		str	r3, [r7, #56]
 459:../Dave/Generated/src/USBLD001/driver/dwc_otg_pcd_intr.c **** 	int epnum = 0;
 1371              		.loc 2 459 0
 1372 003e 4FF00003 		mov	r3, #0
 1373 0042 7B63     		str	r3, [r7, #52]
 460:../Dave/Generated/src/USBLD001/driver/dwc_otg_pcd_intr.c **** 
 461:../Dave/Generated/src/USBLD001/driver/dwc_otg_pcd_intr.c **** 	//DWC_DEBUGPL(DBG_PCD,"dev_token_q_depth=%d\n",TOKEN_Q_DEPTH);
 462:../Dave/Generated/src/USBLD001/driver/dwc_otg_pcd_intr.c **** 
 463:../Dave/Generated/src/USBLD001/driver/dwc_otg_pcd_intr.c **** 	/* Read the DTKNQ Registers */
 464:../Dave/Generated/src/USBLD001/driver/dwc_otg_pcd_intr.c **** 	for (i = 0; i < DTKNQ_REG_CNT; i++) {
 1374              		.loc 2 464 0
 1375 0044 4FF00003 		mov	r3, #0
 1376 0048 FB63     		str	r3, [r7, #60]
 1377 004a 1EE0     		b	.L64
 1378              	.L67:
 465:../Dave/Generated/src/USBLD001/driver/dwc_otg_pcd_intr.c **** 		in_tkn_epnums[i] = DWC_READ_REG32(addr);
 1379              		.loc 2 465 0
 1380 004c B86B     		ldr	r0, [r7, #56]
 1381 004e FFF7FEFF 		bl	DWC_READ_REG32
 1382 0052 0246     		mov	r2, r0
 1383 0054 FB6B     		ldr	r3, [r7, #60]
 1384 0056 4FEA8303 		lsl	r3, r3, #2
 1385 005a 07F14001 		add	r1, r7, #64
 1386 005e CB18     		adds	r3, r1, r3
 1387 0060 43F8342C 		str	r2, [r3, #-52]
 466:../Dave/Generated/src/USBLD001/driver/dwc_otg_pcd_intr.c **** 		DWC_DEBUGPL(DBG_PCDV, "DTKNQR%d=0x%08x\n", i + 1,
 467:../Dave/Generated/src/USBLD001/driver/dwc_otg_pcd_intr.c **** 			    in_tkn_epnums[i]);
 468:../Dave/Generated/src/USBLD001/driver/dwc_otg_pcd_intr.c **** 		if (addr == &dev_global_regs->dvbusdis) {
 1388              		.loc 2 468 0
 1389 0064 FB6A     		ldr	r3, [r7, #44]
 1390 0066 03F12802 		add	r2, r3, #40
 1391 006a BB6B     		ldr	r3, [r7, #56]
 1392 006c 9A42     		cmp	r2, r3
 1393 006e 04D1     		bne	.L65
 469:../Dave/Generated/src/USBLD001/driver/dwc_otg_pcd_intr.c **** 			addr = &dev_global_regs->dtknqr3_dthrctl;
 1394              		.loc 2 469 0
 1395 0070 FB6A     		ldr	r3, [r7, #44]
 1396 0072 03F13003 		add	r3, r3, #48
 1397 0076 BB63     		str	r3, [r7, #56]
 1398 0078 03E0     		b	.L66
 1399              	.L65:
 470:../Dave/Generated/src/USBLD001/driver/dwc_otg_pcd_intr.c **** 		} else {
 471:../Dave/Generated/src/USBLD001/driver/dwc_otg_pcd_intr.c **** 			++addr;
 1400              		.loc 2 471 0
 1401 007a BB6B     		ldr	r3, [r7, #56]
 1402 007c 03F10403 		add	r3, r3, #4
 1403 0080 BB63     		str	r3, [r7, #56]
 1404              	.L66:
 464:../Dave/Generated/src/USBLD001/driver/dwc_otg_pcd_intr.c **** 	for (i = 0; i < DTKNQ_REG_CNT; i++) {
 1405              		.loc 2 464 0
 1406 0082 FB6B     		ldr	r3, [r7, #60]
 1407 0084 03F10103 		add	r3, r3, #1
 1408 0088 FB63     		str	r3, [r7, #60]
 1409              	.L64:
 464:../Dave/Generated/src/USBLD001/driver/dwc_otg_pcd_intr.c **** 	for (i = 0; i < DTKNQ_REG_CNT; i++) {
 1410              		.loc 2 464 0 is_stmt 0 discriminator 1
 1411 008a FA6B     		ldr	r2, [r7, #60]
 1412 008c 7B6A     		ldr	r3, [r7, #36]
 1413 008e 9A42     		cmp	r2, r3
 1414 0090 DCDB     		blt	.L67
 472:../Dave/Generated/src/USBLD001/driver/dwc_otg_pcd_intr.c **** 		}
 473:../Dave/Generated/src/USBLD001/driver/dwc_otg_pcd_intr.c **** 
 474:../Dave/Generated/src/USBLD001/driver/dwc_otg_pcd_intr.c **** 	}
 475:../Dave/Generated/src/USBLD001/driver/dwc_otg_pcd_intr.c **** 
 476:../Dave/Generated/src/USBLD001/driver/dwc_otg_pcd_intr.c **** 	/* Copy the DTKNQR1 data to the bit field. */
 477:../Dave/Generated/src/USBLD001/driver/dwc_otg_pcd_intr.c **** 	dtknqr1.d32 = in_tkn_epnums[0];
 1415              		.loc 2 477 0 is_stmt 1
 1416 0092 FB68     		ldr	r3, [r7, #12]
 1417 0094 FB61     		str	r3, [r7, #28]
 478:../Dave/Generated/src/USBLD001/driver/dwc_otg_pcd_intr.c **** 	/* Get the EP numbers */
 479:../Dave/Generated/src/USBLD001/driver/dwc_otg_pcd_intr.c **** 	in_tkn_epnums[0] = dtknqr1.b.epnums0_5;
 1418              		.loc 2 479 0
 1419 0096 FB69     		ldr	r3, [r7, #28]
 1420 0098 C3F31723 		ubfx	r3, r3, #8, #24
 1421 009c FB60     		str	r3, [r7, #12]
 480:../Dave/Generated/src/USBLD001/driver/dwc_otg_pcd_intr.c **** 	ndx = dtknqr1.b.intknwptr - 1;
 1422              		.loc 2 480 0
 1423 009e FB69     		ldr	r3, [r7, #28]
 1424 00a0 C3F30403 		ubfx	r3, r3, #0, #5
 1425 00a4 DBB2     		uxtb	r3, r3
 1426 00a6 03F1FF33 		add	r3, r3, #-1
 1427 00aa 3B62     		str	r3, [r7, #32]
 481:../Dave/Generated/src/USBLD001/driver/dwc_otg_pcd_intr.c **** 
 482:../Dave/Generated/src/USBLD001/driver/dwc_otg_pcd_intr.c **** 	//DWC_DEBUGPL(DBG_PCDV,"ndx=%d\n",ndx);
 483:../Dave/Generated/src/USBLD001/driver/dwc_otg_pcd_intr.c **** 	if (ndx == -1) {
 1428              		.loc 2 483 0
 1429 00ac 3B6A     		ldr	r3, [r7, #32]
 1430 00ae B3F1FF3F 		cmp	r3, #-1
 1431 00b2 30D1     		bne	.L68
 1432              	.LBB3:
 484:../Dave/Generated/src/USBLD001/driver/dwc_otg_pcd_intr.c **** 		/** @todo Find a simpler way to calculate the max
 485:../Dave/Generated/src/USBLD001/driver/dwc_otg_pcd_intr.c **** 		 * queue position.*/
 486:../Dave/Generated/src/USBLD001/driver/dwc_otg_pcd_intr.c **** 		int cnt = TOKEN_Q_DEPTH;
 1433              		.loc 2 486 0
 1434 00b4 BB6A     		ldr	r3, [r7, #40]
 1435 00b6 3B63     		str	r3, [r7, #48]
 487:../Dave/Generated/src/USBLD001/driver/dwc_otg_pcd_intr.c **** 		if (TOKEN_Q_DEPTH <= 6) {
 1436              		.loc 2 487 0
 1437 00b8 BB6A     		ldr	r3, [r7, #40]
 1438 00ba 062B     		cmp	r3, #6
 1439 00bc 04D8     		bhi	.L69
 488:../Dave/Generated/src/USBLD001/driver/dwc_otg_pcd_intr.c **** 			cnt = TOKEN_Q_DEPTH - 1;
 1440              		.loc 2 488 0
 1441 00be BB6A     		ldr	r3, [r7, #40]
 1442 00c0 03F1FF33 		add	r3, r3, #-1
 1443 00c4 3B63     		str	r3, [r7, #48]
 1444 00c6 13E0     		b	.L70
 1445              	.L69:
 489:../Dave/Generated/src/USBLD001/driver/dwc_otg_pcd_intr.c **** 		} else if (TOKEN_Q_DEPTH <= 14) {
 1446              		.loc 2 489 0
 1447 00c8 BB6A     		ldr	r3, [r7, #40]
 1448 00ca 0E2B     		cmp	r3, #14
 1449 00cc 04D8     		bhi	.L71
 490:../Dave/Generated/src/USBLD001/driver/dwc_otg_pcd_intr.c **** 			cnt = TOKEN_Q_DEPTH - 7;
 1450              		.loc 2 490 0
 1451 00ce BB6A     		ldr	r3, [r7, #40]
 1452 00d0 A3F10703 		sub	r3, r3, #7
 1453 00d4 3B63     		str	r3, [r7, #48]
 1454 00d6 0BE0     		b	.L70
 1455              	.L71:
 491:../Dave/Generated/src/USBLD001/driver/dwc_otg_pcd_intr.c **** 		} else if (TOKEN_Q_DEPTH <= 22) {
 1456              		.loc 2 491 0
 1457 00d8 BB6A     		ldr	r3, [r7, #40]
 1458 00da 162B     		cmp	r3, #22
 1459 00dc 04D8     		bhi	.L72
 492:../Dave/Generated/src/USBLD001/driver/dwc_otg_pcd_intr.c **** 			cnt = TOKEN_Q_DEPTH - 15;
 1460              		.loc 2 492 0
 1461 00de BB6A     		ldr	r3, [r7, #40]
 1462 00e0 A3F10F03 		sub	r3, r3, #15
 1463 00e4 3B63     		str	r3, [r7, #48]
 1464 00e6 03E0     		b	.L70
 1465              	.L72:
 493:../Dave/Generated/src/USBLD001/driver/dwc_otg_pcd_intr.c **** 		} else {
 494:../Dave/Generated/src/USBLD001/driver/dwc_otg_pcd_intr.c **** 			cnt = TOKEN_Q_DEPTH - 23;
 1466              		.loc 2 494 0
 1467 00e8 BB6A     		ldr	r3, [r7, #40]
 1468 00ea A3F11703 		sub	r3, r3, #23
 1469 00ee 3B63     		str	r3, [r7, #48]
 1470              	.L70:
 495:../Dave/Generated/src/USBLD001/driver/dwc_otg_pcd_intr.c **** 		}
 496:../Dave/Generated/src/USBLD001/driver/dwc_otg_pcd_intr.c **** 		epnum = (in_tkn_epnums[DTKNQ_REG_CNT - 1] >> (cnt * 4)) & 0xF;
 1471              		.loc 2 496 0
 1472 00f0 7B6A     		ldr	r3, [r7, #36]
 1473 00f2 03F1FF33 		add	r3, r3, #-1
 1474 00f6 4FEA8303 		lsl	r3, r3, #2
 1475 00fa 07F14002 		add	r2, r7, #64
 1476 00fe D318     		adds	r3, r2, r3
 1477 0100 53F8342C 		ldr	r2, [r3, #-52]
 1478 0104 3B6B     		ldr	r3, [r7, #48]
 1479 0106 4FEA8303 		lsl	r3, r3, #2
 1480 010a 22FA03F3 		lsr	r3, r2, r3
 1481 010e 03F00F03 		and	r3, r3, #15
 1482 0112 7B63     		str	r3, [r7, #52]
 1483 0114 3EE0     		b	.L73
 1484              	.L68:
 1485              	.LBE3:
 497:../Dave/Generated/src/USBLD001/driver/dwc_otg_pcd_intr.c **** 	} else {
 498:../Dave/Generated/src/USBLD001/driver/dwc_otg_pcd_intr.c **** 		if (ndx <= 5) {
 1486              		.loc 2 498 0
 1487 0116 3B6A     		ldr	r3, [r7, #32]
 1488 0118 052B     		cmp	r3, #5
 1489 011a 09DC     		bgt	.L74
 499:../Dave/Generated/src/USBLD001/driver/dwc_otg_pcd_intr.c **** 			epnum = (in_tkn_epnums[0] >> (ndx * 4)) & 0xF;
 1490              		.loc 2 499 0
 1491 011c FA68     		ldr	r2, [r7, #12]
 1492 011e 3B6A     		ldr	r3, [r7, #32]
 1493 0120 4FEA8303 		lsl	r3, r3, #2
 1494 0124 22FA03F3 		lsr	r3, r2, r3
 1495 0128 03F00F03 		and	r3, r3, #15
 1496 012c 7B63     		str	r3, [r7, #52]
 1497 012e 31E0     		b	.L73
 1498              	.L74:
 500:../Dave/Generated/src/USBLD001/driver/dwc_otg_pcd_intr.c **** 		} else if (ndx <= 13) {
 1499              		.loc 2 500 0
 1500 0130 3B6A     		ldr	r3, [r7, #32]
 1501 0132 0D2B     		cmp	r3, #13
 1502 0134 0DDC     		bgt	.L75
 501:../Dave/Generated/src/USBLD001/driver/dwc_otg_pcd_intr.c **** 			ndx -= 6;
 1503              		.loc 2 501 0
 1504 0136 3B6A     		ldr	r3, [r7, #32]
 1505 0138 A3F10603 		sub	r3, r3, #6
 1506 013c 3B62     		str	r3, [r7, #32]
 502:../Dave/Generated/src/USBLD001/driver/dwc_otg_pcd_intr.c **** 			epnum = (in_tkn_epnums[1] >> (ndx * 4)) & 0xF;
 1507              		.loc 2 502 0
 1508 013e 3A69     		ldr	r2, [r7, #16]
 1509 0140 3B6A     		ldr	r3, [r7, #32]
 1510 0142 4FEA8303 		lsl	r3, r3, #2
 1511 0146 22FA03F3 		lsr	r3, r2, r3
 1512 014a 03F00F03 		and	r3, r3, #15
 1513 014e 7B63     		str	r3, [r7, #52]
 1514 0150 20E0     		b	.L73
 1515              	.L75:
 503:../Dave/Generated/src/USBLD001/driver/dwc_otg_pcd_intr.c **** 		} else if (ndx <= 21) {
 1516              		.loc 2 503 0
 1517 0152 3B6A     		ldr	r3, [r7, #32]
 1518 0154 152B     		cmp	r3, #21
 1519 0156 0DDC     		bgt	.L76
 504:../Dave/Generated/src/USBLD001/driver/dwc_otg_pcd_intr.c **** 			ndx -= 14;
 1520              		.loc 2 504 0
 1521 0158 3B6A     		ldr	r3, [r7, #32]
 1522 015a A3F10E03 		sub	r3, r3, #14
 1523 015e 3B62     		str	r3, [r7, #32]
 505:../Dave/Generated/src/USBLD001/driver/dwc_otg_pcd_intr.c **** 			epnum = (in_tkn_epnums[2] >> (ndx * 4)) & 0xF;
 1524              		.loc 2 505 0
 1525 0160 7A69     		ldr	r2, [r7, #20]
 1526 0162 3B6A     		ldr	r3, [r7, #32]
 1527 0164 4FEA8303 		lsl	r3, r3, #2
 1528 0168 22FA03F3 		lsr	r3, r2, r3
 1529 016c 03F00F03 		and	r3, r3, #15
 1530 0170 7B63     		str	r3, [r7, #52]
 1531 0172 0FE0     		b	.L73
 1532              	.L76:
 506:../Dave/Generated/src/USBLD001/driver/dwc_otg_pcd_intr.c **** 		} else if (ndx <= 29) {
 1533              		.loc 2 506 0
 1534 0174 3B6A     		ldr	r3, [r7, #32]
 1535 0176 1D2B     		cmp	r3, #29
 1536 0178 0CDC     		bgt	.L73
 507:../Dave/Generated/src/USBLD001/driver/dwc_otg_pcd_intr.c **** 			ndx -= 22;
 1537              		.loc 2 507 0
 1538 017a 3B6A     		ldr	r3, [r7, #32]
 1539 017c A3F11603 		sub	r3, r3, #22
 1540 0180 3B62     		str	r3, [r7, #32]
 508:../Dave/Generated/src/USBLD001/driver/dwc_otg_pcd_intr.c **** 			epnum = (in_tkn_epnums[3] >> (ndx * 4)) & 0xF;
 1541              		.loc 2 508 0
 1542 0182 BA69     		ldr	r2, [r7, #24]
 1543 0184 3B6A     		ldr	r3, [r7, #32]
 1544 0186 4FEA8303 		lsl	r3, r3, #2
 1545 018a 22FA03F3 		lsr	r3, r2, r3
 1546 018e 03F00F03 		and	r3, r3, #15
 1547 0192 7B63     		str	r3, [r7, #52]
 1548              	.L73:
 509:../Dave/Generated/src/USBLD001/driver/dwc_otg_pcd_intr.c **** 		}
 510:../Dave/Generated/src/USBLD001/driver/dwc_otg_pcd_intr.c **** 	}
 511:../Dave/Generated/src/USBLD001/driver/dwc_otg_pcd_intr.c **** 	//DWC_DEBUGPL(DBG_PCD,"epnum=%d\n",epnum);
 512:../Dave/Generated/src/USBLD001/driver/dwc_otg_pcd_intr.c **** 	return epnum;
 1549              		.loc 2 512 0
 1550 0194 7B6B     		ldr	r3, [r7, #52]
 513:../Dave/Generated/src/USBLD001/driver/dwc_otg_pcd_intr.c **** }
 1551              		.loc 2 513 0
 1552 0196 1846     		mov	r0, r3
 1553 0198 07F14007 		add	r7, r7, #64
 1554 019c BD46     		mov	sp, r7
 1555 019e 80BD     		pop	{r7, pc}
 1556              		.cfi_endproc
 1557              	.LFE28:
 1559              		.section	.text.dwc_otg_pcd_handle_np_tx_fifo_empty_intr,"ax",%progbits
 1560              		.align	2
 1561              		.global	dwc_otg_pcd_handle_np_tx_fifo_empty_intr
 1562              		.thumb
 1563              		.thumb_func
 1565              	dwc_otg_pcd_handle_np_tx_fifo_empty_intr:
 1566              	.LFB29:
 514:../Dave/Generated/src/USBLD001/driver/dwc_otg_pcd_intr.c **** 
 515:../Dave/Generated/src/USBLD001/driver/dwc_otg_pcd_intr.c **** /**
 516:../Dave/Generated/src/USBLD001/driver/dwc_otg_pcd_intr.c ****  * This interrupt occurs when the non-periodic Tx FIFO is half-empty.
 517:../Dave/Generated/src/USBLD001/driver/dwc_otg_pcd_intr.c ****  * The active request is checked for the next packet to be loaded into
 518:../Dave/Generated/src/USBLD001/driver/dwc_otg_pcd_intr.c ****  * the non-periodic Tx FIFO.
 519:../Dave/Generated/src/USBLD001/driver/dwc_otg_pcd_intr.c ****  */
 520:../Dave/Generated/src/USBLD001/driver/dwc_otg_pcd_intr.c **** int32_t dwc_otg_pcd_handle_np_tx_fifo_empty_intr(dwc_otg_pcd_t * pcd)
 521:../Dave/Generated/src/USBLD001/driver/dwc_otg_pcd_intr.c **** {
 1567              		.loc 2 521 0
 1568              		.cfi_startproc
 1569              		@ args = 0, pretend = 0, frame = 40
 1570              		@ frame_needed = 1, uses_anonymous_args = 0
 1571 0000 80B5     		push	{r7, lr}
 1572              	.LCFI42:
 1573              		.cfi_def_cfa_offset 8
 1574              		.cfi_offset 7, -8
 1575              		.cfi_offset 14, -4
 1576 0002 8AB0     		sub	sp, sp, #40
 1577              	.LCFI43:
 1578              		.cfi_def_cfa_offset 48
 1579 0004 00AF     		add	r7, sp, #0
 1580              	.LCFI44:
 1581              		.cfi_def_cfa_register 7
 1582 0006 7860     		str	r0, [r7, #4]
 522:../Dave/Generated/src/USBLD001/driver/dwc_otg_pcd_intr.c **** 	dwc_otg_core_if_t *core_if = GET_CORE_IF(pcd);
 1583              		.loc 2 522 0
 1584 0008 7B68     		ldr	r3, [r7, #4]
 1585 000a 9B68     		ldr	r3, [r3, #8]
 1586 000c FB61     		str	r3, [r7, #28]
 523:../Dave/Generated/src/USBLD001/driver/dwc_otg_pcd_intr.c **** 	dwc_otg_core_global_regs_t *global_regs = core_if->core_global_regs;
 1587              		.loc 2 523 0
 1588 000e FB69     		ldr	r3, [r7, #28]
 1589 0010 5B68     		ldr	r3, [r3, #4]
 1590 0012 BB61     		str	r3, [r7, #24]
 524:../Dave/Generated/src/USBLD001/driver/dwc_otg_pcd_intr.c **** #ifndef USE_IFX_DEV
 525:../Dave/Generated/src/USBLD001/driver/dwc_otg_pcd_intr.c **** 	dwc_otg_dev_in_ep_regs_t *ep_regs;
 526:../Dave/Generated/src/USBLD001/driver/dwc_otg_pcd_intr.c **** #endif
 527:../Dave/Generated/src/USBLD001/driver/dwc_otg_pcd_intr.c **** 	gnptxsts_data_t txstatus = {.d32 = 0 };
 1591              		.loc 2 527 0
 1592 0014 4FF00003 		mov	r3, #0
 1593 0018 FB60     		str	r3, [r7, #12]
 528:../Dave/Generated/src/USBLD001/driver/dwc_otg_pcd_intr.c **** 	gintsts_data_t gintsts;
 529:../Dave/Generated/src/USBLD001/driver/dwc_otg_pcd_intr.c **** 
 530:../Dave/Generated/src/USBLD001/driver/dwc_otg_pcd_intr.c **** 	int epnum = 0;
 1594              		.loc 2 530 0
 1595 001a 4FF00003 		mov	r3, #0
 1596 001e 7B61     		str	r3, [r7, #20]
 531:../Dave/Generated/src/USBLD001/driver/dwc_otg_pcd_intr.c **** 	dwc_otg_pcd_ep_t *ep = 0;
 1597              		.loc 2 531 0
 1598 0020 4FF00003 		mov	r3, #0
 1599 0024 3B61     		str	r3, [r7, #16]
 532:../Dave/Generated/src/USBLD001/driver/dwc_otg_pcd_intr.c **** 	uint32_t len = 0;
 1600              		.loc 2 532 0
 1601 0026 4FF00003 		mov	r3, #0
 1602 002a 7B62     		str	r3, [r7, #36]
 533:../Dave/Generated/src/USBLD001/driver/dwc_otg_pcd_intr.c **** 	int dwords;
 534:../Dave/Generated/src/USBLD001/driver/dwc_otg_pcd_intr.c **** 
 535:../Dave/Generated/src/USBLD001/driver/dwc_otg_pcd_intr.c **** 	/* Get the epnum from the IN Token Learning Queue. */
 536:../Dave/Generated/src/USBLD001/driver/dwc_otg_pcd_intr.c **** 	epnum = get_ep_of_last_in_token(core_if);
 1603              		.loc 2 536 0
 1604 002c F869     		ldr	r0, [r7, #28]
 1605 002e FFF7FEFF 		bl	get_ep_of_last_in_token
 1606 0032 7861     		str	r0, [r7, #20]
 537:../Dave/Generated/src/USBLD001/driver/dwc_otg_pcd_intr.c **** 	ep = get_in_ep(pcd, epnum);
 1607              		.loc 2 537 0
 1608 0034 7B69     		ldr	r3, [r7, #20]
 1609 0036 7868     		ldr	r0, [r7, #4]
 1610 0038 1946     		mov	r1, r3
 1611 003a FFF7FEFF 		bl	get_in_ep
 1612 003e 3861     		str	r0, [r7, #16]
 538:../Dave/Generated/src/USBLD001/driver/dwc_otg_pcd_intr.c **** 
 539:../Dave/Generated/src/USBLD001/driver/dwc_otg_pcd_intr.c **** 	DWC_DEBUGPL(DBG_PCD, "NP TxFifo Empty: %d \n", epnum);
 540:../Dave/Generated/src/USBLD001/driver/dwc_otg_pcd_intr.c **** 
 541:../Dave/Generated/src/USBLD001/driver/dwc_otg_pcd_intr.c **** #ifndef USE_IFX_DEV
 542:../Dave/Generated/src/USBLD001/driver/dwc_otg_pcd_intr.c **** 	ep_regs = core_if->dev_if->in_ep_regs[epnum];
 543:../Dave/Generated/src/USBLD001/driver/dwc_otg_pcd_intr.c **** #endif
 544:../Dave/Generated/src/USBLD001/driver/dwc_otg_pcd_intr.c **** 
 545:../Dave/Generated/src/USBLD001/driver/dwc_otg_pcd_intr.c **** 	len = ep->dwc_ep.xfer_len - ep->dwc_ep.xfer_count;
 1613              		.loc 2 545 0
 1614 0040 3B69     		ldr	r3, [r7, #16]
 1615 0042 DB6A     		ldr	r3, [r3, #44]
 1616 0044 C3F31203 		ubfx	r3, r3, #0, #19
 1617 0048 1A46     		mov	r2, r3
 1618 004a 3B69     		ldr	r3, [r7, #16]
 1619 004c 1B6B     		ldr	r3, [r3, #48]
 1620 004e C3F31203 		ubfx	r3, r3, #0, #19
 1621 0052 D31A     		subs	r3, r2, r3
 1622 0054 7B62     		str	r3, [r7, #36]
 546:../Dave/Generated/src/USBLD001/driver/dwc_otg_pcd_intr.c **** 	if (len > ep->dwc_ep.maxpacket) {
 1623              		.loc 2 546 0
 1624 0056 3B69     		ldr	r3, [r7, #16]
 1625 0058 5B8A     		ldrh	r3, [r3, #18]	@ movhi
 1626 005a C3F38A03 		ubfx	r3, r3, #2, #11
 1627 005e 9BB2     		uxth	r3, r3
 1628 0060 1A46     		mov	r2, r3
 1629 0062 7B6A     		ldr	r3, [r7, #36]
 1630 0064 9A42     		cmp	r2, r3
 1631 0066 05D2     		bcs	.L79
 547:../Dave/Generated/src/USBLD001/driver/dwc_otg_pcd_intr.c **** 		len = ep->dwc_ep.maxpacket;
 1632              		.loc 2 547 0
 1633 0068 3B69     		ldr	r3, [r7, #16]
 1634 006a 5B8A     		ldrh	r3, [r3, #18]	@ movhi
 1635 006c C3F38A03 		ubfx	r3, r3, #2, #11
 1636 0070 9BB2     		uxth	r3, r3
 1637 0072 7B62     		str	r3, [r7, #36]
 1638              	.L79:
 548:../Dave/Generated/src/USBLD001/driver/dwc_otg_pcd_intr.c **** 	}
 549:../Dave/Generated/src/USBLD001/driver/dwc_otg_pcd_intr.c **** 	dwords = (len + 3) / 4;
 1639              		.loc 2 549 0
 1640 0074 7B6A     		ldr	r3, [r7, #36]
 1641 0076 03F10303 		add	r3, r3, #3
 1642 007a 4FEA9303 		lsr	r3, r3, #2
 1643 007e 3B62     		str	r3, [r7, #32]
 550:../Dave/Generated/src/USBLD001/driver/dwc_otg_pcd_intr.c **** 
 551:../Dave/Generated/src/USBLD001/driver/dwc_otg_pcd_intr.c **** 	/* While there is space in the queue and space in the FIFO and
 552:../Dave/Generated/src/USBLD001/driver/dwc_otg_pcd_intr.c **** 	 * More data to tranfer, Write packets to the Tx FIFO */
 553:../Dave/Generated/src/USBLD001/driver/dwc_otg_pcd_intr.c **** 	txstatus.d32 = DWC_READ_REG32(&global_regs->gnptxsts);
 1644              		.loc 2 553 0
 1645 0080 BB69     		ldr	r3, [r7, #24]
 1646 0082 03F12C03 		add	r3, r3, #44
 1647 0086 1846     		mov	r0, r3
 1648 0088 FFF7FEFF 		bl	DWC_READ_REG32
 1649 008c 0346     		mov	r3, r0
 1650 008e FB60     		str	r3, [r7, #12]
 554:../Dave/Generated/src/USBLD001/driver/dwc_otg_pcd_intr.c **** 	DWC_DEBUGPL(DBG_PCDV, "b4 GNPTXSTS=0x%08x\n", txstatus.d32);
 555:../Dave/Generated/src/USBLD001/driver/dwc_otg_pcd_intr.c **** 
 556:../Dave/Generated/src/USBLD001/driver/dwc_otg_pcd_intr.c **** 	while (txstatus.b.nptxqspcavail > 0 &&
 1651              		.loc 2 556 0
 1652 0090 30E0     		b	.L80
 1653              	.L83:
 557:../Dave/Generated/src/USBLD001/driver/dwc_otg_pcd_intr.c **** 	       txstatus.b.nptxfspcavail > dwords &&
 558:../Dave/Generated/src/USBLD001/driver/dwc_otg_pcd_intr.c **** 	       ep->dwc_ep.xfer_count < ep->dwc_ep.xfer_len) {
 559:../Dave/Generated/src/USBLD001/driver/dwc_otg_pcd_intr.c **** 		/* Write the FIFO */
 560:../Dave/Generated/src/USBLD001/driver/dwc_otg_pcd_intr.c **** 		dwc_otg_ep_write_packet(core_if, &ep->dwc_ep, 0);
 1654              		.loc 2 560 0
 1655 0092 3B69     		ldr	r3, [r7, #16]
 1656 0094 03F11003 		add	r3, r3, #16
 1657 0098 F869     		ldr	r0, [r7, #28]
 1658 009a 1946     		mov	r1, r3
 1659 009c 4FF00002 		mov	r2, #0
 1660 00a0 FFF7FEFF 		bl	dwc_otg_ep_write_packet
 561:../Dave/Generated/src/USBLD001/driver/dwc_otg_pcd_intr.c **** 		len = ep->dwc_ep.xfer_len - ep->dwc_ep.xfer_count;
 1661              		.loc 2 561 0
 1662 00a4 3B69     		ldr	r3, [r7, #16]
 1663 00a6 DB6A     		ldr	r3, [r3, #44]
 1664 00a8 C3F31203 		ubfx	r3, r3, #0, #19
 1665 00ac 1A46     		mov	r2, r3
 1666 00ae 3B69     		ldr	r3, [r7, #16]
 1667 00b0 1B6B     		ldr	r3, [r3, #48]
 1668 00b2 C3F31203 		ubfx	r3, r3, #0, #19
 1669 00b6 D31A     		subs	r3, r2, r3
 1670 00b8 7B62     		str	r3, [r7, #36]
 562:../Dave/Generated/src/USBLD001/driver/dwc_otg_pcd_intr.c **** 
 563:../Dave/Generated/src/USBLD001/driver/dwc_otg_pcd_intr.c **** 		if (len > ep->dwc_ep.maxpacket) {
 1671              		.loc 2 563 0
 1672 00ba 3B69     		ldr	r3, [r7, #16]
 1673 00bc 5B8A     		ldrh	r3, [r3, #18]	@ movhi
 1674 00be C3F38A03 		ubfx	r3, r3, #2, #11
 1675 00c2 9BB2     		uxth	r3, r3
 1676 00c4 1A46     		mov	r2, r3
 1677 00c6 7B6A     		ldr	r3, [r7, #36]
 1678 00c8 9A42     		cmp	r2, r3
 1679 00ca 05D2     		bcs	.L81
 564:../Dave/Generated/src/USBLD001/driver/dwc_otg_pcd_intr.c **** 			len = ep->dwc_ep.maxpacket;
 1680              		.loc 2 564 0
 1681 00cc 3B69     		ldr	r3, [r7, #16]
 1682 00ce 5B8A     		ldrh	r3, [r3, #18]	@ movhi
 1683 00d0 C3F38A03 		ubfx	r3, r3, #2, #11
 1684 00d4 9BB2     		uxth	r3, r3
 1685 00d6 7B62     		str	r3, [r7, #36]
 1686              	.L81:
 565:../Dave/Generated/src/USBLD001/driver/dwc_otg_pcd_intr.c **** 		}
 566:../Dave/Generated/src/USBLD001/driver/dwc_otg_pcd_intr.c **** 
 567:../Dave/Generated/src/USBLD001/driver/dwc_otg_pcd_intr.c **** 		dwords = (len + 3) / 4;
 1687              		.loc 2 567 0
 1688 00d8 7B6A     		ldr	r3, [r7, #36]
 1689 00da 03F10303 		add	r3, r3, #3
 1690 00de 4FEA9303 		lsr	r3, r3, #2
 1691 00e2 3B62     		str	r3, [r7, #32]
 568:../Dave/Generated/src/USBLD001/driver/dwc_otg_pcd_intr.c **** 		txstatus.d32 = DWC_READ_REG32(&global_regs->gnptxsts);
 1692              		.loc 2 568 0
 1693 00e4 BB69     		ldr	r3, [r7, #24]
 1694 00e6 03F12C03 		add	r3, r3, #44
 1695 00ea 1846     		mov	r0, r3
 1696 00ec FFF7FEFF 		bl	DWC_READ_REG32
 1697 00f0 0346     		mov	r3, r0
 1698 00f2 FB60     		str	r3, [r7, #12]
 1699              	.L80:
 556:../Dave/Generated/src/USBLD001/driver/dwc_otg_pcd_intr.c **** 	while (txstatus.b.nptxqspcavail > 0 &&
 1700              		.loc 2 556 0 discriminator 1
 1701 00f4 BB7B     		ldrb	r3, [r7, #14]	@ zero_extendqisi2
 1702 00f6 002B     		cmp	r3, #0
 1703 00f8 0FD0     		beq	.L82
 557:../Dave/Generated/src/USBLD001/driver/dwc_otg_pcd_intr.c **** 	       txstatus.b.nptxfspcavail > dwords &&
 1704              		.loc 2 557 0 discriminator 2
 1705 00fa BB89     		ldrh	r3, [r7, #12]
 1706 00fc 1A46     		mov	r2, r3
 556:../Dave/Generated/src/USBLD001/driver/dwc_otg_pcd_intr.c **** 	while (txstatus.b.nptxqspcavail > 0 &&
 1707              		.loc 2 556 0 discriminator 2
 1708 00fe 3B6A     		ldr	r3, [r7, #32]
 1709 0100 9A42     		cmp	r2, r3
 1710 0102 0ADD     		ble	.L82
 558:../Dave/Generated/src/USBLD001/driver/dwc_otg_pcd_intr.c **** 	       ep->dwc_ep.xfer_count < ep->dwc_ep.xfer_len) {
 1711              		.loc 2 558 0
 1712 0104 3B69     		ldr	r3, [r7, #16]
 1713 0106 1B6B     		ldr	r3, [r3, #48]
 1714 0108 C3F31203 		ubfx	r3, r3, #0, #19
 1715 010c 1A46     		mov	r2, r3
 1716 010e 3B69     		ldr	r3, [r7, #16]
 1717 0110 DB6A     		ldr	r3, [r3, #44]
 1718 0112 C3F31203 		ubfx	r3, r3, #0, #19
 557:../Dave/Generated/src/USBLD001/driver/dwc_otg_pcd_intr.c **** 	       txstatus.b.nptxfspcavail > dwords &&
 1719              		.loc 2 557 0
 1720 0116 9A42     		cmp	r2, r3
 1721 0118 BBDB     		blt	.L83
 1722              	.L82:
 569:../Dave/Generated/src/USBLD001/driver/dwc_otg_pcd_intr.c **** 		DWC_DEBUGPL(DBG_PCDV, "GNPTXSTS=0x%08x\n", txstatus.d32);
 570:../Dave/Generated/src/USBLD001/driver/dwc_otg_pcd_intr.c **** 	}
 571:../Dave/Generated/src/USBLD001/driver/dwc_otg_pcd_intr.c **** 
 572:../Dave/Generated/src/USBLD001/driver/dwc_otg_pcd_intr.c **** 	DWC_DEBUGPL(DBG_PCDV, "GNPTXSTS=0x%08x\n",
 573:../Dave/Generated/src/USBLD001/driver/dwc_otg_pcd_intr.c **** 		    DWC_READ_REG32(&global_regs->gnptxsts));
 574:../Dave/Generated/src/USBLD001/driver/dwc_otg_pcd_intr.c **** 
 575:../Dave/Generated/src/USBLD001/driver/dwc_otg_pcd_intr.c **** 	/* Clear interrupt */
 576:../Dave/Generated/src/USBLD001/driver/dwc_otg_pcd_intr.c **** 	gintsts.d32 = 0;
 1723              		.loc 2 576 0
 1724 011a 4FF00003 		mov	r3, #0
 1725 011e BB60     		str	r3, [r7, #8]
 577:../Dave/Generated/src/USBLD001/driver/dwc_otg_pcd_intr.c **** 	gintsts.b.nptxfempty = 1;
 1726              		.loc 2 577 0
 1727 0120 BB68     		ldr	r3, [r7, #8]
 1728 0122 43F02003 		orr	r3, r3, #32
 1729 0126 BB60     		str	r3, [r7, #8]
 578:../Dave/Generated/src/USBLD001/driver/dwc_otg_pcd_intr.c **** 	DWC_WRITE_REG32(&global_regs->gintsts, gintsts.d32);
 1730              		.loc 2 578 0
 1731 0128 BB69     		ldr	r3, [r7, #24]
 1732 012a 03F11402 		add	r2, r3, #20
 1733 012e BB68     		ldr	r3, [r7, #8]
 1734 0130 1046     		mov	r0, r2
 1735 0132 1946     		mov	r1, r3
 1736 0134 FFF7FEFF 		bl	DWC_WRITE_REG32
 579:../Dave/Generated/src/USBLD001/driver/dwc_otg_pcd_intr.c **** 
 580:../Dave/Generated/src/USBLD001/driver/dwc_otg_pcd_intr.c **** 	return 1;
 1737              		.loc 2 580 0
 1738 0138 4FF00103 		mov	r3, #1
 581:../Dave/Generated/src/USBLD001/driver/dwc_otg_pcd_intr.c **** }
 1739              		.loc 2 581 0
 1740 013c 1846     		mov	r0, r3
 1741 013e 07F12807 		add	r7, r7, #40
 1742 0142 BD46     		mov	sp, r7
 1743 0144 80BD     		pop	{r7, pc}
 1744              		.cfi_endproc
 1745              	.LFE29:
 1747 0146 00BF     		.section	.text.write_empty_tx_fifo,"ax",%progbits
 1748              		.align	2
 1749              		.thumb
 1750              		.thumb_func
 1752              	write_empty_tx_fifo:
 1753              	.LFB30:
 582:../Dave/Generated/src/USBLD001/driver/dwc_otg_pcd_intr.c **** 
 583:../Dave/Generated/src/USBLD001/driver/dwc_otg_pcd_intr.c **** /**
 584:../Dave/Generated/src/USBLD001/driver/dwc_otg_pcd_intr.c ****  * This function is called when dedicated Tx FIFO Empty interrupt occurs.
 585:../Dave/Generated/src/USBLD001/driver/dwc_otg_pcd_intr.c ****  * The active request is checked for the next packet to be loaded into
 586:../Dave/Generated/src/USBLD001/driver/dwc_otg_pcd_intr.c ****  * apropriate Tx FIFO.
 587:../Dave/Generated/src/USBLD001/driver/dwc_otg_pcd_intr.c ****  */
 588:../Dave/Generated/src/USBLD001/driver/dwc_otg_pcd_intr.c **** static int32_t write_empty_tx_fifo(dwc_otg_pcd_t * pcd, uint32_t epnum)
 589:../Dave/Generated/src/USBLD001/driver/dwc_otg_pcd_intr.c **** {
 1754              		.loc 2 589 0
 1755              		.cfi_startproc
 1756              		@ args = 0, pretend = 0, frame = 32
 1757              		@ frame_needed = 1, uses_anonymous_args = 0
 1758 0000 80B5     		push	{r7, lr}
 1759              	.LCFI45:
 1760              		.cfi_def_cfa_offset 8
 1761              		.cfi_offset 7, -8
 1762              		.cfi_offset 14, -4
 1763 0002 88B0     		sub	sp, sp, #32
 1764              	.LCFI46:
 1765              		.cfi_def_cfa_offset 40
 1766 0004 00AF     		add	r7, sp, #0
 1767              	.LCFI47:
 1768              		.cfi_def_cfa_register 7
 1769 0006 7860     		str	r0, [r7, #4]
 1770 0008 3960     		str	r1, [r7, #0]
 590:../Dave/Generated/src/USBLD001/driver/dwc_otg_pcd_intr.c **** 	dwc_otg_core_if_t *core_if = GET_CORE_IF(pcd);
 1771              		.loc 2 590 0
 1772 000a 7B68     		ldr	r3, [r7, #4]
 1773 000c 9B68     		ldr	r3, [r3, #8]
 1774 000e 7B61     		str	r3, [r7, #20]
 591:../Dave/Generated/src/USBLD001/driver/dwc_otg_pcd_intr.c **** 	dwc_otg_dev_if_t *dev_if = core_if->dev_if;
 1775              		.loc 2 591 0
 1776 0010 7B69     		ldr	r3, [r7, #20]
 1777 0012 9B68     		ldr	r3, [r3, #8]
 1778 0014 3B61     		str	r3, [r7, #16]
 592:../Dave/Generated/src/USBLD001/driver/dwc_otg_pcd_intr.c **** #ifndef USE_IFX_DEV
 593:../Dave/Generated/src/USBLD001/driver/dwc_otg_pcd_intr.c **** 	dwc_otg_dev_in_ep_regs_t *ep_regs;
 594:../Dave/Generated/src/USBLD001/driver/dwc_otg_pcd_intr.c **** #endif
 595:../Dave/Generated/src/USBLD001/driver/dwc_otg_pcd_intr.c **** 	dtxfsts_data_t txstatus = {.d32 = 0 };
 1779              		.loc 2 595 0
 1780 0016 4FF00003 		mov	r3, #0
 1781 001a BB60     		str	r3, [r7, #8]
 596:../Dave/Generated/src/USBLD001/driver/dwc_otg_pcd_intr.c **** 	dwc_otg_pcd_ep_t *ep = 0;
 1782              		.loc 2 596 0
 1783 001c 4FF00003 		mov	r3, #0
 1784 0020 FB60     		str	r3, [r7, #12]
 597:../Dave/Generated/src/USBLD001/driver/dwc_otg_pcd_intr.c **** 	uint32_t len = 0;
 1785              		.loc 2 597 0
 1786 0022 4FF00003 		mov	r3, #0
 1787 0026 FB61     		str	r3, [r7, #28]
 598:../Dave/Generated/src/USBLD001/driver/dwc_otg_pcd_intr.c **** 	int dwords;
 599:../Dave/Generated/src/USBLD001/driver/dwc_otg_pcd_intr.c **** 
 600:../Dave/Generated/src/USBLD001/driver/dwc_otg_pcd_intr.c **** 	ep = get_in_ep(pcd, epnum);
 1788              		.loc 2 600 0
 1789 0028 7868     		ldr	r0, [r7, #4]
 1790 002a 3968     		ldr	r1, [r7, #0]
 1791 002c FFF7FEFF 		bl	get_in_ep
 1792 0030 F860     		str	r0, [r7, #12]
 601:../Dave/Generated/src/USBLD001/driver/dwc_otg_pcd_intr.c **** 
 602:../Dave/Generated/src/USBLD001/driver/dwc_otg_pcd_intr.c **** 	DWC_DEBUGPL(DBG_PCD, "Dedicated TxFifo Empty: %d \n", epnum);
 603:../Dave/Generated/src/USBLD001/driver/dwc_otg_pcd_intr.c **** 
 604:../Dave/Generated/src/USBLD001/driver/dwc_otg_pcd_intr.c **** #ifndef USE_IFX_DEV
 605:../Dave/Generated/src/USBLD001/driver/dwc_otg_pcd_intr.c **** 	ep_regs = core_if->dev_if->in_ep_regs[epnum];
 606:../Dave/Generated/src/USBLD001/driver/dwc_otg_pcd_intr.c **** #endif
 607:../Dave/Generated/src/USBLD001/driver/dwc_otg_pcd_intr.c **** 
 608:../Dave/Generated/src/USBLD001/driver/dwc_otg_pcd_intr.c **** 	len = ep->dwc_ep.xfer_len - ep->dwc_ep.xfer_count;
 1793              		.loc 2 608 0
 1794 0032 FB68     		ldr	r3, [r7, #12]
 1795 0034 DB6A     		ldr	r3, [r3, #44]
 1796 0036 C3F31203 		ubfx	r3, r3, #0, #19
 1797 003a 1A46     		mov	r2, r3
 1798 003c FB68     		ldr	r3, [r7, #12]
 1799 003e 1B6B     		ldr	r3, [r3, #48]
 1800 0040 C3F31203 		ubfx	r3, r3, #0, #19
 1801 0044 D31A     		subs	r3, r2, r3
 1802 0046 FB61     		str	r3, [r7, #28]
 609:../Dave/Generated/src/USBLD001/driver/dwc_otg_pcd_intr.c **** 
 610:../Dave/Generated/src/USBLD001/driver/dwc_otg_pcd_intr.c **** 	if (len > ep->dwc_ep.maxpacket) {
 1803              		.loc 2 610 0
 1804 0048 FB68     		ldr	r3, [r7, #12]
 1805 004a 5B8A     		ldrh	r3, [r3, #18]	@ movhi
 1806 004c C3F38A03 		ubfx	r3, r3, #2, #11
 1807 0050 9BB2     		uxth	r3, r3
 1808 0052 1A46     		mov	r2, r3
 1809 0054 FB69     		ldr	r3, [r7, #28]
 1810 0056 9A42     		cmp	r2, r3
 1811 0058 05D2     		bcs	.L86
 611:../Dave/Generated/src/USBLD001/driver/dwc_otg_pcd_intr.c **** 		len = ep->dwc_ep.maxpacket;
 1812              		.loc 2 611 0
 1813 005a FB68     		ldr	r3, [r7, #12]
 1814 005c 5B8A     		ldrh	r3, [r3, #18]	@ movhi
 1815 005e C3F38A03 		ubfx	r3, r3, #2, #11
 1816 0062 9BB2     		uxth	r3, r3
 1817 0064 FB61     		str	r3, [r7, #28]
 1818              	.L86:
 612:../Dave/Generated/src/USBLD001/driver/dwc_otg_pcd_intr.c **** 	}
 613:../Dave/Generated/src/USBLD001/driver/dwc_otg_pcd_intr.c **** 
 614:../Dave/Generated/src/USBLD001/driver/dwc_otg_pcd_intr.c **** 	dwords = (len + 3) / 4;
 1819              		.loc 2 614 0
 1820 0066 FB69     		ldr	r3, [r7, #28]
 1821 0068 03F10303 		add	r3, r3, #3
 1822 006c 4FEA9303 		lsr	r3, r3, #2
 1823 0070 BB61     		str	r3, [r7, #24]
 615:../Dave/Generated/src/USBLD001/driver/dwc_otg_pcd_intr.c **** 
 616:../Dave/Generated/src/USBLD001/driver/dwc_otg_pcd_intr.c **** 	/* While there is space in the queue and space in the FIFO and
 617:../Dave/Generated/src/USBLD001/driver/dwc_otg_pcd_intr.c **** 	 * More data to tranfer, Write packets to the Tx FIFO */
 618:../Dave/Generated/src/USBLD001/driver/dwc_otg_pcd_intr.c **** 	txstatus.d32 = DWC_READ_REG32(&dev_if->in_ep_regs[epnum]->dtxfsts);
 1824              		.loc 2 618 0
 1825 0072 3A69     		ldr	r2, [r7, #16]
 1826 0074 3B68     		ldr	r3, [r7, #0]
 1827 0076 4FEA8303 		lsl	r3, r3, #2
 1828 007a D318     		adds	r3, r2, r3
 1829 007c 5B68     		ldr	r3, [r3, #4]
 1830 007e 03F11803 		add	r3, r3, #24
 1831 0082 1846     		mov	r0, r3
 1832 0084 FFF7FEFF 		bl	DWC_READ_REG32
 1833 0088 0346     		mov	r3, r0
 1834 008a BB60     		str	r3, [r7, #8]
 619:../Dave/Generated/src/USBLD001/driver/dwc_otg_pcd_intr.c **** 	DWC_DEBUGPL(DBG_PCDV, "b4 dtxfsts[%d]=0x%08x\n", epnum, txstatus.d32);
 620:../Dave/Generated/src/USBLD001/driver/dwc_otg_pcd_intr.c **** 
 621:../Dave/Generated/src/USBLD001/driver/dwc_otg_pcd_intr.c **** 	while (txstatus.b.txfspcavail >= dwords &&
 1835              		.loc 2 621 0
 1836 008c 35E0     		b	.L87
 1837              	.L90:
 622:../Dave/Generated/src/USBLD001/driver/dwc_otg_pcd_intr.c **** 	       ep->dwc_ep.xfer_count < ep->dwc_ep.xfer_len &&
 623:../Dave/Generated/src/USBLD001/driver/dwc_otg_pcd_intr.c **** 	       ep->dwc_ep.xfer_len != 0) {
 624:../Dave/Generated/src/USBLD001/driver/dwc_otg_pcd_intr.c **** 		/* Write the FIFO */
 625:../Dave/Generated/src/USBLD001/driver/dwc_otg_pcd_intr.c **** 		dwc_otg_ep_write_packet(core_if, &ep->dwc_ep, 0);
 1838              		.loc 2 625 0
 1839 008e FB68     		ldr	r3, [r7, #12]
 1840 0090 03F11003 		add	r3, r3, #16
 1841 0094 7869     		ldr	r0, [r7, #20]
 1842 0096 1946     		mov	r1, r3
 1843 0098 4FF00002 		mov	r2, #0
 1844 009c FFF7FEFF 		bl	dwc_otg_ep_write_packet
 626:../Dave/Generated/src/USBLD001/driver/dwc_otg_pcd_intr.c **** 
 627:../Dave/Generated/src/USBLD001/driver/dwc_otg_pcd_intr.c **** 		len = ep->dwc_ep.xfer_len - ep->dwc_ep.xfer_count;
 1845              		.loc 2 627 0
 1846 00a0 FB68     		ldr	r3, [r7, #12]
 1847 00a2 DB6A     		ldr	r3, [r3, #44]
 1848 00a4 C3F31203 		ubfx	r3, r3, #0, #19
 1849 00a8 1A46     		mov	r2, r3
 1850 00aa FB68     		ldr	r3, [r7, #12]
 1851 00ac 1B6B     		ldr	r3, [r3, #48]
 1852 00ae C3F31203 		ubfx	r3, r3, #0, #19
 1853 00b2 D31A     		subs	r3, r2, r3
 1854 00b4 FB61     		str	r3, [r7, #28]
 628:../Dave/Generated/src/USBLD001/driver/dwc_otg_pcd_intr.c **** 		if (len > ep->dwc_ep.maxpacket) {
 1855              		.loc 2 628 0
 1856 00b6 FB68     		ldr	r3, [r7, #12]
 1857 00b8 5B8A     		ldrh	r3, [r3, #18]	@ movhi
 1858 00ba C3F38A03 		ubfx	r3, r3, #2, #11
 1859 00be 9BB2     		uxth	r3, r3
 1860 00c0 1A46     		mov	r2, r3
 1861 00c2 FB69     		ldr	r3, [r7, #28]
 1862 00c4 9A42     		cmp	r2, r3
 1863 00c6 05D2     		bcs	.L88
 629:../Dave/Generated/src/USBLD001/driver/dwc_otg_pcd_intr.c **** 			len = ep->dwc_ep.maxpacket;
 1864              		.loc 2 629 0
 1865 00c8 FB68     		ldr	r3, [r7, #12]
 1866 00ca 5B8A     		ldrh	r3, [r3, #18]	@ movhi
 1867 00cc C3F38A03 		ubfx	r3, r3, #2, #11
 1868 00d0 9BB2     		uxth	r3, r3
 1869 00d2 FB61     		str	r3, [r7, #28]
 1870              	.L88:
 630:../Dave/Generated/src/USBLD001/driver/dwc_otg_pcd_intr.c **** 		}
 631:../Dave/Generated/src/USBLD001/driver/dwc_otg_pcd_intr.c **** 
 632:../Dave/Generated/src/USBLD001/driver/dwc_otg_pcd_intr.c **** 		dwords = (len + 3) / 4;
 1871              		.loc 2 632 0
 1872 00d4 FB69     		ldr	r3, [r7, #28]
 1873 00d6 03F10303 		add	r3, r3, #3
 1874 00da 4FEA9303 		lsr	r3, r3, #2
 1875 00de BB61     		str	r3, [r7, #24]
 633:../Dave/Generated/src/USBLD001/driver/dwc_otg_pcd_intr.c **** 		txstatus.d32 =
 634:../Dave/Generated/src/USBLD001/driver/dwc_otg_pcd_intr.c **** 		    DWC_READ_REG32(&dev_if->in_ep_regs[epnum]->dtxfsts);
 1876              		.loc 2 634 0
 1877 00e0 3A69     		ldr	r2, [r7, #16]
 1878 00e2 3B68     		ldr	r3, [r7, #0]
 1879 00e4 4FEA8303 		lsl	r3, r3, #2
 1880 00e8 D318     		adds	r3, r2, r3
 1881 00ea 5B68     		ldr	r3, [r3, #4]
 1882 00ec 03F11803 		add	r3, r3, #24
 1883 00f0 1846     		mov	r0, r3
 1884 00f2 FFF7FEFF 		bl	DWC_READ_REG32
 1885 00f6 0346     		mov	r3, r0
 633:../Dave/Generated/src/USBLD001/driver/dwc_otg_pcd_intr.c **** 		txstatus.d32 =
 1886              		.loc 2 633 0
 1887 00f8 BB60     		str	r3, [r7, #8]
 1888              	.L87:
 621:../Dave/Generated/src/USBLD001/driver/dwc_otg_pcd_intr.c **** 	while (txstatus.b.txfspcavail >= dwords &&
 1889              		.loc 2 621 0 discriminator 1
 1890 00fa 3B89     		ldrh	r3, [r7, #8]
 1891 00fc 1A46     		mov	r2, r3
 1892 00fe BB69     		ldr	r3, [r7, #24]
 1893 0100 9A42     		cmp	r2, r3
 1894 0102 12DB     		blt	.L89
 622:../Dave/Generated/src/USBLD001/driver/dwc_otg_pcd_intr.c **** 	       ep->dwc_ep.xfer_count < ep->dwc_ep.xfer_len &&
 1895              		.loc 2 622 0 discriminator 2
 1896 0104 FB68     		ldr	r3, [r7, #12]
 1897 0106 1B6B     		ldr	r3, [r3, #48]
 1898 0108 C3F31203 		ubfx	r3, r3, #0, #19
 1899 010c 1A46     		mov	r2, r3
 1900 010e FB68     		ldr	r3, [r7, #12]
 1901 0110 DB6A     		ldr	r3, [r3, #44]
 1902 0112 C3F31203 		ubfx	r3, r3, #0, #19
 621:../Dave/Generated/src/USBLD001/driver/dwc_otg_pcd_intr.c **** 	while (txstatus.b.txfspcavail >= dwords &&
 1903              		.loc 2 621 0 discriminator 2
 1904 0116 9A42     		cmp	r2, r3
 1905 0118 07DA     		bge	.L89
 623:../Dave/Generated/src/USBLD001/driver/dwc_otg_pcd_intr.c **** 	       ep->dwc_ep.xfer_len != 0) {
 1906              		.loc 2 623 0
 1907 011a FB68     		ldr	r3, [r7, #12]
 1908 011c DB6A     		ldr	r3, [r3, #44]
 1909 011e 23F07F43 		bic	r3, r3, #-16777216
 1910 0122 23F47803 		bic	r3, r3, #16252928
 622:../Dave/Generated/src/USBLD001/driver/dwc_otg_pcd_intr.c **** 	       ep->dwc_ep.xfer_count < ep->dwc_ep.xfer_len &&
 1911              		.loc 2 622 0
 1912 0126 002B     		cmp	r3, #0
 1913 0128 B1D1     		bne	.L90
 1914              	.L89:
 635:../Dave/Generated/src/USBLD001/driver/dwc_otg_pcd_intr.c **** 		DWC_DEBUGPL(DBG_PCDV, "dtxfsts[%d]=0x%08x\n", epnum,
 636:../Dave/Generated/src/USBLD001/driver/dwc_otg_pcd_intr.c **** 			    txstatus.d32);
 637:../Dave/Generated/src/USBLD001/driver/dwc_otg_pcd_intr.c **** 	}
 638:../Dave/Generated/src/USBLD001/driver/dwc_otg_pcd_intr.c **** 
 639:../Dave/Generated/src/USBLD001/driver/dwc_otg_pcd_intr.c **** 	DWC_DEBUGPL(DBG_PCDV, "b4 dtxfsts[%d]=0x%08x\n", epnum,
 640:../Dave/Generated/src/USBLD001/driver/dwc_otg_pcd_intr.c **** 		    DWC_READ_REG32(&dev_if->in_ep_regs[epnum]->dtxfsts));
 641:../Dave/Generated/src/USBLD001/driver/dwc_otg_pcd_intr.c **** 
 642:../Dave/Generated/src/USBLD001/driver/dwc_otg_pcd_intr.c **** 	return 1;
 1915              		.loc 2 642 0
 1916 012a 4FF00103 		mov	r3, #1
 643:../Dave/Generated/src/USBLD001/driver/dwc_otg_pcd_intr.c **** }
 1917              		.loc 2 643 0
 1918 012e 1846     		mov	r0, r3
 1919 0130 07F12007 		add	r7, r7, #32
 1920 0134 BD46     		mov	sp, r7
 1921 0136 80BD     		pop	{r7, pc}
 1922              		.cfi_endproc
 1923              	.LFE30:
 1925              		.section	.text.dwc_otg_pcd_stop,"ax",%progbits
 1926              		.align	2
 1927              		.global	dwc_otg_pcd_stop
 1928              		.thumb
 1929              		.thumb_func
 1931              	dwc_otg_pcd_stop:
 1932              	.LFB31:
 644:../Dave/Generated/src/USBLD001/driver/dwc_otg_pcd_intr.c **** 
 645:../Dave/Generated/src/USBLD001/driver/dwc_otg_pcd_intr.c **** /**
 646:../Dave/Generated/src/USBLD001/driver/dwc_otg_pcd_intr.c ****  * This function is called when the Device is disconnected. It stops
 647:../Dave/Generated/src/USBLD001/driver/dwc_otg_pcd_intr.c ****  * any active requests and informs the Gadget driver of the
 648:../Dave/Generated/src/USBLD001/driver/dwc_otg_pcd_intr.c ****  * disconnect.
 649:../Dave/Generated/src/USBLD001/driver/dwc_otg_pcd_intr.c ****  */
 650:../Dave/Generated/src/USBLD001/driver/dwc_otg_pcd_intr.c **** void dwc_otg_pcd_stop(dwc_otg_pcd_t * pcd)
 651:../Dave/Generated/src/USBLD001/driver/dwc_otg_pcd_intr.c **** {
 1933              		.loc 2 651 0
 1934              		.cfi_startproc
 1935              		@ args = 0, pretend = 0, frame = 40
 1936              		@ frame_needed = 1, uses_anonymous_args = 0
 1937 0000 80B5     		push	{r7, lr}
 1938              	.LCFI48:
 1939              		.cfi_def_cfa_offset 8
 1940              		.cfi_offset 7, -8
 1941              		.cfi_offset 14, -4
 1942 0002 8AB0     		sub	sp, sp, #40
 1943              	.LCFI49:
 1944              		.cfi_def_cfa_offset 48
 1945 0004 00AF     		add	r7, sp, #0
 1946              	.LCFI50:
 1947              		.cfi_def_cfa_register 7
 1948 0006 7860     		str	r0, [r7, #4]
 652:../Dave/Generated/src/USBLD001/driver/dwc_otg_pcd_intr.c **** 	int i, num_in_eps, num_out_eps;
 653:../Dave/Generated/src/USBLD001/driver/dwc_otg_pcd_intr.c **** 	dwc_otg_pcd_ep_t *ep;
 654:../Dave/Generated/src/USBLD001/driver/dwc_otg_pcd_intr.c **** 
 655:../Dave/Generated/src/USBLD001/driver/dwc_otg_pcd_intr.c **** 	gintmsk_data_t intr_mask = {.d32 = 0 };
 1949              		.loc 2 655 0
 1950 0008 4FF00003 		mov	r3, #0
 1951 000c FB60     		str	r3, [r7, #12]
 656:../Dave/Generated/src/USBLD001/driver/dwc_otg_pcd_intr.c **** 
 657:../Dave/Generated/src/USBLD001/driver/dwc_otg_pcd_intr.c **** 	DWC_SPINLOCK(pcd->lock);
 1952              		.loc 2 657 0
 1953 000e 7B68     		ldr	r3, [r7, #4]
 1954 0010 D3F82034 		ldr	r3, [r3, #1056]
 1955 0014 1846     		mov	r0, r3
 1956 0016 FFF7FEFF 		bl	DWC_SPINLOCK
 658:../Dave/Generated/src/USBLD001/driver/dwc_otg_pcd_intr.c **** 
 659:../Dave/Generated/src/USBLD001/driver/dwc_otg_pcd_intr.c **** 	num_in_eps = GET_CORE_IF(pcd)->dev_if->num_in_eps;
 1957              		.loc 2 659 0
 1958 001a 7B68     		ldr	r3, [r7, #4]
 1959 001c 9B68     		ldr	r3, [r3, #8]
 1960 001e 9B68     		ldr	r3, [r3, #8]
 1961 0020 93F84530 		ldrb	r3, [r3, #69]	@ zero_extendqisi2
 1962 0024 3B62     		str	r3, [r7, #32]
 660:../Dave/Generated/src/USBLD001/driver/dwc_otg_pcd_intr.c **** 	num_out_eps = GET_CORE_IF(pcd)->dev_if->num_out_eps;
 1963              		.loc 2 660 0
 1964 0026 7B68     		ldr	r3, [r7, #4]
 1965 0028 9B68     		ldr	r3, [r3, #8]
 1966 002a 9B68     		ldr	r3, [r3, #8]
 1967 002c 93F84630 		ldrb	r3, [r3, #70]	@ zero_extendqisi2
 1968 0030 FB61     		str	r3, [r7, #28]
 661:../Dave/Generated/src/USBLD001/driver/dwc_otg_pcd_intr.c **** 
 662:../Dave/Generated/src/USBLD001/driver/dwc_otg_pcd_intr.c **** 	DWC_DEBUGPL(DBG_PCDV, "%s() \n", __func__);
 663:../Dave/Generated/src/USBLD001/driver/dwc_otg_pcd_intr.c **** 	/* don't disconnect drivers more than once */
 664:../Dave/Generated/src/USBLD001/driver/dwc_otg_pcd_intr.c **** 	if (pcd->ep0state == EP0_DISCONNECT) {
 1969              		.loc 2 664 0
 1970 0032 7B68     		ldr	r3, [r7, #4]
 1971 0034 1B7B     		ldrb	r3, [r3, #12]	@ zero_extendqisi2
 1972 0036 002B     		cmp	r3, #0
 1973 0038 06D1     		bne	.L93
 665:../Dave/Generated/src/USBLD001/driver/dwc_otg_pcd_intr.c **** 		DWC_DEBUGPL(DBG_ANY, "%s() Already Disconnected\n", __func__);
 666:../Dave/Generated/src/USBLD001/driver/dwc_otg_pcd_intr.c **** 		DWC_SPINUNLOCK(pcd->lock);
 1974              		.loc 2 666 0
 1975 003a 7B68     		ldr	r3, [r7, #4]
 1976 003c D3F82034 		ldr	r3, [r3, #1056]
 1977 0040 1846     		mov	r0, r3
 1978 0042 FFF7FEFF 		bl	DWC_SPINUNLOCK
 1979 0046 7FE0     		b	.L92
 1980              	.L93:
 667:../Dave/Generated/src/USBLD001/driver/dwc_otg_pcd_intr.c **** 		return;
 668:../Dave/Generated/src/USBLD001/driver/dwc_otg_pcd_intr.c **** 	}
 669:../Dave/Generated/src/USBLD001/driver/dwc_otg_pcd_intr.c **** 	pcd->ep0state = EP0_DISCONNECT;
 1981              		.loc 2 669 0
 1982 0048 7B68     		ldr	r3, [r7, #4]
 1983 004a 4FF00002 		mov	r2, #0
 1984 004e 1A73     		strb	r2, [r3, #12]
 670:../Dave/Generated/src/USBLD001/driver/dwc_otg_pcd_intr.c **** 
 671:../Dave/Generated/src/USBLD001/driver/dwc_otg_pcd_intr.c **** 	/* Reset the OTG state. */
 672:../Dave/Generated/src/USBLD001/driver/dwc_otg_pcd_intr.c **** 	dwc_otg_pcd_update_otg(pcd, 1);
 1985              		.loc 2 672 0
 1986 0050 7868     		ldr	r0, [r7, #4]
 1987 0052 4FF00101 		mov	r1, #1
 1988 0056 FFF7FEFF 		bl	dwc_otg_pcd_update_otg
 673:../Dave/Generated/src/USBLD001/driver/dwc_otg_pcd_intr.c **** 
 674:../Dave/Generated/src/USBLD001/driver/dwc_otg_pcd_intr.c **** 	/* Disable the NP Tx Fifo Empty Interrupt. */
 675:../Dave/Generated/src/USBLD001/driver/dwc_otg_pcd_intr.c **** 	intr_mask.b.nptxfempty = 1;
 1989              		.loc 2 675 0
 1990 005a FB68     		ldr	r3, [r7, #12]
 1991 005c 43F02003 		orr	r3, r3, #32
 1992 0060 FB60     		str	r3, [r7, #12]
 676:../Dave/Generated/src/USBLD001/driver/dwc_otg_pcd_intr.c **** 	DWC_MODIFY_REG32(&GET_CORE_IF(pcd)->core_global_regs->gintmsk,
 1993              		.loc 2 676 0
 1994 0062 7B68     		ldr	r3, [r7, #4]
 1995 0064 9B68     		ldr	r3, [r3, #8]
 1996 0066 5B68     		ldr	r3, [r3, #4]
 1997 0068 03F11802 		add	r2, r3, #24
 1998 006c FB68     		ldr	r3, [r7, #12]
 1999 006e 1046     		mov	r0, r2
 2000 0070 1946     		mov	r1, r3
 2001 0072 4FF00002 		mov	r2, #0
 2002 0076 FFF7FEFF 		bl	DWC_MODIFY_REG32
 677:../Dave/Generated/src/USBLD001/driver/dwc_otg_pcd_intr.c **** 			 intr_mask.d32, 0);
 678:../Dave/Generated/src/USBLD001/driver/dwc_otg_pcd_intr.c **** 
 679:../Dave/Generated/src/USBLD001/driver/dwc_otg_pcd_intr.c **** 	/* Flush the FIFOs */
 680:../Dave/Generated/src/USBLD001/driver/dwc_otg_pcd_intr.c **** 	/**@todo NGS Flush Periodic FIFOs */
 681:../Dave/Generated/src/USBLD001/driver/dwc_otg_pcd_intr.c **** 	dwc_otg_flush_tx_fifo(GET_CORE_IF(pcd), 0x10);
 2003              		.loc 2 681 0
 2004 007a 7B68     		ldr	r3, [r7, #4]
 2005 007c 9B68     		ldr	r3, [r3, #8]
 2006 007e 1846     		mov	r0, r3
 2007 0080 4FF01001 		mov	r1, #16
 2008 0084 FFF7FEFF 		bl	dwc_otg_flush_tx_fifo
 682:../Dave/Generated/src/USBLD001/driver/dwc_otg_pcd_intr.c **** 	dwc_otg_flush_rx_fifo(GET_CORE_IF(pcd));
 2009              		.loc 2 682 0
 2010 0088 7B68     		ldr	r3, [r7, #4]
 2011 008a 9B68     		ldr	r3, [r3, #8]
 2012 008c 1846     		mov	r0, r3
 2013 008e FFF7FEFF 		bl	dwc_otg_flush_rx_fifo
 683:../Dave/Generated/src/USBLD001/driver/dwc_otg_pcd_intr.c **** 
 684:../Dave/Generated/src/USBLD001/driver/dwc_otg_pcd_intr.c **** 	/* prevent new request submissions, kill any outstanding requests  */
 685:../Dave/Generated/src/USBLD001/driver/dwc_otg_pcd_intr.c **** 	ep = &pcd->ep0;
 2014              		.loc 2 685 0
 2015 0092 7B68     		ldr	r3, [r7, #4]
 2016 0094 03F12403 		add	r3, r3, #36
 2017 0098 BB61     		str	r3, [r7, #24]
 686:../Dave/Generated/src/USBLD001/driver/dwc_otg_pcd_intr.c **** 	dwc_otg_request_nuke(ep);
 2018              		.loc 2 686 0
 2019 009a B869     		ldr	r0, [r7, #24]
 2020 009c FFF7FEFF 		bl	dwc_otg_request_nuke
 687:../Dave/Generated/src/USBLD001/driver/dwc_otg_pcd_intr.c **** 	/* prevent new request submissions, kill any outstanding requests  */
 688:../Dave/Generated/src/USBLD001/driver/dwc_otg_pcd_intr.c **** 	for (i = 0; i < num_in_eps; i++) {
 2021              		.loc 2 688 0
 2022 00a0 4FF00003 		mov	r3, #0
 2023 00a4 7B62     		str	r3, [r7, #36]
 2024 00a6 12E0     		b	.L95
 2025              	.L96:
 2026              	.LBB4:
 689:../Dave/Generated/src/USBLD001/driver/dwc_otg_pcd_intr.c **** 		dwc_otg_pcd_ep_t *ep = &pcd->in_ep[i];
 2027              		.loc 2 689 0 discriminator 2
 2028 00a8 7A6A     		ldr	r2, [r7, #36]
 2029 00aa 1346     		mov	r3, r2
 2030 00ac 4FEA0313 		lsl	r3, r3, #4
 2031 00b0 9B18     		adds	r3, r3, r2
 2032 00b2 4FEA8303 		lsl	r3, r3, #2
 2033 00b6 03F16803 		add	r3, r3, #104
 2034 00ba 7A68     		ldr	r2, [r7, #4]
 2035 00bc D318     		adds	r3, r2, r3
 2036 00be 7B61     		str	r3, [r7, #20]
 690:../Dave/Generated/src/USBLD001/driver/dwc_otg_pcd_intr.c **** 		dwc_otg_request_nuke(ep);
 2037              		.loc 2 690 0 discriminator 2
 2038 00c0 7869     		ldr	r0, [r7, #20]
 2039 00c2 FFF7FEFF 		bl	dwc_otg_request_nuke
 2040              	.LBE4:
 688:../Dave/Generated/src/USBLD001/driver/dwc_otg_pcd_intr.c **** 	for (i = 0; i < num_in_eps; i++) {
 2041              		.loc 2 688 0 discriminator 2
 2042 00c6 7B6A     		ldr	r3, [r7, #36]
 2043 00c8 03F10103 		add	r3, r3, #1
 2044 00cc 7B62     		str	r3, [r7, #36]
 2045              	.L95:
 688:../Dave/Generated/src/USBLD001/driver/dwc_otg_pcd_intr.c **** 	for (i = 0; i < num_in_eps; i++) {
 2046              		.loc 2 688 0 is_stmt 0 discriminator 1
 2047 00ce 7A6A     		ldr	r2, [r7, #36]
 2048 00d0 3B6A     		ldr	r3, [r7, #32]
 2049 00d2 9A42     		cmp	r2, r3
 2050 00d4 E8DB     		blt	.L96
 691:../Dave/Generated/src/USBLD001/driver/dwc_otg_pcd_intr.c **** 	}
 692:../Dave/Generated/src/USBLD001/driver/dwc_otg_pcd_intr.c **** 	/* prevent new request submissions, kill any outstanding requests  */
 693:../Dave/Generated/src/USBLD001/driver/dwc_otg_pcd_intr.c **** 	for (i = 0; i < num_out_eps; i++) {
 2051              		.loc 2 693 0 is_stmt 1
 2052 00d6 4FF00003 		mov	r3, #0
 2053 00da 7B62     		str	r3, [r7, #36]
 2054 00dc 14E0     		b	.L97
 2055              	.L98:
 2056              	.LBB5:
 694:../Dave/Generated/src/USBLD001/driver/dwc_otg_pcd_intr.c **** 		dwc_otg_pcd_ep_t *ep = &pcd->out_ep[i];
 2057              		.loc 2 694 0 discriminator 2
 2058 00de 7A6A     		ldr	r2, [r7, #36]
 2059 00e0 1346     		mov	r3, r2
 2060 00e2 4FEA0313 		lsl	r3, r3, #4
 2061 00e6 9B18     		adds	r3, r3, r2
 2062 00e8 4FEA8303 		lsl	r3, r3, #2
 2063 00ec 03F51073 		add	r3, r3, #576
 2064 00f0 7A68     		ldr	r2, [r7, #4]
 2065 00f2 D318     		adds	r3, r2, r3
 2066 00f4 03F10403 		add	r3, r3, #4
 2067 00f8 3B61     		str	r3, [r7, #16]
 695:../Dave/Generated/src/USBLD001/driver/dwc_otg_pcd_intr.c **** 		dwc_otg_request_nuke(ep);
 2068              		.loc 2 695 0 discriminator 2
 2069 00fa 3869     		ldr	r0, [r7, #16]
 2070 00fc FFF7FEFF 		bl	dwc_otg_request_nuke
 2071              	.LBE5:
 693:../Dave/Generated/src/USBLD001/driver/dwc_otg_pcd_intr.c **** 	for (i = 0; i < num_out_eps; i++) {
 2072              		.loc 2 693 0 discriminator 2
 2073 0100 7B6A     		ldr	r3, [r7, #36]
 2074 0102 03F10103 		add	r3, r3, #1
 2075 0106 7B62     		str	r3, [r7, #36]
 2076              	.L97:
 693:../Dave/Generated/src/USBLD001/driver/dwc_otg_pcd_intr.c **** 	for (i = 0; i < num_out_eps; i++) {
 2077              		.loc 2 693 0 is_stmt 0 discriminator 1
 2078 0108 7A6A     		ldr	r2, [r7, #36]
 2079 010a FB69     		ldr	r3, [r7, #28]
 2080 010c 9A42     		cmp	r2, r3
 2081 010e E6DB     		blt	.L98
 696:../Dave/Generated/src/USBLD001/driver/dwc_otg_pcd_intr.c **** 	}
 697:../Dave/Generated/src/USBLD001/driver/dwc_otg_pcd_intr.c **** 
 698:../Dave/Generated/src/USBLD001/driver/dwc_otg_pcd_intr.c **** 	/* report disconnect; the driver is already quiesced */
 699:../Dave/Generated/src/USBLD001/driver/dwc_otg_pcd_intr.c **** 	if (pcd->fops->disconnect) {
 2082              		.loc 2 699 0 is_stmt 1
 2083 0110 7B68     		ldr	r3, [r7, #4]
 2084 0112 1B68     		ldr	r3, [r3, #0]
 2085 0114 5B68     		ldr	r3, [r3, #4]
 2086 0116 002B     		cmp	r3, #0
 2087 0118 10D0     		beq	.L99
 700:../Dave/Generated/src/USBLD001/driver/dwc_otg_pcd_intr.c **** 		DWC_SPINUNLOCK(pcd->lock);
 2088              		.loc 2 700 0
 2089 011a 7B68     		ldr	r3, [r7, #4]
 2090 011c D3F82034 		ldr	r3, [r3, #1056]
 2091 0120 1846     		mov	r0, r3
 2092 0122 FFF7FEFF 		bl	DWC_SPINUNLOCK
 701:../Dave/Generated/src/USBLD001/driver/dwc_otg_pcd_intr.c **** 		pcd->fops->disconnect(pcd);
 2093              		.loc 2 701 0
 2094 0126 7B68     		ldr	r3, [r7, #4]
 2095 0128 1B68     		ldr	r3, [r3, #0]
 2096 012a 5B68     		ldr	r3, [r3, #4]
 2097 012c 7868     		ldr	r0, [r7, #4]
 2098 012e 9847     		blx	r3
 702:../Dave/Generated/src/USBLD001/driver/dwc_otg_pcd_intr.c **** 		DWC_SPINLOCK(pcd->lock);
 2099              		.loc 2 702 0
 2100 0130 7B68     		ldr	r3, [r7, #4]
 2101 0132 D3F82034 		ldr	r3, [r3, #1056]
 2102 0136 1846     		mov	r0, r3
 2103 0138 FFF7FEFF 		bl	DWC_SPINLOCK
 2104              	.L99:
 703:../Dave/Generated/src/USBLD001/driver/dwc_otg_pcd_intr.c **** 	}
 704:../Dave/Generated/src/USBLD001/driver/dwc_otg_pcd_intr.c **** 	DWC_SPINUNLOCK(pcd->lock);
 2105              		.loc 2 704 0
 2106 013c 7B68     		ldr	r3, [r7, #4]
 2107 013e D3F82034 		ldr	r3, [r3, #1056]
 2108 0142 1846     		mov	r0, r3
 2109 0144 FFF7FEFF 		bl	DWC_SPINUNLOCK
 2110              	.L92:
 705:../Dave/Generated/src/USBLD001/driver/dwc_otg_pcd_intr.c **** }
 2111              		.loc 2 705 0
 2112 0148 07F12807 		add	r7, r7, #40
 2113 014c BD46     		mov	sp, r7
 2114 014e 80BD     		pop	{r7, pc}
 2115              		.cfi_endproc
 2116              	.LFE31:
 2118              		.section	.text.dwc_otg_pcd_handle_i2c_intr,"ax",%progbits
 2119              		.align	2
 2120              		.global	dwc_otg_pcd_handle_i2c_intr
 2121              		.thumb
 2122              		.thumb_func
 2124              	dwc_otg_pcd_handle_i2c_intr:
 2125              	.LFB32:
 706:../Dave/Generated/src/USBLD001/driver/dwc_otg_pcd_intr.c **** 
 707:../Dave/Generated/src/USBLD001/driver/dwc_otg_pcd_intr.c **** /**
 708:../Dave/Generated/src/USBLD001/driver/dwc_otg_pcd_intr.c ****  * This interrupt indicates that ...
 709:../Dave/Generated/src/USBLD001/driver/dwc_otg_pcd_intr.c ****  */
 710:../Dave/Generated/src/USBLD001/driver/dwc_otg_pcd_intr.c **** int32_t dwc_otg_pcd_handle_i2c_intr(dwc_otg_pcd_t * pcd)
 711:../Dave/Generated/src/USBLD001/driver/dwc_otg_pcd_intr.c **** {
 2126              		.loc 2 711 0
 2127              		.cfi_startproc
 2128              		@ args = 0, pretend = 0, frame = 16
 2129              		@ frame_needed = 1, uses_anonymous_args = 0
 2130 0000 80B5     		push	{r7, lr}
 2131              	.LCFI51:
 2132              		.cfi_def_cfa_offset 8
 2133              		.cfi_offset 7, -8
 2134              		.cfi_offset 14, -4
 2135 0002 84B0     		sub	sp, sp, #16
 2136              	.LCFI52:
 2137              		.cfi_def_cfa_offset 24
 2138 0004 00AF     		add	r7, sp, #0
 2139              	.LCFI53:
 2140              		.cfi_def_cfa_register 7
 2141 0006 7860     		str	r0, [r7, #4]
 712:../Dave/Generated/src/USBLD001/driver/dwc_otg_pcd_intr.c **** 	gintmsk_data_t intr_mask = {.d32 = 0 };
 2142              		.loc 2 712 0
 2143 0008 4FF00003 		mov	r3, #0
 2144 000c FB60     		str	r3, [r7, #12]
 713:../Dave/Generated/src/USBLD001/driver/dwc_otg_pcd_intr.c **** 	gintsts_data_t gintsts;
 714:../Dave/Generated/src/USBLD001/driver/dwc_otg_pcd_intr.c **** 
 715:../Dave/Generated/src/USBLD001/driver/dwc_otg_pcd_intr.c **** 	DWC_PRINTF("INTERRUPT Handler not implemented for %s\n", "i2cintr");
 716:../Dave/Generated/src/USBLD001/driver/dwc_otg_pcd_intr.c **** 	intr_mask.b.i2cintr = 1;
 2145              		.loc 2 716 0
 2146 000e FB68     		ldr	r3, [r7, #12]
 2147 0010 43F40073 		orr	r3, r3, #512
 2148 0014 FB60     		str	r3, [r7, #12]
 717:../Dave/Generated/src/USBLD001/driver/dwc_otg_pcd_intr.c **** 	DWC_MODIFY_REG32(&GET_CORE_IF(pcd)->core_global_regs->gintmsk,
 2149              		.loc 2 717 0
 2150 0016 7B68     		ldr	r3, [r7, #4]
 2151 0018 9B68     		ldr	r3, [r3, #8]
 2152 001a 5B68     		ldr	r3, [r3, #4]
 2153 001c 03F11802 		add	r2, r3, #24
 2154 0020 FB68     		ldr	r3, [r7, #12]
 2155 0022 1046     		mov	r0, r2
 2156 0024 1946     		mov	r1, r3
 2157 0026 4FF00002 		mov	r2, #0
 2158 002a FFF7FEFF 		bl	DWC_MODIFY_REG32
 718:../Dave/Generated/src/USBLD001/driver/dwc_otg_pcd_intr.c **** 			 intr_mask.d32, 0);
 719:../Dave/Generated/src/USBLD001/driver/dwc_otg_pcd_intr.c **** 
 720:../Dave/Generated/src/USBLD001/driver/dwc_otg_pcd_intr.c **** 	/* Clear interrupt */
 721:../Dave/Generated/src/USBLD001/driver/dwc_otg_pcd_intr.c **** 	gintsts.d32 = 0;
 2159              		.loc 2 721 0
 2160 002e 4FF00003 		mov	r3, #0
 2161 0032 BB60     		str	r3, [r7, #8]
 722:../Dave/Generated/src/USBLD001/driver/dwc_otg_pcd_intr.c **** 	gintsts.b.i2cintr = 1;
 2162              		.loc 2 722 0
 2163 0034 BB68     		ldr	r3, [r7, #8]
 2164 0036 43F40073 		orr	r3, r3, #512
 2165 003a BB60     		str	r3, [r7, #8]
 723:../Dave/Generated/src/USBLD001/driver/dwc_otg_pcd_intr.c **** 	DWC_WRITE_REG32(&GET_CORE_IF(pcd)->core_global_regs->gintsts,
 2166              		.loc 2 723 0
 2167 003c 7B68     		ldr	r3, [r7, #4]
 2168 003e 9B68     		ldr	r3, [r3, #8]
 2169 0040 5B68     		ldr	r3, [r3, #4]
 2170 0042 03F11402 		add	r2, r3, #20
 2171 0046 BB68     		ldr	r3, [r7, #8]
 2172 0048 1046     		mov	r0, r2
 2173 004a 1946     		mov	r1, r3
 2174 004c FFF7FEFF 		bl	DWC_WRITE_REG32
 724:../Dave/Generated/src/USBLD001/driver/dwc_otg_pcd_intr.c **** 			gintsts.d32);
 725:../Dave/Generated/src/USBLD001/driver/dwc_otg_pcd_intr.c **** 	return 1;
 2175              		.loc 2 725 0
 2176 0050 4FF00103 		mov	r3, #1
 726:../Dave/Generated/src/USBLD001/driver/dwc_otg_pcd_intr.c **** }
 2177              		.loc 2 726 0
 2178 0054 1846     		mov	r0, r3
 2179 0056 07F11007 		add	r7, r7, #16
 2180 005a BD46     		mov	sp, r7
 2181 005c 80BD     		pop	{r7, pc}
 2182              		.cfi_endproc
 2183              	.LFE32:
 2185 005e 00BF     		.section	.text.dwc_otg_pcd_handle_early_suspend_intr,"ax",%progbits
 2186              		.align	2
 2187              		.global	dwc_otg_pcd_handle_early_suspend_intr
 2188              		.thumb
 2189              		.thumb_func
 2191              	dwc_otg_pcd_handle_early_suspend_intr:
 2192              	.LFB33:
 727:../Dave/Generated/src/USBLD001/driver/dwc_otg_pcd_intr.c **** 
 728:../Dave/Generated/src/USBLD001/driver/dwc_otg_pcd_intr.c **** /**
 729:../Dave/Generated/src/USBLD001/driver/dwc_otg_pcd_intr.c ****  * This interrupt indicates that ...
 730:../Dave/Generated/src/USBLD001/driver/dwc_otg_pcd_intr.c ****  */
 731:../Dave/Generated/src/USBLD001/driver/dwc_otg_pcd_intr.c **** int32_t dwc_otg_pcd_handle_early_suspend_intr(dwc_otg_pcd_t * pcd)
 732:../Dave/Generated/src/USBLD001/driver/dwc_otg_pcd_intr.c **** {
 2193              		.loc 2 732 0
 2194              		.cfi_startproc
 2195              		@ args = 0, pretend = 0, frame = 16
 2196              		@ frame_needed = 1, uses_anonymous_args = 0
 2197 0000 80B5     		push	{r7, lr}
 2198              	.LCFI54:
 2199              		.cfi_def_cfa_offset 8
 2200              		.cfi_offset 7, -8
 2201              		.cfi_offset 14, -4
 2202 0002 84B0     		sub	sp, sp, #16
 2203              	.LCFI55:
 2204              		.cfi_def_cfa_offset 24
 2205 0004 00AF     		add	r7, sp, #0
 2206              	.LCFI56:
 2207              		.cfi_def_cfa_register 7
 2208 0006 7860     		str	r0, [r7, #4]
 733:../Dave/Generated/src/USBLD001/driver/dwc_otg_pcd_intr.c **** 	gintsts_data_t gintsts;
 734:../Dave/Generated/src/USBLD001/driver/dwc_otg_pcd_intr.c **** #if defined(VERBOSE)
 735:../Dave/Generated/src/USBLD001/driver/dwc_otg_pcd_intr.c **** 	DWC_PRINTF("Early Suspend Detected\n");
 736:../Dave/Generated/src/USBLD001/driver/dwc_otg_pcd_intr.c **** #endif
 737:../Dave/Generated/src/USBLD001/driver/dwc_otg_pcd_intr.c **** 
 738:../Dave/Generated/src/USBLD001/driver/dwc_otg_pcd_intr.c **** 	/* Clear interrupt */
 739:../Dave/Generated/src/USBLD001/driver/dwc_otg_pcd_intr.c **** 	gintsts.d32 = 0;
 2209              		.loc 2 739 0
 2210 0008 4FF00003 		mov	r3, #0
 2211 000c FB60     		str	r3, [r7, #12]
 740:../Dave/Generated/src/USBLD001/driver/dwc_otg_pcd_intr.c **** 	gintsts.b.erlysuspend = 1;
 2212              		.loc 2 740 0
 2213 000e FB68     		ldr	r3, [r7, #12]
 2214 0010 43F48063 		orr	r3, r3, #1024
 2215 0014 FB60     		str	r3, [r7, #12]
 741:../Dave/Generated/src/USBLD001/driver/dwc_otg_pcd_intr.c **** 	DWC_WRITE_REG32(&GET_CORE_IF(pcd)->core_global_regs->gintsts,
 2216              		.loc 2 741 0
 2217 0016 7B68     		ldr	r3, [r7, #4]
 2218 0018 9B68     		ldr	r3, [r3, #8]
 2219 001a 5B68     		ldr	r3, [r3, #4]
 2220 001c 03F11402 		add	r2, r3, #20
 2221 0020 FB68     		ldr	r3, [r7, #12]
 2222 0022 1046     		mov	r0, r2
 2223 0024 1946     		mov	r1, r3
 2224 0026 FFF7FEFF 		bl	DWC_WRITE_REG32
 742:../Dave/Generated/src/USBLD001/driver/dwc_otg_pcd_intr.c **** 			gintsts.d32);
 743:../Dave/Generated/src/USBLD001/driver/dwc_otg_pcd_intr.c **** 	return 1;
 2225              		.loc 2 743 0
 2226 002a 4FF00103 		mov	r3, #1
 744:../Dave/Generated/src/USBLD001/driver/dwc_otg_pcd_intr.c **** }
 2227              		.loc 2 744 0
 2228 002e 1846     		mov	r0, r3
 2229 0030 07F11007 		add	r7, r7, #16
 2230 0034 BD46     		mov	sp, r7
 2231 0036 80BD     		pop	{r7, pc}
 2232              		.cfi_endproc
 2233              	.LFE33:
 2235              		.section	.text.ep0_out_start,"ax",%progbits
 2236              		.align	2
 2237              		.thumb
 2238              		.thumb_func
 2240              	ep0_out_start:
 2241              	.LFB34:
 745:../Dave/Generated/src/USBLD001/driver/dwc_otg_pcd_intr.c **** 
 746:../Dave/Generated/src/USBLD001/driver/dwc_otg_pcd_intr.c **** /**
 747:../Dave/Generated/src/USBLD001/driver/dwc_otg_pcd_intr.c ****  * This function configures EPO to receive SETUP packets.
 748:../Dave/Generated/src/USBLD001/driver/dwc_otg_pcd_intr.c ****  *
 749:../Dave/Generated/src/USBLD001/driver/dwc_otg_pcd_intr.c ****  * @todo NGS: Update the comments from the HW FS.
 750:../Dave/Generated/src/USBLD001/driver/dwc_otg_pcd_intr.c ****  *
 751:../Dave/Generated/src/USBLD001/driver/dwc_otg_pcd_intr.c ****  *	-# Program the following fields in the endpoint specific registers
 752:../Dave/Generated/src/USBLD001/driver/dwc_otg_pcd_intr.c ****  *	for Control OUT EP 0, in order to receive a setup packet
 753:../Dave/Generated/src/USBLD001/driver/dwc_otg_pcd_intr.c ****  *	- DOEPTSIZ0.Packet Count = 3 (To receive up to 3 back to back
 754:../Dave/Generated/src/USBLD001/driver/dwc_otg_pcd_intr.c ****  *	  setup packets)
 755:../Dave/Generated/src/USBLD001/driver/dwc_otg_pcd_intr.c ****  *	- DOEPTSIZE0.Transfer Size = 24 Bytes (To receive up to 3 back
 756:../Dave/Generated/src/USBLD001/driver/dwc_otg_pcd_intr.c ****  *	  to back setup packets)
 757:../Dave/Generated/src/USBLD001/driver/dwc_otg_pcd_intr.c ****  *		- In DMA mode, DOEPDMA0 Register with a memory address to
 758:../Dave/Generated/src/USBLD001/driver/dwc_otg_pcd_intr.c ****  *		  store any setup packets received
 759:../Dave/Generated/src/USBLD001/driver/dwc_otg_pcd_intr.c ****  *
 760:../Dave/Generated/src/USBLD001/driver/dwc_otg_pcd_intr.c ****  * @param core_if Programming view of DWC_otg controller.
 761:../Dave/Generated/src/USBLD001/driver/dwc_otg_pcd_intr.c ****  * @param pcd	  Programming view of the PCD.
 762:../Dave/Generated/src/USBLD001/driver/dwc_otg_pcd_intr.c ****  */
 763:../Dave/Generated/src/USBLD001/driver/dwc_otg_pcd_intr.c **** static inline void ep0_out_start(dwc_otg_core_if_t * core_if,
 764:../Dave/Generated/src/USBLD001/driver/dwc_otg_pcd_intr.c **** 				 dwc_otg_pcd_t * pcd)
 765:../Dave/Generated/src/USBLD001/driver/dwc_otg_pcd_intr.c **** {
 2242              		.loc 2 765 0
 2243              		.cfi_startproc
 2244              		@ args = 0, pretend = 0, frame = 32
 2245              		@ frame_needed = 1, uses_anonymous_args = 0
 2246 0000 80B5     		push	{r7, lr}
 2247              	.LCFI57:
 2248              		.cfi_def_cfa_offset 8
 2249              		.cfi_offset 7, -8
 2250              		.cfi_offset 14, -4
 2251 0002 88B0     		sub	sp, sp, #32
 2252              	.LCFI58:
 2253              		.cfi_def_cfa_offset 40
 2254 0004 00AF     		add	r7, sp, #0
 2255              	.LCFI59:
 2256              		.cfi_def_cfa_register 7
 2257 0006 7860     		str	r0, [r7, #4]
 2258 0008 3960     		str	r1, [r7, #0]
 766:../Dave/Generated/src/USBLD001/driver/dwc_otg_pcd_intr.c **** 	dwc_otg_dev_if_t *dev_if = core_if->dev_if;
 2259              		.loc 2 766 0
 2260 000a 7B68     		ldr	r3, [r7, #4]
 2261 000c 9B68     		ldr	r3, [r3, #8]
 2262 000e FB61     		str	r3, [r7, #28]
 767:../Dave/Generated/src/USBLD001/driver/dwc_otg_pcd_intr.c **** 	deptsiz0_data_t doeptsize0 = {.d32 = 0 };
 2263              		.loc 2 767 0
 2264 0010 4FF00003 		mov	r3, #0
 2265 0014 3B61     		str	r3, [r7, #16]
 2266 0016 4FF00003 		mov	r3, #0
 2267 001a 7B61     		str	r3, [r7, #20]
 768:../Dave/Generated/src/USBLD001/driver/dwc_otg_pcd_intr.c **** 	dwc_otg_dev_dma_desc_t *dma_desc;
 769:../Dave/Generated/src/USBLD001/driver/dwc_otg_pcd_intr.c **** 	depctl_data_t doepctl = {.d32 = 0 };
 2268              		.loc 2 769 0
 2269 001c 4FF00003 		mov	r3, #0
 2270 0020 FB60     		str	r3, [r7, #12]
 770:../Dave/Generated/src/USBLD001/driver/dwc_otg_pcd_intr.c **** 
 771:../Dave/Generated/src/USBLD001/driver/dwc_otg_pcd_intr.c **** #ifdef VERBOSE
 772:../Dave/Generated/src/USBLD001/driver/dwc_otg_pcd_intr.c **** 	DWC_DEBUGPL(DBG_PCDV, "%s() doepctl0=%0x\n", __func__,
 773:../Dave/Generated/src/USBLD001/driver/dwc_otg_pcd_intr.c **** 		    DWC_READ_REG32(&dev_if->out_ep_regs[0]->doepctl));
 774:../Dave/Generated/src/USBLD001/driver/dwc_otg_pcd_intr.c **** #endif
 775:../Dave/Generated/src/USBLD001/driver/dwc_otg_pcd_intr.c **** 
 776:../Dave/Generated/src/USBLD001/driver/dwc_otg_pcd_intr.c **** 	doeptsize0.b.supcnt = 3;
 2271              		.loc 2 776 0
 2272 0022 FB7C     		ldrb	r3, [r7, #19]
 2273 0024 43F06003 		orr	r3, r3, #96
 2274 0028 FB74     		strb	r3, [r7, #19]
 777:../Dave/Generated/src/USBLD001/driver/dwc_otg_pcd_intr.c **** 	doeptsize0.b.pktcnt = 1;
 2275              		.loc 2 777 0
 2276 002a BB7C     		ldrb	r3, [r7, #18]
 2277 002c 4FF00102 		mov	r2, #1
 2278 0030 62F3C403 		bfi	r3, r2, #3, #2
 2279 0034 BB74     		strb	r3, [r7, #18]
 778:../Dave/Generated/src/USBLD001/driver/dwc_otg_pcd_intr.c **** 	doeptsize0.b.xfersize = 8 * 3;
 2280              		.loc 2 778 0
 2281 0036 3B7C     		ldrb	r3, [r7, #16]
 2282 0038 4FF01802 		mov	r2, #24
 2283 003c 62F30603 		bfi	r3, r2, #0, #7
 2284 0040 3B74     		strb	r3, [r7, #16]
 779:../Dave/Generated/src/USBLD001/driver/dwc_otg_pcd_intr.c **** 
 780:../Dave/Generated/src/USBLD001/driver/dwc_otg_pcd_intr.c **** 	if (core_if->dma_enable) {
 2285              		.loc 2 780 0
 2286 0042 7B68     		ldr	r3, [r7, #4]
 2287 0044 93F84630 		ldrb	r3, [r3, #70]	@ zero_extendqisi2
 2288 0048 002B     		cmp	r3, #0
 2289 004a 5CD0     		beq	.L105
 781:../Dave/Generated/src/USBLD001/driver/dwc_otg_pcd_intr.c **** 		if (!core_if->dma_desc_enable) {
 2290              		.loc 2 781 0
 2291 004c 7B68     		ldr	r3, [r7, #4]
 2292 004e 93F84730 		ldrb	r3, [r3, #71]	@ zero_extendqisi2
 2293 0052 002B     		cmp	r3, #0
 2294 0054 13D1     		bne	.L106
 782:../Dave/Generated/src/USBLD001/driver/dwc_otg_pcd_intr.c **** 			/** put here as for Hermes mode deptisz register should not be written */
 783:../Dave/Generated/src/USBLD001/driver/dwc_otg_pcd_intr.c **** 			DWC_WRITE_REG32(&dev_if->out_ep_regs[0]->doeptsiz,
 2295              		.loc 2 783 0
 2296 0056 FB69     		ldr	r3, [r7, #28]
 2297 0058 5B6A     		ldr	r3, [r3, #36]
 2298 005a 03F11002 		add	r2, r3, #16
 2299 005e 3B69     		ldr	r3, [r7, #16]
 2300 0060 1046     		mov	r0, r2
 2301 0062 1946     		mov	r1, r3
 2302 0064 FFF7FEFF 		bl	DWC_WRITE_REG32
 784:../Dave/Generated/src/USBLD001/driver/dwc_otg_pcd_intr.c **** 					doeptsize0.d32);
 785:../Dave/Generated/src/USBLD001/driver/dwc_otg_pcd_intr.c **** 
 786:../Dave/Generated/src/USBLD001/driver/dwc_otg_pcd_intr.c **** 			/** @todo dma needs to handle multiple setup packets (up to 3) */
 787:../Dave/Generated/src/USBLD001/driver/dwc_otg_pcd_intr.c **** 			DWC_WRITE_REG32(&dev_if->out_ep_regs[0]->doepdma,
 2303              		.loc 2 787 0
 2304 0068 FB69     		ldr	r3, [r7, #28]
 2305 006a 5B6A     		ldr	r3, [r3, #36]
 2306 006c 03F11402 		add	r2, r3, #20
 788:../Dave/Generated/src/USBLD001/driver/dwc_otg_pcd_intr.c **** 					pcd->setup_pkt_dma_handle);
 2307              		.loc 2 788 0
 2308 0070 3B68     		ldr	r3, [r7, #0]
 787:../Dave/Generated/src/USBLD001/driver/dwc_otg_pcd_intr.c **** 			DWC_WRITE_REG32(&dev_if->out_ep_regs[0]->doepdma,
 2309              		.loc 2 787 0
 2310 0072 9B69     		ldr	r3, [r3, #24]
 2311 0074 1046     		mov	r0, r2
 2312 0076 1946     		mov	r1, r3
 2313 0078 FFF7FEFF 		bl	DWC_WRITE_REG32
 2314 007c 4CE0     		b	.L107
 2315              	.L106:
 789:../Dave/Generated/src/USBLD001/driver/dwc_otg_pcd_intr.c **** 		} else {
 790:../Dave/Generated/src/USBLD001/driver/dwc_otg_pcd_intr.c **** 			dev_if->setup_desc_index =
 791:../Dave/Generated/src/USBLD001/driver/dwc_otg_pcd_intr.c **** 			    (dev_if->setup_desc_index + 1) & 1;
 2316              		.loc 2 791 0
 2317 007e FB69     		ldr	r3, [r7, #28]
 2318 0080 D3F8A430 		ldr	r3, [r3, #164]
 2319 0084 03F10103 		add	r3, r3, #1
 2320 0088 03F00102 		and	r2, r3, #1
 790:../Dave/Generated/src/USBLD001/driver/dwc_otg_pcd_intr.c **** 			dev_if->setup_desc_index =
 2321              		.loc 2 790 0
 2322 008c FB69     		ldr	r3, [r7, #28]
 2323 008e C3F8A420 		str	r2, [r3, #164]
 792:../Dave/Generated/src/USBLD001/driver/dwc_otg_pcd_intr.c **** 			dma_desc =
 793:../Dave/Generated/src/USBLD001/driver/dwc_otg_pcd_intr.c **** 			    dev_if->setup_desc_addr[dev_if->setup_desc_index];
 2324              		.loc 2 793 0
 2325 0092 FB69     		ldr	r3, [r7, #28]
 2326 0094 D3F8A420 		ldr	r2, [r3, #164]
 2327 0098 FB69     		ldr	r3, [r7, #28]
 792:../Dave/Generated/src/USBLD001/driver/dwc_otg_pcd_intr.c **** 			dma_desc =
 2328              		.loc 2 792 0
 2329 009a 02F12602 		add	r2, r2, #38
 2330 009e 53F82230 		ldr	r3, [r3, r2, lsl #2]
 2331 00a2 BB61     		str	r3, [r7, #24]
 794:../Dave/Generated/src/USBLD001/driver/dwc_otg_pcd_intr.c **** 
 795:../Dave/Generated/src/USBLD001/driver/dwc_otg_pcd_intr.c **** 			/** DMA Descriptor Setup */
 796:../Dave/Generated/src/USBLD001/driver/dwc_otg_pcd_intr.c **** 			dma_desc->status.b.bs = BS_HOST_BUSY;
 2332              		.loc 2 796 0
 2333 00a4 BA69     		ldr	r2, [r7, #24]
 2334 00a6 D378     		ldrb	r3, [r2, #3]
 2335 00a8 43F0C003 		orr	r3, r3, #192
 2336 00ac D370     		strb	r3, [r2, #3]
 797:../Dave/Generated/src/USBLD001/driver/dwc_otg_pcd_intr.c **** 			dma_desc->status.b.l = 1;
 2337              		.loc 2 797 0
 2338 00ae BA69     		ldr	r2, [r7, #24]
 2339 00b0 D378     		ldrb	r3, [r2, #3]
 2340 00b2 43F00803 		orr	r3, r3, #8
 2341 00b6 D370     		strb	r3, [r2, #3]
 798:../Dave/Generated/src/USBLD001/driver/dwc_otg_pcd_intr.c **** 			dma_desc->status.b.ioc = 1;
 2342              		.loc 2 798 0
 2343 00b8 BA69     		ldr	r2, [r7, #24]
 2344 00ba D378     		ldrb	r3, [r2, #3]
 2345 00bc 43F00203 		orr	r3, r3, #2
 2346 00c0 D370     		strb	r3, [r2, #3]
 799:../Dave/Generated/src/USBLD001/driver/dwc_otg_pcd_intr.c **** 			dma_desc->status.b.bytes = pcd->ep0.dwc_ep.maxpacket;
 2347              		.loc 2 799 0
 2348 00c2 3B68     		ldr	r3, [r7, #0]
 2349 00c4 DB8E     		ldrh	r3, [r3, #54]	@ movhi
 2350 00c6 C3F38A03 		ubfx	r3, r3, #2, #11
 2351 00ca 9BB2     		uxth	r3, r3
 2352 00cc 1A46     		mov	r2, r3
 2353 00ce BB69     		ldr	r3, [r7, #24]
 2354 00d0 1A80     		strh	r2, [r3, #0]	@ unaligned
 800:../Dave/Generated/src/USBLD001/driver/dwc_otg_pcd_intr.c **** 			dma_desc->buf = pcd->setup_pkt_dma_handle;
 2355              		.loc 2 800 0
 2356 00d2 3B68     		ldr	r3, [r7, #0]
 2357 00d4 9A69     		ldr	r2, [r3, #24]
 2358 00d6 BB69     		ldr	r3, [r7, #24]
 2359 00d8 5A60     		str	r2, [r3, #4]
 801:../Dave/Generated/src/USBLD001/driver/dwc_otg_pcd_intr.c **** 			dma_desc->status.b.bs = BS_HOST_READY;
 2360              		.loc 2 801 0
 2361 00da BA69     		ldr	r2, [r7, #24]
 2362 00dc D378     		ldrb	r3, [r2, #3]
 2363 00de 6FF38713 		bfc	r3, #6, #2
 2364 00e2 D370     		strb	r3, [r2, #3]
 802:../Dave/Generated/src/USBLD001/driver/dwc_otg_pcd_intr.c **** 
 803:../Dave/Generated/src/USBLD001/driver/dwc_otg_pcd_intr.c **** 			/** DOEPDMA0 Register write */
 804:../Dave/Generated/src/USBLD001/driver/dwc_otg_pcd_intr.c **** 			DWC_WRITE_REG32(&dev_if->out_ep_regs[0]->doepdma,
 2365              		.loc 2 804 0
 2366 00e4 FB69     		ldr	r3, [r7, #28]
 2367 00e6 5B6A     		ldr	r3, [r3, #36]
 2368 00e8 03F11402 		add	r2, r3, #20
 805:../Dave/Generated/src/USBLD001/driver/dwc_otg_pcd_intr.c **** 					dev_if->
 806:../Dave/Generated/src/USBLD001/driver/dwc_otg_pcd_intr.c **** 					dma_setup_desc_addr
 807:../Dave/Generated/src/USBLD001/driver/dwc_otg_pcd_intr.c **** 					[dev_if->setup_desc_index]);
 2369              		.loc 2 807 0
 2370 00ec FB69     		ldr	r3, [r7, #28]
 2371 00ee D3F8A410 		ldr	r1, [r3, #164]
 805:../Dave/Generated/src/USBLD001/driver/dwc_otg_pcd_intr.c **** 					dev_if->
 2372              		.loc 2 805 0
 2373 00f2 FB69     		ldr	r3, [r7, #28]
 804:../Dave/Generated/src/USBLD001/driver/dwc_otg_pcd_intr.c **** 			DWC_WRITE_REG32(&dev_if->out_ep_regs[0]->doepdma,
 2374              		.loc 2 804 0
 2375 00f4 01F12401 		add	r1, r1, #36
 2376 00f8 53F82130 		ldr	r3, [r3, r1, lsl #2]
 2377 00fc 1046     		mov	r0, r2
 2378 00fe 1946     		mov	r1, r3
 2379 0100 FFF7FEFF 		bl	DWC_WRITE_REG32
 2380 0104 08E0     		b	.L107
 2381              	.L105:
 808:../Dave/Generated/src/USBLD001/driver/dwc_otg_pcd_intr.c **** 		}
 809:../Dave/Generated/src/USBLD001/driver/dwc_otg_pcd_intr.c **** 
 810:../Dave/Generated/src/USBLD001/driver/dwc_otg_pcd_intr.c **** 	} else {
 811:../Dave/Generated/src/USBLD001/driver/dwc_otg_pcd_intr.c **** 		/** put here as for Hermes mode deptisz register should not be written */
 812:../Dave/Generated/src/USBLD001/driver/dwc_otg_pcd_intr.c **** 		DWC_WRITE_REG32(&dev_if->out_ep_regs[0]->doeptsiz,
 2382              		.loc 2 812 0
 2383 0106 FB69     		ldr	r3, [r7, #28]
 2384 0108 5B6A     		ldr	r3, [r3, #36]
 2385 010a 03F11002 		add	r2, r3, #16
 2386 010e 3B69     		ldr	r3, [r7, #16]
 2387 0110 1046     		mov	r0, r2
 2388 0112 1946     		mov	r1, r3
 2389 0114 FFF7FEFF 		bl	DWC_WRITE_REG32
 2390              	.L107:
 813:../Dave/Generated/src/USBLD001/driver/dwc_otg_pcd_intr.c **** 				doeptsize0.d32);
 814:../Dave/Generated/src/USBLD001/driver/dwc_otg_pcd_intr.c **** 	}
 815:../Dave/Generated/src/USBLD001/driver/dwc_otg_pcd_intr.c **** 
 816:../Dave/Generated/src/USBLD001/driver/dwc_otg_pcd_intr.c **** 	/** DOEPCTL0 Register write */
 817:../Dave/Generated/src/USBLD001/driver/dwc_otg_pcd_intr.c **** 	doepctl.b.epena = 1;
 2391              		.loc 2 817 0
 2392 0118 FB68     		ldr	r3, [r7, #12]
 2393 011a 43F00043 		orr	r3, r3, #-2147483648
 2394 011e FB60     		str	r3, [r7, #12]
 818:../Dave/Generated/src/USBLD001/driver/dwc_otg_pcd_intr.c **** 	doepctl.b.cnak = 1;
 2395              		.loc 2 818 0
 2396 0120 FB68     		ldr	r3, [r7, #12]
 2397 0122 43F08063 		orr	r3, r3, #67108864
 2398 0126 FB60     		str	r3, [r7, #12]
 819:../Dave/Generated/src/USBLD001/driver/dwc_otg_pcd_intr.c **** 	DWC_WRITE_REG32(&dev_if->out_ep_regs[0]->doepctl, doepctl.d32);
 2399              		.loc 2 819 0
 2400 0128 FB69     		ldr	r3, [r7, #28]
 2401 012a 5B6A     		ldr	r3, [r3, #36]
 2402 012c 1A46     		mov	r2, r3
 2403 012e FB68     		ldr	r3, [r7, #12]
 2404 0130 1046     		mov	r0, r2
 2405 0132 1946     		mov	r1, r3
 2406 0134 FFF7FEFF 		bl	DWC_WRITE_REG32
 820:../Dave/Generated/src/USBLD001/driver/dwc_otg_pcd_intr.c **** 
 821:../Dave/Generated/src/USBLD001/driver/dwc_otg_pcd_intr.c **** #ifdef VERBOSE
 822:../Dave/Generated/src/USBLD001/driver/dwc_otg_pcd_intr.c **** 	DWC_DEBUGPL(DBG_PCDV, "doepctl0=%0x\n",
 823:../Dave/Generated/src/USBLD001/driver/dwc_otg_pcd_intr.c **** 		    DWC_READ_REG32(&dev_if->out_ep_regs[0]->doepctl));
 824:../Dave/Generated/src/USBLD001/driver/dwc_otg_pcd_intr.c **** 	DWC_DEBUGPL(DBG_PCDV, "diepctl0=%0x\n",
 825:../Dave/Generated/src/USBLD001/driver/dwc_otg_pcd_intr.c **** 		    DWC_READ_REG32(&dev_if->in_ep_regs[0]->diepctl));
 826:../Dave/Generated/src/USBLD001/driver/dwc_otg_pcd_intr.c **** #endif
 827:../Dave/Generated/src/USBLD001/driver/dwc_otg_pcd_intr.c **** }
 2407              		.loc 2 827 0
 2408 0138 07F12007 		add	r7, r7, #32
 2409 013c BD46     		mov	sp, r7
 2410 013e 80BD     		pop	{r7, pc}
 2411              		.cfi_endproc
 2412              	.LFE34:
 2414              		.section	.text.dwc_otg_pcd_handle_usb_reset_intr,"ax",%progbits
 2415              		.align	2
 2416              		.global	dwc_otg_pcd_handle_usb_reset_intr
 2417              		.thumb
 2418              		.thumb_func
 2420              	dwc_otg_pcd_handle_usb_reset_intr:
 2421              	.LFB35:
 828:../Dave/Generated/src/USBLD001/driver/dwc_otg_pcd_intr.c **** 
 829:../Dave/Generated/src/USBLD001/driver/dwc_otg_pcd_intr.c **** /**
 830:../Dave/Generated/src/USBLD001/driver/dwc_otg_pcd_intr.c ****  * This interrupt occurs when a USB Reset is detected. When the USB
 831:../Dave/Generated/src/USBLD001/driver/dwc_otg_pcd_intr.c ****  * Reset Interrupt occurs the device state is set to DEFAULT and the
 832:../Dave/Generated/src/USBLD001/driver/dwc_otg_pcd_intr.c ****  * EP0 state is set to IDLE.
 833:../Dave/Generated/src/USBLD001/driver/dwc_otg_pcd_intr.c ****  *	-#	Set the NAK bit for all OUT endpoints (DOEPCTLn.SNAK = 1)
 834:../Dave/Generated/src/USBLD001/driver/dwc_otg_pcd_intr.c ****  *	-#	Unmask the following interrupt bits
 835:../Dave/Generated/src/USBLD001/driver/dwc_otg_pcd_intr.c ****  *		- DAINTMSK.INEP0 = 1 (Control 0 IN endpoint)
 836:../Dave/Generated/src/USBLD001/driver/dwc_otg_pcd_intr.c ****  *	- DAINTMSK.OUTEP0 = 1 (Control 0 OUT endpoint)
 837:../Dave/Generated/src/USBLD001/driver/dwc_otg_pcd_intr.c ****  *	- DOEPMSK.SETUP = 1
 838:../Dave/Generated/src/USBLD001/driver/dwc_otg_pcd_intr.c ****  *	- DOEPMSK.XferCompl = 1
 839:../Dave/Generated/src/USBLD001/driver/dwc_otg_pcd_intr.c ****  *	- DIEPMSK.XferCompl = 1
 840:../Dave/Generated/src/USBLD001/driver/dwc_otg_pcd_intr.c ****  *	- DIEPMSK.TimeOut = 1
 841:../Dave/Generated/src/USBLD001/driver/dwc_otg_pcd_intr.c ****  *	-# Program the following fields in the endpoint specific registers
 842:../Dave/Generated/src/USBLD001/driver/dwc_otg_pcd_intr.c ****  *	for Control OUT EP 0, in order to receive a setup packet
 843:../Dave/Generated/src/USBLD001/driver/dwc_otg_pcd_intr.c ****  *	- DOEPTSIZ0.Packet Count = 3 (To receive up to 3 back to back
 844:../Dave/Generated/src/USBLD001/driver/dwc_otg_pcd_intr.c ****  *	  setup packets)
 845:../Dave/Generated/src/USBLD001/driver/dwc_otg_pcd_intr.c ****  *	- DOEPTSIZE0.Transfer Size = 24 Bytes (To receive up to 3 back
 846:../Dave/Generated/src/USBLD001/driver/dwc_otg_pcd_intr.c ****  *	  to back setup packets)
 847:../Dave/Generated/src/USBLD001/driver/dwc_otg_pcd_intr.c ****  *		- In DMA mode, DOEPDMA0 Register with a memory address to
 848:../Dave/Generated/src/USBLD001/driver/dwc_otg_pcd_intr.c ****  *		  store any setup packets received
 849:../Dave/Generated/src/USBLD001/driver/dwc_otg_pcd_intr.c ****  * At this point, all the required initialization, except for enabling
 850:../Dave/Generated/src/USBLD001/driver/dwc_otg_pcd_intr.c ****  * the control 0 OUT endpoint is done, for receiving SETUP packets.
 851:../Dave/Generated/src/USBLD001/driver/dwc_otg_pcd_intr.c ****  */
 852:../Dave/Generated/src/USBLD001/driver/dwc_otg_pcd_intr.c **** int32_t dwc_otg_pcd_handle_usb_reset_intr(dwc_otg_pcd_t * pcd)
 853:../Dave/Generated/src/USBLD001/driver/dwc_otg_pcd_intr.c **** {
 2422              		.loc 2 853 0
 2423              		.cfi_startproc
 2424              		@ args = 0, pretend = 0, frame = 56
 2425              		@ frame_needed = 1, uses_anonymous_args = 0
 2426 0000 80B5     		push	{r7, lr}
 2427              	.LCFI60:
 2428              		.cfi_def_cfa_offset 8
 2429              		.cfi_offset 7, -8
 2430              		.cfi_offset 14, -4
 2431 0002 8EB0     		sub	sp, sp, #56
 2432              	.LCFI61:
 2433              		.cfi_def_cfa_offset 64
 2434 0004 00AF     		add	r7, sp, #0
 2435              	.LCFI62:
 2436              		.cfi_def_cfa_register 7
 2437 0006 7860     		str	r0, [r7, #4]
 854:../Dave/Generated/src/USBLD001/driver/dwc_otg_pcd_intr.c **** 	dwc_otg_core_if_t *core_if = GET_CORE_IF(pcd);
 2438              		.loc 2 854 0
 2439 0008 7B68     		ldr	r3, [r7, #4]
 2440 000a 9B68     		ldr	r3, [r3, #8]
 2441 000c 3B63     		str	r3, [r7, #48]
 855:../Dave/Generated/src/USBLD001/driver/dwc_otg_pcd_intr.c **** 	dwc_otg_dev_if_t *dev_if = core_if->dev_if;
 2442              		.loc 2 855 0
 2443 000e 3B6B     		ldr	r3, [r7, #48]
 2444 0010 9B68     		ldr	r3, [r3, #8]
 2445 0012 FB62     		str	r3, [r7, #44]
 856:../Dave/Generated/src/USBLD001/driver/dwc_otg_pcd_intr.c **** 	depctl_data_t doepctl = {.d32 = 0 };
 2446              		.loc 2 856 0
 2447 0014 4FF00003 		mov	r3, #0
 2448 0018 BB62     		str	r3, [r7, #40]
 857:../Dave/Generated/src/USBLD001/driver/dwc_otg_pcd_intr.c **** 	daint_data_t daintmsk = {.d32 = 0 };
 2449              		.loc 2 857 0
 2450 001a 4FF00003 		mov	r3, #0
 2451 001e 7B62     		str	r3, [r7, #36]
 858:../Dave/Generated/src/USBLD001/driver/dwc_otg_pcd_intr.c **** 	doepmsk_data_t doepmsk = {.d32 = 0 };
 2452              		.loc 2 858 0
 2453 0020 4FF00003 		mov	r3, #0
 2454 0024 3B62     		str	r3, [r7, #32]
 859:../Dave/Generated/src/USBLD001/driver/dwc_otg_pcd_intr.c **** 	diepmsk_data_t diepmsk = {.d32 = 0 };
 2455              		.loc 2 859 0
 2456 0026 4FF00003 		mov	r3, #0
 2457 002a FB61     		str	r3, [r7, #28]
 860:../Dave/Generated/src/USBLD001/driver/dwc_otg_pcd_intr.c **** 	dcfg_data_t dcfg = {.d32 = 0 };
 2458              		.loc 2 860 0
 2459 002c 4FF00003 		mov	r3, #0
 2460 0030 BB61     		str	r3, [r7, #24]
 861:../Dave/Generated/src/USBLD001/driver/dwc_otg_pcd_intr.c **** 	grstctl_t resetctl = {.d32 = 0 };
 2461              		.loc 2 861 0
 2462 0032 4FF00003 		mov	r3, #0
 2463 0036 7B61     		str	r3, [r7, #20]
 862:../Dave/Generated/src/USBLD001/driver/dwc_otg_pcd_intr.c **** 	dctl_data_t dctl = {.d32 = 0 };
 2464              		.loc 2 862 0
 2465 0038 4FF00003 		mov	r3, #0
 2466 003c 3B61     		str	r3, [r7, #16]
 863:../Dave/Generated/src/USBLD001/driver/dwc_otg_pcd_intr.c **** 	int i = 0;
 2467              		.loc 2 863 0
 2468 003e 4FF00003 		mov	r3, #0
 2469 0042 7B63     		str	r3, [r7, #52]
 864:../Dave/Generated/src/USBLD001/driver/dwc_otg_pcd_intr.c **** 	gintsts_data_t gintsts;
 865:../Dave/Generated/src/USBLD001/driver/dwc_otg_pcd_intr.c **** 	pcgcctl_data_t power = {.d32 = 0 };
 2470              		.loc 2 865 0
 2471 0044 4FF00003 		mov	r3, #0
 2472 0048 BB60     		str	r3, [r7, #8]
 866:../Dave/Generated/src/USBLD001/driver/dwc_otg_pcd_intr.c **** 
 867:../Dave/Generated/src/USBLD001/driver/dwc_otg_pcd_intr.c **** 	power.d32 = DWC_READ_REG32(core_if->pcgcctl);
 2473              		.loc 2 867 0
 2474 004a 3B6B     		ldr	r3, [r7, #48]
 2475 004c DB69     		ldr	r3, [r3, #28]
 2476 004e 1846     		mov	r0, r3
 2477 0050 FFF7FEFF 		bl	DWC_READ_REG32
 2478 0054 0346     		mov	r3, r0
 2479 0056 BB60     		str	r3, [r7, #8]
 868:../Dave/Generated/src/USBLD001/driver/dwc_otg_pcd_intr.c **** 	if (power.b.stoppclk) {
 2480              		.loc 2 868 0
 2481 0058 3B7A     		ldrb	r3, [r7, #8]	@ zero_extendqisi2
 2482 005a 03F00103 		and	r3, r3, #1
 2483 005e DBB2     		uxtb	r3, r3
 2484 0060 002B     		cmp	r3, #0
 2485 0062 29D0     		beq	.L109
 869:../Dave/Generated/src/USBLD001/driver/dwc_otg_pcd_intr.c **** 		power.d32 = 0;
 2486              		.loc 2 869 0
 2487 0064 4FF00003 		mov	r3, #0
 2488 0068 BB60     		str	r3, [r7, #8]
 870:../Dave/Generated/src/USBLD001/driver/dwc_otg_pcd_intr.c **** 		power.b.stoppclk = 1;
 2489              		.loc 2 870 0
 2490 006a BB68     		ldr	r3, [r7, #8]
 2491 006c 43F00103 		orr	r3, r3, #1
 2492 0070 BB60     		str	r3, [r7, #8]
 871:../Dave/Generated/src/USBLD001/driver/dwc_otg_pcd_intr.c **** 		DWC_MODIFY_REG32(core_if->pcgcctl, power.d32, 0);
 2493              		.loc 2 871 0
 2494 0072 3B6B     		ldr	r3, [r7, #48]
 2495 0074 DA69     		ldr	r2, [r3, #28]
 2496 0076 BB68     		ldr	r3, [r7, #8]
 2497 0078 1046     		mov	r0, r2
 2498 007a 1946     		mov	r1, r3
 2499 007c 4FF00002 		mov	r2, #0
 2500 0080 FFF7FEFF 		bl	DWC_MODIFY_REG32
 872:../Dave/Generated/src/USBLD001/driver/dwc_otg_pcd_intr.c **** 
 873:../Dave/Generated/src/USBLD001/driver/dwc_otg_pcd_intr.c **** 		power.b.pwrclmp = 1;
 2501              		.loc 2 873 0
 2502 0084 BB68     		ldr	r3, [r7, #8]
 2503 0086 43F00403 		orr	r3, r3, #4
 2504 008a BB60     		str	r3, [r7, #8]
 874:../Dave/Generated/src/USBLD001/driver/dwc_otg_pcd_intr.c **** 		DWC_MODIFY_REG32(core_if->pcgcctl, power.d32, 0);
 2505              		.loc 2 874 0
 2506 008c 3B6B     		ldr	r3, [r7, #48]
 2507 008e DA69     		ldr	r2, [r3, #28]
 2508 0090 BB68     		ldr	r3, [r7, #8]
 2509 0092 1046     		mov	r0, r2
 2510 0094 1946     		mov	r1, r3
 2511 0096 4FF00002 		mov	r2, #0
 2512 009a FFF7FEFF 		bl	DWC_MODIFY_REG32
 875:../Dave/Generated/src/USBLD001/driver/dwc_otg_pcd_intr.c **** 
 876:../Dave/Generated/src/USBLD001/driver/dwc_otg_pcd_intr.c **** 		power.b.rstpdwnmodule = 1;
 2513              		.loc 2 876 0
 2514 009e BB68     		ldr	r3, [r7, #8]
 2515 00a0 43F00803 		orr	r3, r3, #8
 2516 00a4 BB60     		str	r3, [r7, #8]
 877:../Dave/Generated/src/USBLD001/driver/dwc_otg_pcd_intr.c **** 		DWC_MODIFY_REG32(core_if->pcgcctl, power.d32, 0);
 2517              		.loc 2 877 0
 2518 00a6 3B6B     		ldr	r3, [r7, #48]
 2519 00a8 DA69     		ldr	r2, [r3, #28]
 2520 00aa BB68     		ldr	r3, [r7, #8]
 2521 00ac 1046     		mov	r0, r2
 2522 00ae 1946     		mov	r1, r3
 2523 00b0 4FF00002 		mov	r2, #0
 2524 00b4 FFF7FEFF 		bl	DWC_MODIFY_REG32
 2525              	.L109:
 878:../Dave/Generated/src/USBLD001/driver/dwc_otg_pcd_intr.c **** 	}
 879:../Dave/Generated/src/USBLD001/driver/dwc_otg_pcd_intr.c **** 
 880:../Dave/Generated/src/USBLD001/driver/dwc_otg_pcd_intr.c **** 	core_if->lx_state = DWC_OTG_L0;
 2526              		.loc 2 880 0
 2527 00b8 3B6B     		ldr	r3, [r7, #48]
 2528 00ba 4FF00002 		mov	r2, #0
 2529 00be 83F88020 		strb	r2, [r3, #128]
 881:../Dave/Generated/src/USBLD001/driver/dwc_otg_pcd_intr.c **** 
 882:../Dave/Generated/src/USBLD001/driver/dwc_otg_pcd_intr.c **** 	DWC_PRINTF("USB RESET\n");
 883:../Dave/Generated/src/USBLD001/driver/dwc_otg_pcd_intr.c **** #ifdef DWC_EN_ISOC
 884:../Dave/Generated/src/USBLD001/driver/dwc_otg_pcd_intr.c **** 	for (i = 1; i < 16; ++i) {
 885:../Dave/Generated/src/USBLD001/driver/dwc_otg_pcd_intr.c **** 		dwc_otg_pcd_ep_t *ep;
 886:../Dave/Generated/src/USBLD001/driver/dwc_otg_pcd_intr.c **** 		dwc_ep_t *dwc_ep;
 887:../Dave/Generated/src/USBLD001/driver/dwc_otg_pcd_intr.c **** 		ep = get_in_ep(pcd, i);
 888:../Dave/Generated/src/USBLD001/driver/dwc_otg_pcd_intr.c **** 		if (ep != 0) {
 889:../Dave/Generated/src/USBLD001/driver/dwc_otg_pcd_intr.c **** 			dwc_ep = &ep->dwc_ep;
 890:../Dave/Generated/src/USBLD001/driver/dwc_otg_pcd_intr.c **** 			dwc_ep->next_frame = 0xffffffff;
 891:../Dave/Generated/src/USBLD001/driver/dwc_otg_pcd_intr.c **** 		}
 892:../Dave/Generated/src/USBLD001/driver/dwc_otg_pcd_intr.c **** 	}
 893:../Dave/Generated/src/USBLD001/driver/dwc_otg_pcd_intr.c **** #endif /* DWC_EN_ISOC */
 894:../Dave/Generated/src/USBLD001/driver/dwc_otg_pcd_intr.c **** 
 895:../Dave/Generated/src/USBLD001/driver/dwc_otg_pcd_intr.c **** 	/* reset the HNP settings */
 896:../Dave/Generated/src/USBLD001/driver/dwc_otg_pcd_intr.c **** 	dwc_otg_pcd_update_otg(pcd, 1);
 2530              		.loc 2 896 0
 2531 00c2 7868     		ldr	r0, [r7, #4]
 2532 00c4 4FF00101 		mov	r1, #1
 2533 00c8 FFF7FEFF 		bl	dwc_otg_pcd_update_otg
 897:../Dave/Generated/src/USBLD001/driver/dwc_otg_pcd_intr.c **** 
 898:../Dave/Generated/src/USBLD001/driver/dwc_otg_pcd_intr.c **** 	/* Clear the Remote Wakeup Signalling */
 899:../Dave/Generated/src/USBLD001/driver/dwc_otg_pcd_intr.c **** 	dctl.b.rmtwkupsig = 1;
 2534              		.loc 2 899 0
 2535 00cc 3B69     		ldr	r3, [r7, #16]
 2536 00ce 43F00103 		orr	r3, r3, #1
 2537 00d2 3B61     		str	r3, [r7, #16]
 900:../Dave/Generated/src/USBLD001/driver/dwc_otg_pcd_intr.c **** 	DWC_MODIFY_REG32(&core_if->dev_if->dev_global_regs->dctl, dctl.d32, 0);
 2538              		.loc 2 900 0
 2539 00d4 3B6B     		ldr	r3, [r7, #48]
 2540 00d6 9B68     		ldr	r3, [r3, #8]
 2541 00d8 1B68     		ldr	r3, [r3, #0]
 2542 00da 03F10402 		add	r2, r3, #4
 2543 00de 3B69     		ldr	r3, [r7, #16]
 2544 00e0 1046     		mov	r0, r2
 2545 00e2 1946     		mov	r1, r3
 2546 00e4 4FF00002 		mov	r2, #0
 2547 00e8 FFF7FEFF 		bl	DWC_MODIFY_REG32
 901:../Dave/Generated/src/USBLD001/driver/dwc_otg_pcd_intr.c **** 
 902:../Dave/Generated/src/USBLD001/driver/dwc_otg_pcd_intr.c **** 	/* Set NAK for all OUT EPs */
 903:../Dave/Generated/src/USBLD001/driver/dwc_otg_pcd_intr.c **** 	doepctl.b.snak = 1;
 2548              		.loc 2 903 0
 2549 00ec BB6A     		ldr	r3, [r7, #40]
 2550 00ee 43F00063 		orr	r3, r3, #134217728
 2551 00f2 BB62     		str	r3, [r7, #40]
 904:../Dave/Generated/src/USBLD001/driver/dwc_otg_pcd_intr.c **** 	for (i = 0; i <= dev_if->num_out_eps; i++) {
 2552              		.loc 2 904 0
 2553 00f4 4FF00003 		mov	r3, #0
 2554 00f8 7B63     		str	r3, [r7, #52]
 2555 00fa 11E0     		b	.L110
 2556              	.L111:
 905:../Dave/Generated/src/USBLD001/driver/dwc_otg_pcd_intr.c **** 		DWC_WRITE_REG32(&dev_if->out_ep_regs[i]->doepctl, doepctl.d32);
 2557              		.loc 2 905 0 discriminator 2
 2558 00fc FA6A     		ldr	r2, [r7, #44]
 2559 00fe 7B6B     		ldr	r3, [r7, #52]
 2560 0100 03F10803 		add	r3, r3, #8
 2561 0104 4FEA8303 		lsl	r3, r3, #2
 2562 0108 D318     		adds	r3, r2, r3
 2563 010a 5B68     		ldr	r3, [r3, #4]
 2564 010c 1A46     		mov	r2, r3
 2565 010e BB6A     		ldr	r3, [r7, #40]
 2566 0110 1046     		mov	r0, r2
 2567 0112 1946     		mov	r1, r3
 2568 0114 FFF7FEFF 		bl	DWC_WRITE_REG32
 904:../Dave/Generated/src/USBLD001/driver/dwc_otg_pcd_intr.c **** 	for (i = 0; i <= dev_if->num_out_eps; i++) {
 2569              		.loc 2 904 0 discriminator 2
 2570 0118 7B6B     		ldr	r3, [r7, #52]
 2571 011a 03F10103 		add	r3, r3, #1
 2572 011e 7B63     		str	r3, [r7, #52]
 2573              	.L110:
 904:../Dave/Generated/src/USBLD001/driver/dwc_otg_pcd_intr.c **** 	for (i = 0; i <= dev_if->num_out_eps; i++) {
 2574              		.loc 2 904 0 is_stmt 0 discriminator 1
 2575 0120 FB6A     		ldr	r3, [r7, #44]
 2576 0122 93F84630 		ldrb	r3, [r3, #70]	@ zero_extendqisi2
 2577 0126 1A46     		mov	r2, r3
 2578 0128 7B6B     		ldr	r3, [r7, #52]
 2579 012a 9A42     		cmp	r2, r3
 2580 012c E6DA     		bge	.L111
 906:../Dave/Generated/src/USBLD001/driver/dwc_otg_pcd_intr.c **** 	}
 907:../Dave/Generated/src/USBLD001/driver/dwc_otg_pcd_intr.c **** 
 908:../Dave/Generated/src/USBLD001/driver/dwc_otg_pcd_intr.c **** 	/* Flush the NP Tx FIFO */
 909:../Dave/Generated/src/USBLD001/driver/dwc_otg_pcd_intr.c **** 	dwc_otg_flush_tx_fifo(core_if, 0x10);
 2581              		.loc 2 909 0 is_stmt 1
 2582 012e 386B     		ldr	r0, [r7, #48]
 2583 0130 4FF01001 		mov	r1, #16
 2584 0134 FFF7FEFF 		bl	dwc_otg_flush_tx_fifo
 910:../Dave/Generated/src/USBLD001/driver/dwc_otg_pcd_intr.c **** 	/* Flush the Learning Queue */
 911:../Dave/Generated/src/USBLD001/driver/dwc_otg_pcd_intr.c **** 	resetctl.b.intknqflsh = 1;
 2585              		.loc 2 911 0
 2586 0138 7B69     		ldr	r3, [r7, #20]
 2587 013a 43F00803 		orr	r3, r3, #8
 2588 013e 7B61     		str	r3, [r7, #20]
 912:../Dave/Generated/src/USBLD001/driver/dwc_otg_pcd_intr.c **** 	DWC_WRITE_REG32(&core_if->core_global_regs->grstctl, resetctl.d32);
 2589              		.loc 2 912 0
 2590 0140 3B6B     		ldr	r3, [r7, #48]
 2591 0142 5B68     		ldr	r3, [r3, #4]
 2592 0144 03F11002 		add	r2, r3, #16
 2593 0148 7B69     		ldr	r3, [r7, #20]
 2594 014a 1046     		mov	r0, r2
 2595 014c 1946     		mov	r1, r3
 2596 014e FFF7FEFF 		bl	DWC_WRITE_REG32
 913:../Dave/Generated/src/USBLD001/driver/dwc_otg_pcd_intr.c **** 
 914:../Dave/Generated/src/USBLD001/driver/dwc_otg_pcd_intr.c **** 	if (core_if->multiproc_int_enable) {
 2597              		.loc 2 914 0
 2598 0152 3B6B     		ldr	r3, [r7, #48]
 2599 0154 93F84930 		ldrb	r3, [r3, #73]	@ zero_extendqisi2
 2600 0158 002B     		cmp	r3, #0
 2601 015a 50D0     		beq	.L112
 915:../Dave/Generated/src/USBLD001/driver/dwc_otg_pcd_intr.c **** 		daintmsk.b.inep0 = 1;
 2602              		.loc 2 915 0
 2603 015c 7B6A     		ldr	r3, [r7, #36]
 2604 015e 43F00103 		orr	r3, r3, #1
 2605 0162 7B62     		str	r3, [r7, #36]
 916:../Dave/Generated/src/USBLD001/driver/dwc_otg_pcd_intr.c **** 		daintmsk.b.outep0 = 1;
 2606              		.loc 2 916 0
 2607 0164 7B6A     		ldr	r3, [r7, #36]
 2608 0166 43F48033 		orr	r3, r3, #65536
 2609 016a 7B62     		str	r3, [r7, #36]
 917:../Dave/Generated/src/USBLD001/driver/dwc_otg_pcd_intr.c **** 		DWC_WRITE_REG32(&dev_if->dev_global_regs->deachintmsk,
 2610              		.loc 2 917 0
 2611 016c FB6A     		ldr	r3, [r7, #44]
 2612 016e 1B68     		ldr	r3, [r3, #0]
 2613 0170 03F13C02 		add	r2, r3, #60
 2614 0174 7B6A     		ldr	r3, [r7, #36]
 2615 0176 1046     		mov	r0, r2
 2616 0178 1946     		mov	r1, r3
 2617 017a FFF7FEFF 		bl	DWC_WRITE_REG32
 918:../Dave/Generated/src/USBLD001/driver/dwc_otg_pcd_intr.c **** 				daintmsk.d32);
 919:../Dave/Generated/src/USBLD001/driver/dwc_otg_pcd_intr.c **** 
 920:../Dave/Generated/src/USBLD001/driver/dwc_otg_pcd_intr.c **** 		doepmsk.b.setup = 1;
 2618              		.loc 2 920 0
 2619 017e 3B6A     		ldr	r3, [r7, #32]
 2620 0180 43F00803 		orr	r3, r3, #8
 2621 0184 3B62     		str	r3, [r7, #32]
 921:../Dave/Generated/src/USBLD001/driver/dwc_otg_pcd_intr.c **** 		doepmsk.b.xfercompl = 1;
 2622              		.loc 2 921 0
 2623 0186 3B6A     		ldr	r3, [r7, #32]
 2624 0188 43F00103 		orr	r3, r3, #1
 2625 018c 3B62     		str	r3, [r7, #32]
 922:../Dave/Generated/src/USBLD001/driver/dwc_otg_pcd_intr.c **** 		doepmsk.b.ahberr = 1;
 2626              		.loc 2 922 0
 2627 018e 3B6A     		ldr	r3, [r7, #32]
 2628 0190 43F00403 		orr	r3, r3, #4
 2629 0194 3B62     		str	r3, [r7, #32]
 923:../Dave/Generated/src/USBLD001/driver/dwc_otg_pcd_intr.c **** 		doepmsk.b.epdisabled = 1;
 2630              		.loc 2 923 0
 2631 0196 3B6A     		ldr	r3, [r7, #32]
 2632 0198 43F00203 		orr	r3, r3, #2
 2633 019c 3B62     		str	r3, [r7, #32]
 924:../Dave/Generated/src/USBLD001/driver/dwc_otg_pcd_intr.c **** 
 925:../Dave/Generated/src/USBLD001/driver/dwc_otg_pcd_intr.c **** 		if (core_if->dma_desc_enable) {
 2634              		.loc 2 925 0
 2635 019e 3B6B     		ldr	r3, [r7, #48]
 2636 01a0 93F84730 		ldrb	r3, [r3, #71]	@ zero_extendqisi2
 2637 01a4 002B     		cmp	r3, #0
 2638 01a6 03D0     		beq	.L113
 926:../Dave/Generated/src/USBLD001/driver/dwc_otg_pcd_intr.c **** 			doepmsk.b.stsphsercvd = 1;
 2639              		.loc 2 926 0
 2640 01a8 3B6A     		ldr	r3, [r7, #32]
 2641 01aa 43F02003 		orr	r3, r3, #32
 2642 01ae 3B62     		str	r3, [r7, #32]
 2643              	.L113:
 927:../Dave/Generated/src/USBLD001/driver/dwc_otg_pcd_intr.c **** 			//doepmsk.b.bna = 1;
 928:../Dave/Generated/src/USBLD001/driver/dwc_otg_pcd_intr.c **** 		}
 929:../Dave/Generated/src/USBLD001/driver/dwc_otg_pcd_intr.c **** /*		
 930:../Dave/Generated/src/USBLD001/driver/dwc_otg_pcd_intr.c **** 		doepmsk.b.babble = 1;
 931:../Dave/Generated/src/USBLD001/driver/dwc_otg_pcd_intr.c **** 		doepmsk.b.nyet = 1;
 932:../Dave/Generated/src/USBLD001/driver/dwc_otg_pcd_intr.c **** 		
 933:../Dave/Generated/src/USBLD001/driver/dwc_otg_pcd_intr.c **** 		if (core_if->dma_enable) {
 934:../Dave/Generated/src/USBLD001/driver/dwc_otg_pcd_intr.c **** 			doepmsk.b.nak = 1;
 935:../Dave/Generated/src/USBLD001/driver/dwc_otg_pcd_intr.c **** 		}
 936:../Dave/Generated/src/USBLD001/driver/dwc_otg_pcd_intr.c **** */
 937:../Dave/Generated/src/USBLD001/driver/dwc_otg_pcd_intr.c **** 		DWC_WRITE_REG32(&dev_if->dev_global_regs->doepeachintmsk[0],
 2644              		.loc 2 937 0
 2645 01b0 FB6A     		ldr	r3, [r7, #44]
 2646 01b2 1B68     		ldr	r3, [r3, #0]
 2647 01b4 03F16002 		add	r2, r3, #96
 2648 01b8 3B6A     		ldr	r3, [r7, #32]
 2649 01ba 1046     		mov	r0, r2
 2650 01bc 1946     		mov	r1, r3
 2651 01be FFF7FEFF 		bl	DWC_WRITE_REG32
 938:../Dave/Generated/src/USBLD001/driver/dwc_otg_pcd_intr.c **** 				doepmsk.d32);
 939:../Dave/Generated/src/USBLD001/driver/dwc_otg_pcd_intr.c **** 
 940:../Dave/Generated/src/USBLD001/driver/dwc_otg_pcd_intr.c **** 		diepmsk.b.xfercompl = 1;
 2652              		.loc 2 940 0
 2653 01c2 FB69     		ldr	r3, [r7, #28]
 2654 01c4 43F00103 		orr	r3, r3, #1
 2655 01c8 FB61     		str	r3, [r7, #28]
 941:../Dave/Generated/src/USBLD001/driver/dwc_otg_pcd_intr.c **** 		diepmsk.b.timeout = 1;
 2656              		.loc 2 941 0
 2657 01ca FB69     		ldr	r3, [r7, #28]
 2658 01cc 43F00803 		orr	r3, r3, #8
 2659 01d0 FB61     		str	r3, [r7, #28]
 942:../Dave/Generated/src/USBLD001/driver/dwc_otg_pcd_intr.c **** 		diepmsk.b.epdisabled = 1;
 2660              		.loc 2 942 0
 2661 01d2 FB69     		ldr	r3, [r7, #28]
 2662 01d4 43F00203 		orr	r3, r3, #2
 2663 01d8 FB61     		str	r3, [r7, #28]
 943:../Dave/Generated/src/USBLD001/driver/dwc_otg_pcd_intr.c **** 		diepmsk.b.ahberr = 1;
 2664              		.loc 2 943 0
 2665 01da FB69     		ldr	r3, [r7, #28]
 2666 01dc 43F00403 		orr	r3, r3, #4
 2667 01e0 FB61     		str	r3, [r7, #28]
 944:../Dave/Generated/src/USBLD001/driver/dwc_otg_pcd_intr.c **** 		diepmsk.b.intknepmis = 1;
 2668              		.loc 2 944 0
 2669 01e2 FB69     		ldr	r3, [r7, #28]
 2670 01e4 43F02003 		orr	r3, r3, #32
 2671 01e8 FB61     		str	r3, [r7, #28]
 945:../Dave/Generated/src/USBLD001/driver/dwc_otg_pcd_intr.c **** 
 946:../Dave/Generated/src/USBLD001/driver/dwc_otg_pcd_intr.c **** /*		if (core_if->dma_desc_enable) {
 947:../Dave/Generated/src/USBLD001/driver/dwc_otg_pcd_intr.c **** 			diepmsk.b.bna = 1;
 948:../Dave/Generated/src/USBLD001/driver/dwc_otg_pcd_intr.c **** 		}
 949:../Dave/Generated/src/USBLD001/driver/dwc_otg_pcd_intr.c **** */
 950:../Dave/Generated/src/USBLD001/driver/dwc_otg_pcd_intr.c **** /*		
 951:../Dave/Generated/src/USBLD001/driver/dwc_otg_pcd_intr.c **** 		if (core_if->dma_enable) {
 952:../Dave/Generated/src/USBLD001/driver/dwc_otg_pcd_intr.c **** 			diepmsk.b.nak = 1;
 953:../Dave/Generated/src/USBLD001/driver/dwc_otg_pcd_intr.c **** 		}
 954:../Dave/Generated/src/USBLD001/driver/dwc_otg_pcd_intr.c **** */
 955:../Dave/Generated/src/USBLD001/driver/dwc_otg_pcd_intr.c **** 		DWC_WRITE_REG32(&dev_if->dev_global_regs->diepeachintmsk[0],
 2672              		.loc 2 955 0
 2673 01ea FB6A     		ldr	r3, [r7, #44]
 2674 01ec 1B68     		ldr	r3, [r3, #0]
 2675 01ee 03F14002 		add	r2, r3, #64
 2676 01f2 FB69     		ldr	r3, [r7, #28]
 2677 01f4 1046     		mov	r0, r2
 2678 01f6 1946     		mov	r1, r3
 2679 01f8 FFF7FEFF 		bl	DWC_WRITE_REG32
 2680 01fc 4FE0     		b	.L114
 2681              	.L112:
 956:../Dave/Generated/src/USBLD001/driver/dwc_otg_pcd_intr.c **** 				diepmsk.d32);
 957:../Dave/Generated/src/USBLD001/driver/dwc_otg_pcd_intr.c **** 	} else {
 958:../Dave/Generated/src/USBLD001/driver/dwc_otg_pcd_intr.c **** 		daintmsk.b.inep0 = 1;
 2682              		.loc 2 958 0
 2683 01fe 7B6A     		ldr	r3, [r7, #36]
 2684 0200 43F00103 		orr	r3, r3, #1
 2685 0204 7B62     		str	r3, [r7, #36]
 959:../Dave/Generated/src/USBLD001/driver/dwc_otg_pcd_intr.c **** 		daintmsk.b.outep0 = 1;
 2686              		.loc 2 959 0
 2687 0206 7B6A     		ldr	r3, [r7, #36]
 2688 0208 43F48033 		orr	r3, r3, #65536
 2689 020c 7B62     		str	r3, [r7, #36]
 960:../Dave/Generated/src/USBLD001/driver/dwc_otg_pcd_intr.c **** 		DWC_WRITE_REG32(&dev_if->dev_global_regs->daintmsk,
 2690              		.loc 2 960 0
 2691 020e FB6A     		ldr	r3, [r7, #44]
 2692 0210 1B68     		ldr	r3, [r3, #0]
 2693 0212 03F11C02 		add	r2, r3, #28
 2694 0216 7B6A     		ldr	r3, [r7, #36]
 2695 0218 1046     		mov	r0, r2
 2696 021a 1946     		mov	r1, r3
 2697 021c FFF7FEFF 		bl	DWC_WRITE_REG32
 961:../Dave/Generated/src/USBLD001/driver/dwc_otg_pcd_intr.c **** 				daintmsk.d32);
 962:../Dave/Generated/src/USBLD001/driver/dwc_otg_pcd_intr.c **** 
 963:../Dave/Generated/src/USBLD001/driver/dwc_otg_pcd_intr.c **** 		doepmsk.b.setup = 1;
 2698              		.loc 2 963 0
 2699 0220 3B6A     		ldr	r3, [r7, #32]
 2700 0222 43F00803 		orr	r3, r3, #8
 2701 0226 3B62     		str	r3, [r7, #32]
 964:../Dave/Generated/src/USBLD001/driver/dwc_otg_pcd_intr.c **** 		doepmsk.b.xfercompl = 1;
 2702              		.loc 2 964 0
 2703 0228 3B6A     		ldr	r3, [r7, #32]
 2704 022a 43F00103 		orr	r3, r3, #1
 2705 022e 3B62     		str	r3, [r7, #32]
 965:../Dave/Generated/src/USBLD001/driver/dwc_otg_pcd_intr.c **** 		doepmsk.b.ahberr = 1;
 2706              		.loc 2 965 0
 2707 0230 3B6A     		ldr	r3, [r7, #32]
 2708 0232 43F00403 		orr	r3, r3, #4
 2709 0236 3B62     		str	r3, [r7, #32]
 966:../Dave/Generated/src/USBLD001/driver/dwc_otg_pcd_intr.c **** 		doepmsk.b.epdisabled = 1;
 2710              		.loc 2 966 0
 2711 0238 3B6A     		ldr	r3, [r7, #32]
 2712 023a 43F00203 		orr	r3, r3, #2
 2713 023e 3B62     		str	r3, [r7, #32]
 967:../Dave/Generated/src/USBLD001/driver/dwc_otg_pcd_intr.c **** 
 968:../Dave/Generated/src/USBLD001/driver/dwc_otg_pcd_intr.c **** 		if (core_if->dma_desc_enable) {
 2714              		.loc 2 968 0
 2715 0240 3B6B     		ldr	r3, [r7, #48]
 2716 0242 93F84730 		ldrb	r3, [r3, #71]	@ zero_extendqisi2
 2717 0246 002B     		cmp	r3, #0
 2718 0248 03D0     		beq	.L115
 969:../Dave/Generated/src/USBLD001/driver/dwc_otg_pcd_intr.c **** 			doepmsk.b.stsphsercvd = 1;
 2719              		.loc 2 969 0
 2720 024a 3B6A     		ldr	r3, [r7, #32]
 2721 024c 43F02003 		orr	r3, r3, #32
 2722 0250 3B62     		str	r3, [r7, #32]
 2723              	.L115:
 970:../Dave/Generated/src/USBLD001/driver/dwc_otg_pcd_intr.c **** 			//doepmsk.b.bna = 1;
 971:../Dave/Generated/src/USBLD001/driver/dwc_otg_pcd_intr.c **** 		}
 972:../Dave/Generated/src/USBLD001/driver/dwc_otg_pcd_intr.c **** 		DWC_WRITE_REG32(&dev_if->dev_global_regs->doepmsk, doepmsk.d32);
 2724              		.loc 2 972 0
 2725 0252 FB6A     		ldr	r3, [r7, #44]
 2726 0254 1B68     		ldr	r3, [r3, #0]
 2727 0256 03F11402 		add	r2, r3, #20
 2728 025a 3B6A     		ldr	r3, [r7, #32]
 2729 025c 1046     		mov	r0, r2
 2730 025e 1946     		mov	r1, r3
 2731 0260 FFF7FEFF 		bl	DWC_WRITE_REG32
 973:../Dave/Generated/src/USBLD001/driver/dwc_otg_pcd_intr.c **** 
 974:../Dave/Generated/src/USBLD001/driver/dwc_otg_pcd_intr.c **** 		diepmsk.b.xfercompl = 1;
 2732              		.loc 2 974 0
 2733 0264 FB69     		ldr	r3, [r7, #28]
 2734 0266 43F00103 		orr	r3, r3, #1
 2735 026a FB61     		str	r3, [r7, #28]
 975:../Dave/Generated/src/USBLD001/driver/dwc_otg_pcd_intr.c **** 		diepmsk.b.timeout = 1;
 2736              		.loc 2 975 0
 2737 026c FB69     		ldr	r3, [r7, #28]
 2738 026e 43F00803 		orr	r3, r3, #8
 2739 0272 FB61     		str	r3, [r7, #28]
 976:../Dave/Generated/src/USBLD001/driver/dwc_otg_pcd_intr.c **** 		diepmsk.b.epdisabled = 1;
 2740              		.loc 2 976 0
 2741 0274 FB69     		ldr	r3, [r7, #28]
 2742 0276 43F00203 		orr	r3, r3, #2
 2743 027a FB61     		str	r3, [r7, #28]
 977:../Dave/Generated/src/USBLD001/driver/dwc_otg_pcd_intr.c **** 		diepmsk.b.ahberr = 1;
 2744              		.loc 2 977 0
 2745 027c FB69     		ldr	r3, [r7, #28]
 2746 027e 43F00403 		orr	r3, r3, #4
 2747 0282 FB61     		str	r3, [r7, #28]
 978:../Dave/Generated/src/USBLD001/driver/dwc_otg_pcd_intr.c **** 		diepmsk.b.intknepmis = 1;
 2748              		.loc 2 978 0
 2749 0284 FB69     		ldr	r3, [r7, #28]
 2750 0286 43F02003 		orr	r3, r3, #32
 2751 028a FB61     		str	r3, [r7, #28]
 979:../Dave/Generated/src/USBLD001/driver/dwc_otg_pcd_intr.c **** /*
 980:../Dave/Generated/src/USBLD001/driver/dwc_otg_pcd_intr.c **** 		if (core_if->dma_desc_enable) {
 981:../Dave/Generated/src/USBLD001/driver/dwc_otg_pcd_intr.c **** 			diepmsk.b.bna = 1;
 982:../Dave/Generated/src/USBLD001/driver/dwc_otg_pcd_intr.c **** 		}
 983:../Dave/Generated/src/USBLD001/driver/dwc_otg_pcd_intr.c **** */
 984:../Dave/Generated/src/USBLD001/driver/dwc_otg_pcd_intr.c **** 
 985:../Dave/Generated/src/USBLD001/driver/dwc_otg_pcd_intr.c **** 		DWC_WRITE_REG32(&dev_if->dev_global_regs->diepmsk, diepmsk.d32);
 2752              		.loc 2 985 0
 2753 028c FB6A     		ldr	r3, [r7, #44]
 2754 028e 1B68     		ldr	r3, [r3, #0]
 2755 0290 03F11002 		add	r2, r3, #16
 2756 0294 FB69     		ldr	r3, [r7, #28]
 2757 0296 1046     		mov	r0, r2
 2758 0298 1946     		mov	r1, r3
 2759 029a FFF7FEFF 		bl	DWC_WRITE_REG32
 2760              	.L114:
 986:../Dave/Generated/src/USBLD001/driver/dwc_otg_pcd_intr.c **** 	}
 987:../Dave/Generated/src/USBLD001/driver/dwc_otg_pcd_intr.c **** 
 988:../Dave/Generated/src/USBLD001/driver/dwc_otg_pcd_intr.c **** 	/* Reset Device Address */
 989:../Dave/Generated/src/USBLD001/driver/dwc_otg_pcd_intr.c **** 	dcfg.d32 = DWC_READ_REG32(&dev_if->dev_global_regs->dcfg);
 2761              		.loc 2 989 0
 2762 029e FB6A     		ldr	r3, [r7, #44]
 2763 02a0 1B68     		ldr	r3, [r3, #0]
 2764 02a2 1846     		mov	r0, r3
 2765 02a4 FFF7FEFF 		bl	DWC_READ_REG32
 2766 02a8 0346     		mov	r3, r0
 2767 02aa BB61     		str	r3, [r7, #24]
 990:../Dave/Generated/src/USBLD001/driver/dwc_otg_pcd_intr.c **** 	dcfg.b.devaddr = 0;
 2768              		.loc 2 990 0
 2769 02ac BB69     		ldr	r3, [r7, #24]
 2770 02ae 6FF30A13 		bfc	r3, #4, #7
 2771 02b2 BB61     		str	r3, [r7, #24]
 991:../Dave/Generated/src/USBLD001/driver/dwc_otg_pcd_intr.c **** 	DWC_WRITE_REG32(&dev_if->dev_global_regs->dcfg, dcfg.d32);
 2772              		.loc 2 991 0
 2773 02b4 FB6A     		ldr	r3, [r7, #44]
 2774 02b6 1B68     		ldr	r3, [r3, #0]
 2775 02b8 1A46     		mov	r2, r3
 2776 02ba BB69     		ldr	r3, [r7, #24]
 2777 02bc 1046     		mov	r0, r2
 2778 02be 1946     		mov	r1, r3
 2779 02c0 FFF7FEFF 		bl	DWC_WRITE_REG32
 992:../Dave/Generated/src/USBLD001/driver/dwc_otg_pcd_intr.c **** 
 993:../Dave/Generated/src/USBLD001/driver/dwc_otg_pcd_intr.c **** 	/* setup EP0 to receive SETUP packets */
 994:../Dave/Generated/src/USBLD001/driver/dwc_otg_pcd_intr.c **** 	ep0_out_start(core_if, pcd);
 2780              		.loc 2 994 0
 2781 02c4 386B     		ldr	r0, [r7, #48]
 2782 02c6 7968     		ldr	r1, [r7, #4]
 2783 02c8 FFF7FEFF 		bl	ep0_out_start
 995:../Dave/Generated/src/USBLD001/driver/dwc_otg_pcd_intr.c **** 
 996:../Dave/Generated/src/USBLD001/driver/dwc_otg_pcd_intr.c **** 	/* Clear interrupt */
 997:../Dave/Generated/src/USBLD001/driver/dwc_otg_pcd_intr.c **** 	gintsts.d32 = 0;
 2784              		.loc 2 997 0
 2785 02cc 4FF00003 		mov	r3, #0
 2786 02d0 FB60     		str	r3, [r7, #12]
 998:../Dave/Generated/src/USBLD001/driver/dwc_otg_pcd_intr.c **** 	gintsts.b.usbreset = 1;
 2787              		.loc 2 998 0
 2788 02d2 FB68     		ldr	r3, [r7, #12]
 2789 02d4 43F48053 		orr	r3, r3, #4096
 2790 02d8 FB60     		str	r3, [r7, #12]
 999:../Dave/Generated/src/USBLD001/driver/dwc_otg_pcd_intr.c **** 	DWC_WRITE_REG32(&core_if->core_global_regs->gintsts, gintsts.d32);
 2791              		.loc 2 999 0
 2792 02da 3B6B     		ldr	r3, [r7, #48]
 2793 02dc 5B68     		ldr	r3, [r3, #4]
 2794 02de 03F11402 		add	r2, r3, #20
 2795 02e2 FB68     		ldr	r3, [r7, #12]
 2796 02e4 1046     		mov	r0, r2
 2797 02e6 1946     		mov	r1, r3
 2798 02e8 FFF7FEFF 		bl	DWC_WRITE_REG32
1000:../Dave/Generated/src/USBLD001/driver/dwc_otg_pcd_intr.c **** 
1001:../Dave/Generated/src/USBLD001/driver/dwc_otg_pcd_intr.c **** 	return 1;
 2799              		.loc 2 1001 0
 2800 02ec 4FF00103 		mov	r3, #1
1002:../Dave/Generated/src/USBLD001/driver/dwc_otg_pcd_intr.c **** }
 2801              		.loc 2 1002 0
 2802 02f0 1846     		mov	r0, r3
 2803 02f2 07F13807 		add	r7, r7, #56
 2804 02f6 BD46     		mov	sp, r7
 2805 02f8 80BD     		pop	{r7, pc}
 2806              		.cfi_endproc
 2807              	.LFE35:
 2809 02fa 00BF     		.section	.text.get_device_speed,"ax",%progbits
 2810              		.align	2
 2811              		.thumb
 2812              		.thumb_func
 2814              	get_device_speed:
 2815              	.LFB36:
1003:../Dave/Generated/src/USBLD001/driver/dwc_otg_pcd_intr.c **** 
1004:../Dave/Generated/src/USBLD001/driver/dwc_otg_pcd_intr.c **** /**
1005:../Dave/Generated/src/USBLD001/driver/dwc_otg_pcd_intr.c ****  * Get the device speed from the device status register and convert it
1006:../Dave/Generated/src/USBLD001/driver/dwc_otg_pcd_intr.c ****  * to USB speed constant.
1007:../Dave/Generated/src/USBLD001/driver/dwc_otg_pcd_intr.c ****  *
1008:../Dave/Generated/src/USBLD001/driver/dwc_otg_pcd_intr.c ****  * @param core_if Programming view of DWC_otg controller.
1009:../Dave/Generated/src/USBLD001/driver/dwc_otg_pcd_intr.c ****  */
1010:../Dave/Generated/src/USBLD001/driver/dwc_otg_pcd_intr.c **** static int get_device_speed(dwc_otg_core_if_t * core_if)
1011:../Dave/Generated/src/USBLD001/driver/dwc_otg_pcd_intr.c **** {
 2816              		.loc 2 1011 0
 2817              		.cfi_startproc
 2818              		@ args = 0, pretend = 0, frame = 16
 2819              		@ frame_needed = 1, uses_anonymous_args = 0
 2820 0000 80B5     		push	{r7, lr}
 2821              	.LCFI63:
 2822              		.cfi_def_cfa_offset 8
 2823              		.cfi_offset 7, -8
 2824              		.cfi_offset 14, -4
 2825 0002 84B0     		sub	sp, sp, #16
 2826              	.LCFI64:
 2827              		.cfi_def_cfa_offset 24
 2828 0004 00AF     		add	r7, sp, #0
 2829              	.LCFI65:
 2830              		.cfi_def_cfa_register 7
 2831 0006 7860     		str	r0, [r7, #4]
1012:../Dave/Generated/src/USBLD001/driver/dwc_otg_pcd_intr.c **** 	dsts_data_t dsts;
1013:../Dave/Generated/src/USBLD001/driver/dwc_otg_pcd_intr.c **** 	int speed = 0;
 2832              		.loc 2 1013 0
 2833 0008 4FF00003 		mov	r3, #0
 2834 000c FB60     		str	r3, [r7, #12]
1014:../Dave/Generated/src/USBLD001/driver/dwc_otg_pcd_intr.c **** 	dsts.d32 = DWC_READ_REG32(&core_if->dev_if->dev_global_regs->dsts);
 2835              		.loc 2 1014 0
 2836 000e 7B68     		ldr	r3, [r7, #4]
 2837 0010 9B68     		ldr	r3, [r3, #8]
 2838 0012 1B68     		ldr	r3, [r3, #0]
 2839 0014 03F10803 		add	r3, r3, #8
 2840 0018 1846     		mov	r0, r3
 2841 001a FFF7FEFF 		bl	DWC_READ_REG32
 2842 001e 0346     		mov	r3, r0
 2843 0020 BB60     		str	r3, [r7, #8]
1015:../Dave/Generated/src/USBLD001/driver/dwc_otg_pcd_intr.c **** 
1016:../Dave/Generated/src/USBLD001/driver/dwc_otg_pcd_intr.c **** 	switch (dsts.b.enumspd) {
 2844              		.loc 2 1016 0
 2845 0022 BB68     		ldr	r3, [r7, #8]
 2846 0024 C3F34103 		ubfx	r3, r3, #1, #2
 2847 0028 DBB2     		uxtb	r3, r3
 2848 002a 022B     		cmp	r3, #2
 2849 002c 0BD0     		beq	.L120
 2850 002e 032B     		cmp	r3, #3
 2851 0030 05D0     		beq	.L119
 2852 0032 012B     		cmp	r3, #1
 2853 0034 03D0     		beq	.L119
1017:../Dave/Generated/src/USBLD001/driver/dwc_otg_pcd_intr.c **** 	case DWC_DSTS_ENUMSPD_HS_PHY_30MHZ_OR_60MHZ:
1018:../Dave/Generated/src/USBLD001/driver/dwc_otg_pcd_intr.c **** 		speed = USB_SPEED_HIGH;
 2854              		.loc 2 1018 0
 2855 0036 4FF00303 		mov	r3, #3
 2856 003a FB60     		str	r3, [r7, #12]
1019:../Dave/Generated/src/USBLD001/driver/dwc_otg_pcd_intr.c **** 		break;
 2857              		.loc 2 1019 0
 2858 003c 07E0     		b	.L121
 2859              	.L119:
1020:../Dave/Generated/src/USBLD001/driver/dwc_otg_pcd_intr.c **** 	case DWC_DSTS_ENUMSPD_FS_PHY_30MHZ_OR_60MHZ:
1021:../Dave/Generated/src/USBLD001/driver/dwc_otg_pcd_intr.c **** 	case DWC_DSTS_ENUMSPD_FS_PHY_48MHZ:
1022:../Dave/Generated/src/USBLD001/driver/dwc_otg_pcd_intr.c **** 		speed = USB_SPEED_FULL;
 2860              		.loc 2 1022 0
 2861 003e 4FF00203 		mov	r3, #2
 2862 0042 FB60     		str	r3, [r7, #12]
1023:../Dave/Generated/src/USBLD001/driver/dwc_otg_pcd_intr.c **** 		break;
 2863              		.loc 2 1023 0
 2864 0044 03E0     		b	.L121
 2865              	.L120:
1024:../Dave/Generated/src/USBLD001/driver/dwc_otg_pcd_intr.c **** 
1025:../Dave/Generated/src/USBLD001/driver/dwc_otg_pcd_intr.c **** 	case DWC_DSTS_ENUMSPD_LS_PHY_6MHZ:
1026:../Dave/Generated/src/USBLD001/driver/dwc_otg_pcd_intr.c **** 		speed = USB_SPEED_LOW;
 2866              		.loc 2 1026 0
 2867 0046 4FF00103 		mov	r3, #1
 2868 004a FB60     		str	r3, [r7, #12]
1027:../Dave/Generated/src/USBLD001/driver/dwc_otg_pcd_intr.c **** 		break;
 2869              		.loc 2 1027 0
 2870 004c 00BF     		nop
 2871              	.L121:
1028:../Dave/Generated/src/USBLD001/driver/dwc_otg_pcd_intr.c **** 	}
1029:../Dave/Generated/src/USBLD001/driver/dwc_otg_pcd_intr.c **** 
1030:../Dave/Generated/src/USBLD001/driver/dwc_otg_pcd_intr.c **** 	return speed;
 2872              		.loc 2 1030 0
 2873 004e FB68     		ldr	r3, [r7, #12]
1031:../Dave/Generated/src/USBLD001/driver/dwc_otg_pcd_intr.c **** }
 2874              		.loc 2 1031 0
 2875 0050 1846     		mov	r0, r3
 2876 0052 07F11007 		add	r7, r7, #16
 2877 0056 BD46     		mov	sp, r7
 2878 0058 80BD     		pop	{r7, pc}
 2879              		.cfi_endproc
 2880              	.LFE36:
 2882 005a 00BF     		.section	.text.dwc_otg_pcd_handle_enum_done_intr,"ax",%progbits
 2883              		.align	2
 2884              		.global	dwc_otg_pcd_handle_enum_done_intr
 2885              		.thumb
 2886              		.thumb_func
 2888              	dwc_otg_pcd_handle_enum_done_intr:
 2889              	.LFB37:
1032:../Dave/Generated/src/USBLD001/driver/dwc_otg_pcd_intr.c **** 
1033:../Dave/Generated/src/USBLD001/driver/dwc_otg_pcd_intr.c **** /**
1034:../Dave/Generated/src/USBLD001/driver/dwc_otg_pcd_intr.c ****  * Read the device status register and set the device speed in the
1035:../Dave/Generated/src/USBLD001/driver/dwc_otg_pcd_intr.c ****  * data structure.
1036:../Dave/Generated/src/USBLD001/driver/dwc_otg_pcd_intr.c ****  * Set up EP0 to receive SETUP packets by calling dwc_ep0_activate.
1037:../Dave/Generated/src/USBLD001/driver/dwc_otg_pcd_intr.c ****  */
1038:../Dave/Generated/src/USBLD001/driver/dwc_otg_pcd_intr.c **** int32_t dwc_otg_pcd_handle_enum_done_intr(dwc_otg_pcd_t * pcd)
1039:../Dave/Generated/src/USBLD001/driver/dwc_otg_pcd_intr.c **** {
 2890              		.loc 2 1039 0
 2891              		.cfi_startproc
 2892              		@ args = 0, pretend = 0, frame = 32
 2893              		@ frame_needed = 1, uses_anonymous_args = 0
 2894 0000 80B5     		push	{r7, lr}
 2895              	.LCFI66:
 2896              		.cfi_def_cfa_offset 8
 2897              		.cfi_offset 7, -8
 2898              		.cfi_offset 14, -4
 2899 0002 88B0     		sub	sp, sp, #32
 2900              	.LCFI67:
 2901              		.cfi_def_cfa_offset 40
 2902 0004 00AF     		add	r7, sp, #0
 2903              	.LCFI68:
 2904              		.cfi_def_cfa_register 7
 2905 0006 7860     		str	r0, [r7, #4]
1040:../Dave/Generated/src/USBLD001/driver/dwc_otg_pcd_intr.c **** 	dwc_otg_pcd_ep_t *ep0 = &pcd->ep0;
 2906              		.loc 2 1040 0
 2907 0008 7B68     		ldr	r3, [r7, #4]
 2908 000a 03F12403 		add	r3, r3, #36
 2909 000e BB61     		str	r3, [r7, #24]
1041:../Dave/Generated/src/USBLD001/driver/dwc_otg_pcd_intr.c **** 	gintsts_data_t gintsts;
1042:../Dave/Generated/src/USBLD001/driver/dwc_otg_pcd_intr.c **** 	gusbcfg_data_t gusbcfg;
1043:../Dave/Generated/src/USBLD001/driver/dwc_otg_pcd_intr.c **** 	dwc_otg_core_global_regs_t *global_regs =
1044:../Dave/Generated/src/USBLD001/driver/dwc_otg_pcd_intr.c **** 	    GET_CORE_IF(pcd)->core_global_regs;
 2910              		.loc 2 1044 0
 2911 0010 7B68     		ldr	r3, [r7, #4]
 2912 0012 9B68     		ldr	r3, [r3, #8]
1043:../Dave/Generated/src/USBLD001/driver/dwc_otg_pcd_intr.c **** 	dwc_otg_core_global_regs_t *global_regs =
 2913              		.loc 2 1043 0
 2914 0014 5B68     		ldr	r3, [r3, #4]
 2915 0016 7B61     		str	r3, [r7, #20]
1045:../Dave/Generated/src/USBLD001/driver/dwc_otg_pcd_intr.c **** 	uint8_t utmi16b, utmi8b;
1046:../Dave/Generated/src/USBLD001/driver/dwc_otg_pcd_intr.c **** 	int speed;
1047:../Dave/Generated/src/USBLD001/driver/dwc_otg_pcd_intr.c **** 	DWC_DEBUGPL(DBG_PCD, "SPEED ENUM\n");
1048:../Dave/Generated/src/USBLD001/driver/dwc_otg_pcd_intr.c **** 
1049:../Dave/Generated/src/USBLD001/driver/dwc_otg_pcd_intr.c **** 	if (GET_CORE_IF(pcd)->snpsid >= OTG_CORE_REV_2_60a) {
 2916              		.loc 2 1049 0
 2917 0018 7B68     		ldr	r3, [r7, #4]
 2918 001a 9B68     		ldr	r3, [r3, #8]
 2919 001c 1A69     		ldr	r2, [r3, #16]
 2920 001e 42F20963 		movw	r3, #9737
 2921 0022 C4F65473 		movt	r3, 20308
 2922 0026 9A42     		cmp	r2, r3
 2923 0028 06D9     		bls	.L124
1050:../Dave/Generated/src/USBLD001/driver/dwc_otg_pcd_intr.c **** 		utmi16b = 6;	//vahrama old value was 6;
 2924              		.loc 2 1050 0
 2925 002a 4FF00603 		mov	r3, #6
 2926 002e FB77     		strb	r3, [r7, #31]
1051:../Dave/Generated/src/USBLD001/driver/dwc_otg_pcd_intr.c **** 		utmi8b = 9;
 2927              		.loc 2 1051 0
 2928 0030 4FF00903 		mov	r3, #9
 2929 0034 BB77     		strb	r3, [r7, #30]
 2930 0036 05E0     		b	.L125
 2931              	.L124:
1052:../Dave/Generated/src/USBLD001/driver/dwc_otg_pcd_intr.c **** 	} else {
1053:../Dave/Generated/src/USBLD001/driver/dwc_otg_pcd_intr.c **** 		utmi16b = 4;
 2932              		.loc 2 1053 0
 2933 0038 4FF00403 		mov	r3, #4
 2934 003c FB77     		strb	r3, [r7, #31]
1054:../Dave/Generated/src/USBLD001/driver/dwc_otg_pcd_intr.c **** 		utmi8b = 8;
 2935              		.loc 2 1054 0
 2936 003e 4FF00803 		mov	r3, #8
 2937 0042 BB77     		strb	r3, [r7, #30]
 2938              	.L125:
1055:../Dave/Generated/src/USBLD001/driver/dwc_otg_pcd_intr.c **** 	}
1056:../Dave/Generated/src/USBLD001/driver/dwc_otg_pcd_intr.c **** 	dwc_otg_ep0_activate(GET_CORE_IF(pcd), &ep0->dwc_ep);
 2939              		.loc 2 1056 0
 2940 0044 7B68     		ldr	r3, [r7, #4]
 2941 0046 9A68     		ldr	r2, [r3, #8]
 2942 0048 BB69     		ldr	r3, [r7, #24]
 2943 004a 03F11003 		add	r3, r3, #16
 2944 004e 1046     		mov	r0, r2
 2945 0050 1946     		mov	r1, r3
 2946 0052 FFF7FEFF 		bl	dwc_otg_ep0_activate
1057:../Dave/Generated/src/USBLD001/driver/dwc_otg_pcd_intr.c **** 
1058:../Dave/Generated/src/USBLD001/driver/dwc_otg_pcd_intr.c **** #ifdef DEBUG_EP0
1059:../Dave/Generated/src/USBLD001/driver/dwc_otg_pcd_intr.c **** 	print_ep0_state(pcd);
 2947              		.loc 2 1059 0
 2948 0056 7868     		ldr	r0, [r7, #4]
 2949 0058 FFF7FEFF 		bl	print_ep0_state
1060:../Dave/Generated/src/USBLD001/driver/dwc_otg_pcd_intr.c **** #endif
1061:../Dave/Generated/src/USBLD001/driver/dwc_otg_pcd_intr.c **** 
1062:../Dave/Generated/src/USBLD001/driver/dwc_otg_pcd_intr.c **** 	if (pcd->ep0state == EP0_DISCONNECT) {
 2950              		.loc 2 1062 0
 2951 005c 7B68     		ldr	r3, [r7, #4]
 2952 005e 1B7B     		ldrb	r3, [r3, #12]	@ zero_extendqisi2
 2953 0060 002B     		cmp	r3, #0
 2954 0062 04D1     		bne	.L126
1063:../Dave/Generated/src/USBLD001/driver/dwc_otg_pcd_intr.c **** 		pcd->ep0state = EP0_IDLE;
 2955              		.loc 2 1063 0
 2956 0064 7B68     		ldr	r3, [r7, #4]
 2957 0066 4FF00102 		mov	r2, #1
 2958 006a 1A73     		strb	r2, [r3, #12]
 2959 006c 07E0     		b	.L127
 2960              	.L126:
1064:../Dave/Generated/src/USBLD001/driver/dwc_otg_pcd_intr.c **** 	} else if (pcd->ep0state == EP0_STALL) {
 2961              		.loc 2 1064 0
 2962 006e 7B68     		ldr	r3, [r7, #4]
 2963 0070 1B7B     		ldrb	r3, [r3, #12]	@ zero_extendqisi2
 2964 0072 062B     		cmp	r3, #6
 2965 0074 03D1     		bne	.L127
1065:../Dave/Generated/src/USBLD001/driver/dwc_otg_pcd_intr.c **** 		pcd->ep0state = EP0_IDLE;
 2966              		.loc 2 1065 0
 2967 0076 7B68     		ldr	r3, [r7, #4]
 2968 0078 4FF00102 		mov	r2, #1
 2969 007c 1A73     		strb	r2, [r3, #12]
 2970              	.L127:
1066:../Dave/Generated/src/USBLD001/driver/dwc_otg_pcd_intr.c **** 	}
1067:../Dave/Generated/src/USBLD001/driver/dwc_otg_pcd_intr.c **** 
1068:../Dave/Generated/src/USBLD001/driver/dwc_otg_pcd_intr.c **** 	pcd->ep0state = EP0_IDLE;
 2971              		.loc 2 1068 0
 2972 007e 7B68     		ldr	r3, [r7, #4]
 2973 0080 4FF00102 		mov	r2, #1
 2974 0084 1A73     		strb	r2, [r3, #12]
1069:../Dave/Generated/src/USBLD001/driver/dwc_otg_pcd_intr.c **** 
1070:../Dave/Generated/src/USBLD001/driver/dwc_otg_pcd_intr.c **** 	ep0->stopped = 0;
 2975              		.loc 2 1070 0
 2976 0086 BA69     		ldr	r2, [r7, #24]
 2977 0088 137B     		ldrb	r3, [r2, #12]
 2978 008a 6FF30003 		bfc	r3, #0, #1
 2979 008e 1373     		strb	r3, [r2, #12]
1071:../Dave/Generated/src/USBLD001/driver/dwc_otg_pcd_intr.c **** 
1072:../Dave/Generated/src/USBLD001/driver/dwc_otg_pcd_intr.c **** 	speed = get_device_speed(GET_CORE_IF(pcd));
 2980              		.loc 2 1072 0
 2981 0090 7B68     		ldr	r3, [r7, #4]
 2982 0092 9B68     		ldr	r3, [r3, #8]
 2983 0094 1846     		mov	r0, r3
 2984 0096 FFF7FEFF 		bl	get_device_speed
 2985 009a 3861     		str	r0, [r7, #16]
1073:../Dave/Generated/src/USBLD001/driver/dwc_otg_pcd_intr.c **** 	pcd->fops->connect(pcd, speed);
 2986              		.loc 2 1073 0
 2987 009c 7B68     		ldr	r3, [r7, #4]
 2988 009e 1B68     		ldr	r3, [r3, #0]
 2989 00a0 1B68     		ldr	r3, [r3, #0]
 2990 00a2 7868     		ldr	r0, [r7, #4]
 2991 00a4 3969     		ldr	r1, [r7, #16]
 2992 00a6 9847     		blx	r3
1074:../Dave/Generated/src/USBLD001/driver/dwc_otg_pcd_intr.c **** 
1075:../Dave/Generated/src/USBLD001/driver/dwc_otg_pcd_intr.c **** 	/* Set USB turnaround time based on device speed and PHY interface. */
1076:../Dave/Generated/src/USBLD001/driver/dwc_otg_pcd_intr.c **** 	gusbcfg.d32 = DWC_READ_REG32(&global_regs->gusbcfg);
 2993              		.loc 2 1076 0
 2994 00a8 7B69     		ldr	r3, [r7, #20]
 2995 00aa 03F10C03 		add	r3, r3, #12
 2996 00ae 1846     		mov	r0, r3
 2997 00b0 FFF7FEFF 		bl	DWC_READ_REG32
 2998 00b4 0346     		mov	r3, r0
 2999 00b6 BB60     		str	r3, [r7, #8]
1077:../Dave/Generated/src/USBLD001/driver/dwc_otg_pcd_intr.c **** 	if (speed == USB_SPEED_HIGH) {
 3000              		.loc 2 1077 0
 3001 00b8 3B69     		ldr	r3, [r7, #16]
 3002 00ba 032B     		cmp	r3, #3
 3003 00bc 40F08380 		bne	.L128
1078:../Dave/Generated/src/USBLD001/driver/dwc_otg_pcd_intr.c **** 		if (GET_CORE_IF(pcd)->hwcfg2.b.hs_phy_type ==
 3004              		.loc 2 1078 0
 3005 00c0 7B68     		ldr	r3, [r7, #4]
 3006 00c2 9B68     		ldr	r3, [r3, #8]
 3007 00c4 93F85030 		ldrb	r3, [r3, #80]	@ zero_extendqisi2
 3008 00c8 23F03F03 		bic	r3, r3, #63
 3009 00cc DBB2     		uxtb	r3, r3
 3010 00ce 802B     		cmp	r3, #128
 3011 00d0 05D1     		bne	.L129
1079:../Dave/Generated/src/USBLD001/driver/dwc_otg_pcd_intr.c **** 		    DWC_HWCFG2_HS_PHY_TYPE_ULPI) {
1080:../Dave/Generated/src/USBLD001/driver/dwc_otg_pcd_intr.c **** 			/* ULPI interface */
1081:../Dave/Generated/src/USBLD001/driver/dwc_otg_pcd_intr.c **** 			gusbcfg.b.usbtrdtim = 9;
 3012              		.loc 2 1081 0
 3013 00d2 BB68     		ldr	r3, [r7, #8]
 3014 00d4 4FF00902 		mov	r2, #9
 3015 00d8 62F38D23 		bfi	r3, r2, #10, #4
 3016 00dc BB60     		str	r3, [r7, #8]
 3017              	.L129:
1082:../Dave/Generated/src/USBLD001/driver/dwc_otg_pcd_intr.c **** 		}
1083:../Dave/Generated/src/USBLD001/driver/dwc_otg_pcd_intr.c **** 		if (GET_CORE_IF(pcd)->hwcfg2.b.hs_phy_type ==
 3018              		.loc 2 1083 0
 3019 00de 7B68     		ldr	r3, [r7, #4]
 3020 00e0 9B68     		ldr	r3, [r3, #8]
 3021 00e2 93F85030 		ldrb	r3, [r3, #80]	@ zero_extendqisi2
 3022 00e6 23F03F03 		bic	r3, r3, #63
 3023 00ea DBB2     		uxtb	r3, r3
 3024 00ec 402B     		cmp	r3, #64
 3025 00ee 3BD1     		bne	.L130
1084:../Dave/Generated/src/USBLD001/driver/dwc_otg_pcd_intr.c **** 		    DWC_HWCFG2_HS_PHY_TYPE_UTMI) {
1085:../Dave/Generated/src/USBLD001/driver/dwc_otg_pcd_intr.c **** 			/* UTMI+ interface */
1086:../Dave/Generated/src/USBLD001/driver/dwc_otg_pcd_intr.c **** 			if (GET_CORE_IF(pcd)->hwcfg4.b.utmi_phy_data_width == 0) {
 3026              		.loc 2 1086 0
 3027 00f0 7B68     		ldr	r3, [r7, #4]
 3028 00f2 9B68     		ldr	r3, [r3, #8]
 3029 00f4 93F85930 		ldrb	r3, [r3, #89]	@ zero_extendqisi2
 3030 00f8 23F03F03 		bic	r3, r3, #63
 3031 00fc DBB2     		uxtb	r3, r3
 3032 00fe 002B     		cmp	r3, #0
 3033 0100 08D1     		bne	.L131
1087:../Dave/Generated/src/USBLD001/driver/dwc_otg_pcd_intr.c **** 				gusbcfg.b.usbtrdtim = utmi8b;
 3034              		.loc 2 1087 0
 3035 0102 BB7F     		ldrb	r3, [r7, #30]
 3036 0104 03F00F03 		and	r3, r3, #15
 3037 0108 DAB2     		uxtb	r2, r3
 3038 010a BB68     		ldr	r3, [r7, #8]
 3039 010c 62F38D23 		bfi	r3, r2, #10, #4
 3040 0110 BB60     		str	r3, [r7, #8]
 3041 0112 29E0     		b	.L130
 3042              	.L131:
1088:../Dave/Generated/src/USBLD001/driver/dwc_otg_pcd_intr.c **** 			} else if (GET_CORE_IF(pcd)->hwcfg4.
 3043              		.loc 2 1088 0
 3044 0114 7B68     		ldr	r3, [r7, #4]
 3045 0116 9B68     		ldr	r3, [r3, #8]
1089:../Dave/Generated/src/USBLD001/driver/dwc_otg_pcd_intr.c **** 				   b.utmi_phy_data_width == 1) {
 3046              		.loc 2 1089 0
 3047 0118 93F85930 		ldrb	r3, [r3, #89]	@ zero_extendqisi2
 3048 011c 23F03F03 		bic	r3, r3, #63
 3049 0120 DBB2     		uxtb	r3, r3
1088:../Dave/Generated/src/USBLD001/driver/dwc_otg_pcd_intr.c **** 			} else if (GET_CORE_IF(pcd)->hwcfg4.
 3050              		.loc 2 1088 0
 3051 0122 402B     		cmp	r3, #64
 3052 0124 08D1     		bne	.L132
1090:../Dave/Generated/src/USBLD001/driver/dwc_otg_pcd_intr.c **** 				gusbcfg.b.usbtrdtim = utmi16b;
 3053              		.loc 2 1090 0
 3054 0126 FB7F     		ldrb	r3, [r7, #31]
 3055 0128 03F00F03 		and	r3, r3, #15
 3056 012c DAB2     		uxtb	r2, r3
 3057 012e BB68     		ldr	r3, [r7, #8]
 3058 0130 62F38D23 		bfi	r3, r2, #10, #4
 3059 0134 BB60     		str	r3, [r7, #8]
 3060 0136 17E0     		b	.L130
 3061              	.L132:
1091:../Dave/Generated/src/USBLD001/driver/dwc_otg_pcd_intr.c **** 			} else if (GET_CORE_IF(pcd)->
 3062              		.loc 2 1091 0
 3063 0138 7B68     		ldr	r3, [r7, #4]
 3064 013a 9B68     		ldr	r3, [r3, #8]
 3065 013c 1B68     		ldr	r3, [r3, #0]
1092:../Dave/Generated/src/USBLD001/driver/dwc_otg_pcd_intr.c **** 				   core_params->phy_utmi_width == 8) {
 3066              		.loc 2 1092 0
 3067 013e D3F88C30 		ldr	r3, [r3, #140]
1091:../Dave/Generated/src/USBLD001/driver/dwc_otg_pcd_intr.c **** 			} else if (GET_CORE_IF(pcd)->
 3068              		.loc 2 1091 0
 3069 0142 082B     		cmp	r3, #8
 3070 0144 08D1     		bne	.L133
1093:../Dave/Generated/src/USBLD001/driver/dwc_otg_pcd_intr.c **** 				gusbcfg.b.usbtrdtim = utmi8b;
 3071              		.loc 2 1093 0
 3072 0146 BB7F     		ldrb	r3, [r7, #30]
 3073 0148 03F00F03 		and	r3, r3, #15
 3074 014c DAB2     		uxtb	r2, r3
 3075 014e BB68     		ldr	r3, [r7, #8]
 3076 0150 62F38D23 		bfi	r3, r2, #10, #4
 3077 0154 BB60     		str	r3, [r7, #8]
 3078 0156 07E0     		b	.L130
 3079              	.L133:
1094:../Dave/Generated/src/USBLD001/driver/dwc_otg_pcd_intr.c **** 			} else {
1095:../Dave/Generated/src/USBLD001/driver/dwc_otg_pcd_intr.c **** 				gusbcfg.b.usbtrdtim = utmi16b;
 3080              		.loc 2 1095 0
 3081 0158 FB7F     		ldrb	r3, [r7, #31]
 3082 015a 03F00F03 		and	r3, r3, #15
 3083 015e DAB2     		uxtb	r2, r3
 3084 0160 BB68     		ldr	r3, [r7, #8]
 3085 0162 62F38D23 		bfi	r3, r2, #10, #4
 3086 0166 BB60     		str	r3, [r7, #8]
 3087              	.L130:
1096:../Dave/Generated/src/USBLD001/driver/dwc_otg_pcd_intr.c **** 			}
1097:../Dave/Generated/src/USBLD001/driver/dwc_otg_pcd_intr.c **** 		}
1098:../Dave/Generated/src/USBLD001/driver/dwc_otg_pcd_intr.c **** 		if (GET_CORE_IF(pcd)->hwcfg2.b.hs_phy_type ==
 3088              		.loc 2 1098 0
 3089 0168 7B68     		ldr	r3, [r7, #4]
 3090 016a 9B68     		ldr	r3, [r3, #8]
 3091 016c 93F85030 		ldrb	r3, [r3, #80]	@ zero_extendqisi2
 3092 0170 23F03F03 		bic	r3, r3, #63
 3093 0174 DBB2     		uxtb	r3, r3
 3094 0176 C02B     		cmp	r3, #192
 3095 0178 2BD1     		bne	.L134
1099:../Dave/Generated/src/USBLD001/driver/dwc_otg_pcd_intr.c **** 		    DWC_HWCFG2_HS_PHY_TYPE_UTMI_ULPI) {
1100:../Dave/Generated/src/USBLD001/driver/dwc_otg_pcd_intr.c **** 			/* UTMI+  OR  ULPI interface */
1101:../Dave/Generated/src/USBLD001/driver/dwc_otg_pcd_intr.c **** 			if (gusbcfg.b.ulpi_utmi_sel == 1) {
 3096              		.loc 2 1101 0
 3097 017a 3B7A     		ldrb	r3, [r7, #8]	@ zero_extendqisi2
 3098 017c 03F01003 		and	r3, r3, #16
 3099 0180 DBB2     		uxtb	r3, r3
 3100 0182 002B     		cmp	r3, #0
 3101 0184 06D0     		beq	.L135
1102:../Dave/Generated/src/USBLD001/driver/dwc_otg_pcd_intr.c **** 				/* ULPI interface */
1103:../Dave/Generated/src/USBLD001/driver/dwc_otg_pcd_intr.c **** 				gusbcfg.b.usbtrdtim = 9;
 3102              		.loc 2 1103 0
 3103 0186 BB68     		ldr	r3, [r7, #8]
 3104 0188 4FF00902 		mov	r2, #9
 3105 018c 62F38D23 		bfi	r3, r2, #10, #4
 3106 0190 BB60     		str	r3, [r7, #8]
 3107 0192 1EE0     		b	.L134
 3108              	.L135:
1104:../Dave/Generated/src/USBLD001/driver/dwc_otg_pcd_intr.c **** 			} else {
1105:../Dave/Generated/src/USBLD001/driver/dwc_otg_pcd_intr.c **** 				/* UTMI+ interface */
1106:../Dave/Generated/src/USBLD001/driver/dwc_otg_pcd_intr.c **** 				if (GET_CORE_IF(pcd)->
 3109              		.loc 2 1106 0
 3110 0194 7B68     		ldr	r3, [r7, #4]
 3111 0196 9B68     		ldr	r3, [r3, #8]
 3112 0198 1B68     		ldr	r3, [r3, #0]
1107:../Dave/Generated/src/USBLD001/driver/dwc_otg_pcd_intr.c **** 				    core_params->phy_utmi_width == 16) {
 3113              		.loc 2 1107 0
 3114 019a D3F88C30 		ldr	r3, [r3, #140]
1106:../Dave/Generated/src/USBLD001/driver/dwc_otg_pcd_intr.c **** 				if (GET_CORE_IF(pcd)->
 3115              		.loc 2 1106 0
 3116 019e 102B     		cmp	r3, #16
 3117 01a0 08D1     		bne	.L136
1108:../Dave/Generated/src/USBLD001/driver/dwc_otg_pcd_intr.c **** 					gusbcfg.b.usbtrdtim = utmi16b;
 3118              		.loc 2 1108 0
 3119 01a2 FB7F     		ldrb	r3, [r7, #31]
 3120 01a4 03F00F03 		and	r3, r3, #15
 3121 01a8 DAB2     		uxtb	r2, r3
 3122 01aa BB68     		ldr	r3, [r7, #8]
 3123 01ac 62F38D23 		bfi	r3, r2, #10, #4
 3124 01b0 BB60     		str	r3, [r7, #8]
 3125 01b2 0EE0     		b	.L134
 3126              	.L136:
1109:../Dave/Generated/src/USBLD001/driver/dwc_otg_pcd_intr.c **** 				} else {
1110:../Dave/Generated/src/USBLD001/driver/dwc_otg_pcd_intr.c **** 					gusbcfg.b.usbtrdtim = utmi8b;
 3127              		.loc 2 1110 0
 3128 01b4 BB7F     		ldrb	r3, [r7, #30]
 3129 01b6 03F00F03 		and	r3, r3, #15
 3130 01ba DAB2     		uxtb	r2, r3
 3131 01bc BB68     		ldr	r3, [r7, #8]
 3132 01be 62F38D23 		bfi	r3, r2, #10, #4
 3133 01c2 BB60     		str	r3, [r7, #8]
 3134 01c4 05E0     		b	.L134
 3135              	.L128:
1111:../Dave/Generated/src/USBLD001/driver/dwc_otg_pcd_intr.c **** 				}
1112:../Dave/Generated/src/USBLD001/driver/dwc_otg_pcd_intr.c **** 			}
1113:../Dave/Generated/src/USBLD001/driver/dwc_otg_pcd_intr.c **** 		}
1114:../Dave/Generated/src/USBLD001/driver/dwc_otg_pcd_intr.c **** 	} else {
1115:../Dave/Generated/src/USBLD001/driver/dwc_otg_pcd_intr.c **** 		/* Full or low speed */
1116:../Dave/Generated/src/USBLD001/driver/dwc_otg_pcd_intr.c **** 		gusbcfg.b.usbtrdtim = 9;
 3136              		.loc 2 1116 0
 3137 01c6 BB68     		ldr	r3, [r7, #8]
 3138 01c8 4FF00902 		mov	r2, #9
 3139 01cc 62F38D23 		bfi	r3, r2, #10, #4
 3140 01d0 BB60     		str	r3, [r7, #8]
 3141              	.L134:
1117:../Dave/Generated/src/USBLD001/driver/dwc_otg_pcd_intr.c **** 	}
1118:../Dave/Generated/src/USBLD001/driver/dwc_otg_pcd_intr.c **** 	DWC_WRITE_REG32(&global_regs->gusbcfg, gusbcfg.d32);
 3142              		.loc 2 1118 0
 3143 01d2 7B69     		ldr	r3, [r7, #20]
 3144 01d4 03F10C02 		add	r2, r3, #12
 3145 01d8 BB68     		ldr	r3, [r7, #8]
 3146 01da 1046     		mov	r0, r2
 3147 01dc 1946     		mov	r1, r3
 3148 01de FFF7FEFF 		bl	DWC_WRITE_REG32
1119:../Dave/Generated/src/USBLD001/driver/dwc_otg_pcd_intr.c **** 
1120:../Dave/Generated/src/USBLD001/driver/dwc_otg_pcd_intr.c **** 	/* Clear interrupt */
1121:../Dave/Generated/src/USBLD001/driver/dwc_otg_pcd_intr.c **** 	gintsts.d32 = 0;
 3149              		.loc 2 1121 0
 3150 01e2 4FF00003 		mov	r3, #0
 3151 01e6 FB60     		str	r3, [r7, #12]
1122:../Dave/Generated/src/USBLD001/driver/dwc_otg_pcd_intr.c **** 	gintsts.b.enumdone = 1;
 3152              		.loc 2 1122 0
 3153 01e8 FB68     		ldr	r3, [r7, #12]
 3154 01ea 43F40053 		orr	r3, r3, #8192
 3155 01ee FB60     		str	r3, [r7, #12]
1123:../Dave/Generated/src/USBLD001/driver/dwc_otg_pcd_intr.c **** 	DWC_WRITE_REG32(&GET_CORE_IF(pcd)->core_global_regs->gintsts,
 3156              		.loc 2 1123 0
 3157 01f0 7B68     		ldr	r3, [r7, #4]
 3158 01f2 9B68     		ldr	r3, [r3, #8]
 3159 01f4 5B68     		ldr	r3, [r3, #4]
 3160 01f6 03F11402 		add	r2, r3, #20
 3161 01fa FB68     		ldr	r3, [r7, #12]
 3162 01fc 1046     		mov	r0, r2
 3163 01fe 1946     		mov	r1, r3
 3164 0200 FFF7FEFF 		bl	DWC_WRITE_REG32
1124:../Dave/Generated/src/USBLD001/driver/dwc_otg_pcd_intr.c **** 			gintsts.d32);
1125:../Dave/Generated/src/USBLD001/driver/dwc_otg_pcd_intr.c **** 	return 1;
 3165              		.loc 2 1125 0
 3166 0204 4FF00103 		mov	r3, #1
1126:../Dave/Generated/src/USBLD001/driver/dwc_otg_pcd_intr.c **** }
 3167              		.loc 2 1126 0
 3168 0208 1846     		mov	r0, r3
 3169 020a 07F12007 		add	r7, r7, #32
 3170 020e BD46     		mov	sp, r7
 3171 0210 80BD     		pop	{r7, pc}
 3172              		.cfi_endproc
 3173              	.LFE37:
 3175 0212 00BF     		.section	.text.dwc_otg_pcd_handle_isoc_out_packet_dropped_intr,"ax",%progbits
 3176              		.align	2
 3177              		.global	dwc_otg_pcd_handle_isoc_out_packet_dropped_intr
 3178              		.thumb
 3179              		.thumb_func
 3181              	dwc_otg_pcd_handle_isoc_out_packet_dropped_intr:
 3182              	.LFB38:
1127:../Dave/Generated/src/USBLD001/driver/dwc_otg_pcd_intr.c **** 
1128:../Dave/Generated/src/USBLD001/driver/dwc_otg_pcd_intr.c **** /**
1129:../Dave/Generated/src/USBLD001/driver/dwc_otg_pcd_intr.c ****  * This interrupt indicates that the ISO OUT Packet was dropped due to
1130:../Dave/Generated/src/USBLD001/driver/dwc_otg_pcd_intr.c ****  * Rx FIFO full or Rx Status Queue Full.  If this interrupt occurs
1131:../Dave/Generated/src/USBLD001/driver/dwc_otg_pcd_intr.c ****  * read all the data from the Rx FIFO.
1132:../Dave/Generated/src/USBLD001/driver/dwc_otg_pcd_intr.c ****  */
1133:../Dave/Generated/src/USBLD001/driver/dwc_otg_pcd_intr.c **** int32_t dwc_otg_pcd_handle_isoc_out_packet_dropped_intr(dwc_otg_pcd_t * pcd)
1134:../Dave/Generated/src/USBLD001/driver/dwc_otg_pcd_intr.c **** {
 3183              		.loc 2 1134 0
 3184              		.cfi_startproc
 3185              		@ args = 0, pretend = 0, frame = 16
 3186              		@ frame_needed = 1, uses_anonymous_args = 0
 3187 0000 80B5     		push	{r7, lr}
 3188              	.LCFI69:
 3189              		.cfi_def_cfa_offset 8
 3190              		.cfi_offset 7, -8
 3191              		.cfi_offset 14, -4
 3192 0002 84B0     		sub	sp, sp, #16
 3193              	.LCFI70:
 3194              		.cfi_def_cfa_offset 24
 3195 0004 00AF     		add	r7, sp, #0
 3196              	.LCFI71:
 3197              		.cfi_def_cfa_register 7
 3198 0006 7860     		str	r0, [r7, #4]
1135:../Dave/Generated/src/USBLD001/driver/dwc_otg_pcd_intr.c **** 	gintmsk_data_t intr_mask = {.d32 = 0 };
 3199              		.loc 2 1135 0
 3200 0008 4FF00003 		mov	r3, #0
 3201 000c FB60     		str	r3, [r7, #12]
1136:../Dave/Generated/src/USBLD001/driver/dwc_otg_pcd_intr.c **** 	gintsts_data_t gintsts;
1137:../Dave/Generated/src/USBLD001/driver/dwc_otg_pcd_intr.c **** 
1138:../Dave/Generated/src/USBLD001/driver/dwc_otg_pcd_intr.c **** 	DWC_WARN("INTERRUPT Handler not implemented for %s\n",
1139:../Dave/Generated/src/USBLD001/driver/dwc_otg_pcd_intr.c **** 		 "ISOC Out Dropped");
1140:../Dave/Generated/src/USBLD001/driver/dwc_otg_pcd_intr.c **** 
1141:../Dave/Generated/src/USBLD001/driver/dwc_otg_pcd_intr.c **** 	intr_mask.b.isooutdrop = 1;
 3202              		.loc 2 1141 0
 3203 000e FB68     		ldr	r3, [r7, #12]
 3204 0010 43F48043 		orr	r3, r3, #16384
 3205 0014 FB60     		str	r3, [r7, #12]
1142:../Dave/Generated/src/USBLD001/driver/dwc_otg_pcd_intr.c **** 	DWC_MODIFY_REG32(&GET_CORE_IF(pcd)->core_global_regs->gintmsk,
 3206              		.loc 2 1142 0
 3207 0016 7B68     		ldr	r3, [r7, #4]
 3208 0018 9B68     		ldr	r3, [r3, #8]
 3209 001a 5B68     		ldr	r3, [r3, #4]
 3210 001c 03F11802 		add	r2, r3, #24
 3211 0020 FB68     		ldr	r3, [r7, #12]
 3212 0022 1046     		mov	r0, r2
 3213 0024 1946     		mov	r1, r3
 3214 0026 4FF00002 		mov	r2, #0
 3215 002a FFF7FEFF 		bl	DWC_MODIFY_REG32
1143:../Dave/Generated/src/USBLD001/driver/dwc_otg_pcd_intr.c **** 			 intr_mask.d32, 0);
1144:../Dave/Generated/src/USBLD001/driver/dwc_otg_pcd_intr.c **** 
1145:../Dave/Generated/src/USBLD001/driver/dwc_otg_pcd_intr.c **** 	/* Clear interrupt */
1146:../Dave/Generated/src/USBLD001/driver/dwc_otg_pcd_intr.c **** 	gintsts.d32 = 0;
 3216              		.loc 2 1146 0
 3217 002e 4FF00003 		mov	r3, #0
 3218 0032 BB60     		str	r3, [r7, #8]
1147:../Dave/Generated/src/USBLD001/driver/dwc_otg_pcd_intr.c **** 	gintsts.b.isooutdrop = 1;
 3219              		.loc 2 1147 0
 3220 0034 BB68     		ldr	r3, [r7, #8]
 3221 0036 43F48043 		orr	r3, r3, #16384
 3222 003a BB60     		str	r3, [r7, #8]
1148:../Dave/Generated/src/USBLD001/driver/dwc_otg_pcd_intr.c **** 	DWC_WRITE_REG32(&GET_CORE_IF(pcd)->core_global_regs->gintsts,
 3223              		.loc 2 1148 0
 3224 003c 7B68     		ldr	r3, [r7, #4]
 3225 003e 9B68     		ldr	r3, [r3, #8]
 3226 0040 5B68     		ldr	r3, [r3, #4]
 3227 0042 03F11402 		add	r2, r3, #20
 3228 0046 BB68     		ldr	r3, [r7, #8]
 3229 0048 1046     		mov	r0, r2
 3230 004a 1946     		mov	r1, r3
 3231 004c FFF7FEFF 		bl	DWC_WRITE_REG32
1149:../Dave/Generated/src/USBLD001/driver/dwc_otg_pcd_intr.c **** 			gintsts.d32);
1150:../Dave/Generated/src/USBLD001/driver/dwc_otg_pcd_intr.c **** 
1151:../Dave/Generated/src/USBLD001/driver/dwc_otg_pcd_intr.c **** 	return 1;
 3232              		.loc 2 1151 0
 3233 0050 4FF00103 		mov	r3, #1
1152:../Dave/Generated/src/USBLD001/driver/dwc_otg_pcd_intr.c **** }
 3234              		.loc 2 1152 0
 3235 0054 1846     		mov	r0, r3
 3236 0056 07F11007 		add	r7, r7, #16
 3237 005a BD46     		mov	sp, r7
 3238 005c 80BD     		pop	{r7, pc}
 3239              		.cfi_endproc
 3240              	.LFE38:
 3242 005e 00BF     		.section	.text.dwc_otg_pcd_handle_end_periodic_frame_intr,"ax",%progbits
 3243              		.align	2
 3244              		.global	dwc_otg_pcd_handle_end_periodic_frame_intr
 3245              		.thumb
 3246              		.thumb_func
 3248              	dwc_otg_pcd_handle_end_periodic_frame_intr:
 3249              	.LFB39:
1153:../Dave/Generated/src/USBLD001/driver/dwc_otg_pcd_intr.c **** 
1154:../Dave/Generated/src/USBLD001/driver/dwc_otg_pcd_intr.c **** /**
1155:../Dave/Generated/src/USBLD001/driver/dwc_otg_pcd_intr.c ****  * This interrupt indicates the end of the portion of the micro-frame
1156:../Dave/Generated/src/USBLD001/driver/dwc_otg_pcd_intr.c ****  * for periodic transactions.  If there is a periodic transaction for
1157:../Dave/Generated/src/USBLD001/driver/dwc_otg_pcd_intr.c ****  * the next frame, load the packets into the EP periodic Tx FIFO.
1158:../Dave/Generated/src/USBLD001/driver/dwc_otg_pcd_intr.c ****  */
1159:../Dave/Generated/src/USBLD001/driver/dwc_otg_pcd_intr.c **** int32_t dwc_otg_pcd_handle_end_periodic_frame_intr(dwc_otg_pcd_t * pcd)
1160:../Dave/Generated/src/USBLD001/driver/dwc_otg_pcd_intr.c **** {
 3250              		.loc 2 1160 0
 3251              		.cfi_startproc
 3252              		@ args = 0, pretend = 0, frame = 16
 3253              		@ frame_needed = 1, uses_anonymous_args = 0
 3254 0000 80B5     		push	{r7, lr}
 3255              	.LCFI72:
 3256              		.cfi_def_cfa_offset 8
 3257              		.cfi_offset 7, -8
 3258              		.cfi_offset 14, -4
 3259 0002 84B0     		sub	sp, sp, #16
 3260              	.LCFI73:
 3261              		.cfi_def_cfa_offset 24
 3262 0004 00AF     		add	r7, sp, #0
 3263              	.LCFI74:
 3264              		.cfi_def_cfa_register 7
 3265 0006 7860     		str	r0, [r7, #4]
1161:../Dave/Generated/src/USBLD001/driver/dwc_otg_pcd_intr.c **** 	gintmsk_data_t intr_mask = {.d32 = 0 };
 3266              		.loc 2 1161 0
 3267 0008 4FF00003 		mov	r3, #0
 3268 000c FB60     		str	r3, [r7, #12]
1162:../Dave/Generated/src/USBLD001/driver/dwc_otg_pcd_intr.c **** 	gintsts_data_t gintsts;
1163:../Dave/Generated/src/USBLD001/driver/dwc_otg_pcd_intr.c **** 	DWC_PRINTF("INTERRUPT Handler not implemented for %s\n", "EOP");
1164:../Dave/Generated/src/USBLD001/driver/dwc_otg_pcd_intr.c **** 
1165:../Dave/Generated/src/USBLD001/driver/dwc_otg_pcd_intr.c **** 	intr_mask.b.eopframe = 1;
 3269              		.loc 2 1165 0
 3270 000e FB68     		ldr	r3, [r7, #12]
 3271 0010 43F40043 		orr	r3, r3, #32768
 3272 0014 FB60     		str	r3, [r7, #12]
1166:../Dave/Generated/src/USBLD001/driver/dwc_otg_pcd_intr.c **** 	DWC_MODIFY_REG32(&GET_CORE_IF(pcd)->core_global_regs->gintmsk,
 3273              		.loc 2 1166 0
 3274 0016 7B68     		ldr	r3, [r7, #4]
 3275 0018 9B68     		ldr	r3, [r3, #8]
 3276 001a 5B68     		ldr	r3, [r3, #4]
 3277 001c 03F11802 		add	r2, r3, #24
 3278 0020 FB68     		ldr	r3, [r7, #12]
 3279 0022 1046     		mov	r0, r2
 3280 0024 1946     		mov	r1, r3
 3281 0026 4FF00002 		mov	r2, #0
 3282 002a FFF7FEFF 		bl	DWC_MODIFY_REG32
1167:../Dave/Generated/src/USBLD001/driver/dwc_otg_pcd_intr.c **** 			 intr_mask.d32, 0);
1168:../Dave/Generated/src/USBLD001/driver/dwc_otg_pcd_intr.c **** 
1169:../Dave/Generated/src/USBLD001/driver/dwc_otg_pcd_intr.c **** 	/* Clear interrupt */
1170:../Dave/Generated/src/USBLD001/driver/dwc_otg_pcd_intr.c **** 	gintsts.d32 = 0;
 3283              		.loc 2 1170 0
 3284 002e 4FF00003 		mov	r3, #0
 3285 0032 BB60     		str	r3, [r7, #8]
1171:../Dave/Generated/src/USBLD001/driver/dwc_otg_pcd_intr.c **** 	gintsts.b.eopframe = 1;
 3286              		.loc 2 1171 0
 3287 0034 BB68     		ldr	r3, [r7, #8]
 3288 0036 43F40043 		orr	r3, r3, #32768
 3289 003a BB60     		str	r3, [r7, #8]
1172:../Dave/Generated/src/USBLD001/driver/dwc_otg_pcd_intr.c **** 	DWC_WRITE_REG32(&GET_CORE_IF(pcd)->core_global_regs->gintsts,
 3290              		.loc 2 1172 0
 3291 003c 7B68     		ldr	r3, [r7, #4]
 3292 003e 9B68     		ldr	r3, [r3, #8]
 3293 0040 5B68     		ldr	r3, [r3, #4]
 3294 0042 03F11402 		add	r2, r3, #20
 3295 0046 BB68     		ldr	r3, [r7, #8]
 3296 0048 1046     		mov	r0, r2
 3297 004a 1946     		mov	r1, r3
 3298 004c FFF7FEFF 		bl	DWC_WRITE_REG32
1173:../Dave/Generated/src/USBLD001/driver/dwc_otg_pcd_intr.c **** 			gintsts.d32);
1174:../Dave/Generated/src/USBLD001/driver/dwc_otg_pcd_intr.c **** 
1175:../Dave/Generated/src/USBLD001/driver/dwc_otg_pcd_intr.c **** 	return 1;
 3299              		.loc 2 1175 0
 3300 0050 4FF00103 		mov	r3, #1
1176:../Dave/Generated/src/USBLD001/driver/dwc_otg_pcd_intr.c **** }
 3301              		.loc 2 1176 0
 3302 0054 1846     		mov	r0, r3
 3303 0056 07F11007 		add	r7, r7, #16
 3304 005a BD46     		mov	sp, r7
 3305 005c 80BD     		pop	{r7, pc}
 3306              		.cfi_endproc
 3307              	.LFE39:
 3309 005e 00BF     		.section	.text.dwc_otg_pcd_handle_ep_mismatch_intr,"ax",%progbits
 3310              		.align	2
 3311              		.global	dwc_otg_pcd_handle_ep_mismatch_intr
 3312              		.thumb
 3313              		.thumb_func
 3315              	dwc_otg_pcd_handle_ep_mismatch_intr:
 3316              	.LFB40:
1177:../Dave/Generated/src/USBLD001/driver/dwc_otg_pcd_intr.c **** 
1178:../Dave/Generated/src/USBLD001/driver/dwc_otg_pcd_intr.c **** /**
1179:../Dave/Generated/src/USBLD001/driver/dwc_otg_pcd_intr.c ****  * This interrupt indicates that EP of the packet on the top of the
1180:../Dave/Generated/src/USBLD001/driver/dwc_otg_pcd_intr.c ****  * non-periodic Tx FIFO does not match EP of the IN Token received.
1181:../Dave/Generated/src/USBLD001/driver/dwc_otg_pcd_intr.c ****  *
1182:../Dave/Generated/src/USBLD001/driver/dwc_otg_pcd_intr.c ****  * The "Device IN Token Queue" Registers are read to determine the
1183:../Dave/Generated/src/USBLD001/driver/dwc_otg_pcd_intr.c ****  * order the IN Tokens have been received. The non-periodic Tx FIFO
1184:../Dave/Generated/src/USBLD001/driver/dwc_otg_pcd_intr.c ****  * is flushed, so it can be reloaded in the order seen in the IN Token
1185:../Dave/Generated/src/USBLD001/driver/dwc_otg_pcd_intr.c ****  * Queue.
1186:../Dave/Generated/src/USBLD001/driver/dwc_otg_pcd_intr.c ****  */
1187:../Dave/Generated/src/USBLD001/driver/dwc_otg_pcd_intr.c **** int32_t dwc_otg_pcd_handle_ep_mismatch_intr(dwc_otg_core_if_t * core_if)
1188:../Dave/Generated/src/USBLD001/driver/dwc_otg_pcd_intr.c **** {
 3317              		.loc 2 1188 0
 3318              		.cfi_startproc
 3319              		@ args = 0, pretend = 0, frame = 16
 3320              		@ frame_needed = 1, uses_anonymous_args = 0
 3321 0000 80B5     		push	{r7, lr}
 3322              	.LCFI75:
 3323              		.cfi_def_cfa_offset 8
 3324              		.cfi_offset 7, -8
 3325              		.cfi_offset 14, -4
 3326 0002 84B0     		sub	sp, sp, #16
 3327              	.LCFI76:
 3328              		.cfi_def_cfa_offset 24
 3329 0004 00AF     		add	r7, sp, #0
 3330              	.LCFI77:
 3331              		.cfi_def_cfa_register 7
 3332 0006 7860     		str	r0, [r7, #4]
1189:../Dave/Generated/src/USBLD001/driver/dwc_otg_pcd_intr.c **** 	gintsts_data_t gintsts;
1190:../Dave/Generated/src/USBLD001/driver/dwc_otg_pcd_intr.c **** 	DWC_DEBUGPL(DBG_PCDV, "%s(%p)\n", __func__, core_if);
1191:../Dave/Generated/src/USBLD001/driver/dwc_otg_pcd_intr.c **** 
1192:../Dave/Generated/src/USBLD001/driver/dwc_otg_pcd_intr.c **** 	/* Clear interrupt */
1193:../Dave/Generated/src/USBLD001/driver/dwc_otg_pcd_intr.c **** 	gintsts.d32 = 0;
 3333              		.loc 2 1193 0
 3334 0008 4FF00003 		mov	r3, #0
 3335 000c FB60     		str	r3, [r7, #12]
1194:../Dave/Generated/src/USBLD001/driver/dwc_otg_pcd_intr.c **** 	gintsts.b.epmismatch = 1;
 3336              		.loc 2 1194 0
 3337 000e FB68     		ldr	r3, [r7, #12]
 3338 0010 43F40033 		orr	r3, r3, #131072
 3339 0014 FB60     		str	r3, [r7, #12]
1195:../Dave/Generated/src/USBLD001/driver/dwc_otg_pcd_intr.c **** 	DWC_WRITE_REG32(&core_if->core_global_regs->gintsts, gintsts.d32);
 3340              		.loc 2 1195 0
 3341 0016 7B68     		ldr	r3, [r7, #4]
 3342 0018 5B68     		ldr	r3, [r3, #4]
 3343 001a 03F11402 		add	r2, r3, #20
 3344 001e FB68     		ldr	r3, [r7, #12]
 3345 0020 1046     		mov	r0, r2
 3346 0022 1946     		mov	r1, r3
 3347 0024 FFF7FEFF 		bl	DWC_WRITE_REG32
1196:../Dave/Generated/src/USBLD001/driver/dwc_otg_pcd_intr.c **** 
1197:../Dave/Generated/src/USBLD001/driver/dwc_otg_pcd_intr.c **** 	return 1;
 3348              		.loc 2 1197 0
 3349 0028 4FF00103 		mov	r3, #1
1198:../Dave/Generated/src/USBLD001/driver/dwc_otg_pcd_intr.c **** }
 3350              		.loc 2 1198 0
 3351 002c 1846     		mov	r0, r3
 3352 002e 07F11007 		add	r7, r7, #16
 3353 0032 BD46     		mov	sp, r7
 3354 0034 80BD     		pop	{r7, pc}
 3355              		.cfi_endproc
 3356              	.LFE40:
 3358 0036 00BF     		.section	.text.ep0_do_stall,"ax",%progbits
 3359              		.align	2
 3360              		.thumb
 3361              		.thumb_func
 3363              	ep0_do_stall:
 3364              	.LFB41:
1199:../Dave/Generated/src/USBLD001/driver/dwc_otg_pcd_intr.c **** 
1200:../Dave/Generated/src/USBLD001/driver/dwc_otg_pcd_intr.c **** /**
1201:../Dave/Generated/src/USBLD001/driver/dwc_otg_pcd_intr.c ****  * This funcion stalls EP0.
1202:../Dave/Generated/src/USBLD001/driver/dwc_otg_pcd_intr.c ****  */
1203:../Dave/Generated/src/USBLD001/driver/dwc_otg_pcd_intr.c **** static inline void ep0_do_stall(dwc_otg_pcd_t * pcd, const int err_val)
1204:../Dave/Generated/src/USBLD001/driver/dwc_otg_pcd_intr.c **** {
 3365              		.loc 2 1204 0
 3366              		.cfi_startproc
 3367              		@ args = 0, pretend = 0, frame = 16
 3368              		@ frame_needed = 1, uses_anonymous_args = 0
 3369 0000 80B5     		push	{r7, lr}
 3370              	.LCFI78:
 3371              		.cfi_def_cfa_offset 8
 3372              		.cfi_offset 7, -8
 3373              		.cfi_offset 14, -4
 3374 0002 84B0     		sub	sp, sp, #16
 3375              	.LCFI79:
 3376              		.cfi_def_cfa_offset 24
 3377 0004 00AF     		add	r7, sp, #0
 3378              	.LCFI80:
 3379              		.cfi_def_cfa_register 7
 3380 0006 7860     		str	r0, [r7, #4]
 3381 0008 3960     		str	r1, [r7, #0]
1205:../Dave/Generated/src/USBLD001/driver/dwc_otg_pcd_intr.c **** 	dwc_otg_pcd_ep_t *ep0 = &pcd->ep0;
 3382              		.loc 2 1205 0
 3383 000a 7B68     		ldr	r3, [r7, #4]
 3384 000c 03F12403 		add	r3, r3, #36
 3385 0010 FB60     		str	r3, [r7, #12]
1206:../Dave/Generated/src/USBLD001/driver/dwc_otg_pcd_intr.c **** #ifndef USE_IFX_DEV
1207:../Dave/Generated/src/USBLD001/driver/dwc_otg_pcd_intr.c **** 	usb_device_request_t *ctrl = &pcd->setup_pkt->req;
1208:../Dave/Generated/src/USBLD001/driver/dwc_otg_pcd_intr.c **** 	DWC_WARN("req %02x.%02x protocol STALL; err %d\n",
1209:../Dave/Generated/src/USBLD001/driver/dwc_otg_pcd_intr.c **** 		 ctrl->bmRequestType, ctrl->bRequest, err_val);
1210:../Dave/Generated/src/USBLD001/driver/dwc_otg_pcd_intr.c **** #endif
1211:../Dave/Generated/src/USBLD001/driver/dwc_otg_pcd_intr.c **** 	ep0->dwc_ep.is_in = 1;
 3386              		.loc 2 1211 0
 3387 0012 FA68     		ldr	r2, [r7, #12]
 3388 0014 537C     		ldrb	r3, [r2, #17]
 3389 0016 43F00103 		orr	r3, r3, #1
 3390 001a 5374     		strb	r3, [r2, #17]
1212:../Dave/Generated/src/USBLD001/driver/dwc_otg_pcd_intr.c **** 	dwc_otg_ep_set_stall(GET_CORE_IF(pcd), &ep0->dwc_ep);
 3391              		.loc 2 1212 0
 3392 001c 7B68     		ldr	r3, [r7, #4]
 3393 001e 9A68     		ldr	r2, [r3, #8]
 3394 0020 FB68     		ldr	r3, [r7, #12]
 3395 0022 03F11003 		add	r3, r3, #16
 3396 0026 1046     		mov	r0, r2
 3397 0028 1946     		mov	r1, r3
 3398 002a FFF7FEFF 		bl	dwc_otg_ep_set_stall
1213:../Dave/Generated/src/USBLD001/driver/dwc_otg_pcd_intr.c **** 	pcd->ep0.stopped = 1;
 3399              		.loc 2 1213 0
 3400 002e 7A68     		ldr	r2, [r7, #4]
 3401 0030 92F83030 		ldrb	r3, [r2, #48]
 3402 0034 43F00103 		orr	r3, r3, #1
 3403 0038 82F83030 		strb	r3, [r2, #48]
1214:../Dave/Generated/src/USBLD001/driver/dwc_otg_pcd_intr.c **** 	pcd->ep0state = EP0_IDLE;
 3404              		.loc 2 1214 0
 3405 003c 7B68     		ldr	r3, [r7, #4]
 3406 003e 4FF00102 		mov	r2, #1
 3407 0042 1A73     		strb	r2, [r3, #12]
1215:../Dave/Generated/src/USBLD001/driver/dwc_otg_pcd_intr.c **** 	ep0_out_start(GET_CORE_IF(pcd), pcd);
 3408              		.loc 2 1215 0
 3409 0044 7B68     		ldr	r3, [r7, #4]
 3410 0046 9B68     		ldr	r3, [r3, #8]
 3411 0048 1846     		mov	r0, r3
 3412 004a 7968     		ldr	r1, [r7, #4]
 3413 004c FFF7FEFF 		bl	ep0_out_start
1216:../Dave/Generated/src/USBLD001/driver/dwc_otg_pcd_intr.c **** }
 3414              		.loc 2 1216 0
 3415 0050 07F11007 		add	r7, r7, #16
 3416 0054 BD46     		mov	sp, r7
 3417 0056 80BD     		pop	{r7, pc}
 3418              		.cfi_endproc
 3419              	.LFE41:
 3421              		.section	.text.do_gadget_setup,"ax",%progbits
 3422              		.align	2
 3423              		.thumb
 3424              		.thumb_func
 3426              	do_gadget_setup:
 3427              	.LFB42:
1217:../Dave/Generated/src/USBLD001/driver/dwc_otg_pcd_intr.c **** 
1218:../Dave/Generated/src/USBLD001/driver/dwc_otg_pcd_intr.c **** /**
1219:../Dave/Generated/src/USBLD001/driver/dwc_otg_pcd_intr.c ****  * This functions delegates the setup command to the gadget driver.
1220:../Dave/Generated/src/USBLD001/driver/dwc_otg_pcd_intr.c ****  */
1221:../Dave/Generated/src/USBLD001/driver/dwc_otg_pcd_intr.c **** static inline void do_gadget_setup(dwc_otg_pcd_t * pcd,
1222:../Dave/Generated/src/USBLD001/driver/dwc_otg_pcd_intr.c **** 				   usb_device_request_t * ctrl)
1223:../Dave/Generated/src/USBLD001/driver/dwc_otg_pcd_intr.c **** {
 3428              		.loc 2 1223 0
 3429              		.cfi_startproc
 3430              		@ args = 0, pretend = 0, frame = 16
 3431              		@ frame_needed = 1, uses_anonymous_args = 0
 3432 0000 80B5     		push	{r7, lr}
 3433              	.LCFI81:
 3434              		.cfi_def_cfa_offset 8
 3435              		.cfi_offset 7, -8
 3436              		.cfi_offset 14, -4
 3437 0002 84B0     		sub	sp, sp, #16
 3438              	.LCFI82:
 3439              		.cfi_def_cfa_offset 24
 3440 0004 00AF     		add	r7, sp, #0
 3441              	.LCFI83:
 3442              		.cfi_def_cfa_register 7
 3443 0006 7860     		str	r0, [r7, #4]
 3444 0008 3960     		str	r1, [r7, #0]
1224:../Dave/Generated/src/USBLD001/driver/dwc_otg_pcd_intr.c **** 	int ret = 0;
 3445              		.loc 2 1224 0
 3446 000a 4FF00003 		mov	r3, #0
 3447 000e FB60     		str	r3, [r7, #12]
1225:../Dave/Generated/src/USBLD001/driver/dwc_otg_pcd_intr.c **** 	DWC_SPINUNLOCK(pcd->lock);
 3448              		.loc 2 1225 0
 3449 0010 7B68     		ldr	r3, [r7, #4]
 3450 0012 D3F82034 		ldr	r3, [r3, #1056]
 3451 0016 1846     		mov	r0, r3
 3452 0018 FFF7FEFF 		bl	DWC_SPINUNLOCK
1226:../Dave/Generated/src/USBLD001/driver/dwc_otg_pcd_intr.c **** 	ret = pcd->fops->setup(pcd, (uint8_t *) ctrl);
 3453              		.loc 2 1226 0
 3454 001c 7B68     		ldr	r3, [r7, #4]
 3455 001e 1B68     		ldr	r3, [r3, #0]
 3456 0020 9B68     		ldr	r3, [r3, #8]
 3457 0022 7868     		ldr	r0, [r7, #4]
 3458 0024 3968     		ldr	r1, [r7, #0]
 3459 0026 9847     		blx	r3
 3460 0028 F860     		str	r0, [r7, #12]
1227:../Dave/Generated/src/USBLD001/driver/dwc_otg_pcd_intr.c **** 	DWC_SPINLOCK(pcd->lock);
 3461              		.loc 2 1227 0
 3462 002a 7B68     		ldr	r3, [r7, #4]
 3463 002c D3F82034 		ldr	r3, [r3, #1056]
 3464 0030 1846     		mov	r0, r3
 3465 0032 FFF7FEFF 		bl	DWC_SPINLOCK
1228:../Dave/Generated/src/USBLD001/driver/dwc_otg_pcd_intr.c **** 	if (ret < 0) {
 3466              		.loc 2 1228 0
 3467 0036 FB68     		ldr	r3, [r7, #12]
 3468 0038 002B     		cmp	r3, #0
 3469 003a 03DA     		bge	.L146
1229:../Dave/Generated/src/USBLD001/driver/dwc_otg_pcd_intr.c **** 		ep0_do_stall(pcd, ret);
 3470              		.loc 2 1229 0
 3471 003c 7868     		ldr	r0, [r7, #4]
 3472 003e F968     		ldr	r1, [r7, #12]
 3473 0040 FFF7FEFF 		bl	ep0_do_stall
 3474              	.L146:
1230:../Dave/Generated/src/USBLD001/driver/dwc_otg_pcd_intr.c **** 	}
1231:../Dave/Generated/src/USBLD001/driver/dwc_otg_pcd_intr.c **** 
1232:../Dave/Generated/src/USBLD001/driver/dwc_otg_pcd_intr.c **** 	/** @todo This is a g_file_storage gadget driver specific
1233:../Dave/Generated/src/USBLD001/driver/dwc_otg_pcd_intr.c **** 	 * workaround: a DELAYED_STATUS result from the fsg_setup
1234:../Dave/Generated/src/USBLD001/driver/dwc_otg_pcd_intr.c **** 	 * routine will result in the gadget queueing a EP0 IN status
1235:../Dave/Generated/src/USBLD001/driver/dwc_otg_pcd_intr.c **** 	 * phase for a two-stage control transfer. Exactly the same as
1236:../Dave/Generated/src/USBLD001/driver/dwc_otg_pcd_intr.c **** 	 * a SET_CONFIGURATION/SET_INTERFACE except that this is a class
1237:../Dave/Generated/src/USBLD001/driver/dwc_otg_pcd_intr.c **** 	 * specific request.  Need a generic way to know when the gadget
1238:../Dave/Generated/src/USBLD001/driver/dwc_otg_pcd_intr.c **** 	 * driver will queue the status phase. Can we assume when we
1239:../Dave/Generated/src/USBLD001/driver/dwc_otg_pcd_intr.c **** 	 * call the gadget driver setup() function that it will always
1240:../Dave/Generated/src/USBLD001/driver/dwc_otg_pcd_intr.c **** 	 * queue and require the following flag? Need to look into
1241:../Dave/Generated/src/USBLD001/driver/dwc_otg_pcd_intr.c **** 	 * this.
1242:../Dave/Generated/src/USBLD001/driver/dwc_otg_pcd_intr.c **** 	 */
1243:../Dave/Generated/src/USBLD001/driver/dwc_otg_pcd_intr.c **** 
1244:../Dave/Generated/src/USBLD001/driver/dwc_otg_pcd_intr.c **** 	if (ret == 256 + 999) {
 3475              		.loc 2 1244 0
 3476 0044 FA68     		ldr	r2, [r7, #12]
 3477 0046 40F2E743 		movw	r3, #1255
 3478 004a 9A42     		cmp	r2, r3
 3479 004c 04D1     		bne	.L145
1245:../Dave/Generated/src/USBLD001/driver/dwc_otg_pcd_intr.c **** 		pcd->request_config = 1;
 3480              		.loc 2 1245 0
 3481 004e 7A68     		ldr	r2, [r7, #4]
 3482 0050 537B     		ldrb	r3, [r2, #13]
 3483 0052 43F00203 		orr	r3, r3, #2
 3484 0056 5373     		strb	r3, [r2, #13]
 3485              	.L145:
1246:../Dave/Generated/src/USBLD001/driver/dwc_otg_pcd_intr.c **** 	}
1247:../Dave/Generated/src/USBLD001/driver/dwc_otg_pcd_intr.c **** }
 3486              		.loc 2 1247 0
 3487 0058 07F11007 		add	r7, r7, #16
 3488 005c BD46     		mov	sp, r7
 3489 005e 80BD     		pop	{r7, pc}
 3490              		.cfi_endproc
 3491              	.LFE42:
 3493              		.section	.text.do_setup_in_status_phase,"ax",%progbits
 3494              		.align	2
 3495              		.thumb
 3496              		.thumb_func
 3498              	do_setup_in_status_phase:
 3499              	.LFB43:
1248:../Dave/Generated/src/USBLD001/driver/dwc_otg_pcd_intr.c **** 
1249:../Dave/Generated/src/USBLD001/driver/dwc_otg_pcd_intr.c **** #ifdef DWC_UTE_CFI
1250:../Dave/Generated/src/USBLD001/driver/dwc_otg_pcd_intr.c **** /**
1251:../Dave/Generated/src/USBLD001/driver/dwc_otg_pcd_intr.c ****  * This functions delegates the CFI setup commands to the gadget driver.
1252:../Dave/Generated/src/USBLD001/driver/dwc_otg_pcd_intr.c ****  * This function will return a negative value to indicate a failure.
1253:../Dave/Generated/src/USBLD001/driver/dwc_otg_pcd_intr.c ****  */
1254:../Dave/Generated/src/USBLD001/driver/dwc_otg_pcd_intr.c **** static inline int cfi_gadget_setup(dwc_otg_pcd_t * pcd,
1255:../Dave/Generated/src/USBLD001/driver/dwc_otg_pcd_intr.c **** 				   struct cfi_usb_ctrlrequest *ctrl_req)
1256:../Dave/Generated/src/USBLD001/driver/dwc_otg_pcd_intr.c **** {
1257:../Dave/Generated/src/USBLD001/driver/dwc_otg_pcd_intr.c **** 	int ret = 0;
1258:../Dave/Generated/src/USBLD001/driver/dwc_otg_pcd_intr.c **** 
1259:../Dave/Generated/src/USBLD001/driver/dwc_otg_pcd_intr.c **** 	if (pcd->fops && pcd->fops->cfi_setup) {
1260:../Dave/Generated/src/USBLD001/driver/dwc_otg_pcd_intr.c **** 		DWC_SPINUNLOCK(pcd->lock);
1261:../Dave/Generated/src/USBLD001/driver/dwc_otg_pcd_intr.c **** 		ret = pcd->fops->cfi_setup(pcd, ctrl_req);
1262:../Dave/Generated/src/USBLD001/driver/dwc_otg_pcd_intr.c **** 		DWC_SPINLOCK(pcd->lock);
1263:../Dave/Generated/src/USBLD001/driver/dwc_otg_pcd_intr.c **** 		if (ret < 0) {
1264:../Dave/Generated/src/USBLD001/driver/dwc_otg_pcd_intr.c **** 			ep0_do_stall(pcd, ret);
1265:../Dave/Generated/src/USBLD001/driver/dwc_otg_pcd_intr.c **** 			return ret;
1266:../Dave/Generated/src/USBLD001/driver/dwc_otg_pcd_intr.c **** 		}
1267:../Dave/Generated/src/USBLD001/driver/dwc_otg_pcd_intr.c **** 	}
1268:../Dave/Generated/src/USBLD001/driver/dwc_otg_pcd_intr.c **** 
1269:../Dave/Generated/src/USBLD001/driver/dwc_otg_pcd_intr.c **** 	return ret;
1270:../Dave/Generated/src/USBLD001/driver/dwc_otg_pcd_intr.c **** }
1271:../Dave/Generated/src/USBLD001/driver/dwc_otg_pcd_intr.c **** #endif
1272:../Dave/Generated/src/USBLD001/driver/dwc_otg_pcd_intr.c **** 
1273:../Dave/Generated/src/USBLD001/driver/dwc_otg_pcd_intr.c **** /**
1274:../Dave/Generated/src/USBLD001/driver/dwc_otg_pcd_intr.c ****  * This function starts the Zero-Length Packet for the IN status phase
1275:../Dave/Generated/src/USBLD001/driver/dwc_otg_pcd_intr.c ****  * of a 2 stage control transfer.
1276:../Dave/Generated/src/USBLD001/driver/dwc_otg_pcd_intr.c ****  */
1277:../Dave/Generated/src/USBLD001/driver/dwc_otg_pcd_intr.c **** static inline void do_setup_in_status_phase(dwc_otg_pcd_t * pcd)
1278:../Dave/Generated/src/USBLD001/driver/dwc_otg_pcd_intr.c **** {
 3500              		.loc 2 1278 0
 3501              		.cfi_startproc
 3502              		@ args = 0, pretend = 0, frame = 16
 3503              		@ frame_needed = 1, uses_anonymous_args = 0
 3504 0000 80B5     		push	{r7, lr}
 3505              	.LCFI84:
 3506              		.cfi_def_cfa_offset 8
 3507              		.cfi_offset 7, -8
 3508              		.cfi_offset 14, -4
 3509 0002 84B0     		sub	sp, sp, #16
 3510              	.LCFI85:
 3511              		.cfi_def_cfa_offset 24
 3512 0004 00AF     		add	r7, sp, #0
 3513              	.LCFI86:
 3514              		.cfi_def_cfa_register 7
 3515 0006 7860     		str	r0, [r7, #4]
1279:../Dave/Generated/src/USBLD001/driver/dwc_otg_pcd_intr.c **** 	dwc_otg_pcd_ep_t *ep0 = &pcd->ep0;
 3516              		.loc 2 1279 0
 3517 0008 7B68     		ldr	r3, [r7, #4]
 3518 000a 03F12403 		add	r3, r3, #36
 3519 000e FB60     		str	r3, [r7, #12]
1280:../Dave/Generated/src/USBLD001/driver/dwc_otg_pcd_intr.c **** 	if (pcd->ep0state == EP0_STALL) {
 3520              		.loc 2 1280 0
 3521 0010 7B68     		ldr	r3, [r7, #4]
 3522 0012 1B7B     		ldrb	r3, [r3, #12]	@ zero_extendqisi2
 3523 0014 062B     		cmp	r3, #6
 3524 0016 20D0     		beq	.L151
 3525              	.L149:
1281:../Dave/Generated/src/USBLD001/driver/dwc_otg_pcd_intr.c **** 		return;
1282:../Dave/Generated/src/USBLD001/driver/dwc_otg_pcd_intr.c **** 	}
1283:../Dave/Generated/src/USBLD001/driver/dwc_otg_pcd_intr.c **** 
1284:../Dave/Generated/src/USBLD001/driver/dwc_otg_pcd_intr.c **** 	pcd->ep0state = EP0_IN_STATUS_PHASE;
 3526              		.loc 2 1284 0
 3527 0018 7B68     		ldr	r3, [r7, #4]
 3528 001a 4FF00402 		mov	r2, #4
 3529 001e 1A73     		strb	r2, [r3, #12]
1285:../Dave/Generated/src/USBLD001/driver/dwc_otg_pcd_intr.c **** 
1286:../Dave/Generated/src/USBLD001/driver/dwc_otg_pcd_intr.c **** 	/* Prepare for more SETUP Packets */
1287:../Dave/Generated/src/USBLD001/driver/dwc_otg_pcd_intr.c **** 	DWC_DEBUGPL(DBG_PCD, "EP0 IN ZLP\n");
1288:../Dave/Generated/src/USBLD001/driver/dwc_otg_pcd_intr.c **** 	ep0->dwc_ep.xfer_len = 0;
 3530              		.loc 2 1288 0
 3531 0020 FA68     		ldr	r2, [r7, #12]
 3532 0022 D36A     		ldr	r3, [r2, #44]
 3533 0024 6FF31203 		bfc	r3, #0, #19
 3534 0028 D362     		str	r3, [r2, #44]
1289:../Dave/Generated/src/USBLD001/driver/dwc_otg_pcd_intr.c **** 	ep0->dwc_ep.xfer_count = 0;
 3535              		.loc 2 1289 0
 3536 002a FA68     		ldr	r2, [r7, #12]
 3537 002c 136B     		ldr	r3, [r2, #48]
 3538 002e 6FF31203 		bfc	r3, #0, #19
 3539 0032 1363     		str	r3, [r2, #48]
1290:../Dave/Generated/src/USBLD001/driver/dwc_otg_pcd_intr.c **** 	ep0->dwc_ep.is_in = 1;
 3540              		.loc 2 1290 0
 3541 0034 FA68     		ldr	r2, [r7, #12]
 3542 0036 537C     		ldrb	r3, [r2, #17]
 3543 0038 43F00103 		orr	r3, r3, #1
 3544 003c 5374     		strb	r3, [r2, #17]
1291:../Dave/Generated/src/USBLD001/driver/dwc_otg_pcd_intr.c **** 	ep0->dwc_ep.dma_addr = pcd->setup_pkt_dma_handle;
 3545              		.loc 2 1291 0
 3546 003e 7B68     		ldr	r3, [r7, #4]
 3547 0040 9A69     		ldr	r2, [r3, #24]
 3548 0042 FB68     		ldr	r3, [r7, #12]
 3549 0044 9A61     		str	r2, [r3, #24]
1292:../Dave/Generated/src/USBLD001/driver/dwc_otg_pcd_intr.c **** 	dwc_otg_ep0_start_transfer(GET_CORE_IF(pcd), &ep0->dwc_ep);
 3550              		.loc 2 1292 0
 3551 0046 7B68     		ldr	r3, [r7, #4]
 3552 0048 9A68     		ldr	r2, [r3, #8]
 3553 004a FB68     		ldr	r3, [r7, #12]
 3554 004c 03F11003 		add	r3, r3, #16
 3555 0050 1046     		mov	r0, r2
 3556 0052 1946     		mov	r1, r3
 3557 0054 FFF7FEFF 		bl	dwc_otg_ep0_start_transfer
 3558 0058 00E0     		b	.L148
 3559              	.L151:
1281:../Dave/Generated/src/USBLD001/driver/dwc_otg_pcd_intr.c **** 		return;
 3560              		.loc 2 1281 0
 3561 005a 00BF     		nop
 3562              	.L148:
1293:../Dave/Generated/src/USBLD001/driver/dwc_otg_pcd_intr.c **** 
1294:../Dave/Generated/src/USBLD001/driver/dwc_otg_pcd_intr.c **** 	/* Prepare for more SETUP Packets */
1295:../Dave/Generated/src/USBLD001/driver/dwc_otg_pcd_intr.c **** 	//ep0_out_start(GET_CORE_IF(pcd), pcd);
1296:../Dave/Generated/src/USBLD001/driver/dwc_otg_pcd_intr.c **** }
 3563              		.loc 2 1296 0
 3564 005c 07F11007 		add	r7, r7, #16
 3565 0060 BD46     		mov	sp, r7
 3566 0062 80BD     		pop	{r7, pc}
 3567              		.cfi_endproc
 3568              	.LFE43:
 3570              		.section	.text.do_setup_out_status_phase,"ax",%progbits
 3571              		.align	2
 3572              		.thumb
 3573              		.thumb_func
 3575              	do_setup_out_status_phase:
 3576              	.LFB44:
1297:../Dave/Generated/src/USBLD001/driver/dwc_otg_pcd_intr.c **** 
1298:../Dave/Generated/src/USBLD001/driver/dwc_otg_pcd_intr.c **** /**
1299:../Dave/Generated/src/USBLD001/driver/dwc_otg_pcd_intr.c ****  * This function starts the Zero-Length Packet for the OUT status phase
1300:../Dave/Generated/src/USBLD001/driver/dwc_otg_pcd_intr.c ****  * of a 2 stage control transfer.
1301:../Dave/Generated/src/USBLD001/driver/dwc_otg_pcd_intr.c ****  */
1302:../Dave/Generated/src/USBLD001/driver/dwc_otg_pcd_intr.c **** static inline void do_setup_out_status_phase(dwc_otg_pcd_t * pcd)
1303:../Dave/Generated/src/USBLD001/driver/dwc_otg_pcd_intr.c **** {
 3577              		.loc 2 1303 0
 3578              		.cfi_startproc
 3579              		@ args = 0, pretend = 0, frame = 16
 3580              		@ frame_needed = 1, uses_anonymous_args = 0
 3581 0000 80B5     		push	{r7, lr}
 3582              	.LCFI87:
 3583              		.cfi_def_cfa_offset 8
 3584              		.cfi_offset 7, -8
 3585              		.cfi_offset 14, -4
 3586 0002 84B0     		sub	sp, sp, #16
 3587              	.LCFI88:
 3588              		.cfi_def_cfa_offset 24
 3589 0004 00AF     		add	r7, sp, #0
 3590              	.LCFI89:
 3591              		.cfi_def_cfa_register 7
 3592 0006 7860     		str	r0, [r7, #4]
1304:../Dave/Generated/src/USBLD001/driver/dwc_otg_pcd_intr.c **** 	dwc_otg_pcd_ep_t *ep0 = &pcd->ep0;
 3593              		.loc 2 1304 0
 3594 0008 7B68     		ldr	r3, [r7, #4]
 3595 000a 03F12403 		add	r3, r3, #36
 3596 000e FB60     		str	r3, [r7, #12]
1305:../Dave/Generated/src/USBLD001/driver/dwc_otg_pcd_intr.c **** 	if (pcd->ep0state == EP0_STALL) {
 3597              		.loc 2 1305 0
 3598 0010 7B68     		ldr	r3, [r7, #4]
 3599 0012 1B7B     		ldrb	r3, [r3, #12]	@ zero_extendqisi2
 3600 0014 062B     		cmp	r3, #6
 3601 0016 2CD0     		beq	.L155
 3602              	.L153:
1306:../Dave/Generated/src/USBLD001/driver/dwc_otg_pcd_intr.c **** 		DWC_DEBUGPL(DBG_PCD, "EP0 STALLED\n");
1307:../Dave/Generated/src/USBLD001/driver/dwc_otg_pcd_intr.c **** 		return;
1308:../Dave/Generated/src/USBLD001/driver/dwc_otg_pcd_intr.c **** 	}
1309:../Dave/Generated/src/USBLD001/driver/dwc_otg_pcd_intr.c **** 	pcd->ep0state = EP0_OUT_STATUS_PHASE;
 3603              		.loc 2 1309 0
 3604 0018 7B68     		ldr	r3, [r7, #4]
 3605 001a 4FF00502 		mov	r2, #5
 3606 001e 1A73     		strb	r2, [r3, #12]
1310:../Dave/Generated/src/USBLD001/driver/dwc_otg_pcd_intr.c **** 
1311:../Dave/Generated/src/USBLD001/driver/dwc_otg_pcd_intr.c **** 	DWC_DEBUGPL(DBG_PCD, "EP0 OUT ZLP\n");
1312:../Dave/Generated/src/USBLD001/driver/dwc_otg_pcd_intr.c **** 	ep0->dwc_ep.xfer_len = 0;
 3607              		.loc 2 1312 0
 3608 0020 FA68     		ldr	r2, [r7, #12]
 3609 0022 D36A     		ldr	r3, [r2, #44]
 3610 0024 6FF31203 		bfc	r3, #0, #19
 3611 0028 D362     		str	r3, [r2, #44]
1313:../Dave/Generated/src/USBLD001/driver/dwc_otg_pcd_intr.c **** 	ep0->dwc_ep.xfer_count = 0;
 3612              		.loc 2 1313 0
 3613 002a FA68     		ldr	r2, [r7, #12]
 3614 002c 136B     		ldr	r3, [r2, #48]
 3615 002e 6FF31203 		bfc	r3, #0, #19
 3616 0032 1363     		str	r3, [r2, #48]
1314:../Dave/Generated/src/USBLD001/driver/dwc_otg_pcd_intr.c **** 	ep0->dwc_ep.is_in = 0;
 3617              		.loc 2 1314 0
 3618 0034 FA68     		ldr	r2, [r7, #12]
 3619 0036 537C     		ldrb	r3, [r2, #17]
 3620 0038 6FF30003 		bfc	r3, #0, #1
 3621 003c 5374     		strb	r3, [r2, #17]
1315:../Dave/Generated/src/USBLD001/driver/dwc_otg_pcd_intr.c **** 	ep0->dwc_ep.dma_addr = pcd->setup_pkt_dma_handle;
 3622              		.loc 2 1315 0
 3623 003e 7B68     		ldr	r3, [r7, #4]
 3624 0040 9A69     		ldr	r2, [r3, #24]
 3625 0042 FB68     		ldr	r3, [r7, #12]
 3626 0044 9A61     		str	r2, [r3, #24]
1316:../Dave/Generated/src/USBLD001/driver/dwc_otg_pcd_intr.c **** 	dwc_otg_ep0_start_transfer(GET_CORE_IF(pcd), &ep0->dwc_ep);
 3627              		.loc 2 1316 0
 3628 0046 7B68     		ldr	r3, [r7, #4]
 3629 0048 9A68     		ldr	r2, [r3, #8]
 3630 004a FB68     		ldr	r3, [r7, #12]
 3631 004c 03F11003 		add	r3, r3, #16
 3632 0050 1046     		mov	r0, r2
 3633 0052 1946     		mov	r1, r3
 3634 0054 FFF7FEFF 		bl	dwc_otg_ep0_start_transfer
1317:../Dave/Generated/src/USBLD001/driver/dwc_otg_pcd_intr.c **** 
1318:../Dave/Generated/src/USBLD001/driver/dwc_otg_pcd_intr.c **** 	/* Prepare for more SETUP Packets */
1319:../Dave/Generated/src/USBLD001/driver/dwc_otg_pcd_intr.c **** 	if (GET_CORE_IF(pcd)->dma_enable == 0) {
 3635              		.loc 2 1319 0
 3636 0058 7B68     		ldr	r3, [r7, #4]
 3637 005a 9B68     		ldr	r3, [r3, #8]
 3638 005c 93F84630 		ldrb	r3, [r3, #70]	@ zero_extendqisi2
 3639 0060 002B     		cmp	r3, #0
 3640 0062 07D1     		bne	.L152
1320:../Dave/Generated/src/USBLD001/driver/dwc_otg_pcd_intr.c **** 		ep0_out_start(GET_CORE_IF(pcd), pcd);
 3641              		.loc 2 1320 0
 3642 0064 7B68     		ldr	r3, [r7, #4]
 3643 0066 9B68     		ldr	r3, [r3, #8]
 3644 0068 1846     		mov	r0, r3
 3645 006a 7968     		ldr	r1, [r7, #4]
 3646 006c FFF7FEFF 		bl	ep0_out_start
 3647 0070 00E0     		b	.L152
 3648              	.L155:
1307:../Dave/Generated/src/USBLD001/driver/dwc_otg_pcd_intr.c **** 		return;
 3649              		.loc 2 1307 0
 3650 0072 00BF     		nop
 3651              	.L152:
1321:../Dave/Generated/src/USBLD001/driver/dwc_otg_pcd_intr.c **** 	}
1322:../Dave/Generated/src/USBLD001/driver/dwc_otg_pcd_intr.c **** }
 3652              		.loc 2 1322 0
 3653 0074 07F11007 		add	r7, r7, #16
 3654 0078 BD46     		mov	sp, r7
 3655 007a 80BD     		pop	{r7, pc}
 3656              		.cfi_endproc
 3657              	.LFE44:
 3659              		.section	.text.pcd_clear_halt,"ax",%progbits
 3660              		.align	2
 3661              		.thumb
 3662              		.thumb_func
 3664              	pcd_clear_halt:
 3665              	.LFB45:
1323:../Dave/Generated/src/USBLD001/driver/dwc_otg_pcd_intr.c **** 
1324:../Dave/Generated/src/USBLD001/driver/dwc_otg_pcd_intr.c **** /**
1325:../Dave/Generated/src/USBLD001/driver/dwc_otg_pcd_intr.c ****  * Clear the EP halt (STALL) and if pending requests start the
1326:../Dave/Generated/src/USBLD001/driver/dwc_otg_pcd_intr.c ****  * transfer.
1327:../Dave/Generated/src/USBLD001/driver/dwc_otg_pcd_intr.c ****  */
1328:../Dave/Generated/src/USBLD001/driver/dwc_otg_pcd_intr.c **** static inline void pcd_clear_halt(dwc_otg_pcd_t * pcd, dwc_otg_pcd_ep_t * ep)
1329:../Dave/Generated/src/USBLD001/driver/dwc_otg_pcd_intr.c **** {
 3666              		.loc 2 1329 0
 3667              		.cfi_startproc
 3668              		@ args = 0, pretend = 0, frame = 8
 3669              		@ frame_needed = 1, uses_anonymous_args = 0
 3670 0000 80B5     		push	{r7, lr}
 3671              	.LCFI90:
 3672              		.cfi_def_cfa_offset 8
 3673              		.cfi_offset 7, -8
 3674              		.cfi_offset 14, -4
 3675 0002 82B0     		sub	sp, sp, #8
 3676              	.LCFI91:
 3677              		.cfi_def_cfa_offset 16
 3678 0004 00AF     		add	r7, sp, #0
 3679              	.LCFI92:
 3680              		.cfi_def_cfa_register 7
 3681 0006 7860     		str	r0, [r7, #4]
 3682 0008 3960     		str	r1, [r7, #0]
1330:../Dave/Generated/src/USBLD001/driver/dwc_otg_pcd_intr.c **** 	if (ep->dwc_ep.stall_clear_flag == 0)
 3683              		.loc 2 1330 0
 3684 000a 3B68     		ldr	r3, [r7, #0]
 3685 000c 93F83630 		ldrb	r3, [r3, #54]	@ zero_extendqisi2
 3686 0010 03F00803 		and	r3, r3, #8
 3687 0014 DBB2     		uxtb	r3, r3
 3688 0016 002B     		cmp	r3, #0
 3689 0018 08D1     		bne	.L157
1331:../Dave/Generated/src/USBLD001/driver/dwc_otg_pcd_intr.c **** 		dwc_otg_ep_clear_stall(GET_CORE_IF(pcd), &ep->dwc_ep);
 3690              		.loc 2 1331 0
 3691 001a 7B68     		ldr	r3, [r7, #4]
 3692 001c 9A68     		ldr	r2, [r3, #8]
 3693 001e 3B68     		ldr	r3, [r7, #0]
 3694 0020 03F11003 		add	r3, r3, #16
 3695 0024 1046     		mov	r0, r2
 3696 0026 1946     		mov	r1, r3
 3697 0028 FFF7FEFF 		bl	dwc_otg_ep_clear_stall
 3698              	.L157:
1332:../Dave/Generated/src/USBLD001/driver/dwc_otg_pcd_intr.c **** 
1333:../Dave/Generated/src/USBLD001/driver/dwc_otg_pcd_intr.c **** 	/* Reactive the EP */
1334:../Dave/Generated/src/USBLD001/driver/dwc_otg_pcd_intr.c **** 	dwc_otg_ep_activate(GET_CORE_IF(pcd), &ep->dwc_ep);
 3699              		.loc 2 1334 0
 3700 002c 7B68     		ldr	r3, [r7, #4]
 3701 002e 9A68     		ldr	r2, [r3, #8]
 3702 0030 3B68     		ldr	r3, [r7, #0]
 3703 0032 03F11003 		add	r3, r3, #16
 3704 0036 1046     		mov	r0, r2
 3705 0038 1946     		mov	r1, r3
 3706 003a FFF7FEFF 		bl	dwc_otg_ep_activate
1335:../Dave/Generated/src/USBLD001/driver/dwc_otg_pcd_intr.c **** 	if (ep->stopped) {
 3707              		.loc 2 1335 0
 3708 003e 3B68     		ldr	r3, [r7, #0]
 3709 0040 1B7B     		ldrb	r3, [r3, #12]	@ zero_extendqisi2
 3710 0042 03F00103 		and	r3, r3, #1
 3711 0046 DBB2     		uxtb	r3, r3
 3712 0048 002B     		cmp	r3, #0
 3713 004a 0FD0     		beq	.L158
1336:../Dave/Generated/src/USBLD001/driver/dwc_otg_pcd_intr.c **** 		ep->stopped = 0;
 3714              		.loc 2 1336 0
 3715 004c 3A68     		ldr	r2, [r7, #0]
 3716 004e 137B     		ldrb	r3, [r2, #12]
 3717 0050 6FF30003 		bfc	r3, #0, #1
 3718 0054 1373     		strb	r3, [r2, #12]
1337:../Dave/Generated/src/USBLD001/driver/dwc_otg_pcd_intr.c **** 		/* If there is a request in the EP queue start it */
1338:../Dave/Generated/src/USBLD001/driver/dwc_otg_pcd_intr.c **** 
1339:../Dave/Generated/src/USBLD001/driver/dwc_otg_pcd_intr.c **** 		/** @todo FIXME: this causes an EP mismatch in DMA mode.
1340:../Dave/Generated/src/USBLD001/driver/dwc_otg_pcd_intr.c **** 		 * epmismatch not yet implemented. */
1341:../Dave/Generated/src/USBLD001/driver/dwc_otg_pcd_intr.c **** 
1342:../Dave/Generated/src/USBLD001/driver/dwc_otg_pcd_intr.c **** 		/*
1343:../Dave/Generated/src/USBLD001/driver/dwc_otg_pcd_intr.c **** 		 * Above fixme is solved by implmenting a tasklet to call the
1344:../Dave/Generated/src/USBLD001/driver/dwc_otg_pcd_intr.c **** 		 * start_next_request(), outside of interrupt context at some
1345:../Dave/Generated/src/USBLD001/driver/dwc_otg_pcd_intr.c **** 		 * time after the current time, after a clear-halt setup packet.
1346:../Dave/Generated/src/USBLD001/driver/dwc_otg_pcd_intr.c **** 		 * Still need to implement ep mismatch in the future if a gadget
1347:../Dave/Generated/src/USBLD001/driver/dwc_otg_pcd_intr.c **** 		 * ever uses more than one endpoint at once
1348:../Dave/Generated/src/USBLD001/driver/dwc_otg_pcd_intr.c **** 		 */
1349:../Dave/Generated/src/USBLD001/driver/dwc_otg_pcd_intr.c **** 		ep->queue_sof = 1;
 3719              		.loc 2 1349 0
 3720 0056 3A68     		ldr	r2, [r7, #0]
 3721 0058 137B     		ldrb	r3, [r2, #12]
 3722 005a 43F00803 		orr	r3, r3, #8
 3723 005e 1373     		strb	r3, [r2, #12]
1350:../Dave/Generated/src/USBLD001/driver/dwc_otg_pcd_intr.c **** 		DWC_TASK_SCHEDULE(pcd->start_xfer_tasklet);
 3724              		.loc 2 1350 0
 3725 0060 7B68     		ldr	r3, [r7, #4]
 3726 0062 D3F82834 		ldr	r3, [r3, #1064]
 3727 0066 1846     		mov	r0, r3
 3728 0068 FFF7FEFF 		bl	DWC_TASK_SCHEDULE
 3729              	.L158:
1351:../Dave/Generated/src/USBLD001/driver/dwc_otg_pcd_intr.c **** 	}
1352:../Dave/Generated/src/USBLD001/driver/dwc_otg_pcd_intr.c **** 	/* Start Control Status Phase */
1353:../Dave/Generated/src/USBLD001/driver/dwc_otg_pcd_intr.c **** 	do_setup_in_status_phase(pcd);
 3730              		.loc 2 1353 0
 3731 006c 7868     		ldr	r0, [r7, #4]
 3732 006e FFF7FEFF 		bl	do_setup_in_status_phase
1354:../Dave/Generated/src/USBLD001/driver/dwc_otg_pcd_intr.c **** }
 3733              		.loc 2 1354 0
 3734 0072 07F10807 		add	r7, r7, #8
 3735 0076 BD46     		mov	sp, r7
 3736 0078 80BD     		pop	{r7, pc}
 3737              		.cfi_endproc
 3738              	.LFE45:
 3740 007a 00BF     		.section	.text.do_test_mode,"ax",%progbits
 3741              		.align	2
 3742              		.global	do_test_mode
 3743              		.thumb
 3744              		.thumb_func
 3746              	do_test_mode:
 3747              	.LFB46:
1355:../Dave/Generated/src/USBLD001/driver/dwc_otg_pcd_intr.c **** 
1356:../Dave/Generated/src/USBLD001/driver/dwc_otg_pcd_intr.c **** /**
1357:../Dave/Generated/src/USBLD001/driver/dwc_otg_pcd_intr.c ****  * This function is called when the SET_FEATURE TEST_MODE Setup packet
1358:../Dave/Generated/src/USBLD001/driver/dwc_otg_pcd_intr.c ****  * is sent from the host.  The Device Control register is written with
1359:../Dave/Generated/src/USBLD001/driver/dwc_otg_pcd_intr.c ****  * the Test Mode bits set to the specified Test Mode.  This is done as
1360:../Dave/Generated/src/USBLD001/driver/dwc_otg_pcd_intr.c ****  * a tasklet so that the "Status" phase of the control transfer
1361:../Dave/Generated/src/USBLD001/driver/dwc_otg_pcd_intr.c ****  * completes before transmitting the TEST packets.
1362:../Dave/Generated/src/USBLD001/driver/dwc_otg_pcd_intr.c ****  *
1363:../Dave/Generated/src/USBLD001/driver/dwc_otg_pcd_intr.c ****  * @todo This has not been tested since the tasklet struct was put
1364:../Dave/Generated/src/USBLD001/driver/dwc_otg_pcd_intr.c ****  * into the PCD struct!
1365:../Dave/Generated/src/USBLD001/driver/dwc_otg_pcd_intr.c ****  *
1366:../Dave/Generated/src/USBLD001/driver/dwc_otg_pcd_intr.c ****  */
1367:../Dave/Generated/src/USBLD001/driver/dwc_otg_pcd_intr.c **** void do_test_mode(void *data)
1368:../Dave/Generated/src/USBLD001/driver/dwc_otg_pcd_intr.c **** {
 3748              		.loc 2 1368 0
 3749              		.cfi_startproc
 3750              		@ args = 0, pretend = 0, frame = 24
 3751              		@ frame_needed = 1, uses_anonymous_args = 0
 3752 0000 80B5     		push	{r7, lr}
 3753              	.LCFI93:
 3754              		.cfi_def_cfa_offset 8
 3755              		.cfi_offset 7, -8
 3756              		.cfi_offset 14, -4
 3757 0002 86B0     		sub	sp, sp, #24
 3758              	.LCFI94:
 3759              		.cfi_def_cfa_offset 32
 3760 0004 00AF     		add	r7, sp, #0
 3761              	.LCFI95:
 3762              		.cfi_def_cfa_register 7
 3763 0006 7860     		str	r0, [r7, #4]
1369:../Dave/Generated/src/USBLD001/driver/dwc_otg_pcd_intr.c **** 	dctl_data_t dctl;
1370:../Dave/Generated/src/USBLD001/driver/dwc_otg_pcd_intr.c **** 	dwc_otg_pcd_t *pcd = (dwc_otg_pcd_t *) data;
 3764              		.loc 2 1370 0
 3765 0008 7B68     		ldr	r3, [r7, #4]
 3766 000a 7B61     		str	r3, [r7, #20]
1371:../Dave/Generated/src/USBLD001/driver/dwc_otg_pcd_intr.c **** 	dwc_otg_core_if_t *core_if = GET_CORE_IF(pcd);
 3767              		.loc 2 1371 0
 3768 000c 7B69     		ldr	r3, [r7, #20]
 3769 000e 9B68     		ldr	r3, [r3, #8]
 3770 0010 3B61     		str	r3, [r7, #16]
1372:../Dave/Generated/src/USBLD001/driver/dwc_otg_pcd_intr.c **** 	int test_mode = pcd->test_mode;
 3771              		.loc 2 1372 0
 3772 0012 7B69     		ldr	r3, [r7, #20]
 3773 0014 D3F82C34 		ldr	r3, [r3, #1068]
 3774 0018 FB60     		str	r3, [r7, #12]
1373:../Dave/Generated/src/USBLD001/driver/dwc_otg_pcd_intr.c **** 
1374:../Dave/Generated/src/USBLD001/driver/dwc_otg_pcd_intr.c **** //        DWC_WARN("%s() has not been tested since being rewritten!\n", __func__);
1375:../Dave/Generated/src/USBLD001/driver/dwc_otg_pcd_intr.c **** 
1376:../Dave/Generated/src/USBLD001/driver/dwc_otg_pcd_intr.c **** 	dctl.d32 = DWC_READ_REG32(&core_if->dev_if->dev_global_regs->dctl);
 3775              		.loc 2 1376 0
 3776 001a 3B69     		ldr	r3, [r7, #16]
 3777 001c 9B68     		ldr	r3, [r3, #8]
 3778 001e 1B68     		ldr	r3, [r3, #0]
 3779 0020 03F10403 		add	r3, r3, #4
 3780 0024 1846     		mov	r0, r3
 3781 0026 FFF7FEFF 		bl	DWC_READ_REG32
 3782 002a 0346     		mov	r3, r0
 3783 002c BB60     		str	r3, [r7, #8]
1377:../Dave/Generated/src/USBLD001/driver/dwc_otg_pcd_intr.c **** 	switch (test_mode) {
 3784              		.loc 2 1377 0
 3785 002e FB68     		ldr	r3, [r7, #12]
 3786 0030 03F1FF33 		add	r3, r3, #-1
 3787 0034 042B     		cmp	r3, #4
 3788 0036 30D8     		bhi	.L160
 3789 0038 01A2     		adr	r2, .L166
 3790 003a 52F823F0 		ldr	pc, [r2, r3, lsl #2]
 3791 003e 00BF     		.align	2
 3792              	.L166:
 3793 0040 55000000 		.word	.L161+1
 3794 0044 63000000 		.word	.L162+1
 3795 0048 71000000 		.word	.L163+1
 3796 004c 7F000000 		.word	.L164+1
 3797 0050 8D000000 		.word	.L165+1
 3798              	.L161:
1378:../Dave/Generated/src/USBLD001/driver/dwc_otg_pcd_intr.c **** 	case 1:		// TEST_J
1379:../Dave/Generated/src/USBLD001/driver/dwc_otg_pcd_intr.c **** 		dctl.b.tstctl = 1;
 3799              		.loc 2 1379 0
 3800 0054 BB68     		ldr	r3, [r7, #8]
 3801 0056 4FF00102 		mov	r2, #1
 3802 005a 62F30613 		bfi	r3, r2, #4, #3
 3803 005e BB60     		str	r3, [r7, #8]
1380:../Dave/Generated/src/USBLD001/driver/dwc_otg_pcd_intr.c **** 		break;
 3804              		.loc 2 1380 0
 3805 0060 1BE0     		b	.L160
 3806              	.L162:
1381:../Dave/Generated/src/USBLD001/driver/dwc_otg_pcd_intr.c **** 
1382:../Dave/Generated/src/USBLD001/driver/dwc_otg_pcd_intr.c **** 	case 2:		// TEST_K
1383:../Dave/Generated/src/USBLD001/driver/dwc_otg_pcd_intr.c **** 		dctl.b.tstctl = 2;
 3807              		.loc 2 1383 0
 3808 0062 BB68     		ldr	r3, [r7, #8]
 3809 0064 4FF00202 		mov	r2, #2
 3810 0068 62F30613 		bfi	r3, r2, #4, #3
 3811 006c BB60     		str	r3, [r7, #8]
1384:../Dave/Generated/src/USBLD001/driver/dwc_otg_pcd_intr.c **** 		break;
 3812              		.loc 2 1384 0
 3813 006e 14E0     		b	.L160
 3814              	.L163:
1385:../Dave/Generated/src/USBLD001/driver/dwc_otg_pcd_intr.c **** 
1386:../Dave/Generated/src/USBLD001/driver/dwc_otg_pcd_intr.c **** 	case 3:		// TEST_SE0_NAK
1387:../Dave/Generated/src/USBLD001/driver/dwc_otg_pcd_intr.c **** 		dctl.b.tstctl = 3;
 3815              		.loc 2 1387 0
 3816 0070 BB68     		ldr	r3, [r7, #8]
 3817 0072 4FF00302 		mov	r2, #3
 3818 0076 62F30613 		bfi	r3, r2, #4, #3
 3819 007a BB60     		str	r3, [r7, #8]
1388:../Dave/Generated/src/USBLD001/driver/dwc_otg_pcd_intr.c **** 		break;
 3820              		.loc 2 1388 0
 3821 007c 0DE0     		b	.L160
 3822              	.L164:
1389:../Dave/Generated/src/USBLD001/driver/dwc_otg_pcd_intr.c **** 
1390:../Dave/Generated/src/USBLD001/driver/dwc_otg_pcd_intr.c **** 	case 4:		// TEST_PACKET
1391:../Dave/Generated/src/USBLD001/driver/dwc_otg_pcd_intr.c **** 		dctl.b.tstctl = 4;
 3823              		.loc 2 1391 0
 3824 007e BB68     		ldr	r3, [r7, #8]
 3825 0080 4FF00402 		mov	r2, #4
 3826 0084 62F30613 		bfi	r3, r2, #4, #3
 3827 0088 BB60     		str	r3, [r7, #8]
1392:../Dave/Generated/src/USBLD001/driver/dwc_otg_pcd_intr.c **** 		break;
 3828              		.loc 2 1392 0
 3829 008a 06E0     		b	.L160
 3830              	.L165:
1393:../Dave/Generated/src/USBLD001/driver/dwc_otg_pcd_intr.c **** 
1394:../Dave/Generated/src/USBLD001/driver/dwc_otg_pcd_intr.c **** 	case 5:		// TEST_FORCE_ENABLE
1395:../Dave/Generated/src/USBLD001/driver/dwc_otg_pcd_intr.c **** 		dctl.b.tstctl = 5;
 3831              		.loc 2 1395 0
 3832 008c BB68     		ldr	r3, [r7, #8]
 3833 008e 4FF00502 		mov	r2, #5
 3834 0092 62F30613 		bfi	r3, r2, #4, #3
 3835 0096 BB60     		str	r3, [r7, #8]
1396:../Dave/Generated/src/USBLD001/driver/dwc_otg_pcd_intr.c **** 		break;
 3836              		.loc 2 1396 0
 3837 0098 00BF     		nop
 3838              	.L160:
1397:../Dave/Generated/src/USBLD001/driver/dwc_otg_pcd_intr.c **** 	}
1398:../Dave/Generated/src/USBLD001/driver/dwc_otg_pcd_intr.c **** 	DWC_WRITE_REG32(&core_if->dev_if->dev_global_regs->dctl, dctl.d32);
 3839              		.loc 2 1398 0
 3840 009a 3B69     		ldr	r3, [r7, #16]
 3841 009c 9B68     		ldr	r3, [r3, #8]
 3842 009e 1B68     		ldr	r3, [r3, #0]
 3843 00a0 03F10402 		add	r2, r3, #4
 3844 00a4 BB68     		ldr	r3, [r7, #8]
 3845 00a6 1046     		mov	r0, r2
 3846 00a8 1946     		mov	r1, r3
 3847 00aa FFF7FEFF 		bl	DWC_WRITE_REG32
1399:../Dave/Generated/src/USBLD001/driver/dwc_otg_pcd_intr.c **** }
 3848              		.loc 2 1399 0
 3849 00ae 07F11807 		add	r7, r7, #24
 3850 00b2 BD46     		mov	sp, r7
 3851 00b4 80BD     		pop	{r7, pc}
 3852              		.cfi_endproc
 3853              	.LFE46:
 3855 00b6 00BF     		.section	.text.do_get_status,"ax",%progbits
 3856              		.align	2
 3857              		.thumb
 3858              		.thumb_func
 3860              	do_get_status:
 3861              	.LFB47:
1400:../Dave/Generated/src/USBLD001/driver/dwc_otg_pcd_intr.c **** 
1401:../Dave/Generated/src/USBLD001/driver/dwc_otg_pcd_intr.c **** /**
1402:../Dave/Generated/src/USBLD001/driver/dwc_otg_pcd_intr.c ****  * This function process the GET_STATUS Setup Commands.
1403:../Dave/Generated/src/USBLD001/driver/dwc_otg_pcd_intr.c ****  */
1404:../Dave/Generated/src/USBLD001/driver/dwc_otg_pcd_intr.c **** static inline void do_get_status(dwc_otg_pcd_t * pcd)
1405:../Dave/Generated/src/USBLD001/driver/dwc_otg_pcd_intr.c **** {
 3862              		.loc 2 1405 0
 3863              		.cfi_startproc
 3864              		@ args = 0, pretend = 0, frame = 32
 3865              		@ frame_needed = 1, uses_anonymous_args = 0
 3866 0000 80B5     		push	{r7, lr}
 3867              	.LCFI96:
 3868              		.cfi_def_cfa_offset 8
 3869              		.cfi_offset 7, -8
 3870              		.cfi_offset 14, -4
 3871 0002 88B0     		sub	sp, sp, #32
 3872              	.LCFI97:
 3873              		.cfi_def_cfa_offset 40
 3874 0004 00AF     		add	r7, sp, #0
 3875              	.LCFI98:
 3876              		.cfi_def_cfa_register 7
 3877 0006 7860     		str	r0, [r7, #4]
1406:../Dave/Generated/src/USBLD001/driver/dwc_otg_pcd_intr.c **** 	usb_device_request_t ctrl = pcd->setup_pkt->req;
 3878              		.loc 2 1406 0
 3879 0008 7B68     		ldr	r3, [r7, #4]
 3880 000a 5A69     		ldr	r2, [r3, #20]
 3881 000c 07F10C03 		add	r3, r7, #12
 3882 0010 92E80300 		ldmia	r2, {r0, r1}
 3883 0014 83E80300 		stmia	r3, {r0, r1}
1407:../Dave/Generated/src/USBLD001/driver/dwc_otg_pcd_intr.c **** 	dwc_otg_pcd_ep_t *ep;
1408:../Dave/Generated/src/USBLD001/driver/dwc_otg_pcd_intr.c **** 	dwc_otg_pcd_ep_t *ep0 = &pcd->ep0;
 3884              		.loc 2 1408 0
 3885 0018 7B68     		ldr	r3, [r7, #4]
 3886 001a 03F12403 		add	r3, r3, #36
 3887 001e FB61     		str	r3, [r7, #28]
1409:../Dave/Generated/src/USBLD001/driver/dwc_otg_pcd_intr.c **** 	uint16_t *status = pcd->status_buf;
 3888              		.loc 2 1409 0
 3889 0020 7B68     		ldr	r3, [r7, #4]
 3890 0022 DB69     		ldr	r3, [r3, #28]
 3891 0024 BB61     		str	r3, [r7, #24]
1410:../Dave/Generated/src/USBLD001/driver/dwc_otg_pcd_intr.c **** 
1411:../Dave/Generated/src/USBLD001/driver/dwc_otg_pcd_intr.c **** #ifdef DEBUG_EP0
1412:../Dave/Generated/src/USBLD001/driver/dwc_otg_pcd_intr.c **** 	DWC_DEBUGPL(DBG_PCD,
1413:../Dave/Generated/src/USBLD001/driver/dwc_otg_pcd_intr.c **** 		    "GET_STATUS %02x.%02x v%04x i%04x l%04x\n",
1414:../Dave/Generated/src/USBLD001/driver/dwc_otg_pcd_intr.c **** 		    ctrl.bmRequestType, ctrl.bRequest,
1415:../Dave/Generated/src/USBLD001/driver/dwc_otg_pcd_intr.c **** 		    UGETW(ctrl.wValue), UGETW(ctrl.wIndex),
1416:../Dave/Generated/src/USBLD001/driver/dwc_otg_pcd_intr.c **** 		    UGETW(ctrl.wLength));
1417:../Dave/Generated/src/USBLD001/driver/dwc_otg_pcd_intr.c **** #endif
1418:../Dave/Generated/src/USBLD001/driver/dwc_otg_pcd_intr.c **** 
1419:../Dave/Generated/src/USBLD001/driver/dwc_otg_pcd_intr.c **** 	switch (UT_GET_RECIPIENT(ctrl.bmRequestType)) {
 3892              		.loc 2 1419 0
 3893 0026 3B7B     		ldrb	r3, [r7, #12]	@ zero_extendqisi2
 3894 0028 03F01F03 		and	r3, r3, #31
 3895 002c 012B     		cmp	r3, #1
 3896 002e 18D0     		beq	.L170
 3897 0030 022B     		cmp	r3, #2
 3898 0032 1BD0     		beq	.L171
 3899 0034 002B     		cmp	r3, #0
 3900 0036 40D1     		bne	.L168
 3901              	.L169:
1420:../Dave/Generated/src/USBLD001/driver/dwc_otg_pcd_intr.c **** 	case UT_DEVICE:
1421:../Dave/Generated/src/USBLD001/driver/dwc_otg_pcd_intr.c **** 		*status = 0x1;	/* Self powered */
 3902              		.loc 2 1421 0
 3903 0038 BB69     		ldr	r3, [r7, #24]
 3904 003a 4FF00102 		mov	r2, #1
 3905 003e 1A80     		strh	r2, [r3, #0]	@ movhi
1422:../Dave/Generated/src/USBLD001/driver/dwc_otg_pcd_intr.c **** 		*status |= pcd->remote_wakeup_enable << 1;
 3906              		.loc 2 1422 0
 3907 0040 BB69     		ldr	r3, [r7, #24]
 3908 0042 1B88     		ldrh	r3, [r3, #0]
 3909 0044 9AB2     		uxth	r2, r3
 3910 0046 7B68     		ldr	r3, [r7, #4]
 3911 0048 5B7B     		ldrb	r3, [r3, #13]
 3912 004a C3F38003 		ubfx	r3, r3, #2, #1
 3913 004e DBB2     		uxtb	r3, r3
 3914 0050 4FEA4303 		lsl	r3, r3, #1
 3915 0054 9BB2     		uxth	r3, r3
 3916 0056 1343     		orrs	r3, r3, r2
 3917 0058 9BB2     		uxth	r3, r3
 3918 005a 9AB2     		uxth	r2, r3
 3919 005c BB69     		ldr	r3, [r7, #24]
 3920 005e 1A80     		strh	r2, [r3, #0]	@ movhi
1423:../Dave/Generated/src/USBLD001/driver/dwc_otg_pcd_intr.c **** 		break;
 3921              		.loc 2 1423 0
 3922 0060 2BE0     		b	.L168
 3923              	.L170:
1424:../Dave/Generated/src/USBLD001/driver/dwc_otg_pcd_intr.c **** 
1425:../Dave/Generated/src/USBLD001/driver/dwc_otg_pcd_intr.c **** 	case UT_INTERFACE:
1426:../Dave/Generated/src/USBLD001/driver/dwc_otg_pcd_intr.c **** 		*status = 0;
 3924              		.loc 2 1426 0
 3925 0062 BB69     		ldr	r3, [r7, #24]
 3926 0064 4FF00002 		mov	r2, #0
 3927 0068 1A80     		strh	r2, [r3, #0]	@ movhi
1427:../Dave/Generated/src/USBLD001/driver/dwc_otg_pcd_intr.c **** 		break;
 3928              		.loc 2 1427 0
 3929 006a 26E0     		b	.L168
 3930              	.L171:
1428:../Dave/Generated/src/USBLD001/driver/dwc_otg_pcd_intr.c **** 
1429:../Dave/Generated/src/USBLD001/driver/dwc_otg_pcd_intr.c **** 	case UT_ENDPOINT:
1430:../Dave/Generated/src/USBLD001/driver/dwc_otg_pcd_intr.c **** 		ep = get_ep_by_addr(pcd, UGETW(ctrl.wIndex));
 3931              		.loc 2 1430 0
 3932 006c 3B7C     		ldrb	r3, [r7, #16]	@ zero_extendqisi2
 3933 006e 1A46     		mov	r2, r3
 3934 0070 7B7C     		ldrb	r3, [r7, #17]	@ zero_extendqisi2
 3935 0072 4FEA0323 		lsl	r3, r3, #8
 3936 0076 1343     		orrs	r3, r3, r2
 3937 0078 7868     		ldr	r0, [r7, #4]
 3938 007a 1946     		mov	r1, r3
 3939 007c FFF7FEFF 		bl	get_ep_by_addr
 3940 0080 7861     		str	r0, [r7, #20]
1431:../Dave/Generated/src/USBLD001/driver/dwc_otg_pcd_intr.c **** 		if (ep == 0 || UGETW(ctrl.wLength) > 2) {
 3941              		.loc 2 1431 0
 3942 0082 7B69     		ldr	r3, [r7, #20]
 3943 0084 002B     		cmp	r3, #0
 3944 0086 07D0     		beq	.L172
 3945              		.loc 2 1431 0 is_stmt 0 discriminator 1
 3946 0088 BB7C     		ldrb	r3, [r7, #18]	@ zero_extendqisi2
 3947 008a 1A46     		mov	r2, r3
 3948 008c FB7C     		ldrb	r3, [r7, #19]	@ zero_extendqisi2
 3949 008e 4FEA0323 		lsl	r3, r3, #8
 3950 0092 1343     		orrs	r3, r3, r2
 3951 0094 022B     		cmp	r3, #2
 3952 0096 07DD     		ble	.L173
 3953              	.L172:
1432:../Dave/Generated/src/USBLD001/driver/dwc_otg_pcd_intr.c **** 			ep0_do_stall(pcd, -DWC_E_NOT_SUPPORTED);
 3954              		.loc 2 1432 0 is_stmt 1
 3955 0098 7868     		ldr	r0, [r7, #4]
 3956 009a 4FF61441 		movw	r1, #64532
 3957 009e CFF6FF71 		movt	r1, 65535
 3958 00a2 FFF7FEFF 		bl	ep0_do_stall
 3959 00a6 46E0     		b	.L167
 3960              	.L173:
1433:../Dave/Generated/src/USBLD001/driver/dwc_otg_pcd_intr.c **** 			return;
1434:../Dave/Generated/src/USBLD001/driver/dwc_otg_pcd_intr.c **** 		}
1435:../Dave/Generated/src/USBLD001/driver/dwc_otg_pcd_intr.c **** 		/** @todo check for EP stall */
1436:../Dave/Generated/src/USBLD001/driver/dwc_otg_pcd_intr.c **** 		*status = ep->stopped;
 3961              		.loc 2 1436 0
 3962 00a8 7B69     		ldr	r3, [r7, #20]
 3963 00aa 1B7B     		ldrb	r3, [r3, #12]
 3964 00ac C3F30003 		ubfx	r3, r3, #0, #1
 3965 00b0 DBB2     		uxtb	r3, r3
 3966 00b2 1A46     		mov	r2, r3
 3967 00b4 BB69     		ldr	r3, [r7, #24]
 3968 00b6 1A80     		strh	r2, [r3, #0]	@ movhi
1437:../Dave/Generated/src/USBLD001/driver/dwc_otg_pcd_intr.c **** 		break;
 3969              		.loc 2 1437 0
 3970 00b8 00BF     		nop
 3971              	.L168:
1438:../Dave/Generated/src/USBLD001/driver/dwc_otg_pcd_intr.c **** 	}
1439:../Dave/Generated/src/USBLD001/driver/dwc_otg_pcd_intr.c **** 	pcd->ep0_pending = 1;
 3972              		.loc 2 1439 0
 3973 00ba 7A68     		ldr	r2, [r7, #4]
 3974 00bc 537B     		ldrb	r3, [r2, #13]
 3975 00be 43F00103 		orr	r3, r3, #1
 3976 00c2 5373     		strb	r3, [r2, #13]
1440:../Dave/Generated/src/USBLD001/driver/dwc_otg_pcd_intr.c **** 	ep0->dwc_ep.start_xfer_buff = (uint8_t *) status;
 3977              		.loc 2 1440 0
 3978 00c4 FB69     		ldr	r3, [r7, #28]
 3979 00c6 BA69     		ldr	r2, [r7, #24]
 3980 00c8 5A62     		str	r2, [r3, #36]
1441:../Dave/Generated/src/USBLD001/driver/dwc_otg_pcd_intr.c **** 	ep0->dwc_ep.xfer_buff = (uint8_t *) status;
 3981              		.loc 2 1441 0
 3982 00ca FB69     		ldr	r3, [r7, #28]
 3983 00cc BA69     		ldr	r2, [r7, #24]
 3984 00ce 9A62     		str	r2, [r3, #40]
1442:../Dave/Generated/src/USBLD001/driver/dwc_otg_pcd_intr.c **** 	ep0->dwc_ep.dma_addr = pcd->status_buf_dma_handle;
 3985              		.loc 2 1442 0
 3986 00d0 7B68     		ldr	r3, [r7, #4]
 3987 00d2 1A6A     		ldr	r2, [r3, #32]
 3988 00d4 FB69     		ldr	r3, [r7, #28]
 3989 00d6 9A61     		str	r2, [r3, #24]
1443:../Dave/Generated/src/USBLD001/driver/dwc_otg_pcd_intr.c **** 	ep0->dwc_ep.xfer_len = 2;
 3990              		.loc 2 1443 0
 3991 00d8 FA69     		ldr	r2, [r7, #28]
 3992 00da D36A     		ldr	r3, [r2, #44]
 3993 00dc 4FF00201 		mov	r1, #2
 3994 00e0 61F31203 		bfi	r3, r1, #0, #19
 3995 00e4 D362     		str	r3, [r2, #44]
1444:../Dave/Generated/src/USBLD001/driver/dwc_otg_pcd_intr.c **** 	ep0->dwc_ep.xfer_count = 0;
 3996              		.loc 2 1444 0
 3997 00e6 FA69     		ldr	r2, [r7, #28]
 3998 00e8 136B     		ldr	r3, [r2, #48]
 3999 00ea 6FF31203 		bfc	r3, #0, #19
 4000 00ee 1363     		str	r3, [r2, #48]
1445:../Dave/Generated/src/USBLD001/driver/dwc_otg_pcd_intr.c **** 	ep0->dwc_ep.total_len = ep0->dwc_ep.xfer_len;
 4001              		.loc 2 1445 0
 4002 00f0 FB69     		ldr	r3, [r7, #28]
 4003 00f2 DB6A     		ldr	r3, [r3, #44]
 4004 00f4 C3F31201 		ubfx	r1, r3, #0, #19
 4005 00f8 FB69     		ldr	r3, [r7, #28]
 4006 00fa 4FEA0142 		lsl	r2, r1, #16
 4007 00fe 4FEA1242 		lsr	r2, r2, #16
 4008 0102 4FF00000 		mov	r0, #0
 4009 0106 0243     		orrs	r2, r2, r0
 4010 0108 9A86     		strh	r2, [r3, #52]	@ movhi
 4011 010a 4FEA1142 		lsr	r2, r1, #16
 4012 010e 02F00702 		and	r2, r2, #7
 4013 0112 02F00702 		and	r2, r2, #7
 4014 0116 93F83610 		ldrb	r1, [r3, #54]
 4015 011a 21F00701 		bic	r1, r1, #7
 4016 011e 0A43     		orrs	r2, r2, r1
 4017 0120 83F83620 		strb	r2, [r3, #54]
1446:../Dave/Generated/src/USBLD001/driver/dwc_otg_pcd_intr.c **** 	dwc_otg_ep0_start_transfer(GET_CORE_IF(pcd), &ep0->dwc_ep);
 4018              		.loc 2 1446 0
 4019 0124 7B68     		ldr	r3, [r7, #4]
 4020 0126 9A68     		ldr	r2, [r3, #8]
 4021 0128 FB69     		ldr	r3, [r7, #28]
 4022 012a 03F11003 		add	r3, r3, #16
 4023 012e 1046     		mov	r0, r2
 4024 0130 1946     		mov	r1, r3
 4025 0132 FFF7FEFF 		bl	dwc_otg_ep0_start_transfer
 4026              	.L167:
1447:../Dave/Generated/src/USBLD001/driver/dwc_otg_pcd_intr.c **** }
 4027              		.loc 2 1447 0
 4028 0136 07F12007 		add	r7, r7, #32
 4029 013a BD46     		mov	sp, r7
 4030 013c 80BD     		pop	{r7, pc}
 4031              		.cfi_endproc
 4032              	.LFE47:
 4034 013e 00BF     		.section	.text.do_set_feature,"ax",%progbits
 4035              		.align	2
 4036              		.thumb
 4037              		.thumb_func
 4039              	do_set_feature:
 4040              	.LFB48:
1448:../Dave/Generated/src/USBLD001/driver/dwc_otg_pcd_intr.c **** 
1449:../Dave/Generated/src/USBLD001/driver/dwc_otg_pcd_intr.c **** /**
1450:../Dave/Generated/src/USBLD001/driver/dwc_otg_pcd_intr.c ****  * This function process the SET_FEATURE Setup Commands.
1451:../Dave/Generated/src/USBLD001/driver/dwc_otg_pcd_intr.c ****  */
1452:../Dave/Generated/src/USBLD001/driver/dwc_otg_pcd_intr.c **** static inline void do_set_feature(dwc_otg_pcd_t * pcd)
1453:../Dave/Generated/src/USBLD001/driver/dwc_otg_pcd_intr.c **** {
 4041              		.loc 2 1453 0
 4042              		.cfi_startproc
 4043              		@ args = 0, pretend = 0, frame = 40
 4044              		@ frame_needed = 1, uses_anonymous_args = 0
 4045 0000 80B5     		push	{r7, lr}
 4046              	.LCFI99:
 4047              		.cfi_def_cfa_offset 8
 4048              		.cfi_offset 7, -8
 4049              		.cfi_offset 14, -4
 4050 0002 8AB0     		sub	sp, sp, #40
 4051              	.LCFI100:
 4052              		.cfi_def_cfa_offset 48
 4053 0004 00AF     		add	r7, sp, #0
 4054              	.LCFI101:
 4055              		.cfi_def_cfa_register 7
 4056 0006 7860     		str	r0, [r7, #4]
1454:../Dave/Generated/src/USBLD001/driver/dwc_otg_pcd_intr.c **** 	dwc_otg_core_if_t *core_if = GET_CORE_IF(pcd);
 4057              		.loc 2 1454 0
 4058 0008 7B68     		ldr	r3, [r7, #4]
 4059 000a 9B68     		ldr	r3, [r3, #8]
 4060 000c 7B62     		str	r3, [r7, #36]
1455:../Dave/Generated/src/USBLD001/driver/dwc_otg_pcd_intr.c **** 	dwc_otg_core_global_regs_t *global_regs = core_if->core_global_regs;
 4061              		.loc 2 1455 0
 4062 000e 7B6A     		ldr	r3, [r7, #36]
 4063 0010 5B68     		ldr	r3, [r3, #4]
 4064 0012 3B62     		str	r3, [r7, #32]
1456:../Dave/Generated/src/USBLD001/driver/dwc_otg_pcd_intr.c **** 	usb_device_request_t ctrl = pcd->setup_pkt->req;
 4065              		.loc 2 1456 0
 4066 0014 7B68     		ldr	r3, [r7, #4]
 4067 0016 5A69     		ldr	r2, [r3, #20]
 4068 0018 07F11003 		add	r3, r7, #16
 4069 001c 92E80300 		ldmia	r2, {r0, r1}
 4070 0020 83E80300 		stmia	r3, {r0, r1}
1457:../Dave/Generated/src/USBLD001/driver/dwc_otg_pcd_intr.c **** 	dwc_otg_pcd_ep_t *ep = 0;
 4071              		.loc 2 1457 0
 4072 0024 4FF00003 		mov	r3, #0
 4073 0028 FB61     		str	r3, [r7, #28]
1458:../Dave/Generated/src/USBLD001/driver/dwc_otg_pcd_intr.c **** 	int32_t otg_cap_param = core_if->core_params->otg_cap;
 4074              		.loc 2 1458 0
 4075 002a 7B6A     		ldr	r3, [r7, #36]
 4076 002c 1B68     		ldr	r3, [r3, #0]
 4077 002e 5B68     		ldr	r3, [r3, #4]
 4078 0030 BB61     		str	r3, [r7, #24]
1459:../Dave/Generated/src/USBLD001/driver/dwc_otg_pcd_intr.c **** 	gotgctl_data_t gotgctl = {.d32 = 0 };
 4079              		.loc 2 1459 0
 4080 0032 4FF00003 		mov	r3, #0
 4081 0036 FB60     		str	r3, [r7, #12]
1460:../Dave/Generated/src/USBLD001/driver/dwc_otg_pcd_intr.c **** 
1461:../Dave/Generated/src/USBLD001/driver/dwc_otg_pcd_intr.c **** 	DWC_DEBUGPL(DBG_PCD, "SET_FEATURE:%02x.%02x v%04x i%04x l%04x\n",
1462:../Dave/Generated/src/USBLD001/driver/dwc_otg_pcd_intr.c **** 		    ctrl.bmRequestType, ctrl.bRequest,
1463:../Dave/Generated/src/USBLD001/driver/dwc_otg_pcd_intr.c **** 		    UGETW(ctrl.wValue), UGETW(ctrl.wIndex),
1464:../Dave/Generated/src/USBLD001/driver/dwc_otg_pcd_intr.c **** 		    UGETW(ctrl.wLength));
1465:../Dave/Generated/src/USBLD001/driver/dwc_otg_pcd_intr.c **** 	DWC_DEBUGPL(DBG_PCD, "otg_cap=%d\n", otg_cap_param);
1466:../Dave/Generated/src/USBLD001/driver/dwc_otg_pcd_intr.c **** 
1467:../Dave/Generated/src/USBLD001/driver/dwc_otg_pcd_intr.c **** 	switch (UT_GET_RECIPIENT(ctrl.bmRequestType)) {
 4082              		.loc 2 1467 0
 4083 0038 3B7C     		ldrb	r3, [r7, #16]	@ zero_extendqisi2
 4084 003a 03F01F03 		and	r3, r3, #31
 4085 003e 012B     		cmp	r3, #1
 4086 0040 00F09380 		beq	.L178
 4087 0044 022B     		cmp	r3, #2
 4088 0046 00F09780 		beq	.L179
 4089 004a 002B     		cmp	r3, #0
 4090 004c 40F0C280 		bne	.L175
 4091              	.L177:
1468:../Dave/Generated/src/USBLD001/driver/dwc_otg_pcd_intr.c **** 	case UT_DEVICE:
1469:../Dave/Generated/src/USBLD001/driver/dwc_otg_pcd_intr.c **** 		switch (UGETW(ctrl.wValue)) {
 4092              		.loc 2 1469 0
 4093 0050 BB7C     		ldrb	r3, [r7, #18]	@ zero_extendqisi2
 4094 0052 1A46     		mov	r2, r3
 4095 0054 FB7C     		ldrb	r3, [r7, #19]	@ zero_extendqisi2
 4096 0056 4FEA0323 		lsl	r3, r3, #8
 4097 005a 1343     		orrs	r3, r3, r2
 4098 005c 03F1FF33 		add	r3, r3, #-1
 4099 0060 042B     		cmp	r3, #4
 4100 0062 76D8     		bhi	.L180
 4101 0064 01A2     		adr	r2, .L186
 4102 0066 52F823F0 		ldr	pc, [r2, r3, lsl #2]
 4103 006a 00BF     		.align	2
 4104              	.L186:
 4105 006c 81000000 		.word	.L181+1
 4106 0070 8D000000 		.word	.L182+1
 4107 0074 B3000000 		.word	.L183+1
 4108 0078 FB000000 		.word	.L184+1
 4109 007c 27010000 		.word	.L185+1
 4110              	.L181:
1470:../Dave/Generated/src/USBLD001/driver/dwc_otg_pcd_intr.c **** 		case UF_DEVICE_REMOTE_WAKEUP:
1471:../Dave/Generated/src/USBLD001/driver/dwc_otg_pcd_intr.c **** 			pcd->remote_wakeup_enable = 1;
 4111              		.loc 2 1471 0
 4112 0080 7A68     		ldr	r2, [r7, #4]
 4113 0082 537B     		ldrb	r3, [r2, #13]
 4114 0084 43F00403 		orr	r3, r3, #4
 4115 0088 5373     		strb	r3, [r2, #13]
1472:../Dave/Generated/src/USBLD001/driver/dwc_otg_pcd_intr.c **** 			break;
 4116              		.loc 2 1472 0
 4117 008a 6AE0     		b	.L187
 4118              	.L182:
1473:../Dave/Generated/src/USBLD001/driver/dwc_otg_pcd_intr.c **** 
1474:../Dave/Generated/src/USBLD001/driver/dwc_otg_pcd_intr.c **** 		case UF_TEST_MODE:
1475:../Dave/Generated/src/USBLD001/driver/dwc_otg_pcd_intr.c **** 			/* Setup the Test Mode tasklet to do the Test
1476:../Dave/Generated/src/USBLD001/driver/dwc_otg_pcd_intr.c **** 			 * Packet generation after the SETUP Status
1477:../Dave/Generated/src/USBLD001/driver/dwc_otg_pcd_intr.c **** 			 * phase has completed. */
1478:../Dave/Generated/src/USBLD001/driver/dwc_otg_pcd_intr.c **** 
1479:../Dave/Generated/src/USBLD001/driver/dwc_otg_pcd_intr.c **** 			/** @todo This has not been tested since the
1480:../Dave/Generated/src/USBLD001/driver/dwc_otg_pcd_intr.c **** 			 * tasklet struct was put into the PCD
1481:../Dave/Generated/src/USBLD001/driver/dwc_otg_pcd_intr.c **** 			 * struct! */
1482:../Dave/Generated/src/USBLD001/driver/dwc_otg_pcd_intr.c **** 			pcd->test_mode = UGETW(ctrl.wIndex) >> 8;
 4119              		.loc 2 1482 0
 4120 008c 3B7D     		ldrb	r3, [r7, #20]	@ zero_extendqisi2
 4121 008e 1A46     		mov	r2, r3
 4122 0090 7B7D     		ldrb	r3, [r7, #21]	@ zero_extendqisi2
 4123 0092 4FEA0323 		lsl	r3, r3, #8
 4124 0096 1343     		orrs	r3, r3, r2
 4125 0098 4FEA2323 		asr	r3, r3, #8
 4126 009c 1A46     		mov	r2, r3
 4127 009e 7B68     		ldr	r3, [r7, #4]
 4128 00a0 C3F82C24 		str	r2, [r3, #1068]
1483:../Dave/Generated/src/USBLD001/driver/dwc_otg_pcd_intr.c **** 			DWC_TASK_SCHEDULE(pcd->test_mode_tasklet);
 4129              		.loc 2 1483 0
 4130 00a4 7B68     		ldr	r3, [r7, #4]
 4131 00a6 D3F82434 		ldr	r3, [r3, #1060]
 4132 00aa 1846     		mov	r0, r3
 4133 00ac FFF7FEFF 		bl	DWC_TASK_SCHEDULE
1484:../Dave/Generated/src/USBLD001/driver/dwc_otg_pcd_intr.c **** 			break;
 4134              		.loc 2 1484 0
 4135 00b0 57E0     		b	.L187
 4136              	.L183:
1485:../Dave/Generated/src/USBLD001/driver/dwc_otg_pcd_intr.c **** 
1486:../Dave/Generated/src/USBLD001/driver/dwc_otg_pcd_intr.c **** 		case UF_DEVICE_B_HNP_ENABLE:
1487:../Dave/Generated/src/USBLD001/driver/dwc_otg_pcd_intr.c **** 			DWC_DEBUGPL(DBG_PCDV,
1488:../Dave/Generated/src/USBLD001/driver/dwc_otg_pcd_intr.c **** 				    "SET_FEATURE: USB_DEVICE_B_HNP_ENABLE\n");
1489:../Dave/Generated/src/USBLD001/driver/dwc_otg_pcd_intr.c **** 
1490:../Dave/Generated/src/USBLD001/driver/dwc_otg_pcd_intr.c **** 			/* dev may initiate HNP */
1491:../Dave/Generated/src/USBLD001/driver/dwc_otg_pcd_intr.c **** 			if (otg_cap_param == DWC_OTG_CAP_PARAM_HNP_SRP_CAPABLE) {
 4137              		.loc 2 1491 0
 4138 00b2 BB69     		ldr	r3, [r7, #24]
 4139 00b4 002B     		cmp	r3, #0
 4140 00b6 18D1     		bne	.L188
1492:../Dave/Generated/src/USBLD001/driver/dwc_otg_pcd_intr.c **** 				pcd->b_hnp_enable = 1;
 4141              		.loc 2 1492 0
 4142 00b8 7A68     		ldr	r2, [r7, #4]
 4143 00ba 537B     		ldrb	r3, [r2, #13]
 4144 00bc 43F00803 		orr	r3, r3, #8
 4145 00c0 5373     		strb	r3, [r2, #13]
1493:../Dave/Generated/src/USBLD001/driver/dwc_otg_pcd_intr.c **** 				dwc_otg_pcd_update_otg(pcd, 0);
 4146              		.loc 2 1493 0
 4147 00c2 7868     		ldr	r0, [r7, #4]
 4148 00c4 4FF00001 		mov	r1, #0
 4149 00c8 FFF7FEFF 		bl	dwc_otg_pcd_update_otg
1494:../Dave/Generated/src/USBLD001/driver/dwc_otg_pcd_intr.c **** 				DWC_DEBUGPL(DBG_PCD, "Request B HNP\n");
1495:../Dave/Generated/src/USBLD001/driver/dwc_otg_pcd_intr.c **** 				/**@todo Is the gotgctl.devhnpen cleared
1496:../Dave/Generated/src/USBLD001/driver/dwc_otg_pcd_intr.c **** 				 * by a USB Reset? */
1497:../Dave/Generated/src/USBLD001/driver/dwc_otg_pcd_intr.c **** 				gotgctl.b.devhnpen = 1;
 4150              		.loc 2 1497 0
 4151 00cc FB68     		ldr	r3, [r7, #12]
 4152 00ce 43F40063 		orr	r3, r3, #2048
 4153 00d2 FB60     		str	r3, [r7, #12]
1498:../Dave/Generated/src/USBLD001/driver/dwc_otg_pcd_intr.c **** 				gotgctl.b.hnpreq = 1;
 4154              		.loc 2 1498 0
 4155 00d4 FB68     		ldr	r3, [r7, #12]
 4156 00d6 43F40073 		orr	r3, r3, #512
 4157 00da FB60     		str	r3, [r7, #12]
1499:../Dave/Generated/src/USBLD001/driver/dwc_otg_pcd_intr.c **** 				DWC_WRITE_REG32(&global_regs->gotgctl,
 4158              		.loc 2 1499 0
 4159 00dc 3A6A     		ldr	r2, [r7, #32]
 4160 00de FB68     		ldr	r3, [r7, #12]
 4161 00e0 1046     		mov	r0, r2
 4162 00e2 1946     		mov	r1, r3
 4163 00e4 FFF7FEFF 		bl	DWC_WRITE_REG32
1500:../Dave/Generated/src/USBLD001/driver/dwc_otg_pcd_intr.c **** 						gotgctl.d32);
1501:../Dave/Generated/src/USBLD001/driver/dwc_otg_pcd_intr.c **** 			} else {
1502:../Dave/Generated/src/USBLD001/driver/dwc_otg_pcd_intr.c **** 				ep0_do_stall(pcd, -DWC_E_NOT_SUPPORTED);
1503:../Dave/Generated/src/USBLD001/driver/dwc_otg_pcd_intr.c **** 				return;
1504:../Dave/Generated/src/USBLD001/driver/dwc_otg_pcd_intr.c **** 			}
1505:../Dave/Generated/src/USBLD001/driver/dwc_otg_pcd_intr.c **** 			break;
 4164              		.loc 2 1505 0
 4165 00e8 3BE0     		b	.L187
 4166              	.L188:
1502:../Dave/Generated/src/USBLD001/driver/dwc_otg_pcd_intr.c **** 				ep0_do_stall(pcd, -DWC_E_NOT_SUPPORTED);
 4167              		.loc 2 1502 0
 4168 00ea 7868     		ldr	r0, [r7, #4]
 4169 00ec 4FF61441 		movw	r1, #64532
 4170 00f0 CFF6FF71 		movt	r1, 65535
 4171 00f4 FFF7FEFF 		bl	ep0_do_stall
 4172 00f8 6CE0     		b	.L175
 4173              	.L184:
1506:../Dave/Generated/src/USBLD001/driver/dwc_otg_pcd_intr.c **** 
1507:../Dave/Generated/src/USBLD001/driver/dwc_otg_pcd_intr.c **** 		case UF_DEVICE_A_HNP_SUPPORT:
1508:../Dave/Generated/src/USBLD001/driver/dwc_otg_pcd_intr.c **** 			/* RH port supports HNP */
1509:../Dave/Generated/src/USBLD001/driver/dwc_otg_pcd_intr.c **** 			DWC_DEBUGPL(DBG_PCDV,
1510:../Dave/Generated/src/USBLD001/driver/dwc_otg_pcd_intr.c **** 				    "SET_FEATURE: USB_DEVICE_A_HNP_SUPPORT\n");
1511:../Dave/Generated/src/USBLD001/driver/dwc_otg_pcd_intr.c **** 			if (otg_cap_param == DWC_OTG_CAP_PARAM_HNP_SRP_CAPABLE) {
 4174              		.loc 2 1511 0
 4175 00fa BB69     		ldr	r3, [r7, #24]
 4176 00fc 002B     		cmp	r3, #0
 4177 00fe 0AD1     		bne	.L190
1512:../Dave/Generated/src/USBLD001/driver/dwc_otg_pcd_intr.c **** 				pcd->a_hnp_support = 1;
 4178              		.loc 2 1512 0
 4179 0100 7A68     		ldr	r2, [r7, #4]
 4180 0102 537B     		ldrb	r3, [r2, #13]
 4181 0104 43F01003 		orr	r3, r3, #16
 4182 0108 5373     		strb	r3, [r2, #13]
1513:../Dave/Generated/src/USBLD001/driver/dwc_otg_pcd_intr.c **** 				dwc_otg_pcd_update_otg(pcd, 0);
 4183              		.loc 2 1513 0
 4184 010a 7868     		ldr	r0, [r7, #4]
 4185 010c 4FF00001 		mov	r1, #0
 4186 0110 FFF7FEFF 		bl	dwc_otg_pcd_update_otg
1514:../Dave/Generated/src/USBLD001/driver/dwc_otg_pcd_intr.c **** 			} else {
1515:../Dave/Generated/src/USBLD001/driver/dwc_otg_pcd_intr.c **** 				ep0_do_stall(pcd, -DWC_E_NOT_SUPPORTED);
1516:../Dave/Generated/src/USBLD001/driver/dwc_otg_pcd_intr.c **** 				return;
1517:../Dave/Generated/src/USBLD001/driver/dwc_otg_pcd_intr.c **** 			}
1518:../Dave/Generated/src/USBLD001/driver/dwc_otg_pcd_intr.c **** 			break;
 4187              		.loc 2 1518 0
 4188 0114 25E0     		b	.L187
 4189              	.L190:
1515:../Dave/Generated/src/USBLD001/driver/dwc_otg_pcd_intr.c **** 				ep0_do_stall(pcd, -DWC_E_NOT_SUPPORTED);
 4190              		.loc 2 1515 0
 4191 0116 7868     		ldr	r0, [r7, #4]
 4192 0118 4FF61441 		movw	r1, #64532
 4193 011c CFF6FF71 		movt	r1, 65535
 4194 0120 FFF7FEFF 		bl	ep0_do_stall
 4195 0124 56E0     		b	.L175
 4196              	.L185:
1519:../Dave/Generated/src/USBLD001/driver/dwc_otg_pcd_intr.c **** 
1520:../Dave/Generated/src/USBLD001/driver/dwc_otg_pcd_intr.c **** 		case UF_DEVICE_A_ALT_HNP_SUPPORT:
1521:../Dave/Generated/src/USBLD001/driver/dwc_otg_pcd_intr.c **** 			/* other RH port does */
1522:../Dave/Generated/src/USBLD001/driver/dwc_otg_pcd_intr.c **** 			DWC_DEBUGPL(DBG_PCDV,
1523:../Dave/Generated/src/USBLD001/driver/dwc_otg_pcd_intr.c **** 				    "SET_FEATURE: USB_DEVICE_A_ALT_HNP_SUPPORT\n");
1524:../Dave/Generated/src/USBLD001/driver/dwc_otg_pcd_intr.c **** 			if (otg_cap_param == DWC_OTG_CAP_PARAM_HNP_SRP_CAPABLE) {
 4197              		.loc 2 1524 0
 4198 0126 BB69     		ldr	r3, [r7, #24]
 4199 0128 002B     		cmp	r3, #0
 4200 012a 0AD1     		bne	.L191
1525:../Dave/Generated/src/USBLD001/driver/dwc_otg_pcd_intr.c **** 				pcd->a_alt_hnp_support = 1;
 4201              		.loc 2 1525 0
 4202 012c 7A68     		ldr	r2, [r7, #4]
 4203 012e 537B     		ldrb	r3, [r2, #13]
 4204 0130 43F02003 		orr	r3, r3, #32
 4205 0134 5373     		strb	r3, [r2, #13]
1526:../Dave/Generated/src/USBLD001/driver/dwc_otg_pcd_intr.c **** 				dwc_otg_pcd_update_otg(pcd, 0);
 4206              		.loc 2 1526 0
 4207 0136 7868     		ldr	r0, [r7, #4]
 4208 0138 4FF00001 		mov	r1, #0
 4209 013c FFF7FEFF 		bl	dwc_otg_pcd_update_otg
1527:../Dave/Generated/src/USBLD001/driver/dwc_otg_pcd_intr.c **** 			} else {
1528:../Dave/Generated/src/USBLD001/driver/dwc_otg_pcd_intr.c **** 				ep0_do_stall(pcd, -DWC_E_NOT_SUPPORTED);
1529:../Dave/Generated/src/USBLD001/driver/dwc_otg_pcd_intr.c **** 				return;
1530:../Dave/Generated/src/USBLD001/driver/dwc_otg_pcd_intr.c **** 			}
1531:../Dave/Generated/src/USBLD001/driver/dwc_otg_pcd_intr.c **** 			break;
 4210              		.loc 2 1531 0
 4211 0140 0FE0     		b	.L187
 4212              	.L191:
1528:../Dave/Generated/src/USBLD001/driver/dwc_otg_pcd_intr.c **** 				ep0_do_stall(pcd, -DWC_E_NOT_SUPPORTED);
 4213              		.loc 2 1528 0
 4214 0142 7868     		ldr	r0, [r7, #4]
 4215 0144 4FF61441 		movw	r1, #64532
 4216 0148 CFF6FF71 		movt	r1, 65535
 4217 014c FFF7FEFF 		bl	ep0_do_stall
 4218 0150 40E0     		b	.L175
 4219              	.L180:
1532:../Dave/Generated/src/USBLD001/driver/dwc_otg_pcd_intr.c **** 
1533:../Dave/Generated/src/USBLD001/driver/dwc_otg_pcd_intr.c **** 		default:
1534:../Dave/Generated/src/USBLD001/driver/dwc_otg_pcd_intr.c **** 			ep0_do_stall(pcd, -DWC_E_NOT_SUPPORTED);
 4220              		.loc 2 1534 0
 4221 0152 7868     		ldr	r0, [r7, #4]
 4222 0154 4FF61441 		movw	r1, #64532
 4223 0158 CFF6FF71 		movt	r1, 65535
 4224 015c FFF7FEFF 		bl	ep0_do_stall
 4225 0160 38E0     		b	.L175
 4226              	.L187:
1535:../Dave/Generated/src/USBLD001/driver/dwc_otg_pcd_intr.c **** 			return;
1536:../Dave/Generated/src/USBLD001/driver/dwc_otg_pcd_intr.c **** 
1537:../Dave/Generated/src/USBLD001/driver/dwc_otg_pcd_intr.c **** 		}
1538:../Dave/Generated/src/USBLD001/driver/dwc_otg_pcd_intr.c **** 		do_setup_in_status_phase(pcd);
 4227              		.loc 2 1538 0
 4228 0162 7868     		ldr	r0, [r7, #4]
 4229 0164 FFF7FEFF 		bl	do_setup_in_status_phase
1539:../Dave/Generated/src/USBLD001/driver/dwc_otg_pcd_intr.c **** 		break;
 4230              		.loc 2 1539 0
 4231 0168 34E0     		b	.L175
 4232              	.L178:
1540:../Dave/Generated/src/USBLD001/driver/dwc_otg_pcd_intr.c **** 
1541:../Dave/Generated/src/USBLD001/driver/dwc_otg_pcd_intr.c **** 	case UT_INTERFACE:
1542:../Dave/Generated/src/USBLD001/driver/dwc_otg_pcd_intr.c **** 		do_gadget_setup(pcd, &ctrl);
 4233              		.loc 2 1542 0
 4234 016a 07F11003 		add	r3, r7, #16
 4235 016e 7868     		ldr	r0, [r7, #4]
 4236 0170 1946     		mov	r1, r3
 4237 0172 FFF7FEFF 		bl	do_gadget_setup
1543:../Dave/Generated/src/USBLD001/driver/dwc_otg_pcd_intr.c **** 		break;
 4238              		.loc 2 1543 0
 4239 0176 2DE0     		b	.L175
 4240              	.L179:
1544:../Dave/Generated/src/USBLD001/driver/dwc_otg_pcd_intr.c **** 
1545:../Dave/Generated/src/USBLD001/driver/dwc_otg_pcd_intr.c **** 	case UT_ENDPOINT:
1546:../Dave/Generated/src/USBLD001/driver/dwc_otg_pcd_intr.c **** 		if (UGETW(ctrl.wValue) == UF_ENDPOINT_HALT) {
 4241              		.loc 2 1546 0
 4242 0178 BB7C     		ldrb	r3, [r7, #18]	@ zero_extendqisi2
 4243 017a 1A46     		mov	r2, r3
 4244 017c FB7C     		ldrb	r3, [r7, #19]	@ zero_extendqisi2
 4245 017e 4FEA0323 		lsl	r3, r3, #8
 4246 0182 1343     		orrs	r3, r3, r2
 4247 0184 002B     		cmp	r3, #0
 4248 0186 21D1     		bne	.L192
1547:../Dave/Generated/src/USBLD001/driver/dwc_otg_pcd_intr.c **** 			ep = get_ep_by_addr(pcd, UGETW(ctrl.wIndex));
 4249              		.loc 2 1547 0
 4250 0188 3B7D     		ldrb	r3, [r7, #20]	@ zero_extendqisi2
 4251 018a 1A46     		mov	r2, r3
 4252 018c 7B7D     		ldrb	r3, [r7, #21]	@ zero_extendqisi2
 4253 018e 4FEA0323 		lsl	r3, r3, #8
 4254 0192 1343     		orrs	r3, r3, r2
 4255 0194 7868     		ldr	r0, [r7, #4]
 4256 0196 1946     		mov	r1, r3
 4257 0198 FFF7FEFF 		bl	get_ep_by_addr
 4258 019c F861     		str	r0, [r7, #28]
1548:../Dave/Generated/src/USBLD001/driver/dwc_otg_pcd_intr.c **** 			if (ep == 0) {
 4259              		.loc 2 1548 0
 4260 019e FB69     		ldr	r3, [r7, #28]
 4261 01a0 002B     		cmp	r3, #0
 4262 01a2 07D1     		bne	.L193
1549:../Dave/Generated/src/USBLD001/driver/dwc_otg_pcd_intr.c **** 				ep0_do_stall(pcd, -DWC_E_NOT_SUPPORTED);
 4263              		.loc 2 1549 0
 4264 01a4 7868     		ldr	r0, [r7, #4]
 4265 01a6 4FF61441 		movw	r1, #64532
 4266 01aa CFF6FF71 		movt	r1, 65535
 4267 01ae FFF7FEFF 		bl	ep0_do_stall
 4268 01b2 0FE0     		b	.L175
 4269              	.L193:
1550:../Dave/Generated/src/USBLD001/driver/dwc_otg_pcd_intr.c **** 				return;
1551:../Dave/Generated/src/USBLD001/driver/dwc_otg_pcd_intr.c **** 			}
1552:../Dave/Generated/src/USBLD001/driver/dwc_otg_pcd_intr.c **** 			ep->stopped = 1;
 4270              		.loc 2 1552 0
 4271 01b4 FA69     		ldr	r2, [r7, #28]
 4272 01b6 137B     		ldrb	r3, [r2, #12]
 4273 01b8 43F00103 		orr	r3, r3, #1
 4274 01bc 1373     		strb	r3, [r2, #12]
1553:../Dave/Generated/src/USBLD001/driver/dwc_otg_pcd_intr.c **** 			dwc_otg_ep_set_stall(core_if, &ep->dwc_ep);
 4275              		.loc 2 1553 0
 4276 01be FB69     		ldr	r3, [r7, #28]
 4277 01c0 03F11003 		add	r3, r3, #16
 4278 01c4 786A     		ldr	r0, [r7, #36]
 4279 01c6 1946     		mov	r1, r3
 4280 01c8 FFF7FEFF 		bl	dwc_otg_ep_set_stall
 4281              	.L192:
1554:../Dave/Generated/src/USBLD001/driver/dwc_otg_pcd_intr.c **** 		}
1555:../Dave/Generated/src/USBLD001/driver/dwc_otg_pcd_intr.c **** 		do_setup_in_status_phase(pcd);
 4282              		.loc 2 1555 0
 4283 01cc 7868     		ldr	r0, [r7, #4]
 4284 01ce FFF7FEFF 		bl	do_setup_in_status_phase
1556:../Dave/Generated/src/USBLD001/driver/dwc_otg_pcd_intr.c **** 		break;
 4285              		.loc 2 1556 0
 4286 01d2 00BF     		nop
 4287              	.L175:
1557:../Dave/Generated/src/USBLD001/driver/dwc_otg_pcd_intr.c **** 	}
1558:../Dave/Generated/src/USBLD001/driver/dwc_otg_pcd_intr.c **** }
 4288              		.loc 2 1558 0
 4289 01d4 07F12807 		add	r7, r7, #40
 4290 01d8 BD46     		mov	sp, r7
 4291 01da 80BD     		pop	{r7, pc}
 4292              		.cfi_endproc
 4293              	.LFE48:
 4295              		.section	.text.do_clear_feature,"ax",%progbits
 4296              		.align	2
 4297              		.thumb
 4298              		.thumb_func
 4300              	do_clear_feature:
 4301              	.LFB49:
1559:../Dave/Generated/src/USBLD001/driver/dwc_otg_pcd_intr.c **** 
1560:../Dave/Generated/src/USBLD001/driver/dwc_otg_pcd_intr.c **** /**
1561:../Dave/Generated/src/USBLD001/driver/dwc_otg_pcd_intr.c ****  * This function process the CLEAR_FEATURE Setup Commands.
1562:../Dave/Generated/src/USBLD001/driver/dwc_otg_pcd_intr.c ****  */
1563:../Dave/Generated/src/USBLD001/driver/dwc_otg_pcd_intr.c **** static inline void do_clear_feature(dwc_otg_pcd_t * pcd)
1564:../Dave/Generated/src/USBLD001/driver/dwc_otg_pcd_intr.c **** {
 4302              		.loc 2 1564 0
 4303              		.cfi_startproc
 4304              		@ args = 0, pretend = 0, frame = 24
 4305              		@ frame_needed = 1, uses_anonymous_args = 0
 4306 0000 80B5     		push	{r7, lr}
 4307              	.LCFI102:
 4308              		.cfi_def_cfa_offset 8
 4309              		.cfi_offset 7, -8
 4310              		.cfi_offset 14, -4
 4311 0002 86B0     		sub	sp, sp, #24
 4312              	.LCFI103:
 4313              		.cfi_def_cfa_offset 32
 4314 0004 00AF     		add	r7, sp, #0
 4315              	.LCFI104:
 4316              		.cfi_def_cfa_register 7
 4317 0006 7860     		str	r0, [r7, #4]
1565:../Dave/Generated/src/USBLD001/driver/dwc_otg_pcd_intr.c **** 	usb_device_request_t ctrl = pcd->setup_pkt->req;
 4318              		.loc 2 1565 0
 4319 0008 7B68     		ldr	r3, [r7, #4]
 4320 000a 5A69     		ldr	r2, [r3, #20]
 4321 000c 07F10C03 		add	r3, r7, #12
 4322 0010 92E80300 		ldmia	r2, {r0, r1}
 4323 0014 83E80300 		stmia	r3, {r0, r1}
1566:../Dave/Generated/src/USBLD001/driver/dwc_otg_pcd_intr.c **** 	dwc_otg_pcd_ep_t *ep = 0;
 4324              		.loc 2 1566 0
 4325 0018 4FF00003 		mov	r3, #0
 4326 001c 7B61     		str	r3, [r7, #20]
1567:../Dave/Generated/src/USBLD001/driver/dwc_otg_pcd_intr.c **** 
1568:../Dave/Generated/src/USBLD001/driver/dwc_otg_pcd_intr.c **** 	DWC_DEBUGPL(DBG_PCD,
1569:../Dave/Generated/src/USBLD001/driver/dwc_otg_pcd_intr.c **** 		    "CLEAR_FEATURE:%02x.%02x v%04x i%04x l%04x\n",
1570:../Dave/Generated/src/USBLD001/driver/dwc_otg_pcd_intr.c **** 		    ctrl.bmRequestType, ctrl.bRequest,
1571:../Dave/Generated/src/USBLD001/driver/dwc_otg_pcd_intr.c **** 		    UGETW(ctrl.wValue), UGETW(ctrl.wIndex),
1572:../Dave/Generated/src/USBLD001/driver/dwc_otg_pcd_intr.c **** 		    UGETW(ctrl.wLength));
1573:../Dave/Generated/src/USBLD001/driver/dwc_otg_pcd_intr.c **** 
1574:../Dave/Generated/src/USBLD001/driver/dwc_otg_pcd_intr.c **** 	switch (UT_GET_RECIPIENT(ctrl.bmRequestType)) {
 4327              		.loc 2 1574 0
 4328 001e 3B7B     		ldrb	r3, [r7, #12]	@ zero_extendqisi2
 4329 0020 03F01F03 		and	r3, r3, #31
 4330 0024 002B     		cmp	r3, #0
 4331 0026 02D0     		beq	.L197
 4332 0028 022B     		cmp	r3, #2
 4333 002a 1ED0     		beq	.L198
 4334 002c 38E0     		b	.L195
 4335              	.L197:
1575:../Dave/Generated/src/USBLD001/driver/dwc_otg_pcd_intr.c **** 	case UT_DEVICE:
1576:../Dave/Generated/src/USBLD001/driver/dwc_otg_pcd_intr.c **** 		switch (UGETW(ctrl.wValue)) {
 4336              		.loc 2 1576 0
 4337 002e BB7B     		ldrb	r3, [r7, #14]	@ zero_extendqisi2
 4338 0030 1A46     		mov	r2, r3
 4339 0032 FB7B     		ldrb	r3, [r7, #15]	@ zero_extendqisi2
 4340 0034 4FEA0323 		lsl	r3, r3, #8
 4341 0038 1343     		orrs	r3, r3, r2
 4342 003a 012B     		cmp	r3, #1
 4343 003c 02D0     		beq	.L200
 4344 003e 022B     		cmp	r3, #2
 4345 0040 0ED0     		beq	.L207
 4346 0042 05E0     		b	.L206
 4347              	.L200:
1577:../Dave/Generated/src/USBLD001/driver/dwc_otg_pcd_intr.c **** 		case UF_DEVICE_REMOTE_WAKEUP:
1578:../Dave/Generated/src/USBLD001/driver/dwc_otg_pcd_intr.c **** 			pcd->remote_wakeup_enable = 0;
 4348              		.loc 2 1578 0
 4349 0044 7A68     		ldr	r2, [r7, #4]
 4350 0046 537B     		ldrb	r3, [r2, #13]
 4351 0048 6FF38203 		bfc	r3, #2, #1
 4352 004c 5373     		strb	r3, [r2, #13]
1579:../Dave/Generated/src/USBLD001/driver/dwc_otg_pcd_intr.c **** 			break;
 4353              		.loc 2 1579 0
 4354 004e 08E0     		b	.L202
 4355              	.L206:
1580:../Dave/Generated/src/USBLD001/driver/dwc_otg_pcd_intr.c **** 
1581:../Dave/Generated/src/USBLD001/driver/dwc_otg_pcd_intr.c **** 		case UF_TEST_MODE:
1582:../Dave/Generated/src/USBLD001/driver/dwc_otg_pcd_intr.c **** 			/** @todo Add CLEAR_FEATURE for TEST modes. */
1583:../Dave/Generated/src/USBLD001/driver/dwc_otg_pcd_intr.c **** 			break;
1584:../Dave/Generated/src/USBLD001/driver/dwc_otg_pcd_intr.c **** 
1585:../Dave/Generated/src/USBLD001/driver/dwc_otg_pcd_intr.c **** 		default:
1586:../Dave/Generated/src/USBLD001/driver/dwc_otg_pcd_intr.c **** 			ep0_do_stall(pcd, -DWC_E_NOT_SUPPORTED);
 4356              		.loc 2 1586 0
 4357 0050 7868     		ldr	r0, [r7, #4]
 4358 0052 4FF61441 		movw	r1, #64532
 4359 0056 CFF6FF71 		movt	r1, 65535
 4360 005a FFF7FEFF 		bl	ep0_do_stall
 4361 005e 1FE0     		b	.L195
 4362              	.L207:
1583:../Dave/Generated/src/USBLD001/driver/dwc_otg_pcd_intr.c **** 			break;
 4363              		.loc 2 1583 0
 4364 0060 00BF     		nop
 4365              	.L202:
1587:../Dave/Generated/src/USBLD001/driver/dwc_otg_pcd_intr.c **** 			return;
1588:../Dave/Generated/src/USBLD001/driver/dwc_otg_pcd_intr.c **** 		}
1589:../Dave/Generated/src/USBLD001/driver/dwc_otg_pcd_intr.c **** 		do_setup_in_status_phase(pcd);
 4366              		.loc 2 1589 0
 4367 0062 7868     		ldr	r0, [r7, #4]
 4368 0064 FFF7FEFF 		bl	do_setup_in_status_phase
1590:../Dave/Generated/src/USBLD001/driver/dwc_otg_pcd_intr.c **** 		break;
 4369              		.loc 2 1590 0
 4370 0068 1AE0     		b	.L195
 4371              	.L198:
1591:../Dave/Generated/src/USBLD001/driver/dwc_otg_pcd_intr.c **** 
1592:../Dave/Generated/src/USBLD001/driver/dwc_otg_pcd_intr.c **** 	case UT_ENDPOINT:
1593:../Dave/Generated/src/USBLD001/driver/dwc_otg_pcd_intr.c **** 		ep = get_ep_by_addr(pcd, UGETW(ctrl.wIndex));
 4372              		.loc 2 1593 0
 4373 006a 3B7C     		ldrb	r3, [r7, #16]	@ zero_extendqisi2
 4374 006c 1A46     		mov	r2, r3
 4375 006e 7B7C     		ldrb	r3, [r7, #17]	@ zero_extendqisi2
 4376 0070 4FEA0323 		lsl	r3, r3, #8
 4377 0074 1343     		orrs	r3, r3, r2
 4378 0076 7868     		ldr	r0, [r7, #4]
 4379 0078 1946     		mov	r1, r3
 4380 007a FFF7FEFF 		bl	get_ep_by_addr
 4381 007e 7861     		str	r0, [r7, #20]
1594:../Dave/Generated/src/USBLD001/driver/dwc_otg_pcd_intr.c **** 		if (ep == 0) {
 4382              		.loc 2 1594 0
 4383 0080 7B69     		ldr	r3, [r7, #20]
 4384 0082 002B     		cmp	r3, #0
 4385 0084 07D1     		bne	.L204
1595:../Dave/Generated/src/USBLD001/driver/dwc_otg_pcd_intr.c **** 			ep0_do_stall(pcd, -DWC_E_NOT_SUPPORTED);
 4386              		.loc 2 1595 0
 4387 0086 7868     		ldr	r0, [r7, #4]
 4388 0088 4FF61441 		movw	r1, #64532
 4389 008c CFF6FF71 		movt	r1, 65535
 4390 0090 FFF7FEFF 		bl	ep0_do_stall
 4391 0094 04E0     		b	.L195
 4392              	.L204:
1596:../Dave/Generated/src/USBLD001/driver/dwc_otg_pcd_intr.c **** 			return;
1597:../Dave/Generated/src/USBLD001/driver/dwc_otg_pcd_intr.c **** 		}
1598:../Dave/Generated/src/USBLD001/driver/dwc_otg_pcd_intr.c **** 
1599:../Dave/Generated/src/USBLD001/driver/dwc_otg_pcd_intr.c **** 		pcd_clear_halt(pcd, ep);
 4393              		.loc 2 1599 0
 4394 0096 7868     		ldr	r0, [r7, #4]
 4395 0098 7969     		ldr	r1, [r7, #20]
 4396 009a FFF7FEFF 		bl	pcd_clear_halt
1600:../Dave/Generated/src/USBLD001/driver/dwc_otg_pcd_intr.c **** 
1601:../Dave/Generated/src/USBLD001/driver/dwc_otg_pcd_intr.c **** 		break;
 4397              		.loc 2 1601 0
 4398 009e 00BF     		nop
 4399              	.L195:
1602:../Dave/Generated/src/USBLD001/driver/dwc_otg_pcd_intr.c **** 	}
1603:../Dave/Generated/src/USBLD001/driver/dwc_otg_pcd_intr.c **** }
 4400              		.loc 2 1603 0
 4401 00a0 07F11807 		add	r7, r7, #24
 4402 00a4 BD46     		mov	sp, r7
 4403 00a6 80BD     		pop	{r7, pc}
 4404              		.cfi_endproc
 4405              	.LFE49:
 4407              		.section	.text.do_set_address,"ax",%progbits
 4408              		.align	2
 4409              		.thumb
 4410              		.thumb_func
 4412              	do_set_address:
 4413              	.LFB50:
1604:../Dave/Generated/src/USBLD001/driver/dwc_otg_pcd_intr.c **** 
1605:../Dave/Generated/src/USBLD001/driver/dwc_otg_pcd_intr.c **** /**
1606:../Dave/Generated/src/USBLD001/driver/dwc_otg_pcd_intr.c ****  * This function process the SET_ADDRESS Setup Commands.
1607:../Dave/Generated/src/USBLD001/driver/dwc_otg_pcd_intr.c ****  */
1608:../Dave/Generated/src/USBLD001/driver/dwc_otg_pcd_intr.c **** static inline void do_set_address(dwc_otg_pcd_t * pcd)
1609:../Dave/Generated/src/USBLD001/driver/dwc_otg_pcd_intr.c **** {
 4414              		.loc 2 1609 0
 4415              		.cfi_startproc
 4416              		@ args = 0, pretend = 0, frame = 24
 4417              		@ frame_needed = 1, uses_anonymous_args = 0
 4418 0000 80B5     		push	{r7, lr}
 4419              	.LCFI105:
 4420              		.cfi_def_cfa_offset 8
 4421              		.cfi_offset 7, -8
 4422              		.cfi_offset 14, -4
 4423 0002 86B0     		sub	sp, sp, #24
 4424              	.LCFI106:
 4425              		.cfi_def_cfa_offset 32
 4426 0004 00AF     		add	r7, sp, #0
 4427              	.LCFI107:
 4428              		.cfi_def_cfa_register 7
 4429 0006 7860     		str	r0, [r7, #4]
1610:../Dave/Generated/src/USBLD001/driver/dwc_otg_pcd_intr.c **** 	dwc_otg_dev_if_t *dev_if = GET_CORE_IF(pcd)->dev_if;
 4430              		.loc 2 1610 0
 4431 0008 7B68     		ldr	r3, [r7, #4]
 4432 000a 9B68     		ldr	r3, [r3, #8]
 4433 000c 9B68     		ldr	r3, [r3, #8]
 4434 000e 7B61     		str	r3, [r7, #20]
1611:../Dave/Generated/src/USBLD001/driver/dwc_otg_pcd_intr.c **** 	usb_device_request_t ctrl = pcd->setup_pkt->req;
 4435              		.loc 2 1611 0
 4436 0010 7B68     		ldr	r3, [r7, #4]
 4437 0012 5A69     		ldr	r2, [r3, #20]
 4438 0014 07F10C03 		add	r3, r7, #12
 4439 0018 92E80300 		ldmia	r2, {r0, r1}
 4440 001c 83E80300 		stmia	r3, {r0, r1}
1612:../Dave/Generated/src/USBLD001/driver/dwc_otg_pcd_intr.c **** 
1613:../Dave/Generated/src/USBLD001/driver/dwc_otg_pcd_intr.c **** 	if (ctrl.bmRequestType == UT_DEVICE) {
 4441              		.loc 2 1613 0
 4442 0020 3B7B     		ldrb	r3, [r7, #12]	@ zero_extendqisi2
 4443 0022 002B     		cmp	r3, #0
 4444 0024 1FD1     		bne	.L208
 4445              	.LBB6:
1614:../Dave/Generated/src/USBLD001/driver/dwc_otg_pcd_intr.c **** 		dcfg_data_t dcfg = {.d32 = 0 };
 4446              		.loc 2 1614 0
 4447 0026 4FF00003 		mov	r3, #0
 4448 002a BB60     		str	r3, [r7, #8]
1615:../Dave/Generated/src/USBLD001/driver/dwc_otg_pcd_intr.c **** 
1616:../Dave/Generated/src/USBLD001/driver/dwc_otg_pcd_intr.c **** #ifdef DEBUG_EP0
1617:../Dave/Generated/src/USBLD001/driver/dwc_otg_pcd_intr.c **** //                      DWC_DEBUGPL(DBG_PCDV, "SET_ADDRESS:%d\n", ctrl.wValue);
1618:../Dave/Generated/src/USBLD001/driver/dwc_otg_pcd_intr.c **** #endif
1619:../Dave/Generated/src/USBLD001/driver/dwc_otg_pcd_intr.c **** 		dcfg.b.devaddr = UGETW(ctrl.wValue);
 4449              		.loc 2 1619 0
 4450 002c BB7B     		ldrb	r3, [r7, #14]	@ zero_extendqisi2
 4451 002e DAB2     		uxtb	r2, r3
 4452 0030 FB7B     		ldrb	r3, [r7, #15]	@ zero_extendqisi2
 4453 0032 4FEA0323 		lsl	r3, r3, #8
 4454 0036 DBB2     		uxtb	r3, r3
 4455 0038 1343     		orrs	r3, r3, r2
 4456 003a DBB2     		uxtb	r3, r3
 4457 003c DBB2     		uxtb	r3, r3
 4458 003e 03F07F03 		and	r3, r3, #127
 4459 0042 DAB2     		uxtb	r2, r3
 4460 0044 BB68     		ldr	r3, [r7, #8]
 4461 0046 62F30A13 		bfi	r3, r2, #4, #7
 4462 004a BB60     		str	r3, [r7, #8]
1620:../Dave/Generated/src/USBLD001/driver/dwc_otg_pcd_intr.c **** 		DWC_MODIFY_REG32(&dev_if->dev_global_regs->dcfg, 0, dcfg.d32);
 4463              		.loc 2 1620 0
 4464 004c 7B69     		ldr	r3, [r7, #20]
 4465 004e 1B68     		ldr	r3, [r3, #0]
 4466 0050 1A46     		mov	r2, r3
 4467 0052 BB68     		ldr	r3, [r7, #8]
 4468 0054 1046     		mov	r0, r2
 4469 0056 4FF00001 		mov	r1, #0
 4470 005a 1A46     		mov	r2, r3
 4471 005c FFF7FEFF 		bl	DWC_MODIFY_REG32
1621:../Dave/Generated/src/USBLD001/driver/dwc_otg_pcd_intr.c **** 		do_setup_in_status_phase(pcd);
 4472              		.loc 2 1621 0
 4473 0060 7868     		ldr	r0, [r7, #4]
 4474 0062 FFF7FEFF 		bl	do_setup_in_status_phase
 4475              	.L208:
 4476              	.LBE6:
1622:../Dave/Generated/src/USBLD001/driver/dwc_otg_pcd_intr.c **** 	}
1623:../Dave/Generated/src/USBLD001/driver/dwc_otg_pcd_intr.c **** }
 4477              		.loc 2 1623 0
 4478 0066 07F11807 		add	r7, r7, #24
 4479 006a BD46     		mov	sp, r7
 4480 006c 80BD     		pop	{r7, pc}
 4481              		.cfi_endproc
 4482              	.LFE50:
 4484 006e 00BF     		.section	.text.pcd_setup,"ax",%progbits
 4485              		.align	2
 4486              		.thumb
 4487              		.thumb_func
 4489              	pcd_setup:
 4490              	.LFB51:
1624:../Dave/Generated/src/USBLD001/driver/dwc_otg_pcd_intr.c **** 
1625:../Dave/Generated/src/USBLD001/driver/dwc_otg_pcd_intr.c **** /**
1626:../Dave/Generated/src/USBLD001/driver/dwc_otg_pcd_intr.c ****  *	This function processes SETUP commands. In Linux, the USB Command
1627:../Dave/Generated/src/USBLD001/driver/dwc_otg_pcd_intr.c ****  *	processing is done in two places - the first being the PCD and the
1628:../Dave/Generated/src/USBLD001/driver/dwc_otg_pcd_intr.c ****  *	second in the Gadget Driver (for example, the File-Backed Storage
1629:../Dave/Generated/src/USBLD001/driver/dwc_otg_pcd_intr.c ****  *	Gadget Driver).
1630:../Dave/Generated/src/USBLD001/driver/dwc_otg_pcd_intr.c ****  *
1631:../Dave/Generated/src/USBLD001/driver/dwc_otg_pcd_intr.c ****  * <table>
1632:../Dave/Generated/src/USBLD001/driver/dwc_otg_pcd_intr.c ****  * <tr><td>Command	</td><td>Driver </td><td>Description</td></tr>
1633:../Dave/Generated/src/USBLD001/driver/dwc_otg_pcd_intr.c ****  *
1634:../Dave/Generated/src/USBLD001/driver/dwc_otg_pcd_intr.c ****  * <tr><td>GET_STATUS </td><td>PCD </td><td>Command is processed as
1635:../Dave/Generated/src/USBLD001/driver/dwc_otg_pcd_intr.c ****  * defined in chapter 9 of the USB 2.0 Specification chapter 9
1636:../Dave/Generated/src/USBLD001/driver/dwc_otg_pcd_intr.c ****  * </td></tr>
1637:../Dave/Generated/src/USBLD001/driver/dwc_otg_pcd_intr.c ****  *
1638:../Dave/Generated/src/USBLD001/driver/dwc_otg_pcd_intr.c ****  * <tr><td>CLEAR_FEATURE </td><td>PCD </td><td>The Device and Endpoint
1639:../Dave/Generated/src/USBLD001/driver/dwc_otg_pcd_intr.c ****  * requests are the ENDPOINT_HALT feature is procesed, all others the
1640:../Dave/Generated/src/USBLD001/driver/dwc_otg_pcd_intr.c ****  * interface requests are ignored.</td></tr>
1641:../Dave/Generated/src/USBLD001/driver/dwc_otg_pcd_intr.c ****  *
1642:../Dave/Generated/src/USBLD001/driver/dwc_otg_pcd_intr.c ****  * <tr><td>SET_FEATURE </td><td>PCD </td><td>The Device and Endpoint
1643:../Dave/Generated/src/USBLD001/driver/dwc_otg_pcd_intr.c ****  * requests are processed by the PCD.  Interface requests are passed
1644:../Dave/Generated/src/USBLD001/driver/dwc_otg_pcd_intr.c ****  * to the Gadget Driver.</td></tr>
1645:../Dave/Generated/src/USBLD001/driver/dwc_otg_pcd_intr.c ****  *
1646:../Dave/Generated/src/USBLD001/driver/dwc_otg_pcd_intr.c ****  * <tr><td>SET_ADDRESS </td><td>PCD </td><td>Program the DCFG reg,
1647:../Dave/Generated/src/USBLD001/driver/dwc_otg_pcd_intr.c ****  * with device address received </td></tr>
1648:../Dave/Generated/src/USBLD001/driver/dwc_otg_pcd_intr.c ****  *
1649:../Dave/Generated/src/USBLD001/driver/dwc_otg_pcd_intr.c ****  * <tr><td>GET_DESCRIPTOR </td><td>Gadget Driver </td><td>Return the
1650:../Dave/Generated/src/USBLD001/driver/dwc_otg_pcd_intr.c ****  * requested descriptor</td></tr>
1651:../Dave/Generated/src/USBLD001/driver/dwc_otg_pcd_intr.c ****  *
1652:../Dave/Generated/src/USBLD001/driver/dwc_otg_pcd_intr.c ****  * <tr><td>SET_DESCRIPTOR </td><td>Gadget Driver </td><td>Optional -
1653:../Dave/Generated/src/USBLD001/driver/dwc_otg_pcd_intr.c ****  * not implemented by any of the existing Gadget Drivers.</td></tr>
1654:../Dave/Generated/src/USBLD001/driver/dwc_otg_pcd_intr.c ****  *
1655:../Dave/Generated/src/USBLD001/driver/dwc_otg_pcd_intr.c ****  * <tr><td>SET_CONFIGURATION </td><td>Gadget Driver </td><td>Disable
1656:../Dave/Generated/src/USBLD001/driver/dwc_otg_pcd_intr.c ****  * all EPs and enable EPs for new configuration.</td></tr>
1657:../Dave/Generated/src/USBLD001/driver/dwc_otg_pcd_intr.c ****  *
1658:../Dave/Generated/src/USBLD001/driver/dwc_otg_pcd_intr.c ****  * <tr><td>GET_CONFIGURATION </td><td>Gadget Driver </td><td>Return
1659:../Dave/Generated/src/USBLD001/driver/dwc_otg_pcd_intr.c ****  * the current configuration</td></tr>
1660:../Dave/Generated/src/USBLD001/driver/dwc_otg_pcd_intr.c ****  *
1661:../Dave/Generated/src/USBLD001/driver/dwc_otg_pcd_intr.c ****  * <tr><td>SET_INTERFACE </td><td>Gadget Driver </td><td>Disable all
1662:../Dave/Generated/src/USBLD001/driver/dwc_otg_pcd_intr.c ****  * EPs and enable EPs for new configuration.</td></tr>
1663:../Dave/Generated/src/USBLD001/driver/dwc_otg_pcd_intr.c ****  *
1664:../Dave/Generated/src/USBLD001/driver/dwc_otg_pcd_intr.c ****  * <tr><td>GET_INTERFACE </td><td>Gadget Driver </td><td>Return the
1665:../Dave/Generated/src/USBLD001/driver/dwc_otg_pcd_intr.c ****  * current interface.</td></tr>
1666:../Dave/Generated/src/USBLD001/driver/dwc_otg_pcd_intr.c ****  *
1667:../Dave/Generated/src/USBLD001/driver/dwc_otg_pcd_intr.c ****  * <tr><td>SYNC_FRAME </td><td>PCD </td><td>Display debug
1668:../Dave/Generated/src/USBLD001/driver/dwc_otg_pcd_intr.c ****  * message.</td></tr>
1669:../Dave/Generated/src/USBLD001/driver/dwc_otg_pcd_intr.c ****  * </table>
1670:../Dave/Generated/src/USBLD001/driver/dwc_otg_pcd_intr.c ****  *
1671:../Dave/Generated/src/USBLD001/driver/dwc_otg_pcd_intr.c ****  * When the SETUP Phase Done interrupt occurs, the PCD SETUP commands are
1672:../Dave/Generated/src/USBLD001/driver/dwc_otg_pcd_intr.c ****  * processed by pcd_setup. Calling the Function Driver's setup function from
1673:../Dave/Generated/src/USBLD001/driver/dwc_otg_pcd_intr.c ****  * pcd_setup processes the gadget SETUP commands.
1674:../Dave/Generated/src/USBLD001/driver/dwc_otg_pcd_intr.c ****  */
1675:../Dave/Generated/src/USBLD001/driver/dwc_otg_pcd_intr.c **** static inline void pcd_setup(dwc_otg_pcd_t * pcd)
1676:../Dave/Generated/src/USBLD001/driver/dwc_otg_pcd_intr.c **** {
 4491              		.loc 2 1676 0
 4492              		.cfi_startproc
 4493              		@ args = 0, pretend = 0, frame = 40
 4494              		@ frame_needed = 1, uses_anonymous_args = 0
 4495 0000 80B5     		push	{r7, lr}
 4496              	.LCFI108:
 4497              		.cfi_def_cfa_offset 8
 4498              		.cfi_offset 7, -8
 4499              		.cfi_offset 14, -4
 4500 0002 8AB0     		sub	sp, sp, #40
 4501              	.LCFI109:
 4502              		.cfi_def_cfa_offset 48
 4503 0004 00AF     		add	r7, sp, #0
 4504              	.LCFI110:
 4505              		.cfi_def_cfa_register 7
 4506 0006 7860     		str	r0, [r7, #4]
1677:../Dave/Generated/src/USBLD001/driver/dwc_otg_pcd_intr.c **** 	dwc_otg_core_if_t *core_if = GET_CORE_IF(pcd);
 4507              		.loc 2 1677 0
 4508 0008 7B68     		ldr	r3, [r7, #4]
 4509 000a 9B68     		ldr	r3, [r3, #8]
 4510 000c 7B62     		str	r3, [r7, #36]
1678:../Dave/Generated/src/USBLD001/driver/dwc_otg_pcd_intr.c **** 	dwc_otg_dev_if_t *dev_if = core_if->dev_if;
 4511              		.loc 2 1678 0
 4512 000e 7B6A     		ldr	r3, [r7, #36]
 4513 0010 9B68     		ldr	r3, [r3, #8]
 4514 0012 3B62     		str	r3, [r7, #32]
1679:../Dave/Generated/src/USBLD001/driver/dwc_otg_pcd_intr.c **** 	usb_device_request_t ctrl = pcd->setup_pkt->req;
 4515              		.loc 2 1679 0
 4516 0014 7B68     		ldr	r3, [r7, #4]
 4517 0016 5A69     		ldr	r2, [r3, #20]
 4518 0018 07F11403 		add	r3, r7, #20
 4519 001c 92E80300 		ldmia	r2, {r0, r1}
 4520 0020 83E80300 		stmia	r3, {r0, r1}
1680:../Dave/Generated/src/USBLD001/driver/dwc_otg_pcd_intr.c **** 	dwc_otg_pcd_ep_t *ep0 = &pcd->ep0;
 4521              		.loc 2 1680 0
 4522 0024 7B68     		ldr	r3, [r7, #4]
 4523 0026 03F12403 		add	r3, r3, #36
 4524 002a FB61     		str	r3, [r7, #28]
1681:../Dave/Generated/src/USBLD001/driver/dwc_otg_pcd_intr.c **** 
1682:../Dave/Generated/src/USBLD001/driver/dwc_otg_pcd_intr.c **** 	deptsiz0_data_t doeptsize0 = {.d32 = 0 };
 4525              		.loc 2 1682 0
 4526 002c 4FF00003 		mov	r3, #0
 4527 0030 FB60     		str	r3, [r7, #12]
 4528 0032 4FF00003 		mov	r3, #0
 4529 0036 3B61     		str	r3, [r7, #16]
1683:../Dave/Generated/src/USBLD001/driver/dwc_otg_pcd_intr.c **** 
1684:../Dave/Generated/src/USBLD001/driver/dwc_otg_pcd_intr.c **** #ifdef DWC_UTE_CFI
1685:../Dave/Generated/src/USBLD001/driver/dwc_otg_pcd_intr.c **** 	int retval = 0;
1686:../Dave/Generated/src/USBLD001/driver/dwc_otg_pcd_intr.c **** 	struct cfi_usb_ctrlrequest cfi_req;
1687:../Dave/Generated/src/USBLD001/driver/dwc_otg_pcd_intr.c **** #endif
1688:../Dave/Generated/src/USBLD001/driver/dwc_otg_pcd_intr.c **** 
1689:../Dave/Generated/src/USBLD001/driver/dwc_otg_pcd_intr.c **** #ifdef DEBUG_EP0
1690:../Dave/Generated/src/USBLD001/driver/dwc_otg_pcd_intr.c **** 	DWC_DEBUGPL(DBG_PCD, "SETUP %02x.%02x v%04x i%04x l%04x\n",
1691:../Dave/Generated/src/USBLD001/driver/dwc_otg_pcd_intr.c **** 		    ctrl.bmRequestType, ctrl.bRequest,
1692:../Dave/Generated/src/USBLD001/driver/dwc_otg_pcd_intr.c **** 		    UGETW(ctrl.wValue), UGETW(ctrl.wIndex),
1693:../Dave/Generated/src/USBLD001/driver/dwc_otg_pcd_intr.c **** 		    UGETW(ctrl.wLength));
1694:../Dave/Generated/src/USBLD001/driver/dwc_otg_pcd_intr.c **** #endif
1695:../Dave/Generated/src/USBLD001/driver/dwc_otg_pcd_intr.c **** 
1696:../Dave/Generated/src/USBLD001/driver/dwc_otg_pcd_intr.c **** 	doeptsize0.d32 = DWC_READ_REG32(&dev_if->out_ep_regs[0]->doeptsiz);
 4530              		.loc 2 1696 0
 4531 0038 3B6A     		ldr	r3, [r7, #32]
 4532 003a 5B6A     		ldr	r3, [r3, #36]
 4533 003c 03F11003 		add	r3, r3, #16
 4534 0040 1846     		mov	r0, r3
 4535 0042 FFF7FEFF 		bl	DWC_READ_REG32
 4536 0046 0346     		mov	r3, r0
 4537 0048 FB60     		str	r3, [r7, #12]
1697:../Dave/Generated/src/USBLD001/driver/dwc_otg_pcd_intr.c **** 
1698:../Dave/Generated/src/USBLD001/driver/dwc_otg_pcd_intr.c **** 	/** @todo handle > 1 setup packet , assert error for now */
1699:../Dave/Generated/src/USBLD001/driver/dwc_otg_pcd_intr.c **** 
1700:../Dave/Generated/src/USBLD001/driver/dwc_otg_pcd_intr.c **** 	if (core_if->dma_enable && core_if->dma_desc_enable == 0
 4538              		.loc 2 1700 0
 4539 004a 7B6A     		ldr	r3, [r7, #36]
 4540 004c 93F84630 		ldrb	r3, [r3, #70]	@ zero_extendqisi2
 4541 0050 002B     		cmp	r3, #0
 4542 0052 07D0     		beq	.L211
 4543              		.loc 2 1700 0 is_stmt 0 discriminator 1
 4544 0054 7B6A     		ldr	r3, [r7, #36]
 4545 0056 93F84730 		ldrb	r3, [r3, #71]	@ zero_extendqisi2
 4546 005a 002B     		cmp	r3, #0
 4547 005c 02D1     		bne	.L211
1701:../Dave/Generated/src/USBLD001/driver/dwc_otg_pcd_intr.c **** 	    && (doeptsize0.b.supcnt < 2)) {
 4548              		.loc 2 1701 0 is_stmt 1
 4549 005e FB7B     		ldrb	r3, [r7, #15]
 4550 0060 C3F34113 		ubfx	r3, r3, #5, #2
 4551              	.L211:
1702:../Dave/Generated/src/USBLD001/driver/dwc_otg_pcd_intr.c **** 		DWC_ERROR
1703:../Dave/Generated/src/USBLD001/driver/dwc_otg_pcd_intr.c **** 		    ("\n\n-----------	 CANNOT handle > 1 setup packet in DMA mode\n\n");
1704:../Dave/Generated/src/USBLD001/driver/dwc_otg_pcd_intr.c **** 	}
1705:../Dave/Generated/src/USBLD001/driver/dwc_otg_pcd_intr.c **** 
1706:../Dave/Generated/src/USBLD001/driver/dwc_otg_pcd_intr.c **** 	/* Clean up the request queue */
1707:../Dave/Generated/src/USBLD001/driver/dwc_otg_pcd_intr.c **** 	dwc_otg_request_nuke(ep0);
 4552              		.loc 2 1707 0
 4553 0064 F869     		ldr	r0, [r7, #28]
 4554 0066 FFF7FEFF 		bl	dwc_otg_request_nuke
1708:../Dave/Generated/src/USBLD001/driver/dwc_otg_pcd_intr.c **** 	ep0->stopped = 0;
 4555              		.loc 2 1708 0
 4556 006a FA69     		ldr	r2, [r7, #28]
 4557 006c 137B     		ldrb	r3, [r2, #12]
 4558 006e 6FF30003 		bfc	r3, #0, #1
 4559 0072 1373     		strb	r3, [r2, #12]
1709:../Dave/Generated/src/USBLD001/driver/dwc_otg_pcd_intr.c **** 
1710:../Dave/Generated/src/USBLD001/driver/dwc_otg_pcd_intr.c **** 	if (ctrl.bmRequestType & UE_DIR_IN) {
 4560              		.loc 2 1710 0
 4561 0074 3B7D     		ldrb	r3, [r7, #20]	@ zero_extendqisi2
 4562 0076 DBB2     		uxtb	r3, r3
 4563 0078 5BB2     		sxtb	r3, r3
 4564 007a 002B     		cmp	r3, #0
 4565 007c 09DA     		bge	.L212
1711:../Dave/Generated/src/USBLD001/driver/dwc_otg_pcd_intr.c **** 		ep0->dwc_ep.is_in = 1;
 4566              		.loc 2 1711 0
 4567 007e FA69     		ldr	r2, [r7, #28]
 4568 0080 537C     		ldrb	r3, [r2, #17]
 4569 0082 43F00103 		orr	r3, r3, #1
 4570 0086 5374     		strb	r3, [r2, #17]
1712:../Dave/Generated/src/USBLD001/driver/dwc_otg_pcd_intr.c **** 		pcd->ep0state = EP0_IN_DATA_PHASE;
 4571              		.loc 2 1712 0
 4572 0088 7B68     		ldr	r3, [r7, #4]
 4573 008a 4FF00202 		mov	r2, #2
 4574 008e 1A73     		strb	r2, [r3, #12]
 4575 0090 08E0     		b	.L213
 4576              	.L212:
1713:../Dave/Generated/src/USBLD001/driver/dwc_otg_pcd_intr.c **** 	} else {
1714:../Dave/Generated/src/USBLD001/driver/dwc_otg_pcd_intr.c **** 		ep0->dwc_ep.is_in = 0;
 4577              		.loc 2 1714 0
 4578 0092 FA69     		ldr	r2, [r7, #28]
 4579 0094 537C     		ldrb	r3, [r2, #17]
 4580 0096 6FF30003 		bfc	r3, #0, #1
 4581 009a 5374     		strb	r3, [r2, #17]
1715:../Dave/Generated/src/USBLD001/driver/dwc_otg_pcd_intr.c **** 		pcd->ep0state = EP0_OUT_DATA_PHASE;
 4582              		.loc 2 1715 0
 4583 009c 7B68     		ldr	r3, [r7, #4]
 4584 009e 4FF00302 		mov	r2, #3
 4585 00a2 1A73     		strb	r2, [r3, #12]
 4586              	.L213:
1716:../Dave/Generated/src/USBLD001/driver/dwc_otg_pcd_intr.c **** 	}
1717:../Dave/Generated/src/USBLD001/driver/dwc_otg_pcd_intr.c **** 
1718:../Dave/Generated/src/USBLD001/driver/dwc_otg_pcd_intr.c **** 	if (UGETW(ctrl.wLength) == 0) {
 4587              		.loc 2 1718 0
 4588 00a4 BB7E     		ldrb	r3, [r7, #26]	@ zero_extendqisi2
 4589 00a6 1A46     		mov	r2, r3
 4590 00a8 FB7E     		ldrb	r3, [r7, #27]	@ zero_extendqisi2
 4591 00aa 4FEA0323 		lsl	r3, r3, #8
 4592 00ae 1343     		orrs	r3, r3, r2
 4593 00b0 002B     		cmp	r3, #0
 4594 00b2 08D1     		bne	.L214
1719:../Dave/Generated/src/USBLD001/driver/dwc_otg_pcd_intr.c **** 		ep0->dwc_ep.is_in = 1;
 4595              		.loc 2 1719 0
 4596 00b4 FA69     		ldr	r2, [r7, #28]
 4597 00b6 537C     		ldrb	r3, [r2, #17]
 4598 00b8 43F00103 		orr	r3, r3, #1
 4599 00bc 5374     		strb	r3, [r2, #17]
1720:../Dave/Generated/src/USBLD001/driver/dwc_otg_pcd_intr.c **** 		pcd->ep0state = EP0_IN_STATUS_PHASE;
 4600              		.loc 2 1720 0
 4601 00be 7B68     		ldr	r3, [r7, #4]
 4602 00c0 4FF00402 		mov	r2, #4
 4603 00c4 1A73     		strb	r2, [r3, #12]
 4604              	.L214:
1721:../Dave/Generated/src/USBLD001/driver/dwc_otg_pcd_intr.c **** 	}
1722:../Dave/Generated/src/USBLD001/driver/dwc_otg_pcd_intr.c **** 
1723:../Dave/Generated/src/USBLD001/driver/dwc_otg_pcd_intr.c **** 	if (UT_GET_TYPE(ctrl.bmRequestType) != UT_STANDARD) {
 4605              		.loc 2 1723 0
 4606 00c6 3B7D     		ldrb	r3, [r7, #20]	@ zero_extendqisi2
 4607 00c8 03F06003 		and	r3, r3, #96
 4608 00cc 002B     		cmp	r3, #0
 4609 00ce 06D0     		beq	.L215
1724:../Dave/Generated/src/USBLD001/driver/dwc_otg_pcd_intr.c **** 
1725:../Dave/Generated/src/USBLD001/driver/dwc_otg_pcd_intr.c **** #ifdef DWC_UTE_CFI
1726:../Dave/Generated/src/USBLD001/driver/dwc_otg_pcd_intr.c **** 		DWC_MEMCPY(&cfi_req, &ctrl, sizeof(usb_device_request_t));
1727:../Dave/Generated/src/USBLD001/driver/dwc_otg_pcd_intr.c **** 
1728:../Dave/Generated/src/USBLD001/driver/dwc_otg_pcd_intr.c **** 		//printk(KERN_ALERT "CFI: req_type=0x%02x; req=0x%02x\n", ctrl.bRequestType, ctrl.bRequest);
1729:../Dave/Generated/src/USBLD001/driver/dwc_otg_pcd_intr.c **** 		if (UT_GET_TYPE(cfi_req.bRequestType) == UT_VENDOR) {
1730:../Dave/Generated/src/USBLD001/driver/dwc_otg_pcd_intr.c **** 			if (cfi_req.bRequest > 0xB0 && cfi_req.bRequest < 0xBF) {
1731:../Dave/Generated/src/USBLD001/driver/dwc_otg_pcd_intr.c **** 				retval = cfi_setup(pcd, &cfi_req);
1732:../Dave/Generated/src/USBLD001/driver/dwc_otg_pcd_intr.c **** 				if (retval < 0) {
1733:../Dave/Generated/src/USBLD001/driver/dwc_otg_pcd_intr.c **** 					ep0_do_stall(pcd, retval);
1734:../Dave/Generated/src/USBLD001/driver/dwc_otg_pcd_intr.c **** 					pcd->ep0_pending = 0;
1735:../Dave/Generated/src/USBLD001/driver/dwc_otg_pcd_intr.c **** 					return;
1736:../Dave/Generated/src/USBLD001/driver/dwc_otg_pcd_intr.c **** 				}
1737:../Dave/Generated/src/USBLD001/driver/dwc_otg_pcd_intr.c **** 
1738:../Dave/Generated/src/USBLD001/driver/dwc_otg_pcd_intr.c **** 				/* if need gadget setup then call it and check the retval */
1739:../Dave/Generated/src/USBLD001/driver/dwc_otg_pcd_intr.c **** 				if (pcd->cfi->need_gadget_att) {
1740:../Dave/Generated/src/USBLD001/driver/dwc_otg_pcd_intr.c **** 					retval =
1741:../Dave/Generated/src/USBLD001/driver/dwc_otg_pcd_intr.c **** 					    cfi_gadget_setup(pcd,
1742:../Dave/Generated/src/USBLD001/driver/dwc_otg_pcd_intr.c **** 							     &pcd->
1743:../Dave/Generated/src/USBLD001/driver/dwc_otg_pcd_intr.c **** 							     cfi->ctrl_req);
1744:../Dave/Generated/src/USBLD001/driver/dwc_otg_pcd_intr.c **** 					if (retval < 0) {
1745:../Dave/Generated/src/USBLD001/driver/dwc_otg_pcd_intr.c **** 						pcd->ep0_pending = 0;
1746:../Dave/Generated/src/USBLD001/driver/dwc_otg_pcd_intr.c **** 						return;
1747:../Dave/Generated/src/USBLD001/driver/dwc_otg_pcd_intr.c **** 					}
1748:../Dave/Generated/src/USBLD001/driver/dwc_otg_pcd_intr.c **** 				}
1749:../Dave/Generated/src/USBLD001/driver/dwc_otg_pcd_intr.c **** 
1750:../Dave/Generated/src/USBLD001/driver/dwc_otg_pcd_intr.c **** 				if (pcd->cfi->need_status_in_complete) {
1751:../Dave/Generated/src/USBLD001/driver/dwc_otg_pcd_intr.c **** 					do_setup_in_status_phase(pcd);
1752:../Dave/Generated/src/USBLD001/driver/dwc_otg_pcd_intr.c **** 				}
1753:../Dave/Generated/src/USBLD001/driver/dwc_otg_pcd_intr.c **** 				return;
1754:../Dave/Generated/src/USBLD001/driver/dwc_otg_pcd_intr.c **** 			}
1755:../Dave/Generated/src/USBLD001/driver/dwc_otg_pcd_intr.c **** 		}
1756:../Dave/Generated/src/USBLD001/driver/dwc_otg_pcd_intr.c **** #endif
1757:../Dave/Generated/src/USBLD001/driver/dwc_otg_pcd_intr.c **** 
1758:../Dave/Generated/src/USBLD001/driver/dwc_otg_pcd_intr.c **** 		/* handle non-standard (class/vendor) requests in the gadget driver */
1759:../Dave/Generated/src/USBLD001/driver/dwc_otg_pcd_intr.c **** 		do_gadget_setup(pcd, &ctrl);
 4610              		.loc 2 1759 0
 4611 00d0 07F11403 		add	r3, r7, #20
 4612 00d4 7868     		ldr	r0, [r7, #4]
 4613 00d6 1946     		mov	r1, r3
 4614 00d8 FFF7FEFF 		bl	do_gadget_setup
 4615 00dc 4EE0     		b	.L210
 4616              	.L215:
1760:../Dave/Generated/src/USBLD001/driver/dwc_otg_pcd_intr.c **** 		return;
1761:../Dave/Generated/src/USBLD001/driver/dwc_otg_pcd_intr.c **** 	}
1762:../Dave/Generated/src/USBLD001/driver/dwc_otg_pcd_intr.c **** 
1763:../Dave/Generated/src/USBLD001/driver/dwc_otg_pcd_intr.c **** 	/** @todo NGS: Handle bad setup packet? */
1764:../Dave/Generated/src/USBLD001/driver/dwc_otg_pcd_intr.c **** 
1765:../Dave/Generated/src/USBLD001/driver/dwc_otg_pcd_intr.c **** ///////////////////////////////////////////
1766:../Dave/Generated/src/USBLD001/driver/dwc_otg_pcd_intr.c **** //// --- Standard Request handling --- ////
1767:../Dave/Generated/src/USBLD001/driver/dwc_otg_pcd_intr.c **** 
1768:../Dave/Generated/src/USBLD001/driver/dwc_otg_pcd_intr.c **** 	switch (ctrl.bRequest) {
 4617              		.loc 2 1768 0
 4618 00de 7B7D     		ldrb	r3, [r7, #21]	@ zero_extendqisi2
 4619 00e0 0C2B     		cmp	r3, #12
 4620 00e2 44D8     		bhi	.L217
 4621 00e4 01A2     		adr	r2, .L224
 4622 00e6 52F823F0 		ldr	pc, [r2, r3, lsl #2]
 4623 00ea 00BF     		.align	2
 4624              	.L224:
 4625 00ec 21010000 		.word	.L218+1
 4626 00f0 29010000 		.word	.L219+1
 4627 00f4 6F010000 		.word	.L217+1
 4628 00f8 31010000 		.word	.L220+1
 4629 00fc 6F010000 		.word	.L217+1
 4630 0100 39010000 		.word	.L221+1
 4631 0104 6F010000 		.word	.L217+1
 4632 0108 6F010000 		.word	.L217+1
 4633 010c 6F010000 		.word	.L217+1
 4634 0110 4D010000 		.word	.L222+1
 4635 0114 6F010000 		.word	.L217+1
 4636 0118 4D010000 		.word	.L222+1
 4637 011c 61010000 		.word	.L223+1
 4638              	.L218:
1769:../Dave/Generated/src/USBLD001/driver/dwc_otg_pcd_intr.c **** 	case UR_GET_STATUS:
1770:../Dave/Generated/src/USBLD001/driver/dwc_otg_pcd_intr.c **** 		do_get_status(pcd);
 4639              		.loc 2 1770 0
 4640 0120 7868     		ldr	r0, [r7, #4]
 4641 0122 FFF7FEFF 		bl	do_get_status
1771:../Dave/Generated/src/USBLD001/driver/dwc_otg_pcd_intr.c **** 		break;
 4642              		.loc 2 1771 0
 4643 0126 29E0     		b	.L210
 4644              	.L219:
1772:../Dave/Generated/src/USBLD001/driver/dwc_otg_pcd_intr.c **** 
1773:../Dave/Generated/src/USBLD001/driver/dwc_otg_pcd_intr.c **** 	case UR_CLEAR_FEATURE:
1774:../Dave/Generated/src/USBLD001/driver/dwc_otg_pcd_intr.c **** 		do_clear_feature(pcd);
 4645              		.loc 2 1774 0
 4646 0128 7868     		ldr	r0, [r7, #4]
 4647 012a FFF7FEFF 		bl	do_clear_feature
1775:../Dave/Generated/src/USBLD001/driver/dwc_otg_pcd_intr.c **** 		break;
 4648              		.loc 2 1775 0
 4649 012e 25E0     		b	.L210
 4650              	.L220:
1776:../Dave/Generated/src/USBLD001/driver/dwc_otg_pcd_intr.c **** 
1777:../Dave/Generated/src/USBLD001/driver/dwc_otg_pcd_intr.c **** 	case UR_SET_FEATURE:
1778:../Dave/Generated/src/USBLD001/driver/dwc_otg_pcd_intr.c **** 		do_set_feature(pcd);
 4651              		.loc 2 1778 0
 4652 0130 7868     		ldr	r0, [r7, #4]
 4653 0132 FFF7FEFF 		bl	do_set_feature
1779:../Dave/Generated/src/USBLD001/driver/dwc_otg_pcd_intr.c **** 		break;
 4654              		.loc 2 1779 0
 4655 0136 21E0     		b	.L210
 4656              	.L221:
1780:../Dave/Generated/src/USBLD001/driver/dwc_otg_pcd_intr.c **** 
1781:../Dave/Generated/src/USBLD001/driver/dwc_otg_pcd_intr.c **** 	case UR_SET_ADDRESS:
1782:../Dave/Generated/src/USBLD001/driver/dwc_otg_pcd_intr.c **** 		do_set_address(pcd);
 4657              		.loc 2 1782 0
 4658 0138 7868     		ldr	r0, [r7, #4]
 4659 013a FFF7FEFF 		bl	do_set_address
1783:../Dave/Generated/src/USBLD001/driver/dwc_otg_pcd_intr.c **** #ifdef USE_IFX_DEV
1784:../Dave/Generated/src/USBLD001/driver/dwc_otg_pcd_intr.c **** 		do_gadget_setup(pcd,&ctrl);
 4660              		.loc 2 1784 0
 4661 013e 07F11403 		add	r3, r7, #20
 4662 0142 7868     		ldr	r0, [r7, #4]
 4663 0144 1946     		mov	r1, r3
 4664 0146 FFF7FEFF 		bl	do_gadget_setup
1785:../Dave/Generated/src/USBLD001/driver/dwc_otg_pcd_intr.c **** #endif
1786:../Dave/Generated/src/USBLD001/driver/dwc_otg_pcd_intr.c **** 		break;
 4665              		.loc 2 1786 0
 4666 014a 17E0     		b	.L210
 4667              	.L222:
1787:../Dave/Generated/src/USBLD001/driver/dwc_otg_pcd_intr.c **** 
1788:../Dave/Generated/src/USBLD001/driver/dwc_otg_pcd_intr.c **** 	case UR_SET_INTERFACE:
1789:../Dave/Generated/src/USBLD001/driver/dwc_otg_pcd_intr.c **** 	case UR_SET_CONFIG:
1790:../Dave/Generated/src/USBLD001/driver/dwc_otg_pcd_intr.c **** //              _pcd->request_config = 1;       /* Configuration changed */
1791:../Dave/Generated/src/USBLD001/driver/dwc_otg_pcd_intr.c **** #ifdef USE_IFX_DEV
1792:../Dave/Generated/src/USBLD001/driver/dwc_otg_pcd_intr.c **** 		/*Added a ZLP part here, need to check*/
1793:../Dave/Generated/src/USBLD001/driver/dwc_otg_pcd_intr.c **** 		do_setup_in_status_phase(pcd);
 4668              		.loc 2 1793 0
 4669 014c 7868     		ldr	r0, [r7, #4]
 4670 014e FFF7FEFF 		bl	do_setup_in_status_phase
1794:../Dave/Generated/src/USBLD001/driver/dwc_otg_pcd_intr.c **** #endif
1795:../Dave/Generated/src/USBLD001/driver/dwc_otg_pcd_intr.c **** 		do_gadget_setup(pcd, &ctrl);
 4671              		.loc 2 1795 0
 4672 0152 07F11403 		add	r3, r7, #20
 4673 0156 7868     		ldr	r0, [r7, #4]
 4674 0158 1946     		mov	r1, r3
 4675 015a FFF7FEFF 		bl	do_gadget_setup
1796:../Dave/Generated/src/USBLD001/driver/dwc_otg_pcd_intr.c **** 		break;
 4676              		.loc 2 1796 0
 4677 015e 0DE0     		b	.L210
 4678              	.L223:
1797:../Dave/Generated/src/USBLD001/driver/dwc_otg_pcd_intr.c **** 
1798:../Dave/Generated/src/USBLD001/driver/dwc_otg_pcd_intr.c **** 	case UR_SYNCH_FRAME:
1799:../Dave/Generated/src/USBLD001/driver/dwc_otg_pcd_intr.c **** 		do_gadget_setup(pcd, &ctrl);
 4679              		.loc 2 1799 0
 4680 0160 07F11403 		add	r3, r7, #20
 4681 0164 7868     		ldr	r0, [r7, #4]
 4682 0166 1946     		mov	r1, r3
 4683 0168 FFF7FEFF 		bl	do_gadget_setup
1800:../Dave/Generated/src/USBLD001/driver/dwc_otg_pcd_intr.c **** 		break;
 4684              		.loc 2 1800 0
 4685 016c 06E0     		b	.L210
 4686              	.L217:
1801:../Dave/Generated/src/USBLD001/driver/dwc_otg_pcd_intr.c **** 
1802:../Dave/Generated/src/USBLD001/driver/dwc_otg_pcd_intr.c **** 	default:
1803:../Dave/Generated/src/USBLD001/driver/dwc_otg_pcd_intr.c **** 		/* Call the Gadget Driver's setup functions */
1804:../Dave/Generated/src/USBLD001/driver/dwc_otg_pcd_intr.c **** 		do_gadget_setup(pcd, &ctrl);
 4687              		.loc 2 1804 0
 4688 016e 07F11403 		add	r3, r7, #20
 4689 0172 7868     		ldr	r0, [r7, #4]
 4690 0174 1946     		mov	r1, r3
 4691 0176 FFF7FEFF 		bl	do_gadget_setup
1805:../Dave/Generated/src/USBLD001/driver/dwc_otg_pcd_intr.c **** 		break;
 4692              		.loc 2 1805 0
 4693 017a 00BF     		nop
 4694              	.L210:
1806:../Dave/Generated/src/USBLD001/driver/dwc_otg_pcd_intr.c **** 	}
1807:../Dave/Generated/src/USBLD001/driver/dwc_otg_pcd_intr.c **** }
 4695              		.loc 2 1807 0
 4696 017c 07F12807 		add	r7, r7, #40
 4697 0180 BD46     		mov	sp, r7
 4698 0182 80BD     		pop	{r7, pc}
 4699              		.cfi_endproc
 4700              	.LFE51:
 4702              		.section	.text.ep0_complete_request,"ax",%progbits
 4703              		.align	2
 4704              		.thumb
 4705              		.thumb_func
 4707              	ep0_complete_request:
 4708              	.LFB52:
1808:../Dave/Generated/src/USBLD001/driver/dwc_otg_pcd_intr.c **** 
1809:../Dave/Generated/src/USBLD001/driver/dwc_otg_pcd_intr.c **** /**
1810:../Dave/Generated/src/USBLD001/driver/dwc_otg_pcd_intr.c ****  * This function completes the ep0 control transfer.
1811:../Dave/Generated/src/USBLD001/driver/dwc_otg_pcd_intr.c ****  */
1812:../Dave/Generated/src/USBLD001/driver/dwc_otg_pcd_intr.c **** static int32_t ep0_complete_request(dwc_otg_pcd_ep_t * ep)
1813:../Dave/Generated/src/USBLD001/driver/dwc_otg_pcd_intr.c **** {
 4709              		.loc 2 1813 0
 4710              		.cfi_startproc
 4711              		@ args = 0, pretend = 0, frame = 48
 4712              		@ frame_needed = 1, uses_anonymous_args = 0
 4713 0000 80B5     		push	{r7, lr}
 4714              	.LCFI111:
 4715              		.cfi_def_cfa_offset 8
 4716              		.cfi_offset 7, -8
 4717              		.cfi_offset 14, -4
 4718 0002 8CB0     		sub	sp, sp, #48
 4719              	.LCFI112:
 4720              		.cfi_def_cfa_offset 56
 4721 0004 00AF     		add	r7, sp, #0
 4722              	.LCFI113:
 4723              		.cfi_def_cfa_register 7
 4724 0006 7860     		str	r0, [r7, #4]
1814:../Dave/Generated/src/USBLD001/driver/dwc_otg_pcd_intr.c **** 	dwc_otg_core_if_t *core_if = GET_CORE_IF(ep->pcd);
 4725              		.loc 2 1814 0
 4726 0008 7B68     		ldr	r3, [r7, #4]
 4727 000a DB6B     		ldr	r3, [r3, #60]
 4728 000c 9B68     		ldr	r3, [r3, #8]
 4729 000e BB62     		str	r3, [r7, #40]
1815:../Dave/Generated/src/USBLD001/driver/dwc_otg_pcd_intr.c **** 	dwc_otg_dev_if_t *dev_if = core_if->dev_if;
 4730              		.loc 2 1815 0
 4731 0010 BB6A     		ldr	r3, [r7, #40]
 4732 0012 9B68     		ldr	r3, [r3, #8]
 4733 0014 7B62     		str	r3, [r7, #36]
1816:../Dave/Generated/src/USBLD001/driver/dwc_otg_pcd_intr.c **** 	dwc_otg_dev_in_ep_regs_t *in_ep_regs =
1817:../Dave/Generated/src/USBLD001/driver/dwc_otg_pcd_intr.c **** 	    dev_if->in_ep_regs[ep->dwc_ep.num];
 4734              		.loc 2 1817 0
 4735 0016 7B68     		ldr	r3, [r7, #4]
 4736 0018 1B7C     		ldrb	r3, [r3, #16]	@ zero_extendqisi2
 4737 001a 7A6A     		ldr	r2, [r7, #36]
1816:../Dave/Generated/src/USBLD001/driver/dwc_otg_pcd_intr.c **** 	dwc_otg_dev_in_ep_regs_t *in_ep_regs =
 4738              		.loc 2 1816 0
 4739 001c 4FEA8303 		lsl	r3, r3, #2
 4740 0020 D318     		adds	r3, r2, r3
 4741 0022 5B68     		ldr	r3, [r3, #4]
 4742 0024 3B62     		str	r3, [r7, #32]
1818:../Dave/Generated/src/USBLD001/driver/dwc_otg_pcd_intr.c **** #ifdef DEBUG_EP0
1819:../Dave/Generated/src/USBLD001/driver/dwc_otg_pcd_intr.c **** 	dwc_otg_dev_out_ep_regs_t *out_ep_regs =
1820:../Dave/Generated/src/USBLD001/driver/dwc_otg_pcd_intr.c **** 	    dev_if->out_ep_regs[ep->dwc_ep.num];
 4743              		.loc 2 1820 0
 4744 0026 7B68     		ldr	r3, [r7, #4]
 4745 0028 1B7C     		ldrb	r3, [r3, #16]	@ zero_extendqisi2
 4746 002a 7A6A     		ldr	r2, [r7, #36]
1819:../Dave/Generated/src/USBLD001/driver/dwc_otg_pcd_intr.c **** 	dwc_otg_dev_out_ep_regs_t *out_ep_regs =
 4747              		.loc 2 1819 0
 4748 002c 03F10803 		add	r3, r3, #8
 4749 0030 4FEA8303 		lsl	r3, r3, #2
 4750 0034 D318     		adds	r3, r2, r3
 4751 0036 5B68     		ldr	r3, [r3, #4]
 4752 0038 FB61     		str	r3, [r7, #28]
1821:../Dave/Generated/src/USBLD001/driver/dwc_otg_pcd_intr.c **** #endif
1822:../Dave/Generated/src/USBLD001/driver/dwc_otg_pcd_intr.c **** 	deptsiz0_data_t deptsiz;
1823:../Dave/Generated/src/USBLD001/driver/dwc_otg_pcd_intr.c **** 	dev_dma_desc_sts_t desc_sts;
1824:../Dave/Generated/src/USBLD001/driver/dwc_otg_pcd_intr.c **** 	dwc_otg_pcd_request_t *req;
1825:../Dave/Generated/src/USBLD001/driver/dwc_otg_pcd_intr.c **** 	int is_last = 0;
 4753              		.loc 2 1825 0
 4754 003a 4FF00003 		mov	r3, #0
 4755 003e FB62     		str	r3, [r7, #44]
1826:../Dave/Generated/src/USBLD001/driver/dwc_otg_pcd_intr.c **** 	dwc_otg_pcd_t *pcd = ep->pcd;
 4756              		.loc 2 1826 0
 4757 0040 7B68     		ldr	r3, [r7, #4]
 4758 0042 DB6B     		ldr	r3, [r3, #60]
 4759 0044 BB61     		str	r3, [r7, #24]
1827:../Dave/Generated/src/USBLD001/driver/dwc_otg_pcd_intr.c **** 
1828:../Dave/Generated/src/USBLD001/driver/dwc_otg_pcd_intr.c **** #ifdef DWC_UTE_CFI
1829:../Dave/Generated/src/USBLD001/driver/dwc_otg_pcd_intr.c **** 	struct cfi_usb_ctrlrequest *ctrlreq;
1830:../Dave/Generated/src/USBLD001/driver/dwc_otg_pcd_intr.c **** 	int retval = -DWC_E_NOT_SUPPORTED;
1831:../Dave/Generated/src/USBLD001/driver/dwc_otg_pcd_intr.c **** #endif
1832:../Dave/Generated/src/USBLD001/driver/dwc_otg_pcd_intr.c **** 
1833:../Dave/Generated/src/USBLD001/driver/dwc_otg_pcd_intr.c **** 	if (pcd->ep0_pending && DWC_CIRCLEQ_EMPTY(&ep->queue)) {
 4760              		.loc 2 1833 0
 4761 0046 BB69     		ldr	r3, [r7, #24]
 4762 0048 5B7B     		ldrb	r3, [r3, #13]	@ zero_extendqisi2
 4763 004a 03F00103 		and	r3, r3, #1
 4764 004e DBB2     		uxtb	r3, r3
 4765 0050 002B     		cmp	r3, #0
 4766 0052 1CD0     		beq	.L227
 4767              		.loc 2 1833 0 is_stmt 0 discriminator 1
 4768 0054 7B68     		ldr	r3, [r7, #4]
 4769 0056 5A68     		ldr	r2, [r3, #4]
 4770 0058 7B68     		ldr	r3, [r7, #4]
 4771 005a 03F10403 		add	r3, r3, #4
 4772 005e 9A42     		cmp	r2, r3
 4773 0060 15D1     		bne	.L227
1834:../Dave/Generated/src/USBLD001/driver/dwc_otg_pcd_intr.c **** 		if (ep->dwc_ep.is_in) {
 4774              		.loc 2 1834 0 is_stmt 1
 4775 0062 7B68     		ldr	r3, [r7, #4]
 4776 0064 5B7C     		ldrb	r3, [r3, #17]	@ zero_extendqisi2
 4777 0066 03F00103 		and	r3, r3, #1
 4778 006a DBB2     		uxtb	r3, r3
 4779 006c 002B     		cmp	r3, #0
 4780 006e 03D0     		beq	.L228
1835:../Dave/Generated/src/USBLD001/driver/dwc_otg_pcd_intr.c **** #ifdef DEBUG_EP0
1836:../Dave/Generated/src/USBLD001/driver/dwc_otg_pcd_intr.c **** 			DWC_DEBUGPL(DBG_PCDV, "Do setup OUT status phase\n");
1837:../Dave/Generated/src/USBLD001/driver/dwc_otg_pcd_intr.c **** #endif
1838:../Dave/Generated/src/USBLD001/driver/dwc_otg_pcd_intr.c **** 			do_setup_out_status_phase(pcd);
 4781              		.loc 2 1838 0
 4782 0070 B869     		ldr	r0, [r7, #24]
 4783 0072 FFF7FEFF 		bl	do_setup_out_status_phase
 4784 0076 02E0     		b	.L229
 4785              	.L228:
1839:../Dave/Generated/src/USBLD001/driver/dwc_otg_pcd_intr.c **** 		} else {
1840:../Dave/Generated/src/USBLD001/driver/dwc_otg_pcd_intr.c **** #ifdef DEBUG_EP0
1841:../Dave/Generated/src/USBLD001/driver/dwc_otg_pcd_intr.c **** 			DWC_DEBUGPL(DBG_PCDV, "Do setup IN status phase\n");
1842:../Dave/Generated/src/USBLD001/driver/dwc_otg_pcd_intr.c **** #endif
1843:../Dave/Generated/src/USBLD001/driver/dwc_otg_pcd_intr.c **** 
1844:../Dave/Generated/src/USBLD001/driver/dwc_otg_pcd_intr.c **** #ifdef DWC_UTE_CFI
1845:../Dave/Generated/src/USBLD001/driver/dwc_otg_pcd_intr.c **** 			ctrlreq = &pcd->cfi->ctrl_req;
1846:../Dave/Generated/src/USBLD001/driver/dwc_otg_pcd_intr.c **** 
1847:../Dave/Generated/src/USBLD001/driver/dwc_otg_pcd_intr.c **** 			if (UT_GET_TYPE(ctrlreq->bRequestType) == UT_VENDOR) {
1848:../Dave/Generated/src/USBLD001/driver/dwc_otg_pcd_intr.c **** 				if (ctrlreq->bRequest > 0xB0
1849:../Dave/Generated/src/USBLD001/driver/dwc_otg_pcd_intr.c **** 				    && ctrlreq->bRequest < 0xBF) {
1850:../Dave/Generated/src/USBLD001/driver/dwc_otg_pcd_intr.c **** 
1851:../Dave/Generated/src/USBLD001/driver/dwc_otg_pcd_intr.c **** 					/* Return if the PCD failed to handle the request */
1852:../Dave/Generated/src/USBLD001/driver/dwc_otg_pcd_intr.c **** 					if ((retval =
1853:../Dave/Generated/src/USBLD001/driver/dwc_otg_pcd_intr.c **** 					     pcd->cfi->ops.
1854:../Dave/Generated/src/USBLD001/driver/dwc_otg_pcd_intr.c **** 					     ctrl_write_complete(pcd->cfi,
1855:../Dave/Generated/src/USBLD001/driver/dwc_otg_pcd_intr.c **** 								 pcd)) < 0) {
1856:../Dave/Generated/src/USBLD001/driver/dwc_otg_pcd_intr.c **** 						CFI_INFO
1857:../Dave/Generated/src/USBLD001/driver/dwc_otg_pcd_intr.c **** 						    ("ERROR setting a new value in the PCD(%d)\n",
1858:../Dave/Generated/src/USBLD001/driver/dwc_otg_pcd_intr.c **** 						     retval);
1859:../Dave/Generated/src/USBLD001/driver/dwc_otg_pcd_intr.c **** 						ep0_do_stall(pcd, retval);
1860:../Dave/Generated/src/USBLD001/driver/dwc_otg_pcd_intr.c **** 						pcd->ep0_pending = 0;
1861:../Dave/Generated/src/USBLD001/driver/dwc_otg_pcd_intr.c **** 						return 0;
1862:../Dave/Generated/src/USBLD001/driver/dwc_otg_pcd_intr.c **** 					}
1863:../Dave/Generated/src/USBLD001/driver/dwc_otg_pcd_intr.c **** 
1864:../Dave/Generated/src/USBLD001/driver/dwc_otg_pcd_intr.c **** 					/* If the gadget needs to be notified on the request */
1865:../Dave/Generated/src/USBLD001/driver/dwc_otg_pcd_intr.c **** 					if (pcd->cfi->need_gadget_att == 1) {
1866:../Dave/Generated/src/USBLD001/driver/dwc_otg_pcd_intr.c **** 						//retval = do_gadget_setup(pcd, &pcd->cfi->ctrl_req);
1867:../Dave/Generated/src/USBLD001/driver/dwc_otg_pcd_intr.c **** 						retval =
1868:../Dave/Generated/src/USBLD001/driver/dwc_otg_pcd_intr.c **** 						    cfi_gadget_setup(pcd,
1869:../Dave/Generated/src/USBLD001/driver/dwc_otg_pcd_intr.c **** 								     &pcd->cfi->
1870:../Dave/Generated/src/USBLD001/driver/dwc_otg_pcd_intr.c **** 								     ctrl_req);
1871:../Dave/Generated/src/USBLD001/driver/dwc_otg_pcd_intr.c **** 
1872:../Dave/Generated/src/USBLD001/driver/dwc_otg_pcd_intr.c **** 						/* Return from the function if the gadget failed to process
1873:../Dave/Generated/src/USBLD001/driver/dwc_otg_pcd_intr.c **** 						 * the request properly - this should never happen !!!
1874:../Dave/Generated/src/USBLD001/driver/dwc_otg_pcd_intr.c **** 						 */
1875:../Dave/Generated/src/USBLD001/driver/dwc_otg_pcd_intr.c **** 						if (retval < 0) {
1876:../Dave/Generated/src/USBLD001/driver/dwc_otg_pcd_intr.c **** 							CFI_INFO
1877:../Dave/Generated/src/USBLD001/driver/dwc_otg_pcd_intr.c **** 							    ("ERROR setting a new value in the gadget(%d)\n",
1878:../Dave/Generated/src/USBLD001/driver/dwc_otg_pcd_intr.c **** 							     retval);
1879:../Dave/Generated/src/USBLD001/driver/dwc_otg_pcd_intr.c **** 							pcd->ep0_pending = 0;
1880:../Dave/Generated/src/USBLD001/driver/dwc_otg_pcd_intr.c **** 							return 0;
1881:../Dave/Generated/src/USBLD001/driver/dwc_otg_pcd_intr.c **** 						}
1882:../Dave/Generated/src/USBLD001/driver/dwc_otg_pcd_intr.c **** 					}
1883:../Dave/Generated/src/USBLD001/driver/dwc_otg_pcd_intr.c **** 
1884:../Dave/Generated/src/USBLD001/driver/dwc_otg_pcd_intr.c **** 					CFI_INFO("%s: RETVAL=%d\n", __func__,
1885:../Dave/Generated/src/USBLD001/driver/dwc_otg_pcd_intr.c **** 						 retval);
1886:../Dave/Generated/src/USBLD001/driver/dwc_otg_pcd_intr.c **** 					/* If we hit here then the PCD and the gadget has properly
1887:../Dave/Generated/src/USBLD001/driver/dwc_otg_pcd_intr.c **** 					 * handled the request - so send the ZLP IN to the host.
1888:../Dave/Generated/src/USBLD001/driver/dwc_otg_pcd_intr.c **** 					 */
1889:../Dave/Generated/src/USBLD001/driver/dwc_otg_pcd_intr.c **** 					/* @todo: MAS - decide whether we need to start the setup
1890:../Dave/Generated/src/USBLD001/driver/dwc_otg_pcd_intr.c **** 					 * stage based on the need_setup value of the cfi object
1891:../Dave/Generated/src/USBLD001/driver/dwc_otg_pcd_intr.c **** 					 */
1892:../Dave/Generated/src/USBLD001/driver/dwc_otg_pcd_intr.c **** 					do_setup_in_status_phase(pcd);
1893:../Dave/Generated/src/USBLD001/driver/dwc_otg_pcd_intr.c **** 					pcd->ep0_pending = 0;
1894:../Dave/Generated/src/USBLD001/driver/dwc_otg_pcd_intr.c **** 					return 1;
1895:../Dave/Generated/src/USBLD001/driver/dwc_otg_pcd_intr.c **** 				}
1896:../Dave/Generated/src/USBLD001/driver/dwc_otg_pcd_intr.c **** 			}
1897:../Dave/Generated/src/USBLD001/driver/dwc_otg_pcd_intr.c **** #endif
1898:../Dave/Generated/src/USBLD001/driver/dwc_otg_pcd_intr.c **** 
1899:../Dave/Generated/src/USBLD001/driver/dwc_otg_pcd_intr.c **** 			do_setup_in_status_phase(pcd);
 4786              		.loc 2 1899 0
 4787 0078 B869     		ldr	r0, [r7, #24]
 4788 007a FFF7FEFF 		bl	do_setup_in_status_phase
 4789              	.L229:
1900:../Dave/Generated/src/USBLD001/driver/dwc_otg_pcd_intr.c **** 		}
1901:../Dave/Generated/src/USBLD001/driver/dwc_otg_pcd_intr.c **** 		pcd->ep0_pending = 0;
 4790              		.loc 2 1901 0
 4791 007e BA69     		ldr	r2, [r7, #24]
 4792 0080 537B     		ldrb	r3, [r2, #13]
 4793 0082 6FF30003 		bfc	r3, #0, #1
 4794 0086 5373     		strb	r3, [r2, #13]
1902:../Dave/Generated/src/USBLD001/driver/dwc_otg_pcd_intr.c **** 		return 1;
 4795              		.loc 2 1902 0
 4796 0088 4FF00103 		mov	r3, #1
 4797 008c 99E0     		b	.L242
 4798              	.L227:
1903:../Dave/Generated/src/USBLD001/driver/dwc_otg_pcd_intr.c **** 	}
1904:../Dave/Generated/src/USBLD001/driver/dwc_otg_pcd_intr.c **** 
1905:../Dave/Generated/src/USBLD001/driver/dwc_otg_pcd_intr.c **** 	if (DWC_CIRCLEQ_EMPTY(&ep->queue)) {
 4799              		.loc 2 1905 0
 4800 008e 7B68     		ldr	r3, [r7, #4]
 4801 0090 5A68     		ldr	r2, [r3, #4]
 4802 0092 7B68     		ldr	r3, [r7, #4]
 4803 0094 03F10403 		add	r3, r3, #4
 4804 0098 9A42     		cmp	r2, r3
 4805 009a 02D1     		bne	.L231
1906:../Dave/Generated/src/USBLD001/driver/dwc_otg_pcd_intr.c **** 		return 0;
 4806              		.loc 2 1906 0
 4807 009c 4FF00003 		mov	r3, #0
 4808 00a0 8FE0     		b	.L242
 4809              	.L231:
1907:../Dave/Generated/src/USBLD001/driver/dwc_otg_pcd_intr.c **** 	}
1908:../Dave/Generated/src/USBLD001/driver/dwc_otg_pcd_intr.c **** 	req = DWC_CIRCLEQ_FIRST(&ep->queue);
 4810              		.loc 2 1908 0
 4811 00a2 7B68     		ldr	r3, [r7, #4]
 4812 00a4 5B68     		ldr	r3, [r3, #4]
 4813 00a6 7B61     		str	r3, [r7, #20]
1909:../Dave/Generated/src/USBLD001/driver/dwc_otg_pcd_intr.c **** 
1910:../Dave/Generated/src/USBLD001/driver/dwc_otg_pcd_intr.c **** 	if (pcd->ep0state == EP0_OUT_STATUS_PHASE
 4814              		.loc 2 1910 0
 4815 00a8 BB69     		ldr	r3, [r7, #24]
 4816 00aa 1B7B     		ldrb	r3, [r3, #12]	@ zero_extendqisi2
 4817 00ac 052B     		cmp	r3, #5
 4818 00ae 03D0     		beq	.L232
1911:../Dave/Generated/src/USBLD001/driver/dwc_otg_pcd_intr.c **** 	    || pcd->ep0state == EP0_IN_STATUS_PHASE) {
 4819              		.loc 2 1911 0
 4820 00b0 BB69     		ldr	r3, [r7, #24]
 4821 00b2 1B7B     		ldrb	r3, [r3, #12]	@ zero_extendqisi2
 4822 00b4 042B     		cmp	r3, #4
 4823 00b6 03D1     		bne	.L233
 4824              	.L232:
1912:../Dave/Generated/src/USBLD001/driver/dwc_otg_pcd_intr.c **** 		is_last = 1;
 4825              		.loc 2 1912 0
 4826 00b8 4FF00103 		mov	r3, #1
 4827 00bc FB62     		str	r3, [r7, #44]
 4828 00be 65E0     		b	.L234
 4829              	.L233:
1913:../Dave/Generated/src/USBLD001/driver/dwc_otg_pcd_intr.c **** 	} else if (ep->dwc_ep.is_in) {
 4830              		.loc 2 1913 0
 4831 00c0 7B68     		ldr	r3, [r7, #4]
 4832 00c2 5B7C     		ldrb	r3, [r3, #17]	@ zero_extendqisi2
 4833 00c4 03F00103 		and	r3, r3, #1
 4834 00c8 DBB2     		uxtb	r3, r3
 4835 00ca 002B     		cmp	r3, #0
 4836 00cc 3BD0     		beq	.L235
1914:../Dave/Generated/src/USBLD001/driver/dwc_otg_pcd_intr.c **** 		deptsiz.d32 = DWC_READ_REG32(&in_ep_regs->dieptsiz);
 4837              		.loc 2 1914 0
 4838 00ce 3B6A     		ldr	r3, [r7, #32]
 4839 00d0 03F11003 		add	r3, r3, #16
 4840 00d4 1846     		mov	r0, r3
 4841 00d6 FFF7FEFF 		bl	DWC_READ_REG32
 4842 00da 0346     		mov	r3, r0
 4843 00dc FB60     		str	r3, [r7, #12]
1915:../Dave/Generated/src/USBLD001/driver/dwc_otg_pcd_intr.c **** 		if (core_if->dma_desc_enable != 0)
 4844              		.loc 2 1915 0
 4845 00de BB6A     		ldr	r3, [r7, #40]
 4846 00e0 93F84730 		ldrb	r3, [r3, #71]	@ zero_extendqisi2
 4847 00e4 002B     		cmp	r3, #0
 4848 00e6 04D0     		beq	.L236
1916:../Dave/Generated/src/USBLD001/driver/dwc_otg_pcd_intr.c **** 			desc_sts = dev_if->in_desc_addr->status;
 4849              		.loc 2 1916 0
 4850 00e8 7B6A     		ldr	r3, [r7, #36]
 4851 00ea D3F8AC30 		ldr	r3, [r3, #172]
 4852 00ee 1B68     		ldr	r3, [r3, #0]
 4853 00f0 BB60     		str	r3, [r7, #8]
 4854              	.L236:
1917:../Dave/Generated/src/USBLD001/driver/dwc_otg_pcd_intr.c **** #ifdef DEBUG_EP0
1918:../Dave/Generated/src/USBLD001/driver/dwc_otg_pcd_intr.c **** 		DWC_DEBUGPL(DBG_PCDV, "%d len=%d  xfersize=%d pktcnt=%d\n",
1919:../Dave/Generated/src/USBLD001/driver/dwc_otg_pcd_intr.c **** 			    ep->dwc_ep.num, ep->dwc_ep.xfer_len,
1920:../Dave/Generated/src/USBLD001/driver/dwc_otg_pcd_intr.c **** 			    deptsiz.b.xfersize, deptsiz.b.pktcnt);
1921:../Dave/Generated/src/USBLD001/driver/dwc_otg_pcd_intr.c **** #endif
1922:../Dave/Generated/src/USBLD001/driver/dwc_otg_pcd_intr.c **** 
1923:../Dave/Generated/src/USBLD001/driver/dwc_otg_pcd_intr.c **** 		if (((core_if->dma_desc_enable == 0)
 4855              		.loc 2 1923 0
 4856 00f2 BB6A     		ldr	r3, [r7, #40]
 4857 00f4 93F84730 		ldrb	r3, [r3, #71]	@ zero_extendqisi2
 4858 00f8 002B     		cmp	r3, #0
 4859 00fa 05D1     		bne	.L237
1924:../Dave/Generated/src/USBLD001/driver/dwc_otg_pcd_intr.c **** 		     && (deptsiz.b.xfersize == 0))
 4860              		.loc 2 1924 0
 4861 00fc 3B7B     		ldrb	r3, [r7, #12]	@ zero_extendqisi2
 4862 00fe 03F07F03 		and	r3, r3, #127
 4863 0102 DBB2     		uxtb	r3, r3
 4864 0104 002B     		cmp	r3, #0
 4865 0106 07D0     		beq	.L238
 4866              	.L237:
1925:../Dave/Generated/src/USBLD001/driver/dwc_otg_pcd_intr.c **** 		    || ((core_if->dma_desc_enable != 0)
 4867              		.loc 2 1925 0
 4868 0108 BB6A     		ldr	r3, [r7, #40]
 4869 010a 93F84730 		ldrb	r3, [r3, #71]	@ zero_extendqisi2
 4870 010e 002B     		cmp	r3, #0
 4871 0110 3CD0     		beq	.L234
1926:../Dave/Generated/src/USBLD001/driver/dwc_otg_pcd_intr.c **** 			&& (desc_sts.b.bytes == 0))) {
 4872              		.loc 2 1926 0
 4873 0112 3B89     		ldrh	r3, [r7, #8]
 4874 0114 002B     		cmp	r3, #0
 4875 0116 39D1     		bne	.L234
 4876              	.L238:
1927:../Dave/Generated/src/USBLD001/driver/dwc_otg_pcd_intr.c **** 			req->actual = ep->dwc_ep.xfer_count;
 4877              		.loc 2 1927 0
 4878 0118 7B68     		ldr	r3, [r7, #4]
 4879 011a 1B6B     		ldr	r3, [r3, #48]
 4880 011c C3F31203 		ubfx	r3, r3, #0, #19
 4881 0120 1A46     		mov	r2, r3
 4882 0122 7B69     		ldr	r3, [r7, #20]
 4883 0124 1A61     		str	r2, [r3, #16]
1928:../Dave/Generated/src/USBLD001/driver/dwc_otg_pcd_intr.c **** 			/* Is a Zero Len Packet needed? */
1929:../Dave/Generated/src/USBLD001/driver/dwc_otg_pcd_intr.c **** 			if (req->sent_zlp) {
 4884              		.loc 2 1929 0
 4885 0126 7B69     		ldr	r3, [r7, #20]
 4886 0128 1B7D     		ldrb	r3, [r3, #20]	@ zero_extendqisi2
 4887 012a 03F00103 		and	r3, r3, #1
 4888 012e DBB2     		uxtb	r3, r3
 4889 0130 002B     		cmp	r3, #0
 4890 0132 04D0     		beq	.L239
1930:../Dave/Generated/src/USBLD001/driver/dwc_otg_pcd_intr.c **** #ifdef DEBUG_EP0
1931:../Dave/Generated/src/USBLD001/driver/dwc_otg_pcd_intr.c **** 				DWC_DEBUGPL(DBG_PCD, "Setup Rx ZLP\n");
1932:../Dave/Generated/src/USBLD001/driver/dwc_otg_pcd_intr.c **** #endif
1933:../Dave/Generated/src/USBLD001/driver/dwc_otg_pcd_intr.c **** 				req->sent_zlp = 0;
 4891              		.loc 2 1933 0
 4892 0134 7A69     		ldr	r2, [r7, #20]
 4893 0136 137D     		ldrb	r3, [r2, #20]
 4894 0138 6FF30003 		bfc	r3, #0, #1
 4895 013c 1375     		strb	r3, [r2, #20]
 4896              	.L239:
1934:../Dave/Generated/src/USBLD001/driver/dwc_otg_pcd_intr.c **** 			}
1935:../Dave/Generated/src/USBLD001/driver/dwc_otg_pcd_intr.c **** 			do_setup_out_status_phase(pcd);
 4897              		.loc 2 1935 0
 4898 013e B869     		ldr	r0, [r7, #24]
 4899 0140 FFF7FEFF 		bl	do_setup_out_status_phase
 4900 0144 22E0     		b	.L234
 4901              	.L235:
1936:../Dave/Generated/src/USBLD001/driver/dwc_otg_pcd_intr.c **** 		}
1937:../Dave/Generated/src/USBLD001/driver/dwc_otg_pcd_intr.c **** 	} else {
1938:../Dave/Generated/src/USBLD001/driver/dwc_otg_pcd_intr.c **** 		/* ep0-OUT */
1939:../Dave/Generated/src/USBLD001/driver/dwc_otg_pcd_intr.c **** #ifdef DEBUG_EP0
1940:../Dave/Generated/src/USBLD001/driver/dwc_otg_pcd_intr.c **** 		deptsiz.d32 = DWC_READ_REG32(&out_ep_regs->doeptsiz);
 4902              		.loc 2 1940 0
 4903 0146 FB69     		ldr	r3, [r7, #28]
 4904 0148 03F11003 		add	r3, r3, #16
 4905 014c 1846     		mov	r0, r3
 4906 014e FFF7FEFF 		bl	DWC_READ_REG32
 4907 0152 0346     		mov	r3, r0
 4908 0154 FB60     		str	r3, [r7, #12]
1941:../Dave/Generated/src/USBLD001/driver/dwc_otg_pcd_intr.c **** 		DWC_DEBUGPL(DBG_PCDV, "%d len=%d xsize=%d pktcnt=%d\n",
1942:../Dave/Generated/src/USBLD001/driver/dwc_otg_pcd_intr.c **** 			    ep->dwc_ep.num, ep->dwc_ep.xfer_len,
1943:../Dave/Generated/src/USBLD001/driver/dwc_otg_pcd_intr.c **** 			    deptsiz.b.xfersize, deptsiz.b.pktcnt);
1944:../Dave/Generated/src/USBLD001/driver/dwc_otg_pcd_intr.c **** #endif
1945:../Dave/Generated/src/USBLD001/driver/dwc_otg_pcd_intr.c **** 		req->actual = ep->dwc_ep.xfer_count;
 4909              		.loc 2 1945 0
 4910 0156 7B68     		ldr	r3, [r7, #4]
 4911 0158 1B6B     		ldr	r3, [r3, #48]
 4912 015a C3F31203 		ubfx	r3, r3, #0, #19
 4913 015e 1A46     		mov	r2, r3
 4914 0160 7B69     		ldr	r3, [r7, #20]
 4915 0162 1A61     		str	r2, [r3, #16]
1946:../Dave/Generated/src/USBLD001/driver/dwc_otg_pcd_intr.c **** 
1947:../Dave/Generated/src/USBLD001/driver/dwc_otg_pcd_intr.c **** 		/* Is a Zero Len Packet needed? */
1948:../Dave/Generated/src/USBLD001/driver/dwc_otg_pcd_intr.c **** 		if (req->sent_zlp) {
 4916              		.loc 2 1948 0
 4917 0164 7B69     		ldr	r3, [r7, #20]
 4918 0166 1B7D     		ldrb	r3, [r3, #20]	@ zero_extendqisi2
 4919 0168 03F00103 		and	r3, r3, #1
 4920 016c DBB2     		uxtb	r3, r3
 4921 016e 002B     		cmp	r3, #0
 4922 0170 04D0     		beq	.L240
1949:../Dave/Generated/src/USBLD001/driver/dwc_otg_pcd_intr.c **** #ifdef DEBUG_EP0
1950:../Dave/Generated/src/USBLD001/driver/dwc_otg_pcd_intr.c **** 			DWC_DEBUGPL(DBG_PCDV, "Setup Tx ZLP\n");
1951:../Dave/Generated/src/USBLD001/driver/dwc_otg_pcd_intr.c **** #endif
1952:../Dave/Generated/src/USBLD001/driver/dwc_otg_pcd_intr.c **** 			req->sent_zlp = 0;
 4923              		.loc 2 1952 0
 4924 0172 7A69     		ldr	r2, [r7, #20]
 4925 0174 137D     		ldrb	r3, [r2, #20]
 4926 0176 6FF30003 		bfc	r3, #0, #1
 4927 017a 1375     		strb	r3, [r2, #20]
 4928              	.L240:
1953:../Dave/Generated/src/USBLD001/driver/dwc_otg_pcd_intr.c **** 		}
1954:../Dave/Generated/src/USBLD001/driver/dwc_otg_pcd_intr.c **** 		if (core_if->dma_desc_enable == 0)
 4929              		.loc 2 1954 0
 4930 017c BB6A     		ldr	r3, [r7, #40]
 4931 017e 93F84730 		ldrb	r3, [r3, #71]	@ zero_extendqisi2
 4932 0182 002B     		cmp	r3, #0
 4933 0184 02D1     		bne	.L234
1955:../Dave/Generated/src/USBLD001/driver/dwc_otg_pcd_intr.c **** 			do_setup_in_status_phase(pcd);
 4934              		.loc 2 1955 0
 4935 0186 B869     		ldr	r0, [r7, #24]
 4936 0188 FFF7FEFF 		bl	do_setup_in_status_phase
 4937              	.L234:
1956:../Dave/Generated/src/USBLD001/driver/dwc_otg_pcd_intr.c **** 	}
1957:../Dave/Generated/src/USBLD001/driver/dwc_otg_pcd_intr.c **** 
1958:../Dave/Generated/src/USBLD001/driver/dwc_otg_pcd_intr.c **** 	/* Complete the request */
1959:../Dave/Generated/src/USBLD001/driver/dwc_otg_pcd_intr.c **** 	if (is_last) {
 4938              		.loc 2 1959 0
 4939 018c FB6A     		ldr	r3, [r7, #44]
 4940 018e 002B     		cmp	r3, #0
 4941 0190 15D0     		beq	.L241
1960:../Dave/Generated/src/USBLD001/driver/dwc_otg_pcd_intr.c **** 		dwc_otg_request_done(ep, req, 0);
 4942              		.loc 2 1960 0
 4943 0192 7868     		ldr	r0, [r7, #4]
 4944 0194 7969     		ldr	r1, [r7, #20]
 4945 0196 4FF00002 		mov	r2, #0
 4946 019a FFF7FEFF 		bl	dwc_otg_request_done
1961:../Dave/Generated/src/USBLD001/driver/dwc_otg_pcd_intr.c **** 		ep->dwc_ep.start_xfer_buff = 0;
 4947              		.loc 2 1961 0
 4948 019e 7B68     		ldr	r3, [r7, #4]
 4949 01a0 4FF00002 		mov	r2, #0
 4950 01a4 5A62     		str	r2, [r3, #36]
1962:../Dave/Generated/src/USBLD001/driver/dwc_otg_pcd_intr.c **** 		ep->dwc_ep.xfer_buff = 0;
 4951              		.loc 2 1962 0
 4952 01a6 7B68     		ldr	r3, [r7, #4]
 4953 01a8 4FF00002 		mov	r2, #0
 4954 01ac 9A62     		str	r2, [r3, #40]
1963:../Dave/Generated/src/USBLD001/driver/dwc_otg_pcd_intr.c **** 		ep->dwc_ep.xfer_len = 0;
 4955              		.loc 2 1963 0
 4956 01ae 7A68     		ldr	r2, [r7, #4]
 4957 01b0 D36A     		ldr	r3, [r2, #44]
 4958 01b2 6FF31203 		bfc	r3, #0, #19
 4959 01b6 D362     		str	r3, [r2, #44]
1964:../Dave/Generated/src/USBLD001/driver/dwc_otg_pcd_intr.c **** 		return 1;
 4960              		.loc 2 1964 0
 4961 01b8 4FF00103 		mov	r3, #1
 4962 01bc 01E0     		b	.L242
 4963              	.L241:
1965:../Dave/Generated/src/USBLD001/driver/dwc_otg_pcd_intr.c **** 	}
1966:../Dave/Generated/src/USBLD001/driver/dwc_otg_pcd_intr.c **** 	return 0;
 4964              		.loc 2 1966 0
 4965 01be 4FF00003 		mov	r3, #0
 4966              	.L242:
1967:../Dave/Generated/src/USBLD001/driver/dwc_otg_pcd_intr.c **** }
 4967              		.loc 2 1967 0
 4968 01c2 1846     		mov	r0, r3
 4969 01c4 07F13007 		add	r7, r7, #48
 4970 01c8 BD46     		mov	sp, r7
 4971 01ca 80BD     		pop	{r7, pc}
 4972              		.cfi_endproc
 4973              	.LFE52:
 4975              		.section	.text.complete_ep,"ax",%progbits
 4976              		.align	2
 4977              		.thumb
 4978              		.thumb_func
 4980              	complete_ep:
 4981              	.LFB53:
1968:../Dave/Generated/src/USBLD001/driver/dwc_otg_pcd_intr.c **** 
1969:../Dave/Generated/src/USBLD001/driver/dwc_otg_pcd_intr.c **** #ifdef DWC_UTE_CFI
1970:../Dave/Generated/src/USBLD001/driver/dwc_otg_pcd_intr.c **** /**
1971:../Dave/Generated/src/USBLD001/driver/dwc_otg_pcd_intr.c ****  * This function calculates traverses all the CFI DMA descriptors and
1972:../Dave/Generated/src/USBLD001/driver/dwc_otg_pcd_intr.c ****  * and accumulates the bytes that are left to be transfered.
1973:../Dave/Generated/src/USBLD001/driver/dwc_otg_pcd_intr.c ****  *
1974:../Dave/Generated/src/USBLD001/driver/dwc_otg_pcd_intr.c ****  * @return The total bytes left to transfered, or a negative value as failure
1975:../Dave/Generated/src/USBLD001/driver/dwc_otg_pcd_intr.c ****  */
1976:../Dave/Generated/src/USBLD001/driver/dwc_otg_pcd_intr.c **** static inline int cfi_calc_desc_residue(dwc_otg_pcd_ep_t * ep)
1977:../Dave/Generated/src/USBLD001/driver/dwc_otg_pcd_intr.c **** {
1978:../Dave/Generated/src/USBLD001/driver/dwc_otg_pcd_intr.c **** 	int32_t ret = 0;
1979:../Dave/Generated/src/USBLD001/driver/dwc_otg_pcd_intr.c **** 	int i;
1980:../Dave/Generated/src/USBLD001/driver/dwc_otg_pcd_intr.c **** 	struct dwc_otg_dma_desc *ddesc = NULL;
1981:../Dave/Generated/src/USBLD001/driver/dwc_otg_pcd_intr.c **** 	struct cfi_ep *cfiep;
1982:../Dave/Generated/src/USBLD001/driver/dwc_otg_pcd_intr.c **** 
1983:../Dave/Generated/src/USBLD001/driver/dwc_otg_pcd_intr.c **** 	/* See if the pcd_ep has its respective cfi_ep mapped */
1984:../Dave/Generated/src/USBLD001/driver/dwc_otg_pcd_intr.c **** 	cfiep = get_cfi_ep_by_pcd_ep(ep->pcd->cfi, ep);
1985:../Dave/Generated/src/USBLD001/driver/dwc_otg_pcd_intr.c **** 	if (!cfiep) {
1986:../Dave/Generated/src/USBLD001/driver/dwc_otg_pcd_intr.c **** 		CFI_INFO("%s: Failed to find ep\n", __func__);
1987:../Dave/Generated/src/USBLD001/driver/dwc_otg_pcd_intr.c **** 		return -1;
1988:../Dave/Generated/src/USBLD001/driver/dwc_otg_pcd_intr.c **** 	}
1989:../Dave/Generated/src/USBLD001/driver/dwc_otg_pcd_intr.c **** 
1990:../Dave/Generated/src/USBLD001/driver/dwc_otg_pcd_intr.c **** 	ddesc = ep->dwc_ep.descs;
1991:../Dave/Generated/src/USBLD001/driver/dwc_otg_pcd_intr.c **** 
1992:../Dave/Generated/src/USBLD001/driver/dwc_otg_pcd_intr.c **** 	for (i = 0; (i < cfiep->desc_count) && (i < MAX_DMA_DESCS_PER_EP); i++) {
1993:../Dave/Generated/src/USBLD001/driver/dwc_otg_pcd_intr.c **** 
1994:../Dave/Generated/src/USBLD001/driver/dwc_otg_pcd_intr.c **** #if defined(PRINT_CFI_DMA_DESCS)
1995:../Dave/Generated/src/USBLD001/driver/dwc_otg_pcd_intr.c **** 		print_desc(ddesc, ep->ep.name, i);
1996:../Dave/Generated/src/USBLD001/driver/dwc_otg_pcd_intr.c **** #endif
1997:../Dave/Generated/src/USBLD001/driver/dwc_otg_pcd_intr.c **** 		ret += ddesc->status.b.bytes;
1998:../Dave/Generated/src/USBLD001/driver/dwc_otg_pcd_intr.c **** 		ddesc++;
1999:../Dave/Generated/src/USBLD001/driver/dwc_otg_pcd_intr.c **** 	}
2000:../Dave/Generated/src/USBLD001/driver/dwc_otg_pcd_intr.c **** 
2001:../Dave/Generated/src/USBLD001/driver/dwc_otg_pcd_intr.c **** 	if (ret)
2002:../Dave/Generated/src/USBLD001/driver/dwc_otg_pcd_intr.c **** 		CFI_INFO("!!!!!!!!!! WARNING (%s) - residue=%d\n", __func__,
2003:../Dave/Generated/src/USBLD001/driver/dwc_otg_pcd_intr.c **** 			 ret);
2004:../Dave/Generated/src/USBLD001/driver/dwc_otg_pcd_intr.c **** 
2005:../Dave/Generated/src/USBLD001/driver/dwc_otg_pcd_intr.c **** 	return ret;
2006:../Dave/Generated/src/USBLD001/driver/dwc_otg_pcd_intr.c **** }
2007:../Dave/Generated/src/USBLD001/driver/dwc_otg_pcd_intr.c **** #endif
2008:../Dave/Generated/src/USBLD001/driver/dwc_otg_pcd_intr.c **** 
2009:../Dave/Generated/src/USBLD001/driver/dwc_otg_pcd_intr.c **** /**
2010:../Dave/Generated/src/USBLD001/driver/dwc_otg_pcd_intr.c ****  * This function completes the request for the EP. If there are
2011:../Dave/Generated/src/USBLD001/driver/dwc_otg_pcd_intr.c ****  * additional requests for the EP in the queue they will be started.
2012:../Dave/Generated/src/USBLD001/driver/dwc_otg_pcd_intr.c ****  */
2013:../Dave/Generated/src/USBLD001/driver/dwc_otg_pcd_intr.c **** static void complete_ep(dwc_otg_pcd_ep_t * ep)
2014:../Dave/Generated/src/USBLD001/driver/dwc_otg_pcd_intr.c **** {
 4982              		.loc 2 2014 0
 4983              		.cfi_startproc
 4984              		@ args = 0, pretend = 0, frame = 56
 4985              		@ frame_needed = 1, uses_anonymous_args = 0
 4986 0000 80B5     		push	{r7, lr}
 4987              	.LCFI114:
 4988              		.cfi_def_cfa_offset 8
 4989              		.cfi_offset 7, -8
 4990              		.cfi_offset 14, -4
 4991 0002 8EB0     		sub	sp, sp, #56
 4992              	.LCFI115:
 4993              		.cfi_def_cfa_offset 64
 4994 0004 00AF     		add	r7, sp, #0
 4995              	.LCFI116:
 4996              		.cfi_def_cfa_register 7
 4997 0006 7860     		str	r0, [r7, #4]
2015:../Dave/Generated/src/USBLD001/driver/dwc_otg_pcd_intr.c **** 	dwc_otg_core_if_t *core_if = GET_CORE_IF(ep->pcd);
 4998              		.loc 2 2015 0
 4999 0008 7B68     		ldr	r3, [r7, #4]
 5000 000a DB6B     		ldr	r3, [r3, #60]
 5001 000c 9B68     		ldr	r3, [r3, #8]
 5002 000e 7B62     		str	r3, [r7, #36]
2016:../Dave/Generated/src/USBLD001/driver/dwc_otg_pcd_intr.c **** 	dwc_otg_dev_if_t *dev_if = core_if->dev_if;
 5003              		.loc 2 2016 0
 5004 0010 7B6A     		ldr	r3, [r7, #36]
 5005 0012 9B68     		ldr	r3, [r3, #8]
 5006 0014 3B62     		str	r3, [r7, #32]
2017:../Dave/Generated/src/USBLD001/driver/dwc_otg_pcd_intr.c **** 	dwc_otg_dev_in_ep_regs_t *in_ep_regs =
2018:../Dave/Generated/src/USBLD001/driver/dwc_otg_pcd_intr.c **** 	    dev_if->in_ep_regs[ep->dwc_ep.num];
 5007              		.loc 2 2018 0
 5008 0016 7B68     		ldr	r3, [r7, #4]
 5009 0018 1B7C     		ldrb	r3, [r3, #16]	@ zero_extendqisi2
 5010 001a 3A6A     		ldr	r2, [r7, #32]
2017:../Dave/Generated/src/USBLD001/driver/dwc_otg_pcd_intr.c **** 	dwc_otg_dev_in_ep_regs_t *in_ep_regs =
 5011              		.loc 2 2017 0
 5012 001c 4FEA8303 		lsl	r3, r3, #2
 5013 0020 D318     		adds	r3, r2, r3
 5014 0022 5B68     		ldr	r3, [r3, #4]
 5015 0024 FB61     		str	r3, [r7, #28]
2019:../Dave/Generated/src/USBLD001/driver/dwc_otg_pcd_intr.c **** 	deptsiz_data_t deptsiz;
2020:../Dave/Generated/src/USBLD001/driver/dwc_otg_pcd_intr.c **** 	dev_dma_desc_sts_t desc_sts;
2021:../Dave/Generated/src/USBLD001/driver/dwc_otg_pcd_intr.c **** 	dwc_otg_pcd_request_t *req = 0;
 5016              		.loc 2 2021 0
 5017 0026 4FF00003 		mov	r3, #0
 5018 002a BB61     		str	r3, [r7, #24]
2022:../Dave/Generated/src/USBLD001/driver/dwc_otg_pcd_intr.c **** 	dwc_otg_dev_dma_desc_t *dma_desc;
2023:../Dave/Generated/src/USBLD001/driver/dwc_otg_pcd_intr.c **** 	uint32_t byte_count = 0;
 5019              		.loc 2 2023 0
 5020 002c 4FF00003 		mov	r3, #0
 5021 0030 3B63     		str	r3, [r7, #48]
2024:../Dave/Generated/src/USBLD001/driver/dwc_otg_pcd_intr.c **** 	int is_last = 0;
 5022              		.loc 2 2024 0
 5023 0032 4FF00003 		mov	r3, #0
 5024 0036 FB62     		str	r3, [r7, #44]
2025:../Dave/Generated/src/USBLD001/driver/dwc_otg_pcd_intr.c **** 	int i;
2026:../Dave/Generated/src/USBLD001/driver/dwc_otg_pcd_intr.c **** 
2027:../Dave/Generated/src/USBLD001/driver/dwc_otg_pcd_intr.c **** 	DWC_DEBUGPL(DBG_PCDV, "%s() %d-%s\n", __func__, ep->dwc_ep.num,
2028:../Dave/Generated/src/USBLD001/driver/dwc_otg_pcd_intr.c **** 		    (ep->dwc_ep.is_in ? "IN" : "OUT"));
2029:../Dave/Generated/src/USBLD001/driver/dwc_otg_pcd_intr.c **** 
2030:../Dave/Generated/src/USBLD001/driver/dwc_otg_pcd_intr.c **** 	/* Get any pending requests */
2031:../Dave/Generated/src/USBLD001/driver/dwc_otg_pcd_intr.c **** 	if (!DWC_CIRCLEQ_EMPTY(&ep->queue)) {
 5025              		.loc 2 2031 0
 5026 0038 7B68     		ldr	r3, [r7, #4]
 5027 003a 5A68     		ldr	r2, [r3, #4]
 5028 003c 7B68     		ldr	r3, [r7, #4]
 5029 003e 03F10403 		add	r3, r3, #4
 5030 0042 9A42     		cmp	r2, r3
 5031 0044 00F00682 		beq	.L243
2032:../Dave/Generated/src/USBLD001/driver/dwc_otg_pcd_intr.c **** 		req = DWC_CIRCLEQ_FIRST(&ep->queue);
 5032              		.loc 2 2032 0
 5033 0048 7B68     		ldr	r3, [r7, #4]
 5034 004a 5B68     		ldr	r3, [r3, #4]
 5035 004c BB61     		str	r3, [r7, #24]
2033:../Dave/Generated/src/USBLD001/driver/dwc_otg_pcd_intr.c **** 		if (!req) {
 5036              		.loc 2 2033 0
 5037 004e BB69     		ldr	r3, [r7, #24]
 5038 0050 002B     		cmp	r3, #0
 5039 0052 00F0FF81 		beq	.L243
2034:../Dave/Generated/src/USBLD001/driver/dwc_otg_pcd_intr.c **** 			DWC_PRINTF("complete_ep 0x%p, req = NULL!\n", ep);
2035:../Dave/Generated/src/USBLD001/driver/dwc_otg_pcd_intr.c **** 			return;
2036:../Dave/Generated/src/USBLD001/driver/dwc_otg_pcd_intr.c **** 		}
2037:../Dave/Generated/src/USBLD001/driver/dwc_otg_pcd_intr.c **** 	} else {
2038:../Dave/Generated/src/USBLD001/driver/dwc_otg_pcd_intr.c **** 		DWC_PRINTF("complete_ep 0x%p, ep->queue empty!\n", ep);
2039:../Dave/Generated/src/USBLD001/driver/dwc_otg_pcd_intr.c **** 		return;
2040:../Dave/Generated/src/USBLD001/driver/dwc_otg_pcd_intr.c **** 	}
2041:../Dave/Generated/src/USBLD001/driver/dwc_otg_pcd_intr.c **** 
2042:../Dave/Generated/src/USBLD001/driver/dwc_otg_pcd_intr.c **** 	DWC_DEBUGPL(DBG_PCD, "Requests %d\n", ep->pcd->request_pending);
2043:../Dave/Generated/src/USBLD001/driver/dwc_otg_pcd_intr.c **** 
2044:../Dave/Generated/src/USBLD001/driver/dwc_otg_pcd_intr.c **** 	if (ep->dwc_ep.is_in) {
 5040              		.loc 2 2044 0
 5041 0056 7B68     		ldr	r3, [r7, #4]
 5042 0058 5B7C     		ldrb	r3, [r3, #17]	@ zero_extendqisi2
 5043 005a 03F00103 		and	r3, r3, #1
 5044 005e DBB2     		uxtb	r3, r3
 5045 0060 002B     		cmp	r3, #0
 5046 0062 00F0EC80 		beq	.L245
2045:../Dave/Generated/src/USBLD001/driver/dwc_otg_pcd_intr.c **** 		deptsiz.d32 = DWC_READ_REG32(&in_ep_regs->dieptsiz);
 5047              		.loc 2 2045 0
 5048 0066 FB69     		ldr	r3, [r7, #28]
 5049 0068 03F11003 		add	r3, r3, #16
 5050 006c 1846     		mov	r0, r3
 5051 006e FFF7FEFF 		bl	DWC_READ_REG32
 5052 0072 0346     		mov	r3, r0
 5053 0074 3B61     		str	r3, [r7, #16]
2046:../Dave/Generated/src/USBLD001/driver/dwc_otg_pcd_intr.c **** 
2047:../Dave/Generated/src/USBLD001/driver/dwc_otg_pcd_intr.c **** 		if (core_if->dma_enable) {
 5054              		.loc 2 2047 0
 5055 0076 7B6A     		ldr	r3, [r7, #36]
 5056 0078 93F84630 		ldrb	r3, [r3, #70]	@ zero_extendqisi2
 5057 007c 002B     		cmp	r3, #0
 5058 007e 00F0A080 		beq	.L246
2048:../Dave/Generated/src/USBLD001/driver/dwc_otg_pcd_intr.c **** 			if (core_if->dma_desc_enable == 0) {
 5059              		.loc 2 2048 0
 5060 0082 7B6A     		ldr	r3, [r7, #36]
 5061 0084 93F84730 		ldrb	r3, [r3, #71]	@ zero_extendqisi2
 5062 0088 002B     		cmp	r3, #0
 5063 008a 64D1     		bne	.L247
2049:../Dave/Generated/src/USBLD001/driver/dwc_otg_pcd_intr.c **** 				if (deptsiz.b.xfersize == 0
 5064              		.loc 2 2049 0
 5065 008c 3B69     		ldr	r3, [r7, #16]
 5066 008e 23F07F43 		bic	r3, r3, #-16777216
 5067 0092 23F47803 		bic	r3, r3, #16252928
 5068 0096 002B     		cmp	r3, #0
 5069 0098 40F0BC81 		bne	.L248
2050:../Dave/Generated/src/USBLD001/driver/dwc_otg_pcd_intr.c **** 				    && deptsiz.b.pktcnt == 0) {
 5070              		.loc 2 2050 0
 5071 009c 7A8A     		ldrh	r2, [r7, #18]
 5072 009e 41F6F873 		movw	r3, #8184
 5073 00a2 1340     		ands	r3, r3, r2
 5074 00a4 9BB2     		uxth	r3, r3
 5075 00a6 002B     		cmp	r3, #0
 5076 00a8 40F0B481 		bne	.L248
2051:../Dave/Generated/src/USBLD001/driver/dwc_otg_pcd_intr.c **** 					byte_count =
2052:../Dave/Generated/src/USBLD001/driver/dwc_otg_pcd_intr.c **** 					    ep->dwc_ep.xfer_len -
 5077              		.loc 2 2052 0
 5078 00ac 7B68     		ldr	r3, [r7, #4]
 5079 00ae DB6A     		ldr	r3, [r3, #44]
 5080 00b0 C3F31203 		ubfx	r3, r3, #0, #19
 5081 00b4 1A46     		mov	r2, r3
2053:../Dave/Generated/src/USBLD001/driver/dwc_otg_pcd_intr.c **** 					    ep->dwc_ep.xfer_count;
 5082              		.loc 2 2053 0
 5083 00b6 7B68     		ldr	r3, [r7, #4]
 5084 00b8 1B6B     		ldr	r3, [r3, #48]
 5085 00ba C3F31203 		ubfx	r3, r3, #0, #19
2052:../Dave/Generated/src/USBLD001/driver/dwc_otg_pcd_intr.c **** 					    ep->dwc_ep.xfer_len -
 5086              		.loc 2 2052 0
 5087 00be D31A     		subs	r3, r2, r3
2051:../Dave/Generated/src/USBLD001/driver/dwc_otg_pcd_intr.c **** 					byte_count =
 5088              		.loc 2 2051 0
 5089 00c0 3B63     		str	r3, [r7, #48]
2054:../Dave/Generated/src/USBLD001/driver/dwc_otg_pcd_intr.c **** 
2055:../Dave/Generated/src/USBLD001/driver/dwc_otg_pcd_intr.c **** 					ep->dwc_ep.xfer_buff += byte_count;
 5090              		.loc 2 2055 0
 5091 00c2 7B68     		ldr	r3, [r7, #4]
 5092 00c4 9A6A     		ldr	r2, [r3, #40]
 5093 00c6 3B6B     		ldr	r3, [r7, #48]
 5094 00c8 D218     		adds	r2, r2, r3
 5095 00ca 7B68     		ldr	r3, [r7, #4]
 5096 00cc 9A62     		str	r2, [r3, #40]
2056:../Dave/Generated/src/USBLD001/driver/dwc_otg_pcd_intr.c **** 					ep->dwc_ep.dma_addr += byte_count;
 5097              		.loc 2 2056 0
 5098 00ce 7B68     		ldr	r3, [r7, #4]
 5099 00d0 9A69     		ldr	r2, [r3, #24]
 5100 00d2 3B6B     		ldr	r3, [r7, #48]
 5101 00d4 D218     		adds	r2, r2, r3
 5102 00d6 7B68     		ldr	r3, [r7, #4]
 5103 00d8 9A61     		str	r2, [r3, #24]
2057:../Dave/Generated/src/USBLD001/driver/dwc_otg_pcd_intr.c **** 					ep->dwc_ep.xfer_count += byte_count;
 5104              		.loc 2 2057 0
 5105 00da 7B68     		ldr	r3, [r7, #4]
 5106 00dc 1B6B     		ldr	r3, [r3, #48]
 5107 00de C3F31203 		ubfx	r3, r3, #0, #19
 5108 00e2 1A46     		mov	r2, r3
 5109 00e4 3B6B     		ldr	r3, [r7, #48]
 5110 00e6 D318     		adds	r3, r2, r3
 5111 00e8 23F07F42 		bic	r2, r3, #-16777216
 5112 00ec 22F47802 		bic	r2, r2, #16252928
 5113 00f0 7968     		ldr	r1, [r7, #4]
 5114 00f2 0B6B     		ldr	r3, [r1, #48]
 5115 00f4 62F31203 		bfi	r3, r2, #0, #19
 5116 00f8 0B63     		str	r3, [r1, #48]
2058:../Dave/Generated/src/USBLD001/driver/dwc_otg_pcd_intr.c **** 
2059:../Dave/Generated/src/USBLD001/driver/dwc_otg_pcd_intr.c **** 					DWC_DEBUGPL(DBG_PCDV,
2060:../Dave/Generated/src/USBLD001/driver/dwc_otg_pcd_intr.c **** 						    "%d-%s len=%d  xfersize=%d pktcnt=%d\n",
2061:../Dave/Generated/src/USBLD001/driver/dwc_otg_pcd_intr.c **** 						    ep->dwc_ep.num,
2062:../Dave/Generated/src/USBLD001/driver/dwc_otg_pcd_intr.c **** 						    (ep->dwc_ep.
2063:../Dave/Generated/src/USBLD001/driver/dwc_otg_pcd_intr.c **** 						     is_in ? "IN" : "OUT"),
2064:../Dave/Generated/src/USBLD001/driver/dwc_otg_pcd_intr.c **** 						    ep->dwc_ep.xfer_len,
2065:../Dave/Generated/src/USBLD001/driver/dwc_otg_pcd_intr.c **** 						    deptsiz.b.xfersize,
2066:../Dave/Generated/src/USBLD001/driver/dwc_otg_pcd_intr.c **** 						    deptsiz.b.pktcnt);
2067:../Dave/Generated/src/USBLD001/driver/dwc_otg_pcd_intr.c **** 
2068:../Dave/Generated/src/USBLD001/driver/dwc_otg_pcd_intr.c **** 					if (ep->dwc_ep.xfer_len <
 5117              		.loc 2 2068 0
 5118 00fa 7B68     		ldr	r3, [r7, #4]
 5119 00fc DB6A     		ldr	r3, [r3, #44]
 5120 00fe C3F31203 		ubfx	r3, r3, #0, #19
 5121 0102 1A46     		mov	r2, r3
2069:../Dave/Generated/src/USBLD001/driver/dwc_otg_pcd_intr.c **** 					    ep->dwc_ep.total_len) {
 5122              		.loc 2 2069 0
 5123 0104 7B68     		ldr	r3, [r7, #4]
 5124 0106 5B6B     		ldr	r3, [r3, #52]
 5125 0108 C3F31203 		ubfx	r3, r3, #0, #19
2068:../Dave/Generated/src/USBLD001/driver/dwc_otg_pcd_intr.c **** 					if (ep->dwc_ep.xfer_len <
 5126              		.loc 2 2068 0
 5127 010c 9A42     		cmp	r2, r3
 5128 010e 07DA     		bge	.L249
2070:../Dave/Generated/src/USBLD001/driver/dwc_otg_pcd_intr.c **** 						dwc_otg_ep_start_transfer
2071:../Dave/Generated/src/USBLD001/driver/dwc_otg_pcd_intr.c **** 						    (core_if, &ep->dwc_ep);
 5129              		.loc 2 2071 0
 5130 0110 7B68     		ldr	r3, [r7, #4]
 5131 0112 03F11003 		add	r3, r3, #16
 5132 0116 786A     		ldr	r0, [r7, #36]
 5133 0118 1946     		mov	r1, r3
 5134 011a FFF7FEFF 		bl	dwc_otg_ep_start_transfer
 5135 011e 79E1     		b	.L248
 5136              	.L249:
2072:../Dave/Generated/src/USBLD001/driver/dwc_otg_pcd_intr.c **** 					} else if (ep->dwc_ep.sent_zlp) {
 5137              		.loc 2 2072 0
 5138 0120 7B68     		ldr	r3, [r7, #4]
 5139 0122 93F83230 		ldrb	r3, [r3, #50]	@ zero_extendqisi2
 5140 0126 03F00803 		and	r3, r3, #8
 5141 012a DBB2     		uxtb	r3, r3
 5142 012c 002B     		cmp	r3, #0
 5143 012e 0ED0     		beq	.L250
2073:../Dave/Generated/src/USBLD001/driver/dwc_otg_pcd_intr.c **** 						/*     
2074:../Dave/Generated/src/USBLD001/driver/dwc_otg_pcd_intr.c **** 						 * This fragment of code should initiate 0
2075:../Dave/Generated/src/USBLD001/driver/dwc_otg_pcd_intr.c **** 						 * length trasfer in case if it is queued
2076:../Dave/Generated/src/USBLD001/driver/dwc_otg_pcd_intr.c **** 						 * a trasfer with size divisible to EPs max
2077:../Dave/Generated/src/USBLD001/driver/dwc_otg_pcd_intr.c **** 						 * packet size and with usb_request zero field
2078:../Dave/Generated/src/USBLD001/driver/dwc_otg_pcd_intr.c **** 						 * is set, which means that after data is transfered,
2079:../Dave/Generated/src/USBLD001/driver/dwc_otg_pcd_intr.c **** 						 * it is also should be transfered
2080:../Dave/Generated/src/USBLD001/driver/dwc_otg_pcd_intr.c **** 						 * a 0 length packet at the end. For Slave and
2081:../Dave/Generated/src/USBLD001/driver/dwc_otg_pcd_intr.c **** 						 * Buffer DMA modes in this case SW has
2082:../Dave/Generated/src/USBLD001/driver/dwc_otg_pcd_intr.c **** 						 * to initiate 2 transfers one with transfer size,
2083:../Dave/Generated/src/USBLD001/driver/dwc_otg_pcd_intr.c **** 						 * and the second with 0 size. For Desriptor
2084:../Dave/Generated/src/USBLD001/driver/dwc_otg_pcd_intr.c **** 						 * DMA mode SW is able to initiate a transfer,
2085:../Dave/Generated/src/USBLD001/driver/dwc_otg_pcd_intr.c **** 						 * which will handle all the packets including
2086:../Dave/Generated/src/USBLD001/driver/dwc_otg_pcd_intr.c **** 						 * the last  0 legth.
2087:../Dave/Generated/src/USBLD001/driver/dwc_otg_pcd_intr.c **** 						 */
2088:../Dave/Generated/src/USBLD001/driver/dwc_otg_pcd_intr.c **** 						ep->dwc_ep.sent_zlp = 0;
 5144              		.loc 2 2088 0
 5145 0130 7A68     		ldr	r2, [r7, #4]
 5146 0132 92F83230 		ldrb	r3, [r2, #50]
 5147 0136 6FF3C303 		bfc	r3, #3, #1
 5148 013a 82F83230 		strb	r3, [r2, #50]
2089:../Dave/Generated/src/USBLD001/driver/dwc_otg_pcd_intr.c **** 						dwc_otg_ep_start_zl_transfer
2090:../Dave/Generated/src/USBLD001/driver/dwc_otg_pcd_intr.c **** 						    (core_if, &ep->dwc_ep);
 5149              		.loc 2 2090 0
 5150 013e 7B68     		ldr	r3, [r7, #4]
 5151 0140 03F11003 		add	r3, r3, #16
 5152 0144 786A     		ldr	r0, [r7, #36]
 5153 0146 1946     		mov	r1, r3
 5154 0148 FFF7FEFF 		bl	dwc_otg_ep_start_zl_transfer
 5155 014c 62E1     		b	.L248
 5156              	.L250:
2091:../Dave/Generated/src/USBLD001/driver/dwc_otg_pcd_intr.c **** 					} else {
2092:../Dave/Generated/src/USBLD001/driver/dwc_otg_pcd_intr.c **** 						is_last = 1;
 5157              		.loc 2 2092 0
 5158 014e 4FF00103 		mov	r3, #1
 5159 0152 FB62     		str	r3, [r7, #44]
 5160 0154 5EE1     		b	.L248
 5161              	.L247:
2093:../Dave/Generated/src/USBLD001/driver/dwc_otg_pcd_intr.c **** 					}
2094:../Dave/Generated/src/USBLD001/driver/dwc_otg_pcd_intr.c **** 				} else {
2095:../Dave/Generated/src/USBLD001/driver/dwc_otg_pcd_intr.c **** 					DWC_WARN
2096:../Dave/Generated/src/USBLD001/driver/dwc_otg_pcd_intr.c **** 					    ("Incomplete transfer (%d - %s [siz=%d pkt=%d])\n",
2097:../Dave/Generated/src/USBLD001/driver/dwc_otg_pcd_intr.c **** 					     ep->dwc_ep.num,
2098:../Dave/Generated/src/USBLD001/driver/dwc_otg_pcd_intr.c **** 					     (ep->dwc_ep.is_in ? "IN" : "OUT"),
2099:../Dave/Generated/src/USBLD001/driver/dwc_otg_pcd_intr.c **** 					     deptsiz.b.xfersize,
2100:../Dave/Generated/src/USBLD001/driver/dwc_otg_pcd_intr.c **** 					     deptsiz.b.pktcnt);
2101:../Dave/Generated/src/USBLD001/driver/dwc_otg_pcd_intr.c **** 				}
2102:../Dave/Generated/src/USBLD001/driver/dwc_otg_pcd_intr.c **** 			} else {
2103:../Dave/Generated/src/USBLD001/driver/dwc_otg_pcd_intr.c **** 				dma_desc = ep->dwc_ep.desc_addr;
 5162              		.loc 2 2103 0
 5163 0156 7B68     		ldr	r3, [r7, #4]
 5164 0158 1B6A     		ldr	r3, [r3, #32]
 5165 015a 7B63     		str	r3, [r7, #52]
2104:../Dave/Generated/src/USBLD001/driver/dwc_otg_pcd_intr.c **** 				byte_count = 0;
 5166              		.loc 2 2104 0
 5167 015c 4FF00003 		mov	r3, #0
 5168 0160 3B63     		str	r3, [r7, #48]
2105:../Dave/Generated/src/USBLD001/driver/dwc_otg_pcd_intr.c **** 				ep->dwc_ep.sent_zlp = 0;
 5169              		.loc 2 2105 0
 5170 0162 7A68     		ldr	r2, [r7, #4]
 5171 0164 92F83230 		ldrb	r3, [r2, #50]
 5172 0168 6FF3C303 		bfc	r3, #3, #1
 5173 016c 82F83230 		strb	r3, [r2, #50]
2106:../Dave/Generated/src/USBLD001/driver/dwc_otg_pcd_intr.c **** #ifdef DWC_UTE_CFI
2107:../Dave/Generated/src/USBLD001/driver/dwc_otg_pcd_intr.c **** 				CFI_INFO("%s: BUFFER_MODE=%d\n", __func__,
2108:../Dave/Generated/src/USBLD001/driver/dwc_otg_pcd_intr.c **** 					 ep->dwc_ep.buff_mode);
2109:../Dave/Generated/src/USBLD001/driver/dwc_otg_pcd_intr.c **** 				if (ep->dwc_ep.buff_mode != BM_STANDARD) {
2110:../Dave/Generated/src/USBLD001/driver/dwc_otg_pcd_intr.c **** 					int residue;
2111:../Dave/Generated/src/USBLD001/driver/dwc_otg_pcd_intr.c **** 
2112:../Dave/Generated/src/USBLD001/driver/dwc_otg_pcd_intr.c **** 					residue = cfi_calc_desc_residue(ep);
2113:../Dave/Generated/src/USBLD001/driver/dwc_otg_pcd_intr.c **** 					if (residue < 0)
2114:../Dave/Generated/src/USBLD001/driver/dwc_otg_pcd_intr.c **** 						return;
2115:../Dave/Generated/src/USBLD001/driver/dwc_otg_pcd_intr.c **** 
2116:../Dave/Generated/src/USBLD001/driver/dwc_otg_pcd_intr.c **** 					byte_count = residue;
2117:../Dave/Generated/src/USBLD001/driver/dwc_otg_pcd_intr.c **** 				} else {
2118:../Dave/Generated/src/USBLD001/driver/dwc_otg_pcd_intr.c **** #endif
2119:../Dave/Generated/src/USBLD001/driver/dwc_otg_pcd_intr.c **** 					for (i = 0; i < ep->dwc_ep.desc_cnt;
 5174              		.loc 2 2119 0
 5175 0170 4FF00003 		mov	r3, #0
 5176 0174 BB62     		str	r3, [r7, #40]
 5177 0176 0EE0     		b	.L251
 5178              	.L252:
2120:../Dave/Generated/src/USBLD001/driver/dwc_otg_pcd_intr.c **** 					     ++i) {
2121:../Dave/Generated/src/USBLD001/driver/dwc_otg_pcd_intr.c **** 					desc_sts = dma_desc->status;
 5179              		.loc 2 2121 0
 5180 0178 7B6B     		ldr	r3, [r7, #52]
 5181 017a 1B68     		ldr	r3, [r3, #0]
 5182 017c FB60     		str	r3, [r7, #12]
2122:../Dave/Generated/src/USBLD001/driver/dwc_otg_pcd_intr.c **** 					byte_count += desc_sts.b.bytes;
 5183              		.loc 2 2122 0
 5184 017e BB89     		ldrh	r3, [r7, #12]
 5185 0180 3A6B     		ldr	r2, [r7, #48]
 5186 0182 D318     		adds	r3, r2, r3
 5187 0184 3B63     		str	r3, [r7, #48]
2123:../Dave/Generated/src/USBLD001/driver/dwc_otg_pcd_intr.c **** 					dma_desc++;
 5188              		.loc 2 2123 0
 5189 0186 7B6B     		ldr	r3, [r7, #52]
 5190 0188 03F10803 		add	r3, r3, #8
 5191 018c 7B63     		str	r3, [r7, #52]
2120:../Dave/Generated/src/USBLD001/driver/dwc_otg_pcd_intr.c **** 					     ++i) {
 5192              		.loc 2 2120 0
 5193 018e BB6A     		ldr	r3, [r7, #40]
 5194 0190 03F10103 		add	r3, r3, #1
 5195 0194 BB62     		str	r3, [r7, #40]
 5196              	.L251:
2119:../Dave/Generated/src/USBLD001/driver/dwc_otg_pcd_intr.c **** 					for (i = 0; i < ep->dwc_ep.desc_cnt;
 5197              		.loc 2 2119 0 discriminator 1
 5198 0196 BA6A     		ldr	r2, [r7, #40]
 5199 0198 7B68     		ldr	r3, [r7, #4]
 5200 019a 9B6B     		ldr	r3, [r3, #56]
 5201 019c 9A42     		cmp	r2, r3
 5202 019e EBD3     		bcc	.L252
2124:../Dave/Generated/src/USBLD001/driver/dwc_otg_pcd_intr.c **** 				}
2125:../Dave/Generated/src/USBLD001/driver/dwc_otg_pcd_intr.c **** #ifdef DWC_UTE_CFI
2126:../Dave/Generated/src/USBLD001/driver/dwc_otg_pcd_intr.c **** 				}
2127:../Dave/Generated/src/USBLD001/driver/dwc_otg_pcd_intr.c **** #endif
2128:../Dave/Generated/src/USBLD001/driver/dwc_otg_pcd_intr.c **** 				if (byte_count == 0) {
 5203              		.loc 2 2128 0
 5204 01a0 3B6B     		ldr	r3, [r7, #48]
 5205 01a2 002B     		cmp	r3, #0
 5206 01a4 40F03681 		bne	.L248
2129:../Dave/Generated/src/USBLD001/driver/dwc_otg_pcd_intr.c **** 					ep->dwc_ep.xfer_count =
2130:../Dave/Generated/src/USBLD001/driver/dwc_otg_pcd_intr.c **** 					    ep->dwc_ep.total_len;
 5207              		.loc 2 2130 0
 5208 01a8 7B68     		ldr	r3, [r7, #4]
 5209 01aa 5B6B     		ldr	r3, [r3, #52]
 5210 01ac C3F31201 		ubfx	r1, r3, #0, #19
2129:../Dave/Generated/src/USBLD001/driver/dwc_otg_pcd_intr.c **** 					ep->dwc_ep.xfer_count =
 5211              		.loc 2 2129 0
 5212 01b0 7A68     		ldr	r2, [r7, #4]
 5213 01b2 136B     		ldr	r3, [r2, #48]
 5214 01b4 61F31203 		bfi	r3, r1, #0, #19
 5215 01b8 1363     		str	r3, [r2, #48]
2131:../Dave/Generated/src/USBLD001/driver/dwc_otg_pcd_intr.c **** 					is_last = 1;
 5216              		.loc 2 2131 0
 5217 01ba 4FF00103 		mov	r3, #1
 5218 01be FB62     		str	r3, [r7, #44]
 5219 01c0 28E1     		b	.L248
 5220              	.L246:
2132:../Dave/Generated/src/USBLD001/driver/dwc_otg_pcd_intr.c **** 				} else {
2133:../Dave/Generated/src/USBLD001/driver/dwc_otg_pcd_intr.c **** 					DWC_WARN("Incomplete transfer\n");
2134:../Dave/Generated/src/USBLD001/driver/dwc_otg_pcd_intr.c **** 				}
2135:../Dave/Generated/src/USBLD001/driver/dwc_otg_pcd_intr.c **** 			}
2136:../Dave/Generated/src/USBLD001/driver/dwc_otg_pcd_intr.c **** 		} else {
2137:../Dave/Generated/src/USBLD001/driver/dwc_otg_pcd_intr.c **** 			if (deptsiz.b.xfersize == 0 && deptsiz.b.pktcnt == 0) {
 5221              		.loc 2 2137 0
 5222 01c2 3B69     		ldr	r3, [r7, #16]
 5223 01c4 23F07F43 		bic	r3, r3, #-16777216
 5224 01c8 23F47803 		bic	r3, r3, #16252928
 5225 01cc 002B     		cmp	r3, #0
 5226 01ce 40F02181 		bne	.L248
 5227              		.loc 2 2137 0 is_stmt 0 discriminator 1
 5228 01d2 7A8A     		ldrh	r2, [r7, #18]
 5229 01d4 41F6F873 		movw	r3, #8184
 5230 01d8 1340     		ands	r3, r3, r2
 5231 01da 9BB2     		uxth	r3, r3
 5232 01dc 002B     		cmp	r3, #0
 5233 01de 40F01981 		bne	.L248
2138:../Dave/Generated/src/USBLD001/driver/dwc_otg_pcd_intr.c **** 				DWC_DEBUGPL(DBG_PCDV,
2139:../Dave/Generated/src/USBLD001/driver/dwc_otg_pcd_intr.c **** 					    "%d-%s len=%d  xfersize=%d pktcnt=%d\n",
2140:../Dave/Generated/src/USBLD001/driver/dwc_otg_pcd_intr.c **** 					    ep->dwc_ep.num,
2141:../Dave/Generated/src/USBLD001/driver/dwc_otg_pcd_intr.c **** 					    ep->dwc_ep.is_in ? "IN" : "OUT",
2142:../Dave/Generated/src/USBLD001/driver/dwc_otg_pcd_intr.c **** 					    ep->dwc_ep.xfer_len,
2143:../Dave/Generated/src/USBLD001/driver/dwc_otg_pcd_intr.c **** 					    deptsiz.b.xfersize,
2144:../Dave/Generated/src/USBLD001/driver/dwc_otg_pcd_intr.c **** 					    deptsiz.b.pktcnt);
2145:../Dave/Generated/src/USBLD001/driver/dwc_otg_pcd_intr.c **** 
2146:../Dave/Generated/src/USBLD001/driver/dwc_otg_pcd_intr.c **** 				/*      Check if the whole transfer was completed, 
2147:../Dave/Generated/src/USBLD001/driver/dwc_otg_pcd_intr.c **** 				 *      if no, setup transfer for next portion of data
2148:../Dave/Generated/src/USBLD001/driver/dwc_otg_pcd_intr.c **** 				 */
2149:../Dave/Generated/src/USBLD001/driver/dwc_otg_pcd_intr.c **** 				if (ep->dwc_ep.xfer_len < ep->dwc_ep.total_len) {
 5234              		.loc 2 2149 0 is_stmt 1
 5235 01e2 7B68     		ldr	r3, [r7, #4]
 5236 01e4 DB6A     		ldr	r3, [r3, #44]
 5237 01e6 C3F31203 		ubfx	r3, r3, #0, #19
 5238 01ea 1A46     		mov	r2, r3
 5239 01ec 7B68     		ldr	r3, [r7, #4]
 5240 01ee 5B6B     		ldr	r3, [r3, #52]
 5241 01f0 C3F31203 		ubfx	r3, r3, #0, #19
 5242 01f4 9A42     		cmp	r2, r3
 5243 01f6 07DA     		bge	.L253
2150:../Dave/Generated/src/USBLD001/driver/dwc_otg_pcd_intr.c **** 					dwc_otg_ep_start_transfer(core_if,
 5244              		.loc 2 2150 0
 5245 01f8 7B68     		ldr	r3, [r7, #4]
 5246 01fa 03F11003 		add	r3, r3, #16
 5247 01fe 786A     		ldr	r0, [r7, #36]
 5248 0200 1946     		mov	r1, r3
 5249 0202 FFF7FEFF 		bl	dwc_otg_ep_start_transfer
 5250 0206 05E1     		b	.L248
 5251              	.L253:
2151:../Dave/Generated/src/USBLD001/driver/dwc_otg_pcd_intr.c **** 								  &ep->dwc_ep);
2152:../Dave/Generated/src/USBLD001/driver/dwc_otg_pcd_intr.c **** 				} else if (ep->dwc_ep.sent_zlp) {
 5252              		.loc 2 2152 0
 5253 0208 7B68     		ldr	r3, [r7, #4]
 5254 020a 93F83230 		ldrb	r3, [r3, #50]	@ zero_extendqisi2
 5255 020e 03F00803 		and	r3, r3, #8
 5256 0212 DBB2     		uxtb	r3, r3
 5257 0214 002B     		cmp	r3, #0
 5258 0216 0ED0     		beq	.L254
2153:../Dave/Generated/src/USBLD001/driver/dwc_otg_pcd_intr.c **** 					/*     
2154:../Dave/Generated/src/USBLD001/driver/dwc_otg_pcd_intr.c **** 					 * This fragment of code should initiate 0
2155:../Dave/Generated/src/USBLD001/driver/dwc_otg_pcd_intr.c **** 					 * length trasfer in case if it is queued
2156:../Dave/Generated/src/USBLD001/driver/dwc_otg_pcd_intr.c **** 					 * a trasfer with size divisible to EPs max
2157:../Dave/Generated/src/USBLD001/driver/dwc_otg_pcd_intr.c **** 					 * packet size and with usb_request zero field
2158:../Dave/Generated/src/USBLD001/driver/dwc_otg_pcd_intr.c **** 					 * is set, which means that after data is transfered,
2159:../Dave/Generated/src/USBLD001/driver/dwc_otg_pcd_intr.c **** 					 * it is also should be transfered
2160:../Dave/Generated/src/USBLD001/driver/dwc_otg_pcd_intr.c **** 					 * a 0 length packet at the end. For Slave and
2161:../Dave/Generated/src/USBLD001/driver/dwc_otg_pcd_intr.c **** 					 * Buffer DMA modes in this case SW has
2162:../Dave/Generated/src/USBLD001/driver/dwc_otg_pcd_intr.c **** 					 * to initiate 2 transfers one with transfer size,
2163:../Dave/Generated/src/USBLD001/driver/dwc_otg_pcd_intr.c **** 					 * and the second with 0 size. For Desriptor
2164:../Dave/Generated/src/USBLD001/driver/dwc_otg_pcd_intr.c **** 					 * DMA mode SW is able to initiate a transfer,
2165:../Dave/Generated/src/USBLD001/driver/dwc_otg_pcd_intr.c **** 					 * which will handle all the packets including
2166:../Dave/Generated/src/USBLD001/driver/dwc_otg_pcd_intr.c **** 					 * the last  0 legth.
2167:../Dave/Generated/src/USBLD001/driver/dwc_otg_pcd_intr.c **** 					 */
2168:../Dave/Generated/src/USBLD001/driver/dwc_otg_pcd_intr.c **** 					ep->dwc_ep.sent_zlp = 0;
 5259              		.loc 2 2168 0
 5260 0218 7A68     		ldr	r2, [r7, #4]
 5261 021a 92F83230 		ldrb	r3, [r2, #50]
 5262 021e 6FF3C303 		bfc	r3, #3, #1
 5263 0222 82F83230 		strb	r3, [r2, #50]
2169:../Dave/Generated/src/USBLD001/driver/dwc_otg_pcd_intr.c **** 					dwc_otg_ep_start_zl_transfer(core_if,
 5264              		.loc 2 2169 0
 5265 0226 7B68     		ldr	r3, [r7, #4]
 5266 0228 03F11003 		add	r3, r3, #16
 5267 022c 786A     		ldr	r0, [r7, #36]
 5268 022e 1946     		mov	r1, r3
 5269 0230 FFF7FEFF 		bl	dwc_otg_ep_start_zl_transfer
 5270 0234 EEE0     		b	.L248
 5271              	.L254:
2170:../Dave/Generated/src/USBLD001/driver/dwc_otg_pcd_intr.c **** 								     &ep->dwc_ep);
2171:../Dave/Generated/src/USBLD001/driver/dwc_otg_pcd_intr.c **** 				} else {
2172:../Dave/Generated/src/USBLD001/driver/dwc_otg_pcd_intr.c **** 					is_last = 1;
 5272              		.loc 2 2172 0
 5273 0236 4FF00103 		mov	r3, #1
 5274 023a FB62     		str	r3, [r7, #44]
 5275 023c EAE0     		b	.L248
 5276              	.L245:
 5277              	.LBB7:
2173:../Dave/Generated/src/USBLD001/driver/dwc_otg_pcd_intr.c **** 				}
2174:../Dave/Generated/src/USBLD001/driver/dwc_otg_pcd_intr.c **** 			} else {
2175:../Dave/Generated/src/USBLD001/driver/dwc_otg_pcd_intr.c **** 				DWC_WARN
2176:../Dave/Generated/src/USBLD001/driver/dwc_otg_pcd_intr.c **** 				    ("Incomplete transfer (%d-%s [siz=%d pkt=%d])\n",
2177:../Dave/Generated/src/USBLD001/driver/dwc_otg_pcd_intr.c **** 				     ep->dwc_ep.num,
2178:../Dave/Generated/src/USBLD001/driver/dwc_otg_pcd_intr.c **** 				     (ep->dwc_ep.is_in ? "IN" : "OUT"),
2179:../Dave/Generated/src/USBLD001/driver/dwc_otg_pcd_intr.c **** 				     deptsiz.b.xfersize, deptsiz.b.pktcnt);
2180:../Dave/Generated/src/USBLD001/driver/dwc_otg_pcd_intr.c **** 			}
2181:../Dave/Generated/src/USBLD001/driver/dwc_otg_pcd_intr.c **** 		}
2182:../Dave/Generated/src/USBLD001/driver/dwc_otg_pcd_intr.c **** 	} else {
2183:../Dave/Generated/src/USBLD001/driver/dwc_otg_pcd_intr.c **** 		dwc_otg_dev_out_ep_regs_t *out_ep_regs =
2184:../Dave/Generated/src/USBLD001/driver/dwc_otg_pcd_intr.c **** 		    dev_if->out_ep_regs[ep->dwc_ep.num];
 5278              		.loc 2 2184 0
 5279 023e 7B68     		ldr	r3, [r7, #4]
 5280 0240 1B7C     		ldrb	r3, [r3, #16]	@ zero_extendqisi2
 5281 0242 3A6A     		ldr	r2, [r7, #32]
2183:../Dave/Generated/src/USBLD001/driver/dwc_otg_pcd_intr.c **** 		dwc_otg_dev_out_ep_regs_t *out_ep_regs =
 5282              		.loc 2 2183 0
 5283 0244 03F10803 		add	r3, r3, #8
 5284 0248 4FEA8303 		lsl	r3, r3, #2
 5285 024c D318     		adds	r3, r2, r3
 5286 024e 5B68     		ldr	r3, [r3, #4]
 5287 0250 7B61     		str	r3, [r7, #20]
2185:../Dave/Generated/src/USBLD001/driver/dwc_otg_pcd_intr.c **** 		desc_sts.d32 = 0;
 5288              		.loc 2 2185 0
 5289 0252 4FF00003 		mov	r3, #0
 5290 0256 FB60     		str	r3, [r7, #12]
2186:../Dave/Generated/src/USBLD001/driver/dwc_otg_pcd_intr.c **** 		if (core_if->dma_enable) {
 5291              		.loc 2 2186 0
 5292 0258 7B6A     		ldr	r3, [r7, #36]
 5293 025a 93F84630 		ldrb	r3, [r3, #70]	@ zero_extendqisi2
 5294 025e 002B     		cmp	r3, #0
 5295 0260 00F0AB80 		beq	.L255
2187:../Dave/Generated/src/USBLD001/driver/dwc_otg_pcd_intr.c **** 			if (core_if->dma_desc_enable) {
 5296              		.loc 2 2187 0
 5297 0264 7B6A     		ldr	r3, [r7, #36]
 5298 0266 93F84730 		ldrb	r3, [r3, #71]	@ zero_extendqisi2
 5299 026a 002B     		cmp	r3, #0
 5300 026c 41D0     		beq	.L256
2188:../Dave/Generated/src/USBLD001/driver/dwc_otg_pcd_intr.c **** 				dma_desc = ep->dwc_ep.desc_addr;
 5301              		.loc 2 2188 0
 5302 026e 7B68     		ldr	r3, [r7, #4]
 5303 0270 1B6A     		ldr	r3, [r3, #32]
 5304 0272 7B63     		str	r3, [r7, #52]
2189:../Dave/Generated/src/USBLD001/driver/dwc_otg_pcd_intr.c **** 				byte_count = 0;
 5305              		.loc 2 2189 0
 5306 0274 4FF00003 		mov	r3, #0
 5307 0278 3B63     		str	r3, [r7, #48]
2190:../Dave/Generated/src/USBLD001/driver/dwc_otg_pcd_intr.c **** 				ep->dwc_ep.sent_zlp = 0;
 5308              		.loc 2 2190 0
 5309 027a 7A68     		ldr	r2, [r7, #4]
 5310 027c 92F83230 		ldrb	r3, [r2, #50]
 5311 0280 6FF3C303 		bfc	r3, #3, #1
 5312 0284 82F83230 		strb	r3, [r2, #50]
2191:../Dave/Generated/src/USBLD001/driver/dwc_otg_pcd_intr.c **** 
2192:../Dave/Generated/src/USBLD001/driver/dwc_otg_pcd_intr.c **** #ifdef DWC_UTE_CFI
2193:../Dave/Generated/src/USBLD001/driver/dwc_otg_pcd_intr.c **** 				CFI_INFO("%s: BUFFER_MODE=%d\n", __func__,
2194:../Dave/Generated/src/USBLD001/driver/dwc_otg_pcd_intr.c **** 					 ep->dwc_ep.buff_mode);
2195:../Dave/Generated/src/USBLD001/driver/dwc_otg_pcd_intr.c **** 				if (ep->dwc_ep.buff_mode != BM_STANDARD) {
2196:../Dave/Generated/src/USBLD001/driver/dwc_otg_pcd_intr.c **** 					int residue;
2197:../Dave/Generated/src/USBLD001/driver/dwc_otg_pcd_intr.c **** 					residue = cfi_calc_desc_residue(ep);
2198:../Dave/Generated/src/USBLD001/driver/dwc_otg_pcd_intr.c **** 					if (residue < 0)
2199:../Dave/Generated/src/USBLD001/driver/dwc_otg_pcd_intr.c **** 						return;
2200:../Dave/Generated/src/USBLD001/driver/dwc_otg_pcd_intr.c **** 					byte_count = residue;
2201:../Dave/Generated/src/USBLD001/driver/dwc_otg_pcd_intr.c **** 				} else {
2202:../Dave/Generated/src/USBLD001/driver/dwc_otg_pcd_intr.c **** #endif
2203:../Dave/Generated/src/USBLD001/driver/dwc_otg_pcd_intr.c **** 
2204:../Dave/Generated/src/USBLD001/driver/dwc_otg_pcd_intr.c **** 					for (i = 0; i < ep->dwc_ep.desc_cnt;
 5313              		.loc 2 2204 0
 5314 0288 4FF00003 		mov	r3, #0
 5315 028c BB62     		str	r3, [r7, #40]
 5316 028e 0EE0     		b	.L257
 5317              	.L258:
2205:../Dave/Generated/src/USBLD001/driver/dwc_otg_pcd_intr.c **** 					     ++i) {
2206:../Dave/Generated/src/USBLD001/driver/dwc_otg_pcd_intr.c **** 						desc_sts = dma_desc->status;
 5318              		.loc 2 2206 0
 5319 0290 7B6B     		ldr	r3, [r7, #52]
 5320 0292 1B68     		ldr	r3, [r3, #0]
 5321 0294 FB60     		str	r3, [r7, #12]
2207:../Dave/Generated/src/USBLD001/driver/dwc_otg_pcd_intr.c **** 						byte_count += desc_sts.b.bytes;
 5322              		.loc 2 2207 0
 5323 0296 BB89     		ldrh	r3, [r7, #12]
 5324 0298 3A6B     		ldr	r2, [r7, #48]
 5325 029a D318     		adds	r3, r2, r3
 5326 029c 3B63     		str	r3, [r7, #48]
2208:../Dave/Generated/src/USBLD001/driver/dwc_otg_pcd_intr.c **** 						dma_desc++;
 5327              		.loc 2 2208 0
 5328 029e 7B6B     		ldr	r3, [r7, #52]
 5329 02a0 03F10803 		add	r3, r3, #8
 5330 02a4 7B63     		str	r3, [r7, #52]
2205:../Dave/Generated/src/USBLD001/driver/dwc_otg_pcd_intr.c **** 					     ++i) {
 5331              		.loc 2 2205 0
 5332 02a6 BB6A     		ldr	r3, [r7, #40]
 5333 02a8 03F10103 		add	r3, r3, #1
 5334 02ac BB62     		str	r3, [r7, #40]
 5335              	.L257:
2204:../Dave/Generated/src/USBLD001/driver/dwc_otg_pcd_intr.c **** 					for (i = 0; i < ep->dwc_ep.desc_cnt;
 5336              		.loc 2 2204 0 discriminator 1
 5337 02ae BA6A     		ldr	r2, [r7, #40]
 5338 02b0 7B68     		ldr	r3, [r7, #4]
 5339 02b2 9B6B     		ldr	r3, [r3, #56]
 5340 02b4 9A42     		cmp	r2, r3
 5341 02b6 EBD3     		bcc	.L258
2209:../Dave/Generated/src/USBLD001/driver/dwc_otg_pcd_intr.c **** 					}
2210:../Dave/Generated/src/USBLD001/driver/dwc_otg_pcd_intr.c **** 
2211:../Dave/Generated/src/USBLD001/driver/dwc_otg_pcd_intr.c **** #ifdef DWC_UTE_CFI
2212:../Dave/Generated/src/USBLD001/driver/dwc_otg_pcd_intr.c **** 				}
2213:../Dave/Generated/src/USBLD001/driver/dwc_otg_pcd_intr.c **** #endif
2214:../Dave/Generated/src/USBLD001/driver/dwc_otg_pcd_intr.c **** 				ep->dwc_ep.xfer_count = ep->dwc_ep.total_len
 5342              		.loc 2 2214 0
 5343 02b8 7B68     		ldr	r3, [r7, #4]
 5344 02ba 5B6B     		ldr	r3, [r3, #52]
 5345 02bc C3F31203 		ubfx	r3, r3, #0, #19
2215:../Dave/Generated/src/USBLD001/driver/dwc_otg_pcd_intr.c **** 				    - byte_count +
 5346              		.loc 2 2215 0
 5347 02c0 1A46     		mov	r2, r3
 5348 02c2 3B6B     		ldr	r3, [r7, #48]
 5349 02c4 D21A     		subs	r2, r2, r3
2216:../Dave/Generated/src/USBLD001/driver/dwc_otg_pcd_intr.c **** 				    ((4 - (ep->dwc_ep.total_len & 0x3)) & 0x3);
 5350              		.loc 2 2216 0
 5351 02c6 7B68     		ldr	r3, [r7, #4]
 5352 02c8 5B6B     		ldr	r3, [r3, #52]
 5353 02ca C3F31203 		ubfx	r3, r3, #0, #19
2215:../Dave/Generated/src/USBLD001/driver/dwc_otg_pcd_intr.c **** 				    - byte_count +
 5354              		.loc 2 2215 0
 5355 02ce C3F10003 		rsb	r3, r3, #0
 5356 02d2 03F00303 		and	r3, r3, #3
 5357 02d6 D318     		adds	r3, r2, r3
2214:../Dave/Generated/src/USBLD001/driver/dwc_otg_pcd_intr.c **** 				ep->dwc_ep.xfer_count = ep->dwc_ep.total_len
 5358              		.loc 2 2214 0
 5359 02d8 23F07F42 		bic	r2, r3, #-16777216
 5360 02dc 22F47802 		bic	r2, r2, #16252928
 5361 02e0 7968     		ldr	r1, [r7, #4]
 5362 02e2 0B6B     		ldr	r3, [r1, #48]
 5363 02e4 62F31203 		bfi	r3, r2, #0, #19
 5364 02e8 0B63     		str	r3, [r1, #48]
2217:../Dave/Generated/src/USBLD001/driver/dwc_otg_pcd_intr.c **** 				is_last = 1;
 5365              		.loc 2 2217 0
 5366 02ea 4FF00103 		mov	r3, #1
 5367 02ee FB62     		str	r3, [r7, #44]
 5368 02f0 90E0     		b	.L248
 5369              	.L256:
2218:../Dave/Generated/src/USBLD001/driver/dwc_otg_pcd_intr.c **** 			} else {
2219:../Dave/Generated/src/USBLD001/driver/dwc_otg_pcd_intr.c **** 				deptsiz.d32 = 0;
 5370              		.loc 2 2219 0
 5371 02f2 4FF00003 		mov	r3, #0
 5372 02f6 3B61     		str	r3, [r7, #16]
2220:../Dave/Generated/src/USBLD001/driver/dwc_otg_pcd_intr.c **** 				deptsiz.d32 =
2221:../Dave/Generated/src/USBLD001/driver/dwc_otg_pcd_intr.c **** 				    DWC_READ_REG32(&out_ep_regs->doeptsiz);
 5373              		.loc 2 2221 0
 5374 02f8 7B69     		ldr	r3, [r7, #20]
 5375 02fa 03F11003 		add	r3, r3, #16
 5376 02fe 1846     		mov	r0, r3
 5377 0300 FFF7FEFF 		bl	DWC_READ_REG32
 5378 0304 0346     		mov	r3, r0
2220:../Dave/Generated/src/USBLD001/driver/dwc_otg_pcd_intr.c **** 				deptsiz.d32 =
 5379              		.loc 2 2220 0
 5380 0306 3B61     		str	r3, [r7, #16]
2222:../Dave/Generated/src/USBLD001/driver/dwc_otg_pcd_intr.c **** 
2223:../Dave/Generated/src/USBLD001/driver/dwc_otg_pcd_intr.c **** 				byte_count = (ep->dwc_ep.xfer_len -
 5381              		.loc 2 2223 0
 5382 0308 7B68     		ldr	r3, [r7, #4]
 5383 030a DB6A     		ldr	r3, [r3, #44]
 5384 030c C3F31203 		ubfx	r3, r3, #0, #19
 5385 0310 1A46     		mov	r2, r3
2224:../Dave/Generated/src/USBLD001/driver/dwc_otg_pcd_intr.c **** 					      ep->dwc_ep.xfer_count -
 5386              		.loc 2 2224 0
 5387 0312 7B68     		ldr	r3, [r7, #4]
 5388 0314 1B6B     		ldr	r3, [r3, #48]
 5389 0316 C3F31203 		ubfx	r3, r3, #0, #19
2223:../Dave/Generated/src/USBLD001/driver/dwc_otg_pcd_intr.c **** 				byte_count = (ep->dwc_ep.xfer_len -
 5390              		.loc 2 2223 0
 5391 031a D21A     		subs	r2, r2, r3
2225:../Dave/Generated/src/USBLD001/driver/dwc_otg_pcd_intr.c **** 					      deptsiz.b.xfersize);
 5392              		.loc 2 2225 0
 5393 031c 3B69     		ldr	r3, [r7, #16]
 5394 031e C3F31203 		ubfx	r3, r3, #0, #19
2224:../Dave/Generated/src/USBLD001/driver/dwc_otg_pcd_intr.c **** 					      ep->dwc_ep.xfer_count -
 5395              		.loc 2 2224 0
 5396 0322 D31A     		subs	r3, r2, r3
2223:../Dave/Generated/src/USBLD001/driver/dwc_otg_pcd_intr.c **** 				byte_count = (ep->dwc_ep.xfer_len -
 5397              		.loc 2 2223 0
 5398 0324 3B63     		str	r3, [r7, #48]
2226:../Dave/Generated/src/USBLD001/driver/dwc_otg_pcd_intr.c **** 				ep->dwc_ep.xfer_buff += byte_count;
 5399              		.loc 2 2226 0
 5400 0326 7B68     		ldr	r3, [r7, #4]
 5401 0328 9A6A     		ldr	r2, [r3, #40]
 5402 032a 3B6B     		ldr	r3, [r7, #48]
 5403 032c D218     		adds	r2, r2, r3
 5404 032e 7B68     		ldr	r3, [r7, #4]
 5405 0330 9A62     		str	r2, [r3, #40]
2227:../Dave/Generated/src/USBLD001/driver/dwc_otg_pcd_intr.c **** 				ep->dwc_ep.dma_addr += byte_count;
 5406              		.loc 2 2227 0
 5407 0332 7B68     		ldr	r3, [r7, #4]
 5408 0334 9A69     		ldr	r2, [r3, #24]
 5409 0336 3B6B     		ldr	r3, [r7, #48]
 5410 0338 D218     		adds	r2, r2, r3
 5411 033a 7B68     		ldr	r3, [r7, #4]
 5412 033c 9A61     		str	r2, [r3, #24]
2228:../Dave/Generated/src/USBLD001/driver/dwc_otg_pcd_intr.c **** 				ep->dwc_ep.xfer_count += byte_count;
 5413              		.loc 2 2228 0
 5414 033e 7B68     		ldr	r3, [r7, #4]
 5415 0340 1B6B     		ldr	r3, [r3, #48]
 5416 0342 C3F31203 		ubfx	r3, r3, #0, #19
 5417 0346 1A46     		mov	r2, r3
 5418 0348 3B6B     		ldr	r3, [r7, #48]
 5419 034a D318     		adds	r3, r2, r3
 5420 034c 23F07F42 		bic	r2, r3, #-16777216
 5421 0350 22F47802 		bic	r2, r2, #16252928
 5422 0354 7968     		ldr	r1, [r7, #4]
 5423 0356 0B6B     		ldr	r3, [r1, #48]
 5424 0358 62F31203 		bfi	r3, r2, #0, #19
 5425 035c 0B63     		str	r3, [r1, #48]
2229:../Dave/Generated/src/USBLD001/driver/dwc_otg_pcd_intr.c **** 
2230:../Dave/Generated/src/USBLD001/driver/dwc_otg_pcd_intr.c **** 				/*      Check if the whole transfer was completed, 
2231:../Dave/Generated/src/USBLD001/driver/dwc_otg_pcd_intr.c **** 				 *      if no, setup transfer for next portion of data
2232:../Dave/Generated/src/USBLD001/driver/dwc_otg_pcd_intr.c **** 				 */
2233:../Dave/Generated/src/USBLD001/driver/dwc_otg_pcd_intr.c **** 				if (ep->dwc_ep.xfer_len < ep->dwc_ep.total_len) {
 5426              		.loc 2 2233 0
 5427 035e 7B68     		ldr	r3, [r7, #4]
 5428 0360 DB6A     		ldr	r3, [r3, #44]
 5429 0362 C3F31203 		ubfx	r3, r3, #0, #19
 5430 0366 1A46     		mov	r2, r3
 5431 0368 7B68     		ldr	r3, [r7, #4]
 5432 036a 5B6B     		ldr	r3, [r3, #52]
 5433 036c C3F31203 		ubfx	r3, r3, #0, #19
 5434 0370 9A42     		cmp	r2, r3
 5435 0372 07DA     		bge	.L259
2234:../Dave/Generated/src/USBLD001/driver/dwc_otg_pcd_intr.c **** 					dwc_otg_ep_start_transfer(core_if,
 5436              		.loc 2 2234 0
 5437 0374 7B68     		ldr	r3, [r7, #4]
 5438 0376 03F11003 		add	r3, r3, #16
 5439 037a 786A     		ldr	r0, [r7, #36]
 5440 037c 1946     		mov	r1, r3
 5441 037e FFF7FEFF 		bl	dwc_otg_ep_start_transfer
 5442 0382 47E0     		b	.L248
 5443              	.L259:
2235:../Dave/Generated/src/USBLD001/driver/dwc_otg_pcd_intr.c **** 								  &ep->dwc_ep);
2236:../Dave/Generated/src/USBLD001/driver/dwc_otg_pcd_intr.c **** 				} else if (ep->dwc_ep.sent_zlp) {
 5444              		.loc 2 2236 0
 5445 0384 7B68     		ldr	r3, [r7, #4]
 5446 0386 93F83230 		ldrb	r3, [r3, #50]	@ zero_extendqisi2
 5447 038a 03F00803 		and	r3, r3, #8
 5448 038e DBB2     		uxtb	r3, r3
 5449 0390 002B     		cmp	r3, #0
 5450 0392 0ED0     		beq	.L260
2237:../Dave/Generated/src/USBLD001/driver/dwc_otg_pcd_intr.c **** 					/*     
2238:../Dave/Generated/src/USBLD001/driver/dwc_otg_pcd_intr.c **** 					 * This fragment of code should initiate 0
2239:../Dave/Generated/src/USBLD001/driver/dwc_otg_pcd_intr.c **** 					 * length trasfer in case if it is queued
2240:../Dave/Generated/src/USBLD001/driver/dwc_otg_pcd_intr.c **** 					 * a trasfer with size divisible to EPs max
2241:../Dave/Generated/src/USBLD001/driver/dwc_otg_pcd_intr.c **** 					 * packet size and with usb_request zero field
2242:../Dave/Generated/src/USBLD001/driver/dwc_otg_pcd_intr.c **** 					 * is set, which means that after data is transfered,
2243:../Dave/Generated/src/USBLD001/driver/dwc_otg_pcd_intr.c **** 					 * it is also should be transfered
2244:../Dave/Generated/src/USBLD001/driver/dwc_otg_pcd_intr.c **** 					 * a 0 length packet at the end. For Slave and
2245:../Dave/Generated/src/USBLD001/driver/dwc_otg_pcd_intr.c **** 					 * Buffer DMA modes in this case SW has
2246:../Dave/Generated/src/USBLD001/driver/dwc_otg_pcd_intr.c **** 					 * to initiate 2 transfers one with transfer size,
2247:../Dave/Generated/src/USBLD001/driver/dwc_otg_pcd_intr.c **** 					 * and the second with 0 size. For Desriptor
2248:../Dave/Generated/src/USBLD001/driver/dwc_otg_pcd_intr.c **** 					 * DMA mode SW is able to initiate a transfer,
2249:../Dave/Generated/src/USBLD001/driver/dwc_otg_pcd_intr.c **** 					 * which will handle all the packets including
2250:../Dave/Generated/src/USBLD001/driver/dwc_otg_pcd_intr.c **** 					 * the last  0 legth.
2251:../Dave/Generated/src/USBLD001/driver/dwc_otg_pcd_intr.c **** 					 */
2252:../Dave/Generated/src/USBLD001/driver/dwc_otg_pcd_intr.c **** 					ep->dwc_ep.sent_zlp = 0;
 5451              		.loc 2 2252 0
 5452 0394 7A68     		ldr	r2, [r7, #4]
 5453 0396 92F83230 		ldrb	r3, [r2, #50]
 5454 039a 6FF3C303 		bfc	r3, #3, #1
 5455 039e 82F83230 		strb	r3, [r2, #50]
2253:../Dave/Generated/src/USBLD001/driver/dwc_otg_pcd_intr.c **** 					dwc_otg_ep_start_zl_transfer(core_if,
 5456              		.loc 2 2253 0
 5457 03a2 7B68     		ldr	r3, [r7, #4]
 5458 03a4 03F11003 		add	r3, r3, #16
 5459 03a8 786A     		ldr	r0, [r7, #36]
 5460 03aa 1946     		mov	r1, r3
 5461 03ac FFF7FEFF 		bl	dwc_otg_ep_start_zl_transfer
 5462 03b0 30E0     		b	.L248
 5463              	.L260:
2254:../Dave/Generated/src/USBLD001/driver/dwc_otg_pcd_intr.c **** 								     &ep->dwc_ep);
2255:../Dave/Generated/src/USBLD001/driver/dwc_otg_pcd_intr.c **** 				} else {
2256:../Dave/Generated/src/USBLD001/driver/dwc_otg_pcd_intr.c **** 					is_last = 1;
 5464              		.loc 2 2256 0
 5465 03b2 4FF00103 		mov	r3, #1
 5466 03b6 FB62     		str	r3, [r7, #44]
 5467 03b8 2CE0     		b	.L248
 5468              	.L255:
2257:../Dave/Generated/src/USBLD001/driver/dwc_otg_pcd_intr.c **** 				}
2258:../Dave/Generated/src/USBLD001/driver/dwc_otg_pcd_intr.c **** 			}
2259:../Dave/Generated/src/USBLD001/driver/dwc_otg_pcd_intr.c **** 		} else {
2260:../Dave/Generated/src/USBLD001/driver/dwc_otg_pcd_intr.c **** 			/*      Check if the whole transfer was completed, 
2261:../Dave/Generated/src/USBLD001/driver/dwc_otg_pcd_intr.c **** 			 *      if no, setup transfer for next portion of data
2262:../Dave/Generated/src/USBLD001/driver/dwc_otg_pcd_intr.c **** 			 */
2263:../Dave/Generated/src/USBLD001/driver/dwc_otg_pcd_intr.c **** 			if (ep->dwc_ep.xfer_len < ep->dwc_ep.total_len) {
 5469              		.loc 2 2263 0
 5470 03ba 7B68     		ldr	r3, [r7, #4]
 5471 03bc DB6A     		ldr	r3, [r3, #44]
 5472 03be C3F31203 		ubfx	r3, r3, #0, #19
 5473 03c2 1A46     		mov	r2, r3
 5474 03c4 7B68     		ldr	r3, [r7, #4]
 5475 03c6 5B6B     		ldr	r3, [r3, #52]
 5476 03c8 C3F31203 		ubfx	r3, r3, #0, #19
 5477 03cc 9A42     		cmp	r2, r3
 5478 03ce 07DA     		bge	.L261
2264:../Dave/Generated/src/USBLD001/driver/dwc_otg_pcd_intr.c **** 				dwc_otg_ep_start_transfer(core_if, &ep->dwc_ep);
 5479              		.loc 2 2264 0
 5480 03d0 7B68     		ldr	r3, [r7, #4]
 5481 03d2 03F11003 		add	r3, r3, #16
 5482 03d6 786A     		ldr	r0, [r7, #36]
 5483 03d8 1946     		mov	r1, r3
 5484 03da FFF7FEFF 		bl	dwc_otg_ep_start_transfer
 5485 03de 19E0     		b	.L248
 5486              	.L261:
2265:../Dave/Generated/src/USBLD001/driver/dwc_otg_pcd_intr.c **** 			} else if (ep->dwc_ep.sent_zlp) {
 5487              		.loc 2 2265 0
 5488 03e0 7B68     		ldr	r3, [r7, #4]
 5489 03e2 93F83230 		ldrb	r3, [r3, #50]	@ zero_extendqisi2
 5490 03e6 03F00803 		and	r3, r3, #8
 5491 03ea DBB2     		uxtb	r3, r3
 5492 03ec 002B     		cmp	r3, #0
 5493 03ee 0ED0     		beq	.L262
2266:../Dave/Generated/src/USBLD001/driver/dwc_otg_pcd_intr.c **** 				/*     
2267:../Dave/Generated/src/USBLD001/driver/dwc_otg_pcd_intr.c **** 				 * This fragment of code should initiate 0
2268:../Dave/Generated/src/USBLD001/driver/dwc_otg_pcd_intr.c **** 				 * length trasfer in case if it is queued
2269:../Dave/Generated/src/USBLD001/driver/dwc_otg_pcd_intr.c **** 				 * a trasfer with size divisible to EPs max
2270:../Dave/Generated/src/USBLD001/driver/dwc_otg_pcd_intr.c **** 				 * packet size and with usb_request zero field
2271:../Dave/Generated/src/USBLD001/driver/dwc_otg_pcd_intr.c **** 				 * is set, which means that after data is transfered,
2272:../Dave/Generated/src/USBLD001/driver/dwc_otg_pcd_intr.c **** 				 * it is also should be transfered
2273:../Dave/Generated/src/USBLD001/driver/dwc_otg_pcd_intr.c **** 				 * a 0 length packet at the end. For Slave and
2274:../Dave/Generated/src/USBLD001/driver/dwc_otg_pcd_intr.c **** 				 * Buffer DMA modes in this case SW has
2275:../Dave/Generated/src/USBLD001/driver/dwc_otg_pcd_intr.c **** 				 * to initiate 2 transfers one with transfer size,
2276:../Dave/Generated/src/USBLD001/driver/dwc_otg_pcd_intr.c **** 				 * and the second with 0 size. For Desriptor
2277:../Dave/Generated/src/USBLD001/driver/dwc_otg_pcd_intr.c **** 				 * DMA mode SW is able to initiate a transfer,
2278:../Dave/Generated/src/USBLD001/driver/dwc_otg_pcd_intr.c **** 				 * which will handle all the packets including
2279:../Dave/Generated/src/USBLD001/driver/dwc_otg_pcd_intr.c **** 				 * the last  0 legth.
2280:../Dave/Generated/src/USBLD001/driver/dwc_otg_pcd_intr.c **** 				 */
2281:../Dave/Generated/src/USBLD001/driver/dwc_otg_pcd_intr.c **** 				ep->dwc_ep.sent_zlp = 0;
 5494              		.loc 2 2281 0
 5495 03f0 7A68     		ldr	r2, [r7, #4]
 5496 03f2 92F83230 		ldrb	r3, [r2, #50]
 5497 03f6 6FF3C303 		bfc	r3, #3, #1
 5498 03fa 82F83230 		strb	r3, [r2, #50]
2282:../Dave/Generated/src/USBLD001/driver/dwc_otg_pcd_intr.c **** 				dwc_otg_ep_start_zl_transfer(core_if,
 5499              		.loc 2 2282 0
 5500 03fe 7B68     		ldr	r3, [r7, #4]
 5501 0400 03F11003 		add	r3, r3, #16
 5502 0404 786A     		ldr	r0, [r7, #36]
 5503 0406 1946     		mov	r1, r3
 5504 0408 FFF7FEFF 		bl	dwc_otg_ep_start_zl_transfer
 5505 040c 02E0     		b	.L248
 5506              	.L262:
2283:../Dave/Generated/src/USBLD001/driver/dwc_otg_pcd_intr.c **** 							     &ep->dwc_ep);
2284:../Dave/Generated/src/USBLD001/driver/dwc_otg_pcd_intr.c **** 			} else {
2285:../Dave/Generated/src/USBLD001/driver/dwc_otg_pcd_intr.c **** 				is_last = 1;
 5507              		.loc 2 2285 0
 5508 040e 4FF00103 		mov	r3, #1
 5509 0412 FB62     		str	r3, [r7, #44]
 5510              	.L248:
 5511              	.LBE7:
2286:../Dave/Generated/src/USBLD001/driver/dwc_otg_pcd_intr.c **** 			}
2287:../Dave/Generated/src/USBLD001/driver/dwc_otg_pcd_intr.c **** 		}
2288:../Dave/Generated/src/USBLD001/driver/dwc_otg_pcd_intr.c **** 
2289:../Dave/Generated/src/USBLD001/driver/dwc_otg_pcd_intr.c **** 		DWC_DEBUGPL(DBG_PCDV,
2290:../Dave/Generated/src/USBLD001/driver/dwc_otg_pcd_intr.c **** 			    "addr %p,	 %d-%s len=%d cnt=%d xsize=%d pktcnt=%d\n",
2291:../Dave/Generated/src/USBLD001/driver/dwc_otg_pcd_intr.c **** 			    &out_ep_regs->doeptsiz, ep->dwc_ep.num,
2292:../Dave/Generated/src/USBLD001/driver/dwc_otg_pcd_intr.c **** 			    ep->dwc_ep.is_in ? "IN" : "OUT",
2293:../Dave/Generated/src/USBLD001/driver/dwc_otg_pcd_intr.c **** 			    ep->dwc_ep.xfer_len, ep->dwc_ep.xfer_count,
2294:../Dave/Generated/src/USBLD001/driver/dwc_otg_pcd_intr.c **** 			    deptsiz.b.xfersize, deptsiz.b.pktcnt);
2295:../Dave/Generated/src/USBLD001/driver/dwc_otg_pcd_intr.c **** 	}
2296:../Dave/Generated/src/USBLD001/driver/dwc_otg_pcd_intr.c **** 
2297:../Dave/Generated/src/USBLD001/driver/dwc_otg_pcd_intr.c **** 	/* Complete the request */
2298:../Dave/Generated/src/USBLD001/driver/dwc_otg_pcd_intr.c **** 	if (is_last) {
 5512              		.loc 2 2298 0
 5513 0414 FB6A     		ldr	r3, [r7, #44]
 5514 0416 002B     		cmp	r3, #0
 5515 0418 1CD0     		beq	.L243
2299:../Dave/Generated/src/USBLD001/driver/dwc_otg_pcd_intr.c **** #ifdef DWC_UTE_CFI
2300:../Dave/Generated/src/USBLD001/driver/dwc_otg_pcd_intr.c **** 		if (ep->dwc_ep.buff_mode != BM_STANDARD) {
2301:../Dave/Generated/src/USBLD001/driver/dwc_otg_pcd_intr.c **** 			req->actual = ep->dwc_ep.cfi_req_len - byte_count;
2302:../Dave/Generated/src/USBLD001/driver/dwc_otg_pcd_intr.c **** 		} else {
2303:../Dave/Generated/src/USBLD001/driver/dwc_otg_pcd_intr.c **** #endif
2304:../Dave/Generated/src/USBLD001/driver/dwc_otg_pcd_intr.c **** 			req->actual = ep->dwc_ep.xfer_count;
 5516              		.loc 2 2304 0
 5517 041a 7B68     		ldr	r3, [r7, #4]
 5518 041c 1B6B     		ldr	r3, [r3, #48]
 5519 041e C3F31203 		ubfx	r3, r3, #0, #19
 5520 0422 1A46     		mov	r2, r3
 5521 0424 BB69     		ldr	r3, [r7, #24]
 5522 0426 1A61     		str	r2, [r3, #16]
2305:../Dave/Generated/src/USBLD001/driver/dwc_otg_pcd_intr.c **** #ifdef DWC_UTE_CFI
2306:../Dave/Generated/src/USBLD001/driver/dwc_otg_pcd_intr.c **** 		}
2307:../Dave/Generated/src/USBLD001/driver/dwc_otg_pcd_intr.c **** #endif
2308:../Dave/Generated/src/USBLD001/driver/dwc_otg_pcd_intr.c **** 
2309:../Dave/Generated/src/USBLD001/driver/dwc_otg_pcd_intr.c **** 		dwc_otg_request_done(ep, req, 0);
 5523              		.loc 2 2309 0
 5524 0428 7868     		ldr	r0, [r7, #4]
 5525 042a B969     		ldr	r1, [r7, #24]
 5526 042c 4FF00002 		mov	r2, #0
 5527 0430 FFF7FEFF 		bl	dwc_otg_request_done
2310:../Dave/Generated/src/USBLD001/driver/dwc_otg_pcd_intr.c **** 
2311:../Dave/Generated/src/USBLD001/driver/dwc_otg_pcd_intr.c **** 		ep->dwc_ep.start_xfer_buff = 0;
 5528              		.loc 2 2311 0
 5529 0434 7B68     		ldr	r3, [r7, #4]
 5530 0436 4FF00002 		mov	r2, #0
 5531 043a 5A62     		str	r2, [r3, #36]
2312:../Dave/Generated/src/USBLD001/driver/dwc_otg_pcd_intr.c **** 		ep->dwc_ep.xfer_buff = 0;
 5532              		.loc 2 2312 0
 5533 043c 7B68     		ldr	r3, [r7, #4]
 5534 043e 4FF00002 		mov	r2, #0
 5535 0442 9A62     		str	r2, [r3, #40]
2313:../Dave/Generated/src/USBLD001/driver/dwc_otg_pcd_intr.c **** 		ep->dwc_ep.xfer_len = 0;
 5536              		.loc 2 2313 0
 5537 0444 7A68     		ldr	r2, [r7, #4]
 5538 0446 D36A     		ldr	r3, [r2, #44]
 5539 0448 6FF31203 		bfc	r3, #0, #19
 5540 044c D362     		str	r3, [r2, #44]
2314:../Dave/Generated/src/USBLD001/driver/dwc_otg_pcd_intr.c **** 
2315:../Dave/Generated/src/USBLD001/driver/dwc_otg_pcd_intr.c **** 		/* If there is a request in the queue start it. */
2316:../Dave/Generated/src/USBLD001/driver/dwc_otg_pcd_intr.c **** 		start_next_request(ep);
 5541              		.loc 2 2316 0
 5542 044e 7868     		ldr	r0, [r7, #4]
 5543 0450 FFF7FEFF 		bl	start_next_request
 5544              	.L243:
2317:../Dave/Generated/src/USBLD001/driver/dwc_otg_pcd_intr.c **** 	}
2318:../Dave/Generated/src/USBLD001/driver/dwc_otg_pcd_intr.c **** }
 5545              		.loc 2 2318 0
 5546 0454 07F13807 		add	r7, r7, #56
 5547 0458 BD46     		mov	sp, r7
 5548 045a 80BD     		pop	{r7, pc}
 5549              		.cfi_endproc
 5550              	.LFE53:
 5552              		.section	.text.dwc_otg_pcd_handle_noniso_bna,"ax",%progbits
 5553              		.align	2
 5554              		.thumb
 5555              		.thumb_func
 5557              	dwc_otg_pcd_handle_noniso_bna:
 5558              	.LFB54:
2319:../Dave/Generated/src/USBLD001/driver/dwc_otg_pcd_intr.c **** 
2320:../Dave/Generated/src/USBLD001/driver/dwc_otg_pcd_intr.c **** #ifdef DWC_EN_ISOC
2321:../Dave/Generated/src/USBLD001/driver/dwc_otg_pcd_intr.c **** 
2322:../Dave/Generated/src/USBLD001/driver/dwc_otg_pcd_intr.c **** /**
2323:../Dave/Generated/src/USBLD001/driver/dwc_otg_pcd_intr.c ****  * This function BNA interrupt for Isochronous EPs
2324:../Dave/Generated/src/USBLD001/driver/dwc_otg_pcd_intr.c ****  *
2325:../Dave/Generated/src/USBLD001/driver/dwc_otg_pcd_intr.c ****  */
2326:../Dave/Generated/src/USBLD001/driver/dwc_otg_pcd_intr.c **** static void dwc_otg_pcd_handle_iso_bna(dwc_otg_pcd_ep_t * ep)
2327:../Dave/Generated/src/USBLD001/driver/dwc_otg_pcd_intr.c **** {
2328:../Dave/Generated/src/USBLD001/driver/dwc_otg_pcd_intr.c **** 	dwc_ep_t *dwc_ep = &ep->dwc_ep;
2329:../Dave/Generated/src/USBLD001/driver/dwc_otg_pcd_intr.c **** 	volatile uint32_t *addr;
2330:../Dave/Generated/src/USBLD001/driver/dwc_otg_pcd_intr.c **** 	depctl_data_t depctl = {.d32 = 0 };
2331:../Dave/Generated/src/USBLD001/driver/dwc_otg_pcd_intr.c **** 	dwc_otg_pcd_t *pcd = ep->pcd;
2332:../Dave/Generated/src/USBLD001/driver/dwc_otg_pcd_intr.c **** 	dwc_otg_dev_dma_desc_t *dma_desc;
2333:../Dave/Generated/src/USBLD001/driver/dwc_otg_pcd_intr.c **** 	int i;
2334:../Dave/Generated/src/USBLD001/driver/dwc_otg_pcd_intr.c **** 
2335:../Dave/Generated/src/USBLD001/driver/dwc_otg_pcd_intr.c **** 	dma_desc =
2336:../Dave/Generated/src/USBLD001/driver/dwc_otg_pcd_intr.c **** 	    dwc_ep->iso_desc_addr + dwc_ep->desc_cnt * (dwc_ep->proc_buf_num);
2337:../Dave/Generated/src/USBLD001/driver/dwc_otg_pcd_intr.c **** 
2338:../Dave/Generated/src/USBLD001/driver/dwc_otg_pcd_intr.c **** 	if (dwc_ep->is_in) {
2339:../Dave/Generated/src/USBLD001/driver/dwc_otg_pcd_intr.c **** 		dev_dma_desc_sts_t sts = {.d32 = 0 };
2340:../Dave/Generated/src/USBLD001/driver/dwc_otg_pcd_intr.c **** 		for (i = 0; i < dwc_ep->desc_cnt; ++i, ++dma_desc) {
2341:../Dave/Generated/src/USBLD001/driver/dwc_otg_pcd_intr.c **** 			sts.d32 = dma_desc->status.d32;
2342:../Dave/Generated/src/USBLD001/driver/dwc_otg_pcd_intr.c **** 			sts.b_iso_in.bs = BS_HOST_READY;
2343:../Dave/Generated/src/USBLD001/driver/dwc_otg_pcd_intr.c **** 			dma_desc->status.d32 = sts.d32;
2344:../Dave/Generated/src/USBLD001/driver/dwc_otg_pcd_intr.c **** 		}
2345:../Dave/Generated/src/USBLD001/driver/dwc_otg_pcd_intr.c **** 	} else {
2346:../Dave/Generated/src/USBLD001/driver/dwc_otg_pcd_intr.c **** 		dev_dma_desc_sts_t sts = {.d32 = 0 };
2347:../Dave/Generated/src/USBLD001/driver/dwc_otg_pcd_intr.c **** 		for (i = 0; i < dwc_ep->desc_cnt; ++i, ++dma_desc) {
2348:../Dave/Generated/src/USBLD001/driver/dwc_otg_pcd_intr.c **** 			sts.d32 = dma_desc->status.d32;
2349:../Dave/Generated/src/USBLD001/driver/dwc_otg_pcd_intr.c **** 			sts.b_iso_out.bs = BS_HOST_READY;
2350:../Dave/Generated/src/USBLD001/driver/dwc_otg_pcd_intr.c **** 			dma_desc->status.d32 = sts.d32;
2351:../Dave/Generated/src/USBLD001/driver/dwc_otg_pcd_intr.c **** 		}
2352:../Dave/Generated/src/USBLD001/driver/dwc_otg_pcd_intr.c **** 	}
2353:../Dave/Generated/src/USBLD001/driver/dwc_otg_pcd_intr.c **** 
2354:../Dave/Generated/src/USBLD001/driver/dwc_otg_pcd_intr.c **** 	if (dwc_ep->is_in == 0) {
2355:../Dave/Generated/src/USBLD001/driver/dwc_otg_pcd_intr.c **** 		addr =
2356:../Dave/Generated/src/USBLD001/driver/dwc_otg_pcd_intr.c **** 		    &GET_CORE_IF(pcd)->dev_if->out_ep_regs[dwc_ep->
2357:../Dave/Generated/src/USBLD001/driver/dwc_otg_pcd_intr.c **** 							   num]->doepctl;
2358:../Dave/Generated/src/USBLD001/driver/dwc_otg_pcd_intr.c **** 	} else {
2359:../Dave/Generated/src/USBLD001/driver/dwc_otg_pcd_intr.c **** 		addr =
2360:../Dave/Generated/src/USBLD001/driver/dwc_otg_pcd_intr.c **** 		    &GET_CORE_IF(pcd)->dev_if->in_ep_regs[dwc_ep->num]->diepctl;
2361:../Dave/Generated/src/USBLD001/driver/dwc_otg_pcd_intr.c **** 	}
2362:../Dave/Generated/src/USBLD001/driver/dwc_otg_pcd_intr.c **** 	depctl.b.epena = 1;
2363:../Dave/Generated/src/USBLD001/driver/dwc_otg_pcd_intr.c **** 	DWC_MODIFY_REG32(addr, depctl.d32, depctl.d32);
2364:../Dave/Generated/src/USBLD001/driver/dwc_otg_pcd_intr.c **** }
2365:../Dave/Generated/src/USBLD001/driver/dwc_otg_pcd_intr.c **** 
2366:../Dave/Generated/src/USBLD001/driver/dwc_otg_pcd_intr.c **** /**
2367:../Dave/Generated/src/USBLD001/driver/dwc_otg_pcd_intr.c ****  * This function sets latest iso packet information(non-PTI mode)
2368:../Dave/Generated/src/USBLD001/driver/dwc_otg_pcd_intr.c ****  *
2369:../Dave/Generated/src/USBLD001/driver/dwc_otg_pcd_intr.c ****  * @param core_if Programming view of DWC_otg controller.
2370:../Dave/Generated/src/USBLD001/driver/dwc_otg_pcd_intr.c ****  * @param ep The EP to start the transfer on.
2371:../Dave/Generated/src/USBLD001/driver/dwc_otg_pcd_intr.c ****  *
2372:../Dave/Generated/src/USBLD001/driver/dwc_otg_pcd_intr.c ****  */
2373:../Dave/Generated/src/USBLD001/driver/dwc_otg_pcd_intr.c **** void set_current_pkt_info(dwc_otg_core_if_t * core_if, dwc_ep_t * ep)
2374:../Dave/Generated/src/USBLD001/driver/dwc_otg_pcd_intr.c **** {
2375:../Dave/Generated/src/USBLD001/driver/dwc_otg_pcd_intr.c **** 	deptsiz_data_t deptsiz = {.d32 = 0 };
2376:../Dave/Generated/src/USBLD001/driver/dwc_otg_pcd_intr.c **** 	dma_addr_t dma_addr;
2377:../Dave/Generated/src/USBLD001/driver/dwc_otg_pcd_intr.c **** 	uint32_t offset;
2378:../Dave/Generated/src/USBLD001/driver/dwc_otg_pcd_intr.c **** 
2379:../Dave/Generated/src/USBLD001/driver/dwc_otg_pcd_intr.c **** 	if (ep->proc_buf_num)
2380:../Dave/Generated/src/USBLD001/driver/dwc_otg_pcd_intr.c **** 		dma_addr = ep->dma_addr1;
2381:../Dave/Generated/src/USBLD001/driver/dwc_otg_pcd_intr.c **** 	else
2382:../Dave/Generated/src/USBLD001/driver/dwc_otg_pcd_intr.c **** 		dma_addr = ep->dma_addr0;
2383:../Dave/Generated/src/USBLD001/driver/dwc_otg_pcd_intr.c **** 
2384:../Dave/Generated/src/USBLD001/driver/dwc_otg_pcd_intr.c **** 	if (ep->is_in) {
2385:../Dave/Generated/src/USBLD001/driver/dwc_otg_pcd_intr.c **** 		deptsiz.d32 =
2386:../Dave/Generated/src/USBLD001/driver/dwc_otg_pcd_intr.c **** 		    DWC_READ_REG32(&core_if->dev_if->
2387:../Dave/Generated/src/USBLD001/driver/dwc_otg_pcd_intr.c **** 				   in_ep_regs[ep->num]->dieptsiz);
2388:../Dave/Generated/src/USBLD001/driver/dwc_otg_pcd_intr.c **** 		offset = ep->data_per_frame;
2389:../Dave/Generated/src/USBLD001/driver/dwc_otg_pcd_intr.c **** 	} else {
2390:../Dave/Generated/src/USBLD001/driver/dwc_otg_pcd_intr.c **** 		deptsiz.d32 =
2391:../Dave/Generated/src/USBLD001/driver/dwc_otg_pcd_intr.c **** 		    DWC_READ_REG32(&core_if->dev_if->
2392:../Dave/Generated/src/USBLD001/driver/dwc_otg_pcd_intr.c **** 				   out_ep_regs[ep->num]->doeptsiz);
2393:../Dave/Generated/src/USBLD001/driver/dwc_otg_pcd_intr.c **** 		offset =
2394:../Dave/Generated/src/USBLD001/driver/dwc_otg_pcd_intr.c **** 		    ep->data_per_frame +
2395:../Dave/Generated/src/USBLD001/driver/dwc_otg_pcd_intr.c **** 		    (0x4 & (0x4 - (ep->data_per_frame & 0x3)));
2396:../Dave/Generated/src/USBLD001/driver/dwc_otg_pcd_intr.c **** 	}
2397:../Dave/Generated/src/USBLD001/driver/dwc_otg_pcd_intr.c **** 
2398:../Dave/Generated/src/USBLD001/driver/dwc_otg_pcd_intr.c **** 	if (!deptsiz.b.xfersize) {
2399:../Dave/Generated/src/USBLD001/driver/dwc_otg_pcd_intr.c **** 		ep->pkt_info[ep->cur_pkt].length = ep->data_per_frame;
2400:../Dave/Generated/src/USBLD001/driver/dwc_otg_pcd_intr.c **** 		ep->pkt_info[ep->cur_pkt].offset =
2401:../Dave/Generated/src/USBLD001/driver/dwc_otg_pcd_intr.c **** 		    ep->cur_pkt_dma_addr - dma_addr;
2402:../Dave/Generated/src/USBLD001/driver/dwc_otg_pcd_intr.c **** 		ep->pkt_info[ep->cur_pkt].status = 0;
2403:../Dave/Generated/src/USBLD001/driver/dwc_otg_pcd_intr.c **** 	} else {
2404:../Dave/Generated/src/USBLD001/driver/dwc_otg_pcd_intr.c **** 		ep->pkt_info[ep->cur_pkt].length = ep->data_per_frame;
2405:../Dave/Generated/src/USBLD001/driver/dwc_otg_pcd_intr.c **** 		ep->pkt_info[ep->cur_pkt].offset =
2406:../Dave/Generated/src/USBLD001/driver/dwc_otg_pcd_intr.c **** 		    ep->cur_pkt_dma_addr - dma_addr;
2407:../Dave/Generated/src/USBLD001/driver/dwc_otg_pcd_intr.c **** 		ep->pkt_info[ep->cur_pkt].status = -DWC_E_NO_DATA;
2408:../Dave/Generated/src/USBLD001/driver/dwc_otg_pcd_intr.c **** 	}
2409:../Dave/Generated/src/USBLD001/driver/dwc_otg_pcd_intr.c **** 	ep->cur_pkt_addr += offset;
2410:../Dave/Generated/src/USBLD001/driver/dwc_otg_pcd_intr.c **** 	ep->cur_pkt_dma_addr += offset;
2411:../Dave/Generated/src/USBLD001/driver/dwc_otg_pcd_intr.c **** 	ep->cur_pkt++;
2412:../Dave/Generated/src/USBLD001/driver/dwc_otg_pcd_intr.c **** }
2413:../Dave/Generated/src/USBLD001/driver/dwc_otg_pcd_intr.c **** 
2414:../Dave/Generated/src/USBLD001/driver/dwc_otg_pcd_intr.c **** /**
2415:../Dave/Generated/src/USBLD001/driver/dwc_otg_pcd_intr.c ****  * This function sets latest iso packet information(DDMA mode)
2416:../Dave/Generated/src/USBLD001/driver/dwc_otg_pcd_intr.c ****  *
2417:../Dave/Generated/src/USBLD001/driver/dwc_otg_pcd_intr.c ****  * @param core_if Programming view of DWC_otg controller.
2418:../Dave/Generated/src/USBLD001/driver/dwc_otg_pcd_intr.c ****  * @param dwc_ep The EP to start the transfer on.
2419:../Dave/Generated/src/USBLD001/driver/dwc_otg_pcd_intr.c ****  *
2420:../Dave/Generated/src/USBLD001/driver/dwc_otg_pcd_intr.c ****  */
2421:../Dave/Generated/src/USBLD001/driver/dwc_otg_pcd_intr.c **** static void set_ddma_iso_pkts_info(dwc_otg_core_if_t * core_if,
2422:../Dave/Generated/src/USBLD001/driver/dwc_otg_pcd_intr.c **** 				   dwc_ep_t * dwc_ep)
2423:../Dave/Generated/src/USBLD001/driver/dwc_otg_pcd_intr.c **** {
2424:../Dave/Generated/src/USBLD001/driver/dwc_otg_pcd_intr.c **** 	dwc_otg_dev_dma_desc_t *dma_desc;
2425:../Dave/Generated/src/USBLD001/driver/dwc_otg_pcd_intr.c **** 	dev_dma_desc_sts_t sts = {.d32 = 0 };
2426:../Dave/Generated/src/USBLD001/driver/dwc_otg_pcd_intr.c **** 	iso_pkt_info_t *iso_packet;
2427:../Dave/Generated/src/USBLD001/driver/dwc_otg_pcd_intr.c **** 	uint32_t data_per_desc;
2428:../Dave/Generated/src/USBLD001/driver/dwc_otg_pcd_intr.c **** 	uint32_t offset;
2429:../Dave/Generated/src/USBLD001/driver/dwc_otg_pcd_intr.c **** 	int i, j;
2430:../Dave/Generated/src/USBLD001/driver/dwc_otg_pcd_intr.c **** 
2431:../Dave/Generated/src/USBLD001/driver/dwc_otg_pcd_intr.c **** 	iso_packet = dwc_ep->pkt_info;
2432:../Dave/Generated/src/USBLD001/driver/dwc_otg_pcd_intr.c **** 
2433:../Dave/Generated/src/USBLD001/driver/dwc_otg_pcd_intr.c **** 	/** Reinit closed DMA Descriptors*/
2434:../Dave/Generated/src/USBLD001/driver/dwc_otg_pcd_intr.c **** 	/** ISO OUT EP */
2435:../Dave/Generated/src/USBLD001/driver/dwc_otg_pcd_intr.c **** 	if (dwc_ep->is_in == 0) {
2436:../Dave/Generated/src/USBLD001/driver/dwc_otg_pcd_intr.c **** 		dma_desc =
2437:../Dave/Generated/src/USBLD001/driver/dwc_otg_pcd_intr.c **** 		    dwc_ep->iso_desc_addr +
2438:../Dave/Generated/src/USBLD001/driver/dwc_otg_pcd_intr.c **** 		    dwc_ep->desc_cnt * dwc_ep->proc_buf_num;
2439:../Dave/Generated/src/USBLD001/driver/dwc_otg_pcd_intr.c **** 		offset = 0;
2440:../Dave/Generated/src/USBLD001/driver/dwc_otg_pcd_intr.c **** 
2441:../Dave/Generated/src/USBLD001/driver/dwc_otg_pcd_intr.c **** 		for (i = 0; i < dwc_ep->desc_cnt - dwc_ep->pkt_per_frm;
2442:../Dave/Generated/src/USBLD001/driver/dwc_otg_pcd_intr.c **** 		     i += dwc_ep->pkt_per_frm) {
2443:../Dave/Generated/src/USBLD001/driver/dwc_otg_pcd_intr.c **** 			for (j = 0; j < dwc_ep->pkt_per_frm; ++j) {
2444:../Dave/Generated/src/USBLD001/driver/dwc_otg_pcd_intr.c **** 				data_per_desc =
2445:../Dave/Generated/src/USBLD001/driver/dwc_otg_pcd_intr.c **** 				    ((j + 1) * dwc_ep->maxpacket >
2446:../Dave/Generated/src/USBLD001/driver/dwc_otg_pcd_intr.c **** 				     dwc_ep->
2447:../Dave/Generated/src/USBLD001/driver/dwc_otg_pcd_intr.c **** 				     data_per_frame) ? dwc_ep->data_per_frame -
2448:../Dave/Generated/src/USBLD001/driver/dwc_otg_pcd_intr.c **** 				    j * dwc_ep->maxpacket : dwc_ep->maxpacket;
2449:../Dave/Generated/src/USBLD001/driver/dwc_otg_pcd_intr.c **** 				data_per_desc +=
2450:../Dave/Generated/src/USBLD001/driver/dwc_otg_pcd_intr.c **** 				    (data_per_desc % 4) ? (4 -
2451:../Dave/Generated/src/USBLD001/driver/dwc_otg_pcd_intr.c **** 							   data_per_desc %
2452:../Dave/Generated/src/USBLD001/driver/dwc_otg_pcd_intr.c **** 							   4) : 0;
2453:../Dave/Generated/src/USBLD001/driver/dwc_otg_pcd_intr.c **** 
2454:../Dave/Generated/src/USBLD001/driver/dwc_otg_pcd_intr.c **** 				sts.d32 = dma_desc->status.d32;
2455:../Dave/Generated/src/USBLD001/driver/dwc_otg_pcd_intr.c **** 
2456:../Dave/Generated/src/USBLD001/driver/dwc_otg_pcd_intr.c **** 				/* Write status in iso_packet_decsriptor  */
2457:../Dave/Generated/src/USBLD001/driver/dwc_otg_pcd_intr.c **** 				iso_packet->status =
2458:../Dave/Generated/src/USBLD001/driver/dwc_otg_pcd_intr.c **** 				    sts.b_iso_out.rxsts +
2459:../Dave/Generated/src/USBLD001/driver/dwc_otg_pcd_intr.c **** 				    (sts.b_iso_out.bs ^ BS_DMA_DONE);
2460:../Dave/Generated/src/USBLD001/driver/dwc_otg_pcd_intr.c **** 				if (iso_packet->status) {
2461:../Dave/Generated/src/USBLD001/driver/dwc_otg_pcd_intr.c **** 					iso_packet->status = -DWC_E_NO_DATA;
2462:../Dave/Generated/src/USBLD001/driver/dwc_otg_pcd_intr.c **** 				}
2463:../Dave/Generated/src/USBLD001/driver/dwc_otg_pcd_intr.c **** 
2464:../Dave/Generated/src/USBLD001/driver/dwc_otg_pcd_intr.c **** 				/* Received data length */
2465:../Dave/Generated/src/USBLD001/driver/dwc_otg_pcd_intr.c **** 				if (!sts.b_iso_out.rxbytes) {
2466:../Dave/Generated/src/USBLD001/driver/dwc_otg_pcd_intr.c **** 					iso_packet->length =
2467:../Dave/Generated/src/USBLD001/driver/dwc_otg_pcd_intr.c **** 					    data_per_desc -
2468:../Dave/Generated/src/USBLD001/driver/dwc_otg_pcd_intr.c **** 					    sts.b_iso_out.rxbytes;
2469:../Dave/Generated/src/USBLD001/driver/dwc_otg_pcd_intr.c **** 				} else {
2470:../Dave/Generated/src/USBLD001/driver/dwc_otg_pcd_intr.c **** 					iso_packet->length =
2471:../Dave/Generated/src/USBLD001/driver/dwc_otg_pcd_intr.c **** 					    data_per_desc -
2472:../Dave/Generated/src/USBLD001/driver/dwc_otg_pcd_intr.c **** 					    sts.b_iso_out.rxbytes + (4 -
2473:../Dave/Generated/src/USBLD001/driver/dwc_otg_pcd_intr.c **** 								     dwc_ep->data_per_frame
2474:../Dave/Generated/src/USBLD001/driver/dwc_otg_pcd_intr.c **** 								     % 4);
2475:../Dave/Generated/src/USBLD001/driver/dwc_otg_pcd_intr.c **** 				}
2476:../Dave/Generated/src/USBLD001/driver/dwc_otg_pcd_intr.c **** 
2477:../Dave/Generated/src/USBLD001/driver/dwc_otg_pcd_intr.c **** 				iso_packet->offset = offset;
2478:../Dave/Generated/src/USBLD001/driver/dwc_otg_pcd_intr.c **** 
2479:../Dave/Generated/src/USBLD001/driver/dwc_otg_pcd_intr.c **** 				offset += data_per_desc;
2480:../Dave/Generated/src/USBLD001/driver/dwc_otg_pcd_intr.c **** 				dma_desc++;
2481:../Dave/Generated/src/USBLD001/driver/dwc_otg_pcd_intr.c **** 				iso_packet++;
2482:../Dave/Generated/src/USBLD001/driver/dwc_otg_pcd_intr.c **** 			}
2483:../Dave/Generated/src/USBLD001/driver/dwc_otg_pcd_intr.c **** 		}
2484:../Dave/Generated/src/USBLD001/driver/dwc_otg_pcd_intr.c **** 
2485:../Dave/Generated/src/USBLD001/driver/dwc_otg_pcd_intr.c **** 		for (j = 0; j < dwc_ep->pkt_per_frm - 1; ++j) {
2486:../Dave/Generated/src/USBLD001/driver/dwc_otg_pcd_intr.c **** 			data_per_desc =
2487:../Dave/Generated/src/USBLD001/driver/dwc_otg_pcd_intr.c **** 			    ((j + 1) * dwc_ep->maxpacket >
2488:../Dave/Generated/src/USBLD001/driver/dwc_otg_pcd_intr.c **** 			     dwc_ep->data_per_frame) ? dwc_ep->data_per_frame -
2489:../Dave/Generated/src/USBLD001/driver/dwc_otg_pcd_intr.c **** 			    j * dwc_ep->maxpacket : dwc_ep->maxpacket;
2490:../Dave/Generated/src/USBLD001/driver/dwc_otg_pcd_intr.c **** 			data_per_desc +=
2491:../Dave/Generated/src/USBLD001/driver/dwc_otg_pcd_intr.c **** 			    (data_per_desc % 4) ? (4 - data_per_desc % 4) : 0;
2492:../Dave/Generated/src/USBLD001/driver/dwc_otg_pcd_intr.c **** 
2493:../Dave/Generated/src/USBLD001/driver/dwc_otg_pcd_intr.c **** 			sts.d32 = dma_desc->status.d32;
2494:../Dave/Generated/src/USBLD001/driver/dwc_otg_pcd_intr.c **** 
2495:../Dave/Generated/src/USBLD001/driver/dwc_otg_pcd_intr.c **** 			/* Write status in iso_packet_decsriptor  */
2496:../Dave/Generated/src/USBLD001/driver/dwc_otg_pcd_intr.c **** 			iso_packet->status =
2497:../Dave/Generated/src/USBLD001/driver/dwc_otg_pcd_intr.c **** 			    sts.b_iso_out.rxsts +
2498:../Dave/Generated/src/USBLD001/driver/dwc_otg_pcd_intr.c **** 			    (sts.b_iso_out.bs ^ BS_DMA_DONE);
2499:../Dave/Generated/src/USBLD001/driver/dwc_otg_pcd_intr.c **** 			if (iso_packet->status) {
2500:../Dave/Generated/src/USBLD001/driver/dwc_otg_pcd_intr.c **** 				iso_packet->status = -DWC_E_NO_DATA;
2501:../Dave/Generated/src/USBLD001/driver/dwc_otg_pcd_intr.c **** 			}
2502:../Dave/Generated/src/USBLD001/driver/dwc_otg_pcd_intr.c **** 
2503:../Dave/Generated/src/USBLD001/driver/dwc_otg_pcd_intr.c **** 			/* Received data length */
2504:../Dave/Generated/src/USBLD001/driver/dwc_otg_pcd_intr.c **** 			iso_packet->length =
2505:../Dave/Generated/src/USBLD001/driver/dwc_otg_pcd_intr.c **** 			    dwc_ep->data_per_frame - sts.b_iso_out.rxbytes;
2506:../Dave/Generated/src/USBLD001/driver/dwc_otg_pcd_intr.c **** 
2507:../Dave/Generated/src/USBLD001/driver/dwc_otg_pcd_intr.c **** 			iso_packet->offset = offset;
2508:../Dave/Generated/src/USBLD001/driver/dwc_otg_pcd_intr.c **** 
2509:../Dave/Generated/src/USBLD001/driver/dwc_otg_pcd_intr.c **** 			offset += data_per_desc;
2510:../Dave/Generated/src/USBLD001/driver/dwc_otg_pcd_intr.c **** 			iso_packet++;
2511:../Dave/Generated/src/USBLD001/driver/dwc_otg_pcd_intr.c **** 			dma_desc++;
2512:../Dave/Generated/src/USBLD001/driver/dwc_otg_pcd_intr.c **** 		}
2513:../Dave/Generated/src/USBLD001/driver/dwc_otg_pcd_intr.c **** 
2514:../Dave/Generated/src/USBLD001/driver/dwc_otg_pcd_intr.c **** 		sts.d32 = dma_desc->status.d32;
2515:../Dave/Generated/src/USBLD001/driver/dwc_otg_pcd_intr.c **** 
2516:../Dave/Generated/src/USBLD001/driver/dwc_otg_pcd_intr.c **** 		/* Write status in iso_packet_decsriptor  */
2517:../Dave/Generated/src/USBLD001/driver/dwc_otg_pcd_intr.c **** 		iso_packet->status =
2518:../Dave/Generated/src/USBLD001/driver/dwc_otg_pcd_intr.c **** 		    sts.b_iso_out.rxsts + (sts.b_iso_out.bs ^ BS_DMA_DONE);
2519:../Dave/Generated/src/USBLD001/driver/dwc_otg_pcd_intr.c **** 		if (iso_packet->status) {
2520:../Dave/Generated/src/USBLD001/driver/dwc_otg_pcd_intr.c **** 			iso_packet->status = -DWC_E_NO_DATA;
2521:../Dave/Generated/src/USBLD001/driver/dwc_otg_pcd_intr.c **** 		}
2522:../Dave/Generated/src/USBLD001/driver/dwc_otg_pcd_intr.c **** 		/* Received data length */
2523:../Dave/Generated/src/USBLD001/driver/dwc_otg_pcd_intr.c **** 		if (!sts.b_iso_out.rxbytes) {
2524:../Dave/Generated/src/USBLD001/driver/dwc_otg_pcd_intr.c **** 			iso_packet->length =
2525:../Dave/Generated/src/USBLD001/driver/dwc_otg_pcd_intr.c **** 			    dwc_ep->data_per_frame - sts.b_iso_out.rxbytes;
2526:../Dave/Generated/src/USBLD001/driver/dwc_otg_pcd_intr.c **** 		} else {
2527:../Dave/Generated/src/USBLD001/driver/dwc_otg_pcd_intr.c **** 			iso_packet->length =
2528:../Dave/Generated/src/USBLD001/driver/dwc_otg_pcd_intr.c **** 			    dwc_ep->data_per_frame - sts.b_iso_out.rxbytes +
2529:../Dave/Generated/src/USBLD001/driver/dwc_otg_pcd_intr.c **** 			    (4 - dwc_ep->data_per_frame % 4);
2530:../Dave/Generated/src/USBLD001/driver/dwc_otg_pcd_intr.c **** 		}
2531:../Dave/Generated/src/USBLD001/driver/dwc_otg_pcd_intr.c **** 
2532:../Dave/Generated/src/USBLD001/driver/dwc_otg_pcd_intr.c **** 		iso_packet->offset = offset;
2533:../Dave/Generated/src/USBLD001/driver/dwc_otg_pcd_intr.c **** 	} else {
2534:../Dave/Generated/src/USBLD001/driver/dwc_otg_pcd_intr.c **** /** ISO IN EP */
2535:../Dave/Generated/src/USBLD001/driver/dwc_otg_pcd_intr.c **** 
2536:../Dave/Generated/src/USBLD001/driver/dwc_otg_pcd_intr.c **** 		dma_desc =
2537:../Dave/Generated/src/USBLD001/driver/dwc_otg_pcd_intr.c **** 		    dwc_ep->iso_desc_addr +
2538:../Dave/Generated/src/USBLD001/driver/dwc_otg_pcd_intr.c **** 		    dwc_ep->desc_cnt * dwc_ep->proc_buf_num;
2539:../Dave/Generated/src/USBLD001/driver/dwc_otg_pcd_intr.c **** 
2540:../Dave/Generated/src/USBLD001/driver/dwc_otg_pcd_intr.c **** 		for (i = 0; i < dwc_ep->desc_cnt - 1; i++) {
2541:../Dave/Generated/src/USBLD001/driver/dwc_otg_pcd_intr.c **** 			sts.d32 = dma_desc->status.d32;
2542:../Dave/Generated/src/USBLD001/driver/dwc_otg_pcd_intr.c **** 
2543:../Dave/Generated/src/USBLD001/driver/dwc_otg_pcd_intr.c **** 			/* Write status in iso packet descriptor */
2544:../Dave/Generated/src/USBLD001/driver/dwc_otg_pcd_intr.c **** 			iso_packet->status =
2545:../Dave/Generated/src/USBLD001/driver/dwc_otg_pcd_intr.c **** 			    sts.b_iso_in.txsts +
2546:../Dave/Generated/src/USBLD001/driver/dwc_otg_pcd_intr.c **** 			    (sts.b_iso_in.bs ^ BS_DMA_DONE);
2547:../Dave/Generated/src/USBLD001/driver/dwc_otg_pcd_intr.c **** 			if (iso_packet->status != 0) {
2548:../Dave/Generated/src/USBLD001/driver/dwc_otg_pcd_intr.c **** 				iso_packet->status = -DWC_E_NO_DATA;
2549:../Dave/Generated/src/USBLD001/driver/dwc_otg_pcd_intr.c **** 
2550:../Dave/Generated/src/USBLD001/driver/dwc_otg_pcd_intr.c **** 			}
2551:../Dave/Generated/src/USBLD001/driver/dwc_otg_pcd_intr.c **** 			/* Bytes has been transfered */
2552:../Dave/Generated/src/USBLD001/driver/dwc_otg_pcd_intr.c **** 			iso_packet->length =
2553:../Dave/Generated/src/USBLD001/driver/dwc_otg_pcd_intr.c **** 			    dwc_ep->data_per_frame - sts.b_iso_in.txbytes;
2554:../Dave/Generated/src/USBLD001/driver/dwc_otg_pcd_intr.c **** 
2555:../Dave/Generated/src/USBLD001/driver/dwc_otg_pcd_intr.c **** 			dma_desc++;
2556:../Dave/Generated/src/USBLD001/driver/dwc_otg_pcd_intr.c **** 			iso_packet++;
2557:../Dave/Generated/src/USBLD001/driver/dwc_otg_pcd_intr.c **** 		}
2558:../Dave/Generated/src/USBLD001/driver/dwc_otg_pcd_intr.c **** 
2559:../Dave/Generated/src/USBLD001/driver/dwc_otg_pcd_intr.c **** 		sts.d32 = dma_desc->status.d32;
2560:../Dave/Generated/src/USBLD001/driver/dwc_otg_pcd_intr.c **** 		while (sts.b_iso_in.bs == BS_DMA_BUSY) {
2561:../Dave/Generated/src/USBLD001/driver/dwc_otg_pcd_intr.c **** 			sts.d32 = dma_desc->status.d32;
2562:../Dave/Generated/src/USBLD001/driver/dwc_otg_pcd_intr.c **** 		}
2563:../Dave/Generated/src/USBLD001/driver/dwc_otg_pcd_intr.c **** 
2564:../Dave/Generated/src/USBLD001/driver/dwc_otg_pcd_intr.c **** 		/* Write status in iso packet descriptor ??? do be done with ERROR codes */
2565:../Dave/Generated/src/USBLD001/driver/dwc_otg_pcd_intr.c **** 		iso_packet->status =
2566:../Dave/Generated/src/USBLD001/driver/dwc_otg_pcd_intr.c **** 		    sts.b_iso_in.txsts + (sts.b_iso_in.bs ^ BS_DMA_DONE);
2567:../Dave/Generated/src/USBLD001/driver/dwc_otg_pcd_intr.c **** 		if (iso_packet->status != 0) {
2568:../Dave/Generated/src/USBLD001/driver/dwc_otg_pcd_intr.c **** 			iso_packet->status = -DWC_E_NO_DATA;
2569:../Dave/Generated/src/USBLD001/driver/dwc_otg_pcd_intr.c **** 		}
2570:../Dave/Generated/src/USBLD001/driver/dwc_otg_pcd_intr.c **** 
2571:../Dave/Generated/src/USBLD001/driver/dwc_otg_pcd_intr.c **** 		/* Bytes has been transfered */
2572:../Dave/Generated/src/USBLD001/driver/dwc_otg_pcd_intr.c **** 		iso_packet->length =
2573:../Dave/Generated/src/USBLD001/driver/dwc_otg_pcd_intr.c **** 		    dwc_ep->data_per_frame - sts.b_iso_in.txbytes;
2574:../Dave/Generated/src/USBLD001/driver/dwc_otg_pcd_intr.c **** 	}
2575:../Dave/Generated/src/USBLD001/driver/dwc_otg_pcd_intr.c **** }
2576:../Dave/Generated/src/USBLD001/driver/dwc_otg_pcd_intr.c **** 
2577:../Dave/Generated/src/USBLD001/driver/dwc_otg_pcd_intr.c **** /**
2578:../Dave/Generated/src/USBLD001/driver/dwc_otg_pcd_intr.c ****  * This function reinitialize DMA Descriptors for Isochronous transfer
2579:../Dave/Generated/src/USBLD001/driver/dwc_otg_pcd_intr.c ****  *
2580:../Dave/Generated/src/USBLD001/driver/dwc_otg_pcd_intr.c ****  * @param core_if Programming view of DWC_otg controller.
2581:../Dave/Generated/src/USBLD001/driver/dwc_otg_pcd_intr.c ****  * @param dwc_ep The EP to start the transfer on.
2582:../Dave/Generated/src/USBLD001/driver/dwc_otg_pcd_intr.c ****  *
2583:../Dave/Generated/src/USBLD001/driver/dwc_otg_pcd_intr.c ****  */
2584:../Dave/Generated/src/USBLD001/driver/dwc_otg_pcd_intr.c **** static void reinit_ddma_iso_xfer(dwc_otg_core_if_t * core_if, dwc_ep_t * dwc_ep)
2585:../Dave/Generated/src/USBLD001/driver/dwc_otg_pcd_intr.c **** {
2586:../Dave/Generated/src/USBLD001/driver/dwc_otg_pcd_intr.c **** 	int i, j;
2587:../Dave/Generated/src/USBLD001/driver/dwc_otg_pcd_intr.c **** 	dwc_otg_dev_dma_desc_t *dma_desc;
2588:../Dave/Generated/src/USBLD001/driver/dwc_otg_pcd_intr.c **** 	dma_addr_t dma_ad;
2589:../Dave/Generated/src/USBLD001/driver/dwc_otg_pcd_intr.c **** 	volatile uint32_t *addr;
2590:../Dave/Generated/src/USBLD001/driver/dwc_otg_pcd_intr.c **** 	dev_dma_desc_sts_t sts = {.d32 = 0 };
2591:../Dave/Generated/src/USBLD001/driver/dwc_otg_pcd_intr.c **** 	uint32_t data_per_desc;
2592:../Dave/Generated/src/USBLD001/driver/dwc_otg_pcd_intr.c **** 
2593:../Dave/Generated/src/USBLD001/driver/dwc_otg_pcd_intr.c **** 	if (dwc_ep->is_in == 0) {
2594:../Dave/Generated/src/USBLD001/driver/dwc_otg_pcd_intr.c **** 		addr = &core_if->dev_if->out_ep_regs[dwc_ep->num]->doepctl;
2595:../Dave/Generated/src/USBLD001/driver/dwc_otg_pcd_intr.c **** 	} else {
2596:../Dave/Generated/src/USBLD001/driver/dwc_otg_pcd_intr.c **** 		addr = &core_if->dev_if->in_ep_regs[dwc_ep->num]->diepctl;
2597:../Dave/Generated/src/USBLD001/driver/dwc_otg_pcd_intr.c **** 	}
2598:../Dave/Generated/src/USBLD001/driver/dwc_otg_pcd_intr.c **** 
2599:../Dave/Generated/src/USBLD001/driver/dwc_otg_pcd_intr.c **** 	if (dwc_ep->proc_buf_num == 0) {
2600:../Dave/Generated/src/USBLD001/driver/dwc_otg_pcd_intr.c **** 		/** Buffer 0 descriptors setup */
2601:../Dave/Generated/src/USBLD001/driver/dwc_otg_pcd_intr.c **** 		dma_ad = dwc_ep->dma_addr0;
2602:../Dave/Generated/src/USBLD001/driver/dwc_otg_pcd_intr.c **** 	} else {
2603:../Dave/Generated/src/USBLD001/driver/dwc_otg_pcd_intr.c **** 		/** Buffer 1 descriptors setup */
2604:../Dave/Generated/src/USBLD001/driver/dwc_otg_pcd_intr.c **** 		dma_ad = dwc_ep->dma_addr1;
2605:../Dave/Generated/src/USBLD001/driver/dwc_otg_pcd_intr.c **** 	}
2606:../Dave/Generated/src/USBLD001/driver/dwc_otg_pcd_intr.c **** 
2607:../Dave/Generated/src/USBLD001/driver/dwc_otg_pcd_intr.c **** 	/** Reinit closed DMA Descriptors*/
2608:../Dave/Generated/src/USBLD001/driver/dwc_otg_pcd_intr.c **** 	/** ISO OUT EP */
2609:../Dave/Generated/src/USBLD001/driver/dwc_otg_pcd_intr.c **** 	if (dwc_ep->is_in == 0) {
2610:../Dave/Generated/src/USBLD001/driver/dwc_otg_pcd_intr.c **** 		dma_desc =
2611:../Dave/Generated/src/USBLD001/driver/dwc_otg_pcd_intr.c **** 		    dwc_ep->iso_desc_addr +
2612:../Dave/Generated/src/USBLD001/driver/dwc_otg_pcd_intr.c **** 		    dwc_ep->desc_cnt * dwc_ep->proc_buf_num;
2613:../Dave/Generated/src/USBLD001/driver/dwc_otg_pcd_intr.c **** 
2614:../Dave/Generated/src/USBLD001/driver/dwc_otg_pcd_intr.c **** 		sts.b_iso_out.bs = BS_HOST_READY;
2615:../Dave/Generated/src/USBLD001/driver/dwc_otg_pcd_intr.c **** 		sts.b_iso_out.rxsts = 0;
2616:../Dave/Generated/src/USBLD001/driver/dwc_otg_pcd_intr.c **** 		sts.b_iso_out.l = 0;
2617:../Dave/Generated/src/USBLD001/driver/dwc_otg_pcd_intr.c **** 		sts.b_iso_out.sp = 0;
2618:../Dave/Generated/src/USBLD001/driver/dwc_otg_pcd_intr.c **** 		sts.b_iso_out.ioc = 0;
2619:../Dave/Generated/src/USBLD001/driver/dwc_otg_pcd_intr.c **** 		sts.b_iso_out.pid = 0;
2620:../Dave/Generated/src/USBLD001/driver/dwc_otg_pcd_intr.c **** 		sts.b_iso_out.framenum = 0;
2621:../Dave/Generated/src/USBLD001/driver/dwc_otg_pcd_intr.c **** 
2622:../Dave/Generated/src/USBLD001/driver/dwc_otg_pcd_intr.c **** 		for (i = 0; i < dwc_ep->desc_cnt - dwc_ep->pkt_per_frm;
2623:../Dave/Generated/src/USBLD001/driver/dwc_otg_pcd_intr.c **** 		     i += dwc_ep->pkt_per_frm) {
2624:../Dave/Generated/src/USBLD001/driver/dwc_otg_pcd_intr.c **** 			for (j = 0; j < dwc_ep->pkt_per_frm; ++j) {
2625:../Dave/Generated/src/USBLD001/driver/dwc_otg_pcd_intr.c **** 				data_per_desc =
2626:../Dave/Generated/src/USBLD001/driver/dwc_otg_pcd_intr.c **** 				    ((j + 1) * dwc_ep->maxpacket >
2627:../Dave/Generated/src/USBLD001/driver/dwc_otg_pcd_intr.c **** 				     dwc_ep->
2628:../Dave/Generated/src/USBLD001/driver/dwc_otg_pcd_intr.c **** 				     data_per_frame) ? dwc_ep->data_per_frame -
2629:../Dave/Generated/src/USBLD001/driver/dwc_otg_pcd_intr.c **** 				    j * dwc_ep->maxpacket : dwc_ep->maxpacket;
2630:../Dave/Generated/src/USBLD001/driver/dwc_otg_pcd_intr.c **** 				data_per_desc +=
2631:../Dave/Generated/src/USBLD001/driver/dwc_otg_pcd_intr.c **** 				    (data_per_desc % 4) ? (4 -
2632:../Dave/Generated/src/USBLD001/driver/dwc_otg_pcd_intr.c **** 							   data_per_desc %
2633:../Dave/Generated/src/USBLD001/driver/dwc_otg_pcd_intr.c **** 							   4) : 0;
2634:../Dave/Generated/src/USBLD001/driver/dwc_otg_pcd_intr.c **** 				sts.b_iso_out.rxbytes = data_per_desc;
2635:../Dave/Generated/src/USBLD001/driver/dwc_otg_pcd_intr.c **** 				dma_desc->buf = dma_ad;
2636:../Dave/Generated/src/USBLD001/driver/dwc_otg_pcd_intr.c **** 				dma_desc->status.d32 = sts.d32;
2637:../Dave/Generated/src/USBLD001/driver/dwc_otg_pcd_intr.c **** 
2638:../Dave/Generated/src/USBLD001/driver/dwc_otg_pcd_intr.c **** 				dma_ad += data_per_desc;
2639:../Dave/Generated/src/USBLD001/driver/dwc_otg_pcd_intr.c **** 				dma_desc++;
2640:../Dave/Generated/src/USBLD001/driver/dwc_otg_pcd_intr.c **** 			}
2641:../Dave/Generated/src/USBLD001/driver/dwc_otg_pcd_intr.c **** 		}
2642:../Dave/Generated/src/USBLD001/driver/dwc_otg_pcd_intr.c **** 
2643:../Dave/Generated/src/USBLD001/driver/dwc_otg_pcd_intr.c **** 		for (j = 0; j < dwc_ep->pkt_per_frm - 1; ++j) {
2644:../Dave/Generated/src/USBLD001/driver/dwc_otg_pcd_intr.c **** 
2645:../Dave/Generated/src/USBLD001/driver/dwc_otg_pcd_intr.c **** 			data_per_desc =
2646:../Dave/Generated/src/USBLD001/driver/dwc_otg_pcd_intr.c **** 			    ((j + 1) * dwc_ep->maxpacket >
2647:../Dave/Generated/src/USBLD001/driver/dwc_otg_pcd_intr.c **** 			     dwc_ep->data_per_frame) ? dwc_ep->data_per_frame -
2648:../Dave/Generated/src/USBLD001/driver/dwc_otg_pcd_intr.c **** 			    j * dwc_ep->maxpacket : dwc_ep->maxpacket;
2649:../Dave/Generated/src/USBLD001/driver/dwc_otg_pcd_intr.c **** 			data_per_desc +=
2650:../Dave/Generated/src/USBLD001/driver/dwc_otg_pcd_intr.c **** 			    (data_per_desc % 4) ? (4 - data_per_desc % 4) : 0;
2651:../Dave/Generated/src/USBLD001/driver/dwc_otg_pcd_intr.c **** 			sts.b_iso_out.rxbytes = data_per_desc;
2652:../Dave/Generated/src/USBLD001/driver/dwc_otg_pcd_intr.c **** 
2653:../Dave/Generated/src/USBLD001/driver/dwc_otg_pcd_intr.c **** 			dma_desc->buf = dma_ad;
2654:../Dave/Generated/src/USBLD001/driver/dwc_otg_pcd_intr.c **** 			dma_desc->status.d32 = sts.d32;
2655:../Dave/Generated/src/USBLD001/driver/dwc_otg_pcd_intr.c **** 
2656:../Dave/Generated/src/USBLD001/driver/dwc_otg_pcd_intr.c **** 			dma_desc++;
2657:../Dave/Generated/src/USBLD001/driver/dwc_otg_pcd_intr.c **** 			dma_ad += data_per_desc;
2658:../Dave/Generated/src/USBLD001/driver/dwc_otg_pcd_intr.c **** 		}
2659:../Dave/Generated/src/USBLD001/driver/dwc_otg_pcd_intr.c **** 
2660:../Dave/Generated/src/USBLD001/driver/dwc_otg_pcd_intr.c **** 		sts.b_iso_out.ioc = 1;
2661:../Dave/Generated/src/USBLD001/driver/dwc_otg_pcd_intr.c **** 		sts.b_iso_out.l = dwc_ep->proc_buf_num;
2662:../Dave/Generated/src/USBLD001/driver/dwc_otg_pcd_intr.c **** 
2663:../Dave/Generated/src/USBLD001/driver/dwc_otg_pcd_intr.c **** 		data_per_desc =
2664:../Dave/Generated/src/USBLD001/driver/dwc_otg_pcd_intr.c **** 		    ((j + 1) * dwc_ep->maxpacket >
2665:../Dave/Generated/src/USBLD001/driver/dwc_otg_pcd_intr.c **** 		     dwc_ep->data_per_frame) ? dwc_ep->data_per_frame -
2666:../Dave/Generated/src/USBLD001/driver/dwc_otg_pcd_intr.c **** 		    j * dwc_ep->maxpacket : dwc_ep->maxpacket;
2667:../Dave/Generated/src/USBLD001/driver/dwc_otg_pcd_intr.c **** 		data_per_desc +=
2668:../Dave/Generated/src/USBLD001/driver/dwc_otg_pcd_intr.c **** 		    (data_per_desc % 4) ? (4 - data_per_desc % 4) : 0;
2669:../Dave/Generated/src/USBLD001/driver/dwc_otg_pcd_intr.c **** 		sts.b_iso_out.rxbytes = data_per_desc;
2670:../Dave/Generated/src/USBLD001/driver/dwc_otg_pcd_intr.c **** 
2671:../Dave/Generated/src/USBLD001/driver/dwc_otg_pcd_intr.c **** 		dma_desc->buf = dma_ad;
2672:../Dave/Generated/src/USBLD001/driver/dwc_otg_pcd_intr.c **** 		dma_desc->status.d32 = sts.d32;
2673:../Dave/Generated/src/USBLD001/driver/dwc_otg_pcd_intr.c **** 	} else {
2674:../Dave/Generated/src/USBLD001/driver/dwc_otg_pcd_intr.c **** /** ISO IN EP */
2675:../Dave/Generated/src/USBLD001/driver/dwc_otg_pcd_intr.c **** 
2676:../Dave/Generated/src/USBLD001/driver/dwc_otg_pcd_intr.c **** 		dma_desc =
2677:../Dave/Generated/src/USBLD001/driver/dwc_otg_pcd_intr.c **** 		    dwc_ep->iso_desc_addr +
2678:../Dave/Generated/src/USBLD001/driver/dwc_otg_pcd_intr.c **** 		    dwc_ep->desc_cnt * dwc_ep->proc_buf_num;
2679:../Dave/Generated/src/USBLD001/driver/dwc_otg_pcd_intr.c **** 
2680:../Dave/Generated/src/USBLD001/driver/dwc_otg_pcd_intr.c **** 		sts.b_iso_in.bs = BS_HOST_READY;
2681:../Dave/Generated/src/USBLD001/driver/dwc_otg_pcd_intr.c **** 		sts.b_iso_in.txsts = 0;
2682:../Dave/Generated/src/USBLD001/driver/dwc_otg_pcd_intr.c **** 		sts.b_iso_in.sp = 0;
2683:../Dave/Generated/src/USBLD001/driver/dwc_otg_pcd_intr.c **** 		sts.b_iso_in.ioc = 0;
2684:../Dave/Generated/src/USBLD001/driver/dwc_otg_pcd_intr.c **** 		sts.b_iso_in.pid = dwc_ep->pkt_per_frm;
2685:../Dave/Generated/src/USBLD001/driver/dwc_otg_pcd_intr.c **** 		sts.b_iso_in.framenum = dwc_ep->next_frame;
2686:../Dave/Generated/src/USBLD001/driver/dwc_otg_pcd_intr.c **** 		sts.b_iso_in.txbytes = dwc_ep->data_per_frame;
2687:../Dave/Generated/src/USBLD001/driver/dwc_otg_pcd_intr.c **** 		sts.b_iso_in.l = 0;
2688:../Dave/Generated/src/USBLD001/driver/dwc_otg_pcd_intr.c **** 
2689:../Dave/Generated/src/USBLD001/driver/dwc_otg_pcd_intr.c **** 		for (i = 0; i < dwc_ep->desc_cnt - 1; i++) {
2690:../Dave/Generated/src/USBLD001/driver/dwc_otg_pcd_intr.c **** 			dma_desc->buf = dma_ad;
2691:../Dave/Generated/src/USBLD001/driver/dwc_otg_pcd_intr.c **** 			dma_desc->status.d32 = sts.d32;
2692:../Dave/Generated/src/USBLD001/driver/dwc_otg_pcd_intr.c **** 
2693:../Dave/Generated/src/USBLD001/driver/dwc_otg_pcd_intr.c **** 			sts.b_iso_in.framenum += dwc_ep->bInterval;
2694:../Dave/Generated/src/USBLD001/driver/dwc_otg_pcd_intr.c **** 			dma_ad += dwc_ep->data_per_frame;
2695:../Dave/Generated/src/USBLD001/driver/dwc_otg_pcd_intr.c **** 			dma_desc++;
2696:../Dave/Generated/src/USBLD001/driver/dwc_otg_pcd_intr.c **** 		}
2697:../Dave/Generated/src/USBLD001/driver/dwc_otg_pcd_intr.c **** 
2698:../Dave/Generated/src/USBLD001/driver/dwc_otg_pcd_intr.c **** 		sts.b_iso_in.ioc = 1;
2699:../Dave/Generated/src/USBLD001/driver/dwc_otg_pcd_intr.c **** 		sts.b_iso_in.l = dwc_ep->proc_buf_num;
2700:../Dave/Generated/src/USBLD001/driver/dwc_otg_pcd_intr.c **** 
2701:../Dave/Generated/src/USBLD001/driver/dwc_otg_pcd_intr.c **** 		dma_desc->buf = dma_ad;
2702:../Dave/Generated/src/USBLD001/driver/dwc_otg_pcd_intr.c **** 		dma_desc->status.d32 = sts.d32;
2703:../Dave/Generated/src/USBLD001/driver/dwc_otg_pcd_intr.c **** 
2704:../Dave/Generated/src/USBLD001/driver/dwc_otg_pcd_intr.c **** 		dwc_ep->next_frame =
2705:../Dave/Generated/src/USBLD001/driver/dwc_otg_pcd_intr.c **** 		    sts.b_iso_in.framenum + dwc_ep->bInterval * 1;
2706:../Dave/Generated/src/USBLD001/driver/dwc_otg_pcd_intr.c **** 	}
2707:../Dave/Generated/src/USBLD001/driver/dwc_otg_pcd_intr.c **** 	dwc_ep->proc_buf_num = (dwc_ep->proc_buf_num ^ 1) & 0x1;
2708:../Dave/Generated/src/USBLD001/driver/dwc_otg_pcd_intr.c **** }
2709:../Dave/Generated/src/USBLD001/driver/dwc_otg_pcd_intr.c **** 
2710:../Dave/Generated/src/USBLD001/driver/dwc_otg_pcd_intr.c **** /**
2711:../Dave/Generated/src/USBLD001/driver/dwc_otg_pcd_intr.c ****  * This function is to handle Iso EP transfer complete interrupt
2712:../Dave/Generated/src/USBLD001/driver/dwc_otg_pcd_intr.c ****  * in case Iso out packet was dropped
2713:../Dave/Generated/src/USBLD001/driver/dwc_otg_pcd_intr.c ****  *
2714:../Dave/Generated/src/USBLD001/driver/dwc_otg_pcd_intr.c ****  * @param core_if Programming view of DWC_otg controller.
2715:../Dave/Generated/src/USBLD001/driver/dwc_otg_pcd_intr.c ****  * @param dwc_ep The EP for wihich transfer complete was asserted
2716:../Dave/Generated/src/USBLD001/driver/dwc_otg_pcd_intr.c ****  *
2717:../Dave/Generated/src/USBLD001/driver/dwc_otg_pcd_intr.c ****  */
2718:../Dave/Generated/src/USBLD001/driver/dwc_otg_pcd_intr.c **** static uint32_t handle_iso_out_pkt_dropped(dwc_otg_core_if_t * core_if,
2719:../Dave/Generated/src/USBLD001/driver/dwc_otg_pcd_intr.c **** 					   dwc_ep_t * dwc_ep)
2720:../Dave/Generated/src/USBLD001/driver/dwc_otg_pcd_intr.c **** {
2721:../Dave/Generated/src/USBLD001/driver/dwc_otg_pcd_intr.c **** 	uint32_t dma_addr;
2722:../Dave/Generated/src/USBLD001/driver/dwc_otg_pcd_intr.c **** 	uint32_t drp_pkt;
2723:../Dave/Generated/src/USBLD001/driver/dwc_otg_pcd_intr.c **** 	uint32_t drp_pkt_cnt;
2724:../Dave/Generated/src/USBLD001/driver/dwc_otg_pcd_intr.c **** 	deptsiz_data_t deptsiz = {.d32 = 0 };
2725:../Dave/Generated/src/USBLD001/driver/dwc_otg_pcd_intr.c **** 	depctl_data_t depctl = {.d32 = 0 };
2726:../Dave/Generated/src/USBLD001/driver/dwc_otg_pcd_intr.c **** 	int i;
2727:../Dave/Generated/src/USBLD001/driver/dwc_otg_pcd_intr.c **** 
2728:../Dave/Generated/src/USBLD001/driver/dwc_otg_pcd_intr.c **** 	deptsiz.d32 =
2729:../Dave/Generated/src/USBLD001/driver/dwc_otg_pcd_intr.c **** 	    DWC_READ_REG32(&core_if->dev_if->
2730:../Dave/Generated/src/USBLD001/driver/dwc_otg_pcd_intr.c **** 			   out_ep_regs[dwc_ep->num]->doeptsiz);
2731:../Dave/Generated/src/USBLD001/driver/dwc_otg_pcd_intr.c **** 
2732:../Dave/Generated/src/USBLD001/driver/dwc_otg_pcd_intr.c **** 	drp_pkt = dwc_ep->pkt_cnt - deptsiz.b.pktcnt;
2733:../Dave/Generated/src/USBLD001/driver/dwc_otg_pcd_intr.c **** 	drp_pkt_cnt = dwc_ep->pkt_per_frm - (drp_pkt % dwc_ep->pkt_per_frm);
2734:../Dave/Generated/src/USBLD001/driver/dwc_otg_pcd_intr.c **** 
2735:../Dave/Generated/src/USBLD001/driver/dwc_otg_pcd_intr.c **** 	/* Setting dropped packets status */
2736:../Dave/Generated/src/USBLD001/driver/dwc_otg_pcd_intr.c **** 	for (i = 0; i < drp_pkt_cnt; ++i) {
2737:../Dave/Generated/src/USBLD001/driver/dwc_otg_pcd_intr.c **** 		dwc_ep->pkt_info[drp_pkt].status = -DWC_E_NO_DATA;
2738:../Dave/Generated/src/USBLD001/driver/dwc_otg_pcd_intr.c **** 		drp_pkt++;
2739:../Dave/Generated/src/USBLD001/driver/dwc_otg_pcd_intr.c **** 		deptsiz.b.pktcnt--;
2740:../Dave/Generated/src/USBLD001/driver/dwc_otg_pcd_intr.c **** 	}
2741:../Dave/Generated/src/USBLD001/driver/dwc_otg_pcd_intr.c **** 
2742:../Dave/Generated/src/USBLD001/driver/dwc_otg_pcd_intr.c **** 	if (deptsiz.b.pktcnt > 0) {
2743:../Dave/Generated/src/USBLD001/driver/dwc_otg_pcd_intr.c **** 		deptsiz.b.xfersize =
2744:../Dave/Generated/src/USBLD001/driver/dwc_otg_pcd_intr.c **** 		    dwc_ep->xfer_len - (dwc_ep->pkt_cnt -
2745:../Dave/Generated/src/USBLD001/driver/dwc_otg_pcd_intr.c **** 					deptsiz.b.pktcnt) * dwc_ep->maxpacket;
2746:../Dave/Generated/src/USBLD001/driver/dwc_otg_pcd_intr.c **** 	} else {
2747:../Dave/Generated/src/USBLD001/driver/dwc_otg_pcd_intr.c **** 		deptsiz.b.xfersize = 0;
2748:../Dave/Generated/src/USBLD001/driver/dwc_otg_pcd_intr.c **** 		deptsiz.b.pktcnt = 0;
2749:../Dave/Generated/src/USBLD001/driver/dwc_otg_pcd_intr.c **** 	}
2750:../Dave/Generated/src/USBLD001/driver/dwc_otg_pcd_intr.c **** 
2751:../Dave/Generated/src/USBLD001/driver/dwc_otg_pcd_intr.c **** 	DWC_WRITE_REG32(&core_if->dev_if->out_ep_regs[dwc_ep->num]->doeptsiz,
2752:../Dave/Generated/src/USBLD001/driver/dwc_otg_pcd_intr.c **** 			deptsiz.d32);
2753:../Dave/Generated/src/USBLD001/driver/dwc_otg_pcd_intr.c **** 
2754:../Dave/Generated/src/USBLD001/driver/dwc_otg_pcd_intr.c **** 	if (deptsiz.b.pktcnt > 0) {
2755:../Dave/Generated/src/USBLD001/driver/dwc_otg_pcd_intr.c **** 		if (dwc_ep->proc_buf_num) {
2756:../Dave/Generated/src/USBLD001/driver/dwc_otg_pcd_intr.c **** 			dma_addr =
2757:../Dave/Generated/src/USBLD001/driver/dwc_otg_pcd_intr.c **** 			    dwc_ep->dma_addr1 + dwc_ep->xfer_len -
2758:../Dave/Generated/src/USBLD001/driver/dwc_otg_pcd_intr.c **** 			    deptsiz.b.xfersize;
2759:../Dave/Generated/src/USBLD001/driver/dwc_otg_pcd_intr.c **** 		} else {
2760:../Dave/Generated/src/USBLD001/driver/dwc_otg_pcd_intr.c **** 			dma_addr =
2761:../Dave/Generated/src/USBLD001/driver/dwc_otg_pcd_intr.c **** 			    dwc_ep->dma_addr0 + dwc_ep->xfer_len -
2762:../Dave/Generated/src/USBLD001/driver/dwc_otg_pcd_intr.c **** 			    deptsiz.b.xfersize;;
2763:../Dave/Generated/src/USBLD001/driver/dwc_otg_pcd_intr.c **** 		}
2764:../Dave/Generated/src/USBLD001/driver/dwc_otg_pcd_intr.c **** 
2765:../Dave/Generated/src/USBLD001/driver/dwc_otg_pcd_intr.c **** 		DWC_WRITE_REG32(&core_if->dev_if->
2766:../Dave/Generated/src/USBLD001/driver/dwc_otg_pcd_intr.c **** 				out_ep_regs[dwc_ep->num]->doepdma, dma_addr);
2767:../Dave/Generated/src/USBLD001/driver/dwc_otg_pcd_intr.c **** 
2768:../Dave/Generated/src/USBLD001/driver/dwc_otg_pcd_intr.c **** 		/** Re-enable endpoint, clear nak  */
2769:../Dave/Generated/src/USBLD001/driver/dwc_otg_pcd_intr.c **** 		depctl.d32 = 0;
2770:../Dave/Generated/src/USBLD001/driver/dwc_otg_pcd_intr.c **** 		depctl.b.epena = 1;
2771:../Dave/Generated/src/USBLD001/driver/dwc_otg_pcd_intr.c **** 		depctl.b.cnak = 1;
2772:../Dave/Generated/src/USBLD001/driver/dwc_otg_pcd_intr.c **** 
2773:../Dave/Generated/src/USBLD001/driver/dwc_otg_pcd_intr.c **** 		DWC_MODIFY_REG32(&core_if->dev_if->
2774:../Dave/Generated/src/USBLD001/driver/dwc_otg_pcd_intr.c **** 				 out_ep_regs[dwc_ep->num]->doepctl, depctl.d32,
2775:../Dave/Generated/src/USBLD001/driver/dwc_otg_pcd_intr.c **** 				 depctl.d32);
2776:../Dave/Generated/src/USBLD001/driver/dwc_otg_pcd_intr.c **** 		return 0;
2777:../Dave/Generated/src/USBLD001/driver/dwc_otg_pcd_intr.c **** 	} else {
2778:../Dave/Generated/src/USBLD001/driver/dwc_otg_pcd_intr.c **** 		return 1;
2779:../Dave/Generated/src/USBLD001/driver/dwc_otg_pcd_intr.c **** 	}
2780:../Dave/Generated/src/USBLD001/driver/dwc_otg_pcd_intr.c **** }
2781:../Dave/Generated/src/USBLD001/driver/dwc_otg_pcd_intr.c **** 
2782:../Dave/Generated/src/USBLD001/driver/dwc_otg_pcd_intr.c **** /**
2783:../Dave/Generated/src/USBLD001/driver/dwc_otg_pcd_intr.c ****  * This function sets iso packets information(PTI mode)
2784:../Dave/Generated/src/USBLD001/driver/dwc_otg_pcd_intr.c ****  *
2785:../Dave/Generated/src/USBLD001/driver/dwc_otg_pcd_intr.c ****  * @param core_if Programming view of DWC_otg controller.
2786:../Dave/Generated/src/USBLD001/driver/dwc_otg_pcd_intr.c ****  * @param ep The EP to start the transfer on.
2787:../Dave/Generated/src/USBLD001/driver/dwc_otg_pcd_intr.c ****  *
2788:../Dave/Generated/src/USBLD001/driver/dwc_otg_pcd_intr.c ****  */
2789:../Dave/Generated/src/USBLD001/driver/dwc_otg_pcd_intr.c **** static uint32_t set_iso_pkts_info(dwc_otg_core_if_t * core_if, dwc_ep_t * ep)
2790:../Dave/Generated/src/USBLD001/driver/dwc_otg_pcd_intr.c **** {
2791:../Dave/Generated/src/USBLD001/driver/dwc_otg_pcd_intr.c **** 	int i, j;
2792:../Dave/Generated/src/USBLD001/driver/dwc_otg_pcd_intr.c **** 	dma_addr_t dma_ad;
2793:../Dave/Generated/src/USBLD001/driver/dwc_otg_pcd_intr.c **** 	iso_pkt_info_t *packet_info = ep->pkt_info;
2794:../Dave/Generated/src/USBLD001/driver/dwc_otg_pcd_intr.c **** 	uint32_t offset;
2795:../Dave/Generated/src/USBLD001/driver/dwc_otg_pcd_intr.c **** 	uint32_t frame_data;
2796:../Dave/Generated/src/USBLD001/driver/dwc_otg_pcd_intr.c **** 	deptsiz_data_t deptsiz;
2797:../Dave/Generated/src/USBLD001/driver/dwc_otg_pcd_intr.c **** 
2798:../Dave/Generated/src/USBLD001/driver/dwc_otg_pcd_intr.c **** 	if (ep->proc_buf_num == 0) {
2799:../Dave/Generated/src/USBLD001/driver/dwc_otg_pcd_intr.c **** 		/** Buffer 0 descriptors setup */
2800:../Dave/Generated/src/USBLD001/driver/dwc_otg_pcd_intr.c **** 		dma_ad = ep->dma_addr0;
2801:../Dave/Generated/src/USBLD001/driver/dwc_otg_pcd_intr.c **** 	} else {
2802:../Dave/Generated/src/USBLD001/driver/dwc_otg_pcd_intr.c **** 		/** Buffer 1 descriptors setup */
2803:../Dave/Generated/src/USBLD001/driver/dwc_otg_pcd_intr.c **** 		dma_ad = ep->dma_addr1;
2804:../Dave/Generated/src/USBLD001/driver/dwc_otg_pcd_intr.c **** 	}
2805:../Dave/Generated/src/USBLD001/driver/dwc_otg_pcd_intr.c **** 
2806:../Dave/Generated/src/USBLD001/driver/dwc_otg_pcd_intr.c **** 	if (ep->is_in) {
2807:../Dave/Generated/src/USBLD001/driver/dwc_otg_pcd_intr.c **** 		deptsiz.d32 =
2808:../Dave/Generated/src/USBLD001/driver/dwc_otg_pcd_intr.c **** 		    DWC_READ_REG32(&core_if->dev_if->
2809:../Dave/Generated/src/USBLD001/driver/dwc_otg_pcd_intr.c **** 				   in_ep_regs[ep->num]->dieptsiz);
2810:../Dave/Generated/src/USBLD001/driver/dwc_otg_pcd_intr.c **** 	} else {
2811:../Dave/Generated/src/USBLD001/driver/dwc_otg_pcd_intr.c **** 		deptsiz.d32 =
2812:../Dave/Generated/src/USBLD001/driver/dwc_otg_pcd_intr.c **** 		    DWC_READ_REG32(&core_if->dev_if->
2813:../Dave/Generated/src/USBLD001/driver/dwc_otg_pcd_intr.c **** 				   out_ep_regs[ep->num]->doeptsiz);
2814:../Dave/Generated/src/USBLD001/driver/dwc_otg_pcd_intr.c **** 	}
2815:../Dave/Generated/src/USBLD001/driver/dwc_otg_pcd_intr.c **** 
2816:../Dave/Generated/src/USBLD001/driver/dwc_otg_pcd_intr.c **** 	if (!deptsiz.b.xfersize) {
2817:../Dave/Generated/src/USBLD001/driver/dwc_otg_pcd_intr.c **** 		offset = 0;
2818:../Dave/Generated/src/USBLD001/driver/dwc_otg_pcd_intr.c **** 		for (i = 0; i < ep->pkt_cnt; i += ep->pkt_per_frm) {
2819:../Dave/Generated/src/USBLD001/driver/dwc_otg_pcd_intr.c **** 			frame_data = ep->data_per_frame;
2820:../Dave/Generated/src/USBLD001/driver/dwc_otg_pcd_intr.c **** 			for (j = 0; j < ep->pkt_per_frm; ++j) {
2821:../Dave/Generated/src/USBLD001/driver/dwc_otg_pcd_intr.c **** 
2822:../Dave/Generated/src/USBLD001/driver/dwc_otg_pcd_intr.c **** 				/* Packet status - is not set as initially
2823:../Dave/Generated/src/USBLD001/driver/dwc_otg_pcd_intr.c **** 				 * it is set to 0 and if packet was sent
2824:../Dave/Generated/src/USBLD001/driver/dwc_otg_pcd_intr.c **** 				 successfully, status field will remain 0*/
2825:../Dave/Generated/src/USBLD001/driver/dwc_otg_pcd_intr.c **** 
2826:../Dave/Generated/src/USBLD001/driver/dwc_otg_pcd_intr.c **** 				/* Bytes has been transfered */
2827:../Dave/Generated/src/USBLD001/driver/dwc_otg_pcd_intr.c **** 				packet_info->length =
2828:../Dave/Generated/src/USBLD001/driver/dwc_otg_pcd_intr.c **** 				    (ep->maxpacket <
2829:../Dave/Generated/src/USBLD001/driver/dwc_otg_pcd_intr.c **** 				     frame_data) ? ep->maxpacket : frame_data;
2830:../Dave/Generated/src/USBLD001/driver/dwc_otg_pcd_intr.c **** 
2831:../Dave/Generated/src/USBLD001/driver/dwc_otg_pcd_intr.c **** 				/* Received packet offset */
2832:../Dave/Generated/src/USBLD001/driver/dwc_otg_pcd_intr.c **** 				packet_info->offset = offset;
2833:../Dave/Generated/src/USBLD001/driver/dwc_otg_pcd_intr.c **** 				offset += packet_info->length;
2834:../Dave/Generated/src/USBLD001/driver/dwc_otg_pcd_intr.c **** 				frame_data -= packet_info->length;
2835:../Dave/Generated/src/USBLD001/driver/dwc_otg_pcd_intr.c **** 
2836:../Dave/Generated/src/USBLD001/driver/dwc_otg_pcd_intr.c **** 				packet_info++;
2837:../Dave/Generated/src/USBLD001/driver/dwc_otg_pcd_intr.c **** 			}
2838:../Dave/Generated/src/USBLD001/driver/dwc_otg_pcd_intr.c **** 		}
2839:../Dave/Generated/src/USBLD001/driver/dwc_otg_pcd_intr.c **** 		return 1;
2840:../Dave/Generated/src/USBLD001/driver/dwc_otg_pcd_intr.c **** 	} else {
2841:../Dave/Generated/src/USBLD001/driver/dwc_otg_pcd_intr.c **** 		/* This is a workaround for in case of Transfer Complete with
2842:../Dave/Generated/src/USBLD001/driver/dwc_otg_pcd_intr.c **** 		 * PktDrpSts interrupts merging - in this case Transfer complete
2843:../Dave/Generated/src/USBLD001/driver/dwc_otg_pcd_intr.c **** 		 * interrupt for Isoc Out Endpoint is asserted without PktDrpSts
2844:../Dave/Generated/src/USBLD001/driver/dwc_otg_pcd_intr.c **** 		 * set and with DOEPTSIZ register non zero. Investigations showed,
2845:../Dave/Generated/src/USBLD001/driver/dwc_otg_pcd_intr.c **** 		 * that this happens when Out packet is dropped, but because of
2846:../Dave/Generated/src/USBLD001/driver/dwc_otg_pcd_intr.c **** 		 * interrupts merging during first interrupt handling PktDrpSts
2847:../Dave/Generated/src/USBLD001/driver/dwc_otg_pcd_intr.c **** 		 * bit is cleared and for next merged interrupts it is not reset.
2848:../Dave/Generated/src/USBLD001/driver/dwc_otg_pcd_intr.c **** 		 * In this case SW hadles the interrupt as if PktDrpSts bit is set.
2849:../Dave/Generated/src/USBLD001/driver/dwc_otg_pcd_intr.c **** 		 */
2850:../Dave/Generated/src/USBLD001/driver/dwc_otg_pcd_intr.c **** 		if (ep->is_in) {
2851:../Dave/Generated/src/USBLD001/driver/dwc_otg_pcd_intr.c **** 			return 1;
2852:../Dave/Generated/src/USBLD001/driver/dwc_otg_pcd_intr.c **** 		} else {
2853:../Dave/Generated/src/USBLD001/driver/dwc_otg_pcd_intr.c **** 			return handle_iso_out_pkt_dropped(core_if, ep);
2854:../Dave/Generated/src/USBLD001/driver/dwc_otg_pcd_intr.c **** 		}
2855:../Dave/Generated/src/USBLD001/driver/dwc_otg_pcd_intr.c **** 	}
2856:../Dave/Generated/src/USBLD001/driver/dwc_otg_pcd_intr.c **** }
2857:../Dave/Generated/src/USBLD001/driver/dwc_otg_pcd_intr.c **** 
2858:../Dave/Generated/src/USBLD001/driver/dwc_otg_pcd_intr.c **** /**
2859:../Dave/Generated/src/USBLD001/driver/dwc_otg_pcd_intr.c ****  * This function is to handle Iso EP transfer complete interrupt
2860:../Dave/Generated/src/USBLD001/driver/dwc_otg_pcd_intr.c ****  *
2861:../Dave/Generated/src/USBLD001/driver/dwc_otg_pcd_intr.c ****  * @param pcd The PCD
2862:../Dave/Generated/src/USBLD001/driver/dwc_otg_pcd_intr.c ****  * @param ep The EP for which transfer complete was asserted
2863:../Dave/Generated/src/USBLD001/driver/dwc_otg_pcd_intr.c ****  *
2864:../Dave/Generated/src/USBLD001/driver/dwc_otg_pcd_intr.c ****  */
2865:../Dave/Generated/src/USBLD001/driver/dwc_otg_pcd_intr.c **** static void complete_iso_ep(dwc_otg_pcd_t * pcd, dwc_otg_pcd_ep_t * ep)
2866:../Dave/Generated/src/USBLD001/driver/dwc_otg_pcd_intr.c **** {
2867:../Dave/Generated/src/USBLD001/driver/dwc_otg_pcd_intr.c **** 	dwc_otg_core_if_t *core_if = GET_CORE_IF(ep->pcd);
2868:../Dave/Generated/src/USBLD001/driver/dwc_otg_pcd_intr.c **** 	dwc_ep_t *dwc_ep = &ep->dwc_ep;
2869:../Dave/Generated/src/USBLD001/driver/dwc_otg_pcd_intr.c **** 	uint8_t is_last = 0;
2870:../Dave/Generated/src/USBLD001/driver/dwc_otg_pcd_intr.c **** 
2871:../Dave/Generated/src/USBLD001/driver/dwc_otg_pcd_intr.c **** 	if (ep->dwc_ep.next_frame == 0xffffffff) {
2872:../Dave/Generated/src/USBLD001/driver/dwc_otg_pcd_intr.c **** 		DWC_WARN("Next frame is not set!\n");
2873:../Dave/Generated/src/USBLD001/driver/dwc_otg_pcd_intr.c **** 		return;
2874:../Dave/Generated/src/USBLD001/driver/dwc_otg_pcd_intr.c **** 	}
2875:../Dave/Generated/src/USBLD001/driver/dwc_otg_pcd_intr.c **** 
2876:../Dave/Generated/src/USBLD001/driver/dwc_otg_pcd_intr.c **** 	if (core_if->dma_enable) {
2877:../Dave/Generated/src/USBLD001/driver/dwc_otg_pcd_intr.c **** 		if (core_if->dma_desc_enable) {
2878:../Dave/Generated/src/USBLD001/driver/dwc_otg_pcd_intr.c **** 			set_ddma_iso_pkts_info(core_if, dwc_ep);
2879:../Dave/Generated/src/USBLD001/driver/dwc_otg_pcd_intr.c **** 			reinit_ddma_iso_xfer(core_if, dwc_ep);
2880:../Dave/Generated/src/USBLD001/driver/dwc_otg_pcd_intr.c **** 			is_last = 1;
2881:../Dave/Generated/src/USBLD001/driver/dwc_otg_pcd_intr.c **** 		} else {
2882:../Dave/Generated/src/USBLD001/driver/dwc_otg_pcd_intr.c **** 			if (core_if->pti_enh_enable) {
2883:../Dave/Generated/src/USBLD001/driver/dwc_otg_pcd_intr.c **** 				if (set_iso_pkts_info(core_if, dwc_ep)) {
2884:../Dave/Generated/src/USBLD001/driver/dwc_otg_pcd_intr.c **** 					dwc_ep->proc_buf_num =
2885:../Dave/Generated/src/USBLD001/driver/dwc_otg_pcd_intr.c **** 					    (dwc_ep->proc_buf_num ^ 1) & 0x1;
2886:../Dave/Generated/src/USBLD001/driver/dwc_otg_pcd_intr.c **** 					dwc_otg_iso_ep_start_buf_transfer
2887:../Dave/Generated/src/USBLD001/driver/dwc_otg_pcd_intr.c **** 					    (core_if, dwc_ep);
2888:../Dave/Generated/src/USBLD001/driver/dwc_otg_pcd_intr.c **** 					is_last = 1;
2889:../Dave/Generated/src/USBLD001/driver/dwc_otg_pcd_intr.c **** 				}
2890:../Dave/Generated/src/USBLD001/driver/dwc_otg_pcd_intr.c **** 			} else {
2891:../Dave/Generated/src/USBLD001/driver/dwc_otg_pcd_intr.c **** 				set_current_pkt_info(core_if, dwc_ep);
2892:../Dave/Generated/src/USBLD001/driver/dwc_otg_pcd_intr.c **** 				if (dwc_ep->cur_pkt >= dwc_ep->pkt_cnt) {
2893:../Dave/Generated/src/USBLD001/driver/dwc_otg_pcd_intr.c **** 					is_last = 1;
2894:../Dave/Generated/src/USBLD001/driver/dwc_otg_pcd_intr.c **** 					dwc_ep->cur_pkt = 0;
2895:../Dave/Generated/src/USBLD001/driver/dwc_otg_pcd_intr.c **** 					dwc_ep->proc_buf_num =
2896:../Dave/Generated/src/USBLD001/driver/dwc_otg_pcd_intr.c **** 					    (dwc_ep->proc_buf_num ^ 1) & 0x1;
2897:../Dave/Generated/src/USBLD001/driver/dwc_otg_pcd_intr.c **** 					if (dwc_ep->proc_buf_num) {
2898:../Dave/Generated/src/USBLD001/driver/dwc_otg_pcd_intr.c **** 						dwc_ep->cur_pkt_addr =
2899:../Dave/Generated/src/USBLD001/driver/dwc_otg_pcd_intr.c **** 						    dwc_ep->xfer_buff1;
2900:../Dave/Generated/src/USBLD001/driver/dwc_otg_pcd_intr.c **** 						dwc_ep->cur_pkt_dma_addr =
2901:../Dave/Generated/src/USBLD001/driver/dwc_otg_pcd_intr.c **** 						    dwc_ep->dma_addr1;
2902:../Dave/Generated/src/USBLD001/driver/dwc_otg_pcd_intr.c **** 					} else {
2903:../Dave/Generated/src/USBLD001/driver/dwc_otg_pcd_intr.c **** 						dwc_ep->cur_pkt_addr =
2904:../Dave/Generated/src/USBLD001/driver/dwc_otg_pcd_intr.c **** 						    dwc_ep->xfer_buff0;
2905:../Dave/Generated/src/USBLD001/driver/dwc_otg_pcd_intr.c **** 						dwc_ep->cur_pkt_dma_addr =
2906:../Dave/Generated/src/USBLD001/driver/dwc_otg_pcd_intr.c **** 						    dwc_ep->dma_addr0;
2907:../Dave/Generated/src/USBLD001/driver/dwc_otg_pcd_intr.c **** 					}
2908:../Dave/Generated/src/USBLD001/driver/dwc_otg_pcd_intr.c **** 
2909:../Dave/Generated/src/USBLD001/driver/dwc_otg_pcd_intr.c **** 				}
2910:../Dave/Generated/src/USBLD001/driver/dwc_otg_pcd_intr.c **** 				dwc_otg_iso_ep_start_frm_transfer(core_if,
2911:../Dave/Generated/src/USBLD001/driver/dwc_otg_pcd_intr.c **** 								  dwc_ep);
2912:../Dave/Generated/src/USBLD001/driver/dwc_otg_pcd_intr.c **** 			}
2913:../Dave/Generated/src/USBLD001/driver/dwc_otg_pcd_intr.c **** 		}
2914:../Dave/Generated/src/USBLD001/driver/dwc_otg_pcd_intr.c **** 	} else {
2915:../Dave/Generated/src/USBLD001/driver/dwc_otg_pcd_intr.c **** 		set_current_pkt_info(core_if, dwc_ep);
2916:../Dave/Generated/src/USBLD001/driver/dwc_otg_pcd_intr.c **** 		if (dwc_ep->cur_pkt >= dwc_ep->pkt_cnt) {
2917:../Dave/Generated/src/USBLD001/driver/dwc_otg_pcd_intr.c **** 			is_last = 1;
2918:../Dave/Generated/src/USBLD001/driver/dwc_otg_pcd_intr.c **** 			dwc_ep->cur_pkt = 0;
2919:../Dave/Generated/src/USBLD001/driver/dwc_otg_pcd_intr.c **** 			dwc_ep->proc_buf_num = (dwc_ep->proc_buf_num ^ 1) & 0x1;
2920:../Dave/Generated/src/USBLD001/driver/dwc_otg_pcd_intr.c **** 			if (dwc_ep->proc_buf_num) {
2921:../Dave/Generated/src/USBLD001/driver/dwc_otg_pcd_intr.c **** 				dwc_ep->cur_pkt_addr = dwc_ep->xfer_buff1;
2922:../Dave/Generated/src/USBLD001/driver/dwc_otg_pcd_intr.c **** 				dwc_ep->cur_pkt_dma_addr = dwc_ep->dma_addr1;
2923:../Dave/Generated/src/USBLD001/driver/dwc_otg_pcd_intr.c **** 			} else {
2924:../Dave/Generated/src/USBLD001/driver/dwc_otg_pcd_intr.c **** 				dwc_ep->cur_pkt_addr = dwc_ep->xfer_buff0;
2925:../Dave/Generated/src/USBLD001/driver/dwc_otg_pcd_intr.c **** 				dwc_ep->cur_pkt_dma_addr = dwc_ep->dma_addr0;
2926:../Dave/Generated/src/USBLD001/driver/dwc_otg_pcd_intr.c **** 			}
2927:../Dave/Generated/src/USBLD001/driver/dwc_otg_pcd_intr.c **** 
2928:../Dave/Generated/src/USBLD001/driver/dwc_otg_pcd_intr.c **** 		}
2929:../Dave/Generated/src/USBLD001/driver/dwc_otg_pcd_intr.c **** 		dwc_otg_iso_ep_start_frm_transfer(core_if, dwc_ep);
2930:../Dave/Generated/src/USBLD001/driver/dwc_otg_pcd_intr.c **** 	}
2931:../Dave/Generated/src/USBLD001/driver/dwc_otg_pcd_intr.c **** 	if (is_last)
2932:../Dave/Generated/src/USBLD001/driver/dwc_otg_pcd_intr.c **** 		dwc_otg_iso_buffer_done(pcd, ep, ep->iso_req_handle);
2933:../Dave/Generated/src/USBLD001/driver/dwc_otg_pcd_intr.c **** }
2934:../Dave/Generated/src/USBLD001/driver/dwc_otg_pcd_intr.c **** #endif /* DWC_EN_ISOC */
2935:../Dave/Generated/src/USBLD001/driver/dwc_otg_pcd_intr.c **** 
2936:../Dave/Generated/src/USBLD001/driver/dwc_otg_pcd_intr.c **** /**
2937:../Dave/Generated/src/USBLD001/driver/dwc_otg_pcd_intr.c ****  * This function handle BNA interrupt for Non Isochronous EPs
2938:../Dave/Generated/src/USBLD001/driver/dwc_otg_pcd_intr.c ****  *
2939:../Dave/Generated/src/USBLD001/driver/dwc_otg_pcd_intr.c ****  */
2940:../Dave/Generated/src/USBLD001/driver/dwc_otg_pcd_intr.c **** static void dwc_otg_pcd_handle_noniso_bna(dwc_otg_pcd_ep_t * ep)
2941:../Dave/Generated/src/USBLD001/driver/dwc_otg_pcd_intr.c **** {
 5559              		.loc 2 2941 0
 5560              		.cfi_startproc
 5561              		@ args = 0, pretend = 0, frame = 40
 5562              		@ frame_needed = 1, uses_anonymous_args = 0
 5563 0000 80B5     		push	{r7, lr}
 5564              	.LCFI117:
 5565              		.cfi_def_cfa_offset 8
 5566              		.cfi_offset 7, -8
 5567              		.cfi_offset 14, -4
 5568 0002 8AB0     		sub	sp, sp, #40
 5569              	.LCFI118:
 5570              		.cfi_def_cfa_offset 48
 5571 0004 00AF     		add	r7, sp, #0
 5572              	.LCFI119:
 5573              		.cfi_def_cfa_register 7
 5574 0006 7860     		str	r0, [r7, #4]
2942:../Dave/Generated/src/USBLD001/driver/dwc_otg_pcd_intr.c **** 	dwc_ep_t *dwc_ep = &ep->dwc_ep;
 5575              		.loc 2 2942 0
 5576 0008 7B68     		ldr	r3, [r7, #4]
 5577 000a 03F11003 		add	r3, r3, #16
 5578 000e BB61     		str	r3, [r7, #24]
2943:../Dave/Generated/src/USBLD001/driver/dwc_otg_pcd_intr.c **** 	volatile uint32_t *addr;
2944:../Dave/Generated/src/USBLD001/driver/dwc_otg_pcd_intr.c **** 	depctl_data_t depctl = {.d32 = 0 };
 5579              		.loc 2 2944 0
 5580 0010 4FF00003 		mov	r3, #0
 5581 0014 3B61     		str	r3, [r7, #16]
2945:../Dave/Generated/src/USBLD001/driver/dwc_otg_pcd_intr.c **** 	dwc_otg_pcd_t *pcd = ep->pcd;
 5582              		.loc 2 2945 0
 5583 0016 7B68     		ldr	r3, [r7, #4]
 5584 0018 DB6B     		ldr	r3, [r3, #60]
 5585 001a 7B61     		str	r3, [r7, #20]
2946:../Dave/Generated/src/USBLD001/driver/dwc_otg_pcd_intr.c **** 	dwc_otg_dev_dma_desc_t *dma_desc;
2947:../Dave/Generated/src/USBLD001/driver/dwc_otg_pcd_intr.c **** 	dev_dma_desc_sts_t sts = {.d32 = 0 };
 5586              		.loc 2 2947 0
 5587 001c 4FF00003 		mov	r3, #0
 5588 0020 FB60     		str	r3, [r7, #12]
2948:../Dave/Generated/src/USBLD001/driver/dwc_otg_pcd_intr.c **** 	int i;
2949:../Dave/Generated/src/USBLD001/driver/dwc_otg_pcd_intr.c **** 
2950:../Dave/Generated/src/USBLD001/driver/dwc_otg_pcd_intr.c **** 	if (!dwc_ep->desc_cnt)
2951:../Dave/Generated/src/USBLD001/driver/dwc_otg_pcd_intr.c **** 		DWC_WARN("Descriptor count = %d\n", dwc_ep->desc_cnt);
2952:../Dave/Generated/src/USBLD001/driver/dwc_otg_pcd_intr.c **** 
2953:../Dave/Generated/src/USBLD001/driver/dwc_otg_pcd_intr.c **** 	dma_desc = dwc_ep->desc_addr;
 5589              		.loc 2 2953 0
 5590 0022 BB69     		ldr	r3, [r7, #24]
 5591 0024 1B69     		ldr	r3, [r3, #16]
 5592 0026 3B62     		str	r3, [r7, #32]
2954:../Dave/Generated/src/USBLD001/driver/dwc_otg_pcd_intr.c **** 
2955:../Dave/Generated/src/USBLD001/driver/dwc_otg_pcd_intr.c **** 	for (i = 0; i < dwc_ep->desc_cnt; ++i, ++dma_desc) {
 5593              		.loc 2 2955 0
 5594 0028 4FF00003 		mov	r3, #0
 5595 002c FB61     		str	r3, [r7, #28]
 5596 002e 11E0     		b	.L266
 5597              	.L267:
2956:../Dave/Generated/src/USBLD001/driver/dwc_otg_pcd_intr.c **** 		sts.d32 = dma_desc->status.d32;
 5598              		.loc 2 2956 0 discriminator 2
 5599 0030 3B6A     		ldr	r3, [r7, #32]
 5600 0032 1B68     		ldr	r3, [r3, #0]
 5601 0034 FB60     		str	r3, [r7, #12]
2957:../Dave/Generated/src/USBLD001/driver/dwc_otg_pcd_intr.c **** 		sts.b.bs = BS_HOST_READY;
 5602              		.loc 2 2957 0 discriminator 2
 5603 0036 FB68     		ldr	r3, [r7, #12]
 5604 0038 6FF39F73 		bfc	r3, #30, #2
 5605 003c FB60     		str	r3, [r7, #12]
2958:../Dave/Generated/src/USBLD001/driver/dwc_otg_pcd_intr.c **** 		dma_desc->status.d32 = sts.d32;
 5606              		.loc 2 2958 0 discriminator 2
 5607 003e FA68     		ldr	r2, [r7, #12]
 5608 0040 3B6A     		ldr	r3, [r7, #32]
 5609 0042 1A60     		str	r2, [r3, #0]
2955:../Dave/Generated/src/USBLD001/driver/dwc_otg_pcd_intr.c **** 	for (i = 0; i < dwc_ep->desc_cnt; ++i, ++dma_desc) {
 5610              		.loc 2 2955 0 discriminator 2
 5611 0044 FB69     		ldr	r3, [r7, #28]
 5612 0046 03F10103 		add	r3, r3, #1
 5613 004a FB61     		str	r3, [r7, #28]
 5614 004c 3B6A     		ldr	r3, [r7, #32]
 5615 004e 03F10803 		add	r3, r3, #8
 5616 0052 3B62     		str	r3, [r7, #32]
 5617              	.L266:
2955:../Dave/Generated/src/USBLD001/driver/dwc_otg_pcd_intr.c **** 	for (i = 0; i < dwc_ep->desc_cnt; ++i, ++dma_desc) {
 5618              		.loc 2 2955 0 is_stmt 0 discriminator 1
 5619 0054 FA69     		ldr	r2, [r7, #28]
 5620 0056 BB69     		ldr	r3, [r7, #24]
 5621 0058 9B6A     		ldr	r3, [r3, #40]
 5622 005a 9A42     		cmp	r2, r3
 5623 005c E8D3     		bcc	.L267
2959:../Dave/Generated/src/USBLD001/driver/dwc_otg_pcd_intr.c **** 	}
2960:../Dave/Generated/src/USBLD001/driver/dwc_otg_pcd_intr.c **** 
2961:../Dave/Generated/src/USBLD001/driver/dwc_otg_pcd_intr.c **** 	if (dwc_ep->is_in == 0) {
 5624              		.loc 2 2961 0 is_stmt 1
 5625 005e BB69     		ldr	r3, [r7, #24]
 5626 0060 5B78     		ldrb	r3, [r3, #1]	@ zero_extendqisi2
 5627 0062 03F00103 		and	r3, r3, #1
 5628 0066 DBB2     		uxtb	r3, r3
 5629 0068 002B     		cmp	r3, #0
 5630 006a 0CD1     		bne	.L268
2962:../Dave/Generated/src/USBLD001/driver/dwc_otg_pcd_intr.c **** 		addr =
2963:../Dave/Generated/src/USBLD001/driver/dwc_otg_pcd_intr.c **** 		    &GET_CORE_IF(pcd)->dev_if->out_ep_regs[dwc_ep->
 5631              		.loc 2 2963 0
 5632 006c 7B69     		ldr	r3, [r7, #20]
 5633 006e 9B68     		ldr	r3, [r3, #8]
 5634 0070 9A68     		ldr	r2, [r3, #8]
 5635 0072 BB69     		ldr	r3, [r7, #24]
 5636 0074 1B78     		ldrb	r3, [r3, #0]	@ zero_extendqisi2
 5637 0076 03F10803 		add	r3, r3, #8
 5638 007a 4FEA8303 		lsl	r3, r3, #2
 5639 007e D318     		adds	r3, r2, r3
 5640 0080 5B68     		ldr	r3, [r3, #4]
2962:../Dave/Generated/src/USBLD001/driver/dwc_otg_pcd_intr.c **** 		addr =
 5641              		.loc 2 2962 0
 5642 0082 7B62     		str	r3, [r7, #36]
 5643 0084 09E0     		b	.L269
 5644              	.L268:
2964:../Dave/Generated/src/USBLD001/driver/dwc_otg_pcd_intr.c **** 							   num]->doepctl;
2965:../Dave/Generated/src/USBLD001/driver/dwc_otg_pcd_intr.c **** 	} else {
2966:../Dave/Generated/src/USBLD001/driver/dwc_otg_pcd_intr.c **** 		addr =
2967:../Dave/Generated/src/USBLD001/driver/dwc_otg_pcd_intr.c **** 		    &GET_CORE_IF(pcd)->dev_if->in_ep_regs[dwc_ep->num]->diepctl;
 5645              		.loc 2 2967 0
 5646 0086 7B69     		ldr	r3, [r7, #20]
 5647 0088 9B68     		ldr	r3, [r3, #8]
 5648 008a 9A68     		ldr	r2, [r3, #8]
 5649 008c BB69     		ldr	r3, [r7, #24]
 5650 008e 1B78     		ldrb	r3, [r3, #0]	@ zero_extendqisi2
 5651 0090 4FEA8303 		lsl	r3, r3, #2
 5652 0094 D318     		adds	r3, r2, r3
 5653 0096 5B68     		ldr	r3, [r3, #4]
2966:../Dave/Generated/src/USBLD001/driver/dwc_otg_pcd_intr.c **** 		addr =
 5654              		.loc 2 2966 0
 5655 0098 7B62     		str	r3, [r7, #36]
 5656              	.L269:
2968:../Dave/Generated/src/USBLD001/driver/dwc_otg_pcd_intr.c **** 	}
2969:../Dave/Generated/src/USBLD001/driver/dwc_otg_pcd_intr.c **** 	depctl.b.epena = 1;
 5657              		.loc 2 2969 0
 5658 009a 3B69     		ldr	r3, [r7, #16]
 5659 009c 43F00043 		orr	r3, r3, #-2147483648
 5660 00a0 3B61     		str	r3, [r7, #16]
2970:../Dave/Generated/src/USBLD001/driver/dwc_otg_pcd_intr.c **** 	DWC_MODIFY_REG32(addr, 0, depctl.d32);
 5661              		.loc 2 2970 0
 5662 00a2 3B69     		ldr	r3, [r7, #16]
 5663 00a4 786A     		ldr	r0, [r7, #36]
 5664 00a6 4FF00001 		mov	r1, #0
 5665 00aa 1A46     		mov	r2, r3
 5666 00ac FFF7FEFF 		bl	DWC_MODIFY_REG32
2971:../Dave/Generated/src/USBLD001/driver/dwc_otg_pcd_intr.c **** }
 5667              		.loc 2 2971 0
 5668 00b0 07F12807 		add	r7, r7, #40
 5669 00b4 BD46     		mov	sp, r7
 5670 00b6 80BD     		pop	{r7, pc}
 5671              		.cfi_endproc
 5672              	.LFE54:
 5674              		.section	.text.handle_ep0,"ax",%progbits
 5675              		.align	2
 5676              		.thumb
 5677              		.thumb_func
 5679              	handle_ep0:
 5680              	.LFB55:
2972:../Dave/Generated/src/USBLD001/driver/dwc_otg_pcd_intr.c **** 
2973:../Dave/Generated/src/USBLD001/driver/dwc_otg_pcd_intr.c **** /**
2974:../Dave/Generated/src/USBLD001/driver/dwc_otg_pcd_intr.c ****  * This function handles EP0 Control transfers.
2975:../Dave/Generated/src/USBLD001/driver/dwc_otg_pcd_intr.c ****  *
2976:../Dave/Generated/src/USBLD001/driver/dwc_otg_pcd_intr.c ****  * The state of the control tranfers are tracked in
2977:../Dave/Generated/src/USBLD001/driver/dwc_otg_pcd_intr.c ****  * <code>ep0state</code>.
2978:../Dave/Generated/src/USBLD001/driver/dwc_otg_pcd_intr.c ****  */
2979:../Dave/Generated/src/USBLD001/driver/dwc_otg_pcd_intr.c **** static void handle_ep0(dwc_otg_pcd_t * pcd)
2980:../Dave/Generated/src/USBLD001/driver/dwc_otg_pcd_intr.c **** {
 5681              		.loc 2 2980 0
 5682              		.cfi_startproc
 5683              		@ args = 0, pretend = 0, frame = 32
 5684              		@ frame_needed = 1, uses_anonymous_args = 0
 5685 0000 80B5     		push	{r7, lr}
 5686              	.LCFI120:
 5687              		.cfi_def_cfa_offset 8
 5688              		.cfi_offset 7, -8
 5689              		.cfi_offset 14, -4
 5690 0002 88B0     		sub	sp, sp, #32
 5691              	.LCFI121:
 5692              		.cfi_def_cfa_offset 40
 5693 0004 00AF     		add	r7, sp, #0
 5694              	.LCFI122:
 5695              		.cfi_def_cfa_register 7
 5696 0006 7860     		str	r0, [r7, #4]
2981:../Dave/Generated/src/USBLD001/driver/dwc_otg_pcd_intr.c **** 	dwc_otg_core_if_t *core_if = GET_CORE_IF(pcd);
 5697              		.loc 2 2981 0
 5698 0008 7B68     		ldr	r3, [r7, #4]
 5699 000a 9B68     		ldr	r3, [r3, #8]
 5700 000c BB61     		str	r3, [r7, #24]
2982:../Dave/Generated/src/USBLD001/driver/dwc_otg_pcd_intr.c **** 	dwc_otg_pcd_ep_t *ep0 = &pcd->ep0;
 5701              		.loc 2 2982 0
 5702 000e 7B68     		ldr	r3, [r7, #4]
 5703 0010 03F12403 		add	r3, r3, #36
 5704 0014 7B61     		str	r3, [r7, #20]
2983:../Dave/Generated/src/USBLD001/driver/dwc_otg_pcd_intr.c **** 	dev_dma_desc_sts_t desc_sts;
2984:../Dave/Generated/src/USBLD001/driver/dwc_otg_pcd_intr.c **** 	deptsiz0_data_t deptsiz;
2985:../Dave/Generated/src/USBLD001/driver/dwc_otg_pcd_intr.c **** 	uint32_t byte_count;
2986:../Dave/Generated/src/USBLD001/driver/dwc_otg_pcd_intr.c **** 
2987:../Dave/Generated/src/USBLD001/driver/dwc_otg_pcd_intr.c **** #ifdef DEBUG_EP0
2988:../Dave/Generated/src/USBLD001/driver/dwc_otg_pcd_intr.c **** 	DWC_DEBUGPL(DBG_PCDV, "%s()\n", __func__);
2989:../Dave/Generated/src/USBLD001/driver/dwc_otg_pcd_intr.c **** 	print_ep0_state(pcd);
 5705              		.loc 2 2989 0
 5706 0016 7868     		ldr	r0, [r7, #4]
 5707 0018 FFF7FEFF 		bl	print_ep0_state
2990:../Dave/Generated/src/USBLD001/driver/dwc_otg_pcd_intr.c **** #endif
2991:../Dave/Generated/src/USBLD001/driver/dwc_otg_pcd_intr.c **** 
2992:../Dave/Generated/src/USBLD001/driver/dwc_otg_pcd_intr.c **** //      DWC_PRINTF("HANDLE EP0\n");
2993:../Dave/Generated/src/USBLD001/driver/dwc_otg_pcd_intr.c **** 
2994:../Dave/Generated/src/USBLD001/driver/dwc_otg_pcd_intr.c **** 	switch (pcd->ep0state) {
 5708              		.loc 2 2994 0
 5709 001c 7B68     		ldr	r3, [r7, #4]
 5710 001e 1B7B     		ldrb	r3, [r3, #12]	@ zero_extendqisi2
 5711 0020 062B     		cmp	r3, #6
 5712 0022 00F22F81 		bhi	.L271
 5713 0026 01A2     		adr	r2, .L278
 5714 0028 52F823F0 		ldr	pc, [r2, r3, lsl #2]
 5715              		.align	2
 5716              	.L278:
 5717 002c 85020000 		.word	.L271+1
 5718 0030 49000000 		.word	.L273+1
 5719 0034 5B000000 		.word	.L274+1
 5720 0038 53010000 		.word	.L275+1
 5721 003c 4F020000 		.word	.L276+1
 5722 0040 4F020000 		.word	.L276+1
 5723 0044 85020000 		.word	.L271+1
 5724              	.L273:
2995:../Dave/Generated/src/USBLD001/driver/dwc_otg_pcd_intr.c **** 	case EP0_DISCONNECT:
2996:../Dave/Generated/src/USBLD001/driver/dwc_otg_pcd_intr.c **** 		break;
2997:../Dave/Generated/src/USBLD001/driver/dwc_otg_pcd_intr.c **** 
2998:../Dave/Generated/src/USBLD001/driver/dwc_otg_pcd_intr.c **** 	case EP0_IDLE:
2999:../Dave/Generated/src/USBLD001/driver/dwc_otg_pcd_intr.c **** 		pcd->request_config = 0;
 5725              		.loc 2 2999 0
 5726 0048 7A68     		ldr	r2, [r7, #4]
 5727 004a 537B     		ldrb	r3, [r2, #13]
 5728 004c 6FF34103 		bfc	r3, #1, #1
 5729 0050 5373     		strb	r3, [r2, #13]
3000:../Dave/Generated/src/USBLD001/driver/dwc_otg_pcd_intr.c **** 
3001:../Dave/Generated/src/USBLD001/driver/dwc_otg_pcd_intr.c **** 		pcd_setup(pcd);
 5730              		.loc 2 3001 0
 5731 0052 7868     		ldr	r0, [r7, #4]
 5732 0054 FFF7FEFF 		bl	pcd_setup
3002:../Dave/Generated/src/USBLD001/driver/dwc_otg_pcd_intr.c **** 		break;
 5733              		.loc 2 3002 0
 5734 0058 14E1     		b	.L271
 5735              	.L274:
3003:../Dave/Generated/src/USBLD001/driver/dwc_otg_pcd_intr.c **** 
3004:../Dave/Generated/src/USBLD001/driver/dwc_otg_pcd_intr.c **** 	case EP0_IN_DATA_PHASE:
3005:../Dave/Generated/src/USBLD001/driver/dwc_otg_pcd_intr.c **** #ifdef DEBUG_EP0
3006:../Dave/Generated/src/USBLD001/driver/dwc_otg_pcd_intr.c **** 		DWC_DEBUGPL(DBG_PCD, "DATA_IN EP%d-%s: type=%d, mps=%d\n",
3007:../Dave/Generated/src/USBLD001/driver/dwc_otg_pcd_intr.c **** 			    ep0->dwc_ep.num, (ep0->dwc_ep.is_in ? "IN" : "OUT"),
3008:../Dave/Generated/src/USBLD001/driver/dwc_otg_pcd_intr.c **** 			    ep0->dwc_ep.type, ep0->dwc_ep.maxpacket);
3009:../Dave/Generated/src/USBLD001/driver/dwc_otg_pcd_intr.c **** #endif
3010:../Dave/Generated/src/USBLD001/driver/dwc_otg_pcd_intr.c **** 
3011:../Dave/Generated/src/USBLD001/driver/dwc_otg_pcd_intr.c **** 		if (core_if->dma_enable != 0) {
 5736              		.loc 2 3011 0
 5737 005a BB69     		ldr	r3, [r7, #24]
 5738 005c 93F84630 		ldrb	r3, [r3, #70]	@ zero_extendqisi2
 5739 0060 002B     		cmp	r3, #0
 5740 0062 44D0     		beq	.L279
3012:../Dave/Generated/src/USBLD001/driver/dwc_otg_pcd_intr.c **** 			/*
3013:../Dave/Generated/src/USBLD001/driver/dwc_otg_pcd_intr.c **** 			 * For EP0 we can only program 1 packet at a time so we
3014:../Dave/Generated/src/USBLD001/driver/dwc_otg_pcd_intr.c **** 			 * need to do the make calculations after each complete.
3015:../Dave/Generated/src/USBLD001/driver/dwc_otg_pcd_intr.c **** 			 * Call write_packet to make the calculations, as in
3016:../Dave/Generated/src/USBLD001/driver/dwc_otg_pcd_intr.c **** 			 * slave mode, and use those values to determine if we
3017:../Dave/Generated/src/USBLD001/driver/dwc_otg_pcd_intr.c **** 			 * can complete.
3018:../Dave/Generated/src/USBLD001/driver/dwc_otg_pcd_intr.c **** 			 */
3019:../Dave/Generated/src/USBLD001/driver/dwc_otg_pcd_intr.c **** 			if (core_if->dma_desc_enable == 0) {
 5741              		.loc 2 3019 0
 5742 0064 BB69     		ldr	r3, [r7, #24]
 5743 0066 93F84730 		ldrb	r3, [r3, #71]	@ zero_extendqisi2
 5744 006a 002B     		cmp	r3, #0
 5745 006c 15D1     		bne	.L280
3020:../Dave/Generated/src/USBLD001/driver/dwc_otg_pcd_intr.c **** 				deptsiz.d32 =
3021:../Dave/Generated/src/USBLD001/driver/dwc_otg_pcd_intr.c **** 				    DWC_READ_REG32(&core_if->
 5746              		.loc 2 3021 0
 5747 006e BB69     		ldr	r3, [r7, #24]
 5748 0070 9B68     		ldr	r3, [r3, #8]
3022:../Dave/Generated/src/USBLD001/driver/dwc_otg_pcd_intr.c **** 						   dev_if->in_ep_regs[0]->
 5749              		.loc 2 3022 0
 5750 0072 5B68     		ldr	r3, [r3, #4]
3021:../Dave/Generated/src/USBLD001/driver/dwc_otg_pcd_intr.c **** 				    DWC_READ_REG32(&core_if->
 5751              		.loc 2 3021 0
 5752 0074 03F11003 		add	r3, r3, #16
 5753 0078 1846     		mov	r0, r3
 5754 007a FFF7FEFF 		bl	DWC_READ_REG32
 5755 007e 0346     		mov	r3, r0
3020:../Dave/Generated/src/USBLD001/driver/dwc_otg_pcd_intr.c **** 				deptsiz.d32 =
 5756              		.loc 2 3020 0
 5757 0080 BB60     		str	r3, [r7, #8]
3023:../Dave/Generated/src/USBLD001/driver/dwc_otg_pcd_intr.c **** 						   dieptsiz);
3024:../Dave/Generated/src/USBLD001/driver/dwc_otg_pcd_intr.c **** 				byte_count =
3025:../Dave/Generated/src/USBLD001/driver/dwc_otg_pcd_intr.c **** 				    ep0->dwc_ep.xfer_len - deptsiz.b.xfersize;
 5758              		.loc 2 3025 0
 5759 0082 7B69     		ldr	r3, [r7, #20]
 5760 0084 DB6A     		ldr	r3, [r3, #44]
 5761 0086 C3F31203 		ubfx	r3, r3, #0, #19
 5762 008a 1A46     		mov	r2, r3
 5763 008c 3B7A     		ldrb	r3, [r7, #8]
 5764 008e C3F30603 		ubfx	r3, r3, #0, #7
 5765 0092 DBB2     		uxtb	r3, r3
 5766 0094 D31A     		subs	r3, r2, r3
3024:../Dave/Generated/src/USBLD001/driver/dwc_otg_pcd_intr.c **** 				byte_count =
 5767              		.loc 2 3024 0
 5768 0096 FB61     		str	r3, [r7, #28]
 5769 0098 0DE0     		b	.L281
 5770              	.L280:
3026:../Dave/Generated/src/USBLD001/driver/dwc_otg_pcd_intr.c **** 			} else {
3027:../Dave/Generated/src/USBLD001/driver/dwc_otg_pcd_intr.c **** 				desc_sts =
3028:../Dave/Generated/src/USBLD001/driver/dwc_otg_pcd_intr.c **** 				    core_if->dev_if->in_desc_addr->status;
 5771              		.loc 2 3028 0
 5772 009a BB69     		ldr	r3, [r7, #24]
 5773 009c 9B68     		ldr	r3, [r3, #8]
 5774 009e D3F8AC30 		ldr	r3, [r3, #172]
3027:../Dave/Generated/src/USBLD001/driver/dwc_otg_pcd_intr.c **** 				desc_sts =
 5775              		.loc 2 3027 0
 5776 00a2 1B68     		ldr	r3, [r3, #0]
 5777 00a4 3B61     		str	r3, [r7, #16]
3029:../Dave/Generated/src/USBLD001/driver/dwc_otg_pcd_intr.c **** 				byte_count =
3030:../Dave/Generated/src/USBLD001/driver/dwc_otg_pcd_intr.c **** 				    ep0->dwc_ep.xfer_len - desc_sts.b.bytes;
 5778              		.loc 2 3030 0
 5779 00a6 7B69     		ldr	r3, [r7, #20]
 5780 00a8 DB6A     		ldr	r3, [r3, #44]
 5781 00aa C3F31203 		ubfx	r3, r3, #0, #19
 5782 00ae 1A46     		mov	r2, r3
 5783 00b0 3B8A     		ldrh	r3, [r7, #16]
 5784 00b2 D31A     		subs	r3, r2, r3
3029:../Dave/Generated/src/USBLD001/driver/dwc_otg_pcd_intr.c **** 				byte_count =
 5785              		.loc 2 3029 0
 5786 00b4 FB61     		str	r3, [r7, #28]
 5787              	.L281:
3031:../Dave/Generated/src/USBLD001/driver/dwc_otg_pcd_intr.c **** 			}
3032:../Dave/Generated/src/USBLD001/driver/dwc_otg_pcd_intr.c **** 			ep0->dwc_ep.xfer_count += byte_count;
 5788              		.loc 2 3032 0
 5789 00b6 7B69     		ldr	r3, [r7, #20]
 5790 00b8 1B6B     		ldr	r3, [r3, #48]
 5791 00ba C3F31203 		ubfx	r3, r3, #0, #19
 5792 00be 1A46     		mov	r2, r3
 5793 00c0 FB69     		ldr	r3, [r7, #28]
 5794 00c2 D318     		adds	r3, r2, r3
 5795 00c4 23F07F42 		bic	r2, r3, #-16777216
 5796 00c8 22F47802 		bic	r2, r2, #16252928
 5797 00cc 7969     		ldr	r1, [r7, #20]
 5798 00ce 0B6B     		ldr	r3, [r1, #48]
 5799 00d0 62F31203 		bfi	r3, r2, #0, #19
 5800 00d4 0B63     		str	r3, [r1, #48]
3033:../Dave/Generated/src/USBLD001/driver/dwc_otg_pcd_intr.c **** 			ep0->dwc_ep.xfer_buff += byte_count;
 5801              		.loc 2 3033 0
 5802 00d6 7B69     		ldr	r3, [r7, #20]
 5803 00d8 9A6A     		ldr	r2, [r3, #40]
 5804 00da FB69     		ldr	r3, [r7, #28]
 5805 00dc D218     		adds	r2, r2, r3
 5806 00de 7B69     		ldr	r3, [r7, #20]
 5807 00e0 9A62     		str	r2, [r3, #40]
3034:../Dave/Generated/src/USBLD001/driver/dwc_otg_pcd_intr.c **** 			ep0->dwc_ep.dma_addr += byte_count;
 5808              		.loc 2 3034 0
 5809 00e2 7B69     		ldr	r3, [r7, #20]
 5810 00e4 9A69     		ldr	r2, [r3, #24]
 5811 00e6 FB69     		ldr	r3, [r7, #28]
 5812 00e8 D218     		adds	r2, r2, r3
 5813 00ea 7B69     		ldr	r3, [r7, #20]
 5814 00ec 9A61     		str	r2, [r3, #24]
 5815              	.L279:
3035:../Dave/Generated/src/USBLD001/driver/dwc_otg_pcd_intr.c **** 		}
3036:../Dave/Generated/src/USBLD001/driver/dwc_otg_pcd_intr.c **** 		if (ep0->dwc_ep.xfer_count < ep0->dwc_ep.total_len) {
 5816              		.loc 2 3036 0
 5817 00ee 7B69     		ldr	r3, [r7, #20]
 5818 00f0 1B6B     		ldr	r3, [r3, #48]
 5819 00f2 C3F31203 		ubfx	r3, r3, #0, #19
 5820 00f6 1A46     		mov	r2, r3
 5821 00f8 7B69     		ldr	r3, [r7, #20]
 5822 00fa 5B6B     		ldr	r3, [r3, #52]
 5823 00fc C3F31203 		ubfx	r3, r3, #0, #19
 5824 0100 9A42     		cmp	r2, r3
 5825 0102 09DA     		bge	.L282
3037:../Dave/Generated/src/USBLD001/driver/dwc_otg_pcd_intr.c **** 			dwc_otg_ep0_continue_transfer(GET_CORE_IF(pcd),
 5826              		.loc 2 3037 0
 5827 0104 7B68     		ldr	r3, [r7, #4]
 5828 0106 9A68     		ldr	r2, [r3, #8]
 5829 0108 7B69     		ldr	r3, [r7, #20]
 5830 010a 03F11003 		add	r3, r3, #16
 5831 010e 1046     		mov	r0, r2
 5832 0110 1946     		mov	r1, r3
 5833 0112 FFF7FEFF 		bl	dwc_otg_ep0_continue_transfer
3038:../Dave/Generated/src/USBLD001/driver/dwc_otg_pcd_intr.c **** 						      &ep0->dwc_ep);
3039:../Dave/Generated/src/USBLD001/driver/dwc_otg_pcd_intr.c **** 			DWC_DEBUGPL(DBG_PCD, "CONTINUE TRANSFER\n");
3040:../Dave/Generated/src/USBLD001/driver/dwc_otg_pcd_intr.c **** 		} else if (ep0->dwc_ep.sent_zlp) {
3041:../Dave/Generated/src/USBLD001/driver/dwc_otg_pcd_intr.c **** 			dwc_otg_ep0_continue_transfer(GET_CORE_IF(pcd),
3042:../Dave/Generated/src/USBLD001/driver/dwc_otg_pcd_intr.c **** 						      &ep0->dwc_ep);
3043:../Dave/Generated/src/USBLD001/driver/dwc_otg_pcd_intr.c **** 			ep0->dwc_ep.sent_zlp = 0;
3044:../Dave/Generated/src/USBLD001/driver/dwc_otg_pcd_intr.c **** 			DWC_DEBUGPL(DBG_PCD, "CONTINUE TRANSFER\n");
3045:../Dave/Generated/src/USBLD001/driver/dwc_otg_pcd_intr.c **** 		} else {
3046:../Dave/Generated/src/USBLD001/driver/dwc_otg_pcd_intr.c **** 			ep0_complete_request(ep0);
3047:../Dave/Generated/src/USBLD001/driver/dwc_otg_pcd_intr.c **** 			DWC_DEBUGPL(DBG_PCD, "COMPLETE TRANSFER\n");
3048:../Dave/Generated/src/USBLD001/driver/dwc_otg_pcd_intr.c **** 		}
3049:../Dave/Generated/src/USBLD001/driver/dwc_otg_pcd_intr.c **** 		break;
 5834              		.loc 2 3049 0
 5835 0116 B5E0     		b	.L271
 5836              	.L282:
3040:../Dave/Generated/src/USBLD001/driver/dwc_otg_pcd_intr.c **** 		} else if (ep0->dwc_ep.sent_zlp) {
 5837              		.loc 2 3040 0
 5838 0118 7B69     		ldr	r3, [r7, #20]
 5839 011a 93F83230 		ldrb	r3, [r3, #50]	@ zero_extendqisi2
 5840 011e 03F00803 		and	r3, r3, #8
 5841 0122 DBB2     		uxtb	r3, r3
 5842 0124 002B     		cmp	r3, #0
 5843 0126 10D0     		beq	.L284
3041:../Dave/Generated/src/USBLD001/driver/dwc_otg_pcd_intr.c **** 			dwc_otg_ep0_continue_transfer(GET_CORE_IF(pcd),
 5844              		.loc 2 3041 0
 5845 0128 7B68     		ldr	r3, [r7, #4]
 5846 012a 9A68     		ldr	r2, [r3, #8]
 5847 012c 7B69     		ldr	r3, [r7, #20]
 5848 012e 03F11003 		add	r3, r3, #16
 5849 0132 1046     		mov	r0, r2
 5850 0134 1946     		mov	r1, r3
 5851 0136 FFF7FEFF 		bl	dwc_otg_ep0_continue_transfer
3043:../Dave/Generated/src/USBLD001/driver/dwc_otg_pcd_intr.c **** 			ep0->dwc_ep.sent_zlp = 0;
 5852              		.loc 2 3043 0
 5853 013a 7A69     		ldr	r2, [r7, #20]
 5854 013c 92F83230 		ldrb	r3, [r2, #50]
 5855 0140 6FF3C303 		bfc	r3, #3, #1
 5856 0144 82F83230 		strb	r3, [r2, #50]
 5857              		.loc 2 3049 0
 5858 0148 9CE0     		b	.L271
 5859              	.L284:
3046:../Dave/Generated/src/USBLD001/driver/dwc_otg_pcd_intr.c **** 			ep0_complete_request(ep0);
 5860              		.loc 2 3046 0
 5861 014a 7869     		ldr	r0, [r7, #20]
 5862 014c FFF7FEFF 		bl	ep0_complete_request
 5863              		.loc 2 3049 0
 5864 0150 98E0     		b	.L271
 5865              	.L275:
3050:../Dave/Generated/src/USBLD001/driver/dwc_otg_pcd_intr.c **** 	case EP0_OUT_DATA_PHASE:
3051:../Dave/Generated/src/USBLD001/driver/dwc_otg_pcd_intr.c **** #ifdef DEBUG_EP0
3052:../Dave/Generated/src/USBLD001/driver/dwc_otg_pcd_intr.c **** 		DWC_DEBUGPL(DBG_PCD, "DATA_OUT EP%d-%s: type=%d, mps=%d\n",
3053:../Dave/Generated/src/USBLD001/driver/dwc_otg_pcd_intr.c **** 			    ep0->dwc_ep.num, (ep0->dwc_ep.is_in ? "IN" : "OUT"),
3054:../Dave/Generated/src/USBLD001/driver/dwc_otg_pcd_intr.c **** 			    ep0->dwc_ep.type, ep0->dwc_ep.maxpacket);
3055:../Dave/Generated/src/USBLD001/driver/dwc_otg_pcd_intr.c **** #endif
3056:../Dave/Generated/src/USBLD001/driver/dwc_otg_pcd_intr.c **** 		if (core_if->dma_enable != 0) {
 5866              		.loc 2 3056 0
 5867 0152 BB69     		ldr	r3, [r7, #24]
 5868 0154 93F84630 		ldrb	r3, [r3, #70]	@ zero_extendqisi2
 5869 0158 002B     		cmp	r3, #0
 5870 015a 46D0     		beq	.L285
3057:../Dave/Generated/src/USBLD001/driver/dwc_otg_pcd_intr.c **** 			if (core_if->dma_desc_enable == 0) {
 5871              		.loc 2 3057 0
 5872 015c BB69     		ldr	r3, [r7, #24]
 5873 015e 93F84730 		ldrb	r3, [r3, #71]	@ zero_extendqisi2
 5874 0162 002B     		cmp	r3, #0
 5875 0164 16D1     		bne	.L286
3058:../Dave/Generated/src/USBLD001/driver/dwc_otg_pcd_intr.c **** 				deptsiz.d32 =
3059:../Dave/Generated/src/USBLD001/driver/dwc_otg_pcd_intr.c **** 				    DWC_READ_REG32(&core_if->
 5876              		.loc 2 3059 0
 5877 0166 BB69     		ldr	r3, [r7, #24]
 5878 0168 9B68     		ldr	r3, [r3, #8]
3060:../Dave/Generated/src/USBLD001/driver/dwc_otg_pcd_intr.c **** 						   dev_if->out_ep_regs[0]->
 5879              		.loc 2 3060 0
 5880 016a 5B6A     		ldr	r3, [r3, #36]
3059:../Dave/Generated/src/USBLD001/driver/dwc_otg_pcd_intr.c **** 				    DWC_READ_REG32(&core_if->
 5881              		.loc 2 3059 0
 5882 016c 03F11003 		add	r3, r3, #16
 5883 0170 1846     		mov	r0, r3
 5884 0172 FFF7FEFF 		bl	DWC_READ_REG32
 5885 0176 0346     		mov	r3, r0
3058:../Dave/Generated/src/USBLD001/driver/dwc_otg_pcd_intr.c **** 				deptsiz.d32 =
 5886              		.loc 2 3058 0
 5887 0178 BB60     		str	r3, [r7, #8]
3061:../Dave/Generated/src/USBLD001/driver/dwc_otg_pcd_intr.c **** 						   doeptsiz);
3062:../Dave/Generated/src/USBLD001/driver/dwc_otg_pcd_intr.c **** 				byte_count =
3063:../Dave/Generated/src/USBLD001/driver/dwc_otg_pcd_intr.c **** 				    ep0->dwc_ep.maxpacket - deptsiz.b.xfersize;
 5888              		.loc 2 3063 0
 5889 017a 7B69     		ldr	r3, [r7, #20]
 5890 017c 5B8A     		ldrh	r3, [r3, #18]	@ movhi
 5891 017e C3F38A03 		ubfx	r3, r3, #2, #11
 5892 0182 9BB2     		uxth	r3, r3
 5893 0184 1A46     		mov	r2, r3
 5894 0186 3B7A     		ldrb	r3, [r7, #8]
 5895 0188 C3F30603 		ubfx	r3, r3, #0, #7
 5896 018c DBB2     		uxtb	r3, r3
 5897 018e D31A     		subs	r3, r2, r3
3062:../Dave/Generated/src/USBLD001/driver/dwc_otg_pcd_intr.c **** 				byte_count =
 5898              		.loc 2 3062 0
 5899 0190 FB61     		str	r3, [r7, #28]
 5900 0192 0EE0     		b	.L287
 5901              	.L286:
3064:../Dave/Generated/src/USBLD001/driver/dwc_otg_pcd_intr.c **** 			} else {
3065:../Dave/Generated/src/USBLD001/driver/dwc_otg_pcd_intr.c **** 				desc_sts =
3066:../Dave/Generated/src/USBLD001/driver/dwc_otg_pcd_intr.c **** 				    core_if->dev_if->out_desc_addr->status;
 5902              		.loc 2 3066 0
 5903 0194 BB69     		ldr	r3, [r7, #24]
 5904 0196 9B68     		ldr	r3, [r3, #8]
 5905 0198 D3F8B430 		ldr	r3, [r3, #180]
3065:../Dave/Generated/src/USBLD001/driver/dwc_otg_pcd_intr.c **** 				desc_sts =
 5906              		.loc 2 3065 0
 5907 019c 1B68     		ldr	r3, [r3, #0]
 5908 019e 3B61     		str	r3, [r7, #16]
3067:../Dave/Generated/src/USBLD001/driver/dwc_otg_pcd_intr.c **** 				byte_count =
3068:../Dave/Generated/src/USBLD001/driver/dwc_otg_pcd_intr.c **** 				    ep0->dwc_ep.maxpacket - desc_sts.b.bytes;
 5909              		.loc 2 3068 0
 5910 01a0 7B69     		ldr	r3, [r7, #20]
 5911 01a2 5B8A     		ldrh	r3, [r3, #18]	@ movhi
 5912 01a4 C3F38A03 		ubfx	r3, r3, #2, #11
 5913 01a8 9BB2     		uxth	r3, r3
 5914 01aa 1A46     		mov	r2, r3
 5915 01ac 3B8A     		ldrh	r3, [r7, #16]
 5916 01ae D31A     		subs	r3, r2, r3
3067:../Dave/Generated/src/USBLD001/driver/dwc_otg_pcd_intr.c **** 				byte_count =
 5917              		.loc 2 3067 0
 5918 01b0 FB61     		str	r3, [r7, #28]
 5919              	.L287:
3069:../Dave/Generated/src/USBLD001/driver/dwc_otg_pcd_intr.c **** 			}
3070:../Dave/Generated/src/USBLD001/driver/dwc_otg_pcd_intr.c **** 			ep0->dwc_ep.xfer_count += byte_count;
 5920              		.loc 2 3070 0
 5921 01b2 7B69     		ldr	r3, [r7, #20]
 5922 01b4 1B6B     		ldr	r3, [r3, #48]
 5923 01b6 C3F31203 		ubfx	r3, r3, #0, #19
 5924 01ba 1A46     		mov	r2, r3
 5925 01bc FB69     		ldr	r3, [r7, #28]
 5926 01be D318     		adds	r3, r2, r3
 5927 01c0 23F07F42 		bic	r2, r3, #-16777216
 5928 01c4 22F47802 		bic	r2, r2, #16252928
 5929 01c8 7969     		ldr	r1, [r7, #20]
 5930 01ca 0B6B     		ldr	r3, [r1, #48]
 5931 01cc 62F31203 		bfi	r3, r2, #0, #19
 5932 01d0 0B63     		str	r3, [r1, #48]
3071:../Dave/Generated/src/USBLD001/driver/dwc_otg_pcd_intr.c **** 			ep0->dwc_ep.xfer_buff += byte_count;
 5933              		.loc 2 3071 0
 5934 01d2 7B69     		ldr	r3, [r7, #20]
 5935 01d4 9A6A     		ldr	r2, [r3, #40]
 5936 01d6 FB69     		ldr	r3, [r7, #28]
 5937 01d8 D218     		adds	r2, r2, r3
 5938 01da 7B69     		ldr	r3, [r7, #20]
 5939 01dc 9A62     		str	r2, [r3, #40]
3072:../Dave/Generated/src/USBLD001/driver/dwc_otg_pcd_intr.c **** 			ep0->dwc_ep.dma_addr += byte_count;
 5940              		.loc 2 3072 0
 5941 01de 7B69     		ldr	r3, [r7, #20]
 5942 01e0 9A69     		ldr	r2, [r3, #24]
 5943 01e2 FB69     		ldr	r3, [r7, #28]
 5944 01e4 D218     		adds	r2, r2, r3
 5945 01e6 7B69     		ldr	r3, [r7, #20]
 5946 01e8 9A61     		str	r2, [r3, #24]
 5947              	.L285:
3073:../Dave/Generated/src/USBLD001/driver/dwc_otg_pcd_intr.c **** 		}
3074:../Dave/Generated/src/USBLD001/driver/dwc_otg_pcd_intr.c **** 		if (ep0->dwc_ep.xfer_count < ep0->dwc_ep.total_len) {
 5948              		.loc 2 3074 0
 5949 01ea 7B69     		ldr	r3, [r7, #20]
 5950 01ec 1B6B     		ldr	r3, [r3, #48]
 5951 01ee C3F31203 		ubfx	r3, r3, #0, #19
 5952 01f2 1A46     		mov	r2, r3
 5953 01f4 7B69     		ldr	r3, [r7, #20]
 5954 01f6 5B6B     		ldr	r3, [r3, #52]
 5955 01f8 C3F31203 		ubfx	r3, r3, #0, #19
 5956 01fc 9A42     		cmp	r2, r3
 5957 01fe 09DA     		bge	.L288
3075:../Dave/Generated/src/USBLD001/driver/dwc_otg_pcd_intr.c **** 			dwc_otg_ep0_continue_transfer(GET_CORE_IF(pcd),
 5958              		.loc 2 3075 0
 5959 0200 7B68     		ldr	r3, [r7, #4]
 5960 0202 9A68     		ldr	r2, [r3, #8]
 5961 0204 7B69     		ldr	r3, [r7, #20]
 5962 0206 03F11003 		add	r3, r3, #16
 5963 020a 1046     		mov	r0, r2
 5964 020c 1946     		mov	r1, r3
 5965 020e FFF7FEFF 		bl	dwc_otg_ep0_continue_transfer
3076:../Dave/Generated/src/USBLD001/driver/dwc_otg_pcd_intr.c **** 						      &ep0->dwc_ep);
3077:../Dave/Generated/src/USBLD001/driver/dwc_otg_pcd_intr.c **** 			DWC_DEBUGPL(DBG_PCD, "CONTINUE TRANSFER\n");
3078:../Dave/Generated/src/USBLD001/driver/dwc_otg_pcd_intr.c **** 		} else if (ep0->dwc_ep.sent_zlp) {
3079:../Dave/Generated/src/USBLD001/driver/dwc_otg_pcd_intr.c **** 			dwc_otg_ep0_continue_transfer(GET_CORE_IF(pcd),
3080:../Dave/Generated/src/USBLD001/driver/dwc_otg_pcd_intr.c **** 						      &ep0->dwc_ep);
3081:../Dave/Generated/src/USBLD001/driver/dwc_otg_pcd_intr.c **** 			ep0->dwc_ep.sent_zlp = 0;
3082:../Dave/Generated/src/USBLD001/driver/dwc_otg_pcd_intr.c **** 			DWC_DEBUGPL(DBG_PCD, "CONTINUE TRANSFER\n");
3083:../Dave/Generated/src/USBLD001/driver/dwc_otg_pcd_intr.c **** 		} else {
3084:../Dave/Generated/src/USBLD001/driver/dwc_otg_pcd_intr.c **** 			ep0_complete_request(ep0);
3085:../Dave/Generated/src/USBLD001/driver/dwc_otg_pcd_intr.c **** 			DWC_DEBUGPL(DBG_PCD, "COMPLETE TRANSFER\n");
3086:../Dave/Generated/src/USBLD001/driver/dwc_otg_pcd_intr.c **** 		}
3087:../Dave/Generated/src/USBLD001/driver/dwc_otg_pcd_intr.c **** 		break;
 5966              		.loc 2 3087 0
 5967 0212 37E0     		b	.L271
 5968              	.L288:
3078:../Dave/Generated/src/USBLD001/driver/dwc_otg_pcd_intr.c **** 		} else if (ep0->dwc_ep.sent_zlp) {
 5969              		.loc 2 3078 0
 5970 0214 7B69     		ldr	r3, [r7, #20]
 5971 0216 93F83230 		ldrb	r3, [r3, #50]	@ zero_extendqisi2
 5972 021a 03F00803 		and	r3, r3, #8
 5973 021e DBB2     		uxtb	r3, r3
 5974 0220 002B     		cmp	r3, #0
 5975 0222 10D0     		beq	.L290
3079:../Dave/Generated/src/USBLD001/driver/dwc_otg_pcd_intr.c **** 			dwc_otg_ep0_continue_transfer(GET_CORE_IF(pcd),
 5976              		.loc 2 3079 0
 5977 0224 7B68     		ldr	r3, [r7, #4]
 5978 0226 9A68     		ldr	r2, [r3, #8]
 5979 0228 7B69     		ldr	r3, [r7, #20]
 5980 022a 03F11003 		add	r3, r3, #16
 5981 022e 1046     		mov	r0, r2
 5982 0230 1946     		mov	r1, r3
 5983 0232 FFF7FEFF 		bl	dwc_otg_ep0_continue_transfer
3081:../Dave/Generated/src/USBLD001/driver/dwc_otg_pcd_intr.c **** 			ep0->dwc_ep.sent_zlp = 0;
 5984              		.loc 2 3081 0
 5985 0236 7A69     		ldr	r2, [r7, #20]
 5986 0238 92F83230 		ldrb	r3, [r2, #50]
 5987 023c 6FF3C303 		bfc	r3, #3, #1
 5988 0240 82F83230 		strb	r3, [r2, #50]
 5989              		.loc 2 3087 0
 5990 0244 1EE0     		b	.L271
 5991              	.L290:
3084:../Dave/Generated/src/USBLD001/driver/dwc_otg_pcd_intr.c **** 			ep0_complete_request(ep0);
 5992              		.loc 2 3084 0
 5993 0246 7869     		ldr	r0, [r7, #20]
 5994 0248 FFF7FEFF 		bl	ep0_complete_request
 5995              		.loc 2 3087 0
 5996 024c 1AE0     		b	.L271
 5997              	.L276:
3088:../Dave/Generated/src/USBLD001/driver/dwc_otg_pcd_intr.c **** 
3089:../Dave/Generated/src/USBLD001/driver/dwc_otg_pcd_intr.c **** 	case EP0_IN_STATUS_PHASE:
3090:../Dave/Generated/src/USBLD001/driver/dwc_otg_pcd_intr.c **** 	case EP0_OUT_STATUS_PHASE:
3091:../Dave/Generated/src/USBLD001/driver/dwc_otg_pcd_intr.c **** 		DWC_DEBUGPL(DBG_PCD, "CASE: EP0_STATUS\n");
3092:../Dave/Generated/src/USBLD001/driver/dwc_otg_pcd_intr.c **** 		ep0_complete_request(ep0);
 5998              		.loc 2 3092 0
 5999 024e 7869     		ldr	r0, [r7, #20]
 6000 0250 FFF7FEFF 		bl	ep0_complete_request
3093:../Dave/Generated/src/USBLD001/driver/dwc_otg_pcd_intr.c **** 		pcd->ep0state = EP0_IDLE;
 6001              		.loc 2 3093 0
 6002 0254 7B68     		ldr	r3, [r7, #4]
 6003 0256 4FF00102 		mov	r2, #1
 6004 025a 1A73     		strb	r2, [r3, #12]
3094:../Dave/Generated/src/USBLD001/driver/dwc_otg_pcd_intr.c **** 		ep0->stopped = 1;
 6005              		.loc 2 3094 0
 6006 025c 7A69     		ldr	r2, [r7, #20]
 6007 025e 137B     		ldrb	r3, [r2, #12]
 6008 0260 43F00103 		orr	r3, r3, #1
 6009 0264 1373     		strb	r3, [r2, #12]
3095:../Dave/Generated/src/USBLD001/driver/dwc_otg_pcd_intr.c **** 		ep0->dwc_ep.is_in = 0;	/* OUT for next SETUP */
 6010              		.loc 2 3095 0
 6011 0266 7A69     		ldr	r2, [r7, #20]
 6012 0268 537C     		ldrb	r3, [r2, #17]
 6013 026a 6FF30003 		bfc	r3, #0, #1
 6014 026e 5374     		strb	r3, [r2, #17]
3096:../Dave/Generated/src/USBLD001/driver/dwc_otg_pcd_intr.c **** 
3097:../Dave/Generated/src/USBLD001/driver/dwc_otg_pcd_intr.c **** 		/* Prepare for more SETUP Packets */
3098:../Dave/Generated/src/USBLD001/driver/dwc_otg_pcd_intr.c **** 		if (core_if->dma_enable) {
 6015              		.loc 2 3098 0
 6016 0270 BB69     		ldr	r3, [r7, #24]
 6017 0272 93F84630 		ldrb	r3, [r3, #70]	@ zero_extendqisi2
 6018 0276 002B     		cmp	r3, #0
 6019 0278 03D0     		beq	.L292
3099:../Dave/Generated/src/USBLD001/driver/dwc_otg_pcd_intr.c **** 			ep0_out_start(core_if, pcd);
 6020              		.loc 2 3099 0
 6021 027a B869     		ldr	r0, [r7, #24]
 6022 027c 7968     		ldr	r1, [r7, #4]
 6023 027e FFF7FEFF 		bl	ep0_out_start
 6024              	.L292:
3100:../Dave/Generated/src/USBLD001/driver/dwc_otg_pcd_intr.c **** 		}
3101:../Dave/Generated/src/USBLD001/driver/dwc_otg_pcd_intr.c **** 		break;
 6025              		.loc 2 3101 0
 6026 0282 00BF     		nop
 6027              	.L271:
3102:../Dave/Generated/src/USBLD001/driver/dwc_otg_pcd_intr.c **** 
3103:../Dave/Generated/src/USBLD001/driver/dwc_otg_pcd_intr.c **** 	case EP0_STALL:
3104:../Dave/Generated/src/USBLD001/driver/dwc_otg_pcd_intr.c **** 		DWC_ERROR("EP0 STALLed, should not get here pcd_setup()\n");
3105:../Dave/Generated/src/USBLD001/driver/dwc_otg_pcd_intr.c **** 		break;
3106:../Dave/Generated/src/USBLD001/driver/dwc_otg_pcd_intr.c **** 	}
3107:../Dave/Generated/src/USBLD001/driver/dwc_otg_pcd_intr.c **** #ifdef DEBUG_EP0
3108:../Dave/Generated/src/USBLD001/driver/dwc_otg_pcd_intr.c **** 	print_ep0_state(pcd);
 6028              		.loc 2 3108 0
 6029 0284 7868     		ldr	r0, [r7, #4]
 6030 0286 FFF7FEFF 		bl	print_ep0_state
3109:../Dave/Generated/src/USBLD001/driver/dwc_otg_pcd_intr.c **** #endif
3110:../Dave/Generated/src/USBLD001/driver/dwc_otg_pcd_intr.c **** }
 6031              		.loc 2 3110 0
 6032 028a 07F12007 		add	r7, r7, #32
 6033 028e BD46     		mov	sp, r7
 6034 0290 80BD     		pop	{r7, pc}
 6035              		.cfi_endproc
 6036              	.LFE55:
 6038 0292 00BF     		.section	.text.restart_transfer,"ax",%progbits
 6039              		.align	2
 6040              		.thumb
 6041              		.thumb_func
 6043              	restart_transfer:
 6044              	.LFB56:
3111:../Dave/Generated/src/USBLD001/driver/dwc_otg_pcd_intr.c **** 
3112:../Dave/Generated/src/USBLD001/driver/dwc_otg_pcd_intr.c **** /**
3113:../Dave/Generated/src/USBLD001/driver/dwc_otg_pcd_intr.c ****  * Restart transfer
3114:../Dave/Generated/src/USBLD001/driver/dwc_otg_pcd_intr.c ****  */
3115:../Dave/Generated/src/USBLD001/driver/dwc_otg_pcd_intr.c **** static void restart_transfer(dwc_otg_pcd_t * pcd, const uint32_t epnum)
3116:../Dave/Generated/src/USBLD001/driver/dwc_otg_pcd_intr.c **** {
 6045              		.loc 2 3116 0
 6046              		.cfi_startproc
 6047              		@ args = 0, pretend = 0, frame = 24
 6048              		@ frame_needed = 1, uses_anonymous_args = 0
 6049 0000 80B5     		push	{r7, lr}
 6050              	.LCFI123:
 6051              		.cfi_def_cfa_offset 8
 6052              		.cfi_offset 7, -8
 6053              		.cfi_offset 14, -4
 6054 0002 86B0     		sub	sp, sp, #24
 6055              	.LCFI124:
 6056              		.cfi_def_cfa_offset 32
 6057 0004 00AF     		add	r7, sp, #0
 6058              	.LCFI125:
 6059              		.cfi_def_cfa_register 7
 6060 0006 7860     		str	r0, [r7, #4]
 6061 0008 3960     		str	r1, [r7, #0]
3117:../Dave/Generated/src/USBLD001/driver/dwc_otg_pcd_intr.c **** 	dwc_otg_core_if_t *core_if;
3118:../Dave/Generated/src/USBLD001/driver/dwc_otg_pcd_intr.c **** 	dwc_otg_dev_if_t *dev_if;
3119:../Dave/Generated/src/USBLD001/driver/dwc_otg_pcd_intr.c **** 	deptsiz_data_t dieptsiz = {.d32 = 0 };
 6062              		.loc 2 3119 0
 6063 000a 4FF00003 		mov	r3, #0
 6064 000e BB60     		str	r3, [r7, #8]
3120:../Dave/Generated/src/USBLD001/driver/dwc_otg_pcd_intr.c **** 	dwc_otg_pcd_ep_t *ep;
3121:../Dave/Generated/src/USBLD001/driver/dwc_otg_pcd_intr.c **** 
3122:../Dave/Generated/src/USBLD001/driver/dwc_otg_pcd_intr.c **** 	ep = get_in_ep(pcd, epnum);
 6065              		.loc 2 3122 0
 6066 0010 7868     		ldr	r0, [r7, #4]
 6067 0012 3968     		ldr	r1, [r7, #0]
 6068 0014 FFF7FEFF 		bl	get_in_ep
 6069 0018 7861     		str	r0, [r7, #20]
3123:../Dave/Generated/src/USBLD001/driver/dwc_otg_pcd_intr.c **** 
3124:../Dave/Generated/src/USBLD001/driver/dwc_otg_pcd_intr.c **** #ifdef DWC_EN_ISOC
3125:../Dave/Generated/src/USBLD001/driver/dwc_otg_pcd_intr.c **** 	if (ep->dwc_ep.type == DWC_OTG_EP_TYPE_ISOC) {
3126:../Dave/Generated/src/USBLD001/driver/dwc_otg_pcd_intr.c **** 		return;
3127:../Dave/Generated/src/USBLD001/driver/dwc_otg_pcd_intr.c **** 	}
3128:../Dave/Generated/src/USBLD001/driver/dwc_otg_pcd_intr.c **** #endif /* DWC_EN_ISOC  */
3129:../Dave/Generated/src/USBLD001/driver/dwc_otg_pcd_intr.c **** 
3130:../Dave/Generated/src/USBLD001/driver/dwc_otg_pcd_intr.c **** 	core_if = GET_CORE_IF(pcd);
 6070              		.loc 2 3130 0
 6071 001a 7B68     		ldr	r3, [r7, #4]
 6072 001c 9B68     		ldr	r3, [r3, #8]
 6073 001e 3B61     		str	r3, [r7, #16]
3131:../Dave/Generated/src/USBLD001/driver/dwc_otg_pcd_intr.c **** 	dev_if = core_if->dev_if;
 6074              		.loc 2 3131 0
 6075 0020 3B69     		ldr	r3, [r7, #16]
 6076 0022 9B68     		ldr	r3, [r3, #8]
 6077 0024 FB60     		str	r3, [r7, #12]
3132:../Dave/Generated/src/USBLD001/driver/dwc_otg_pcd_intr.c **** 
3133:../Dave/Generated/src/USBLD001/driver/dwc_otg_pcd_intr.c **** 	dieptsiz.d32 = DWC_READ_REG32(&dev_if->in_ep_regs[epnum]->dieptsiz);
 6078              		.loc 2 3133 0
 6079 0026 FA68     		ldr	r2, [r7, #12]
 6080 0028 3B68     		ldr	r3, [r7, #0]
 6081 002a 4FEA8303 		lsl	r3, r3, #2
 6082 002e D318     		adds	r3, r2, r3
 6083 0030 5B68     		ldr	r3, [r3, #4]
 6084 0032 03F11003 		add	r3, r3, #16
 6085 0036 1846     		mov	r0, r3
 6086 0038 FFF7FEFF 		bl	DWC_READ_REG32
 6087 003c 0346     		mov	r3, r0
 6088 003e BB60     		str	r3, [r7, #8]
3134:../Dave/Generated/src/USBLD001/driver/dwc_otg_pcd_intr.c **** 
3135:../Dave/Generated/src/USBLD001/driver/dwc_otg_pcd_intr.c **** 	DWC_DEBUGPL(DBG_PCD, "xfer_buff=%p xfer_count=%0x xfer_len=%0x"
3136:../Dave/Generated/src/USBLD001/driver/dwc_otg_pcd_intr.c **** 		    " stopped=%d\n", ep->dwc_ep.xfer_buff,
3137:../Dave/Generated/src/USBLD001/driver/dwc_otg_pcd_intr.c **** 		    ep->dwc_ep.xfer_count, ep->dwc_ep.xfer_len, ep->stopped);
3138:../Dave/Generated/src/USBLD001/driver/dwc_otg_pcd_intr.c **** 	/*
3139:../Dave/Generated/src/USBLD001/driver/dwc_otg_pcd_intr.c **** 	 * If xfersize is 0 and pktcnt in not 0, resend the last packet.
3140:../Dave/Generated/src/USBLD001/driver/dwc_otg_pcd_intr.c **** 	 */
3141:../Dave/Generated/src/USBLD001/driver/dwc_otg_pcd_intr.c **** 	if (dieptsiz.b.pktcnt && dieptsiz.b.xfersize == 0 &&
 6089              		.loc 2 3141 0
 6090 0040 7A89     		ldrh	r2, [r7, #10]
 6091 0042 41F6F873 		movw	r3, #8184
 6092 0046 1340     		ands	r3, r3, r2
 6093 0048 9BB2     		uxth	r3, r3
 6094 004a 002B     		cmp	r3, #0
 6095 004c 69D0     		beq	.L293
 6096              		.loc 2 3141 0 is_stmt 0 discriminator 1
 6097 004e BB68     		ldr	r3, [r7, #8]
 6098 0050 23F07F43 		bic	r3, r3, #-16777216
 6099 0054 23F47803 		bic	r3, r3, #16252928
 6100 0058 002B     		cmp	r3, #0
 6101 005a 62D1     		bne	.L293
3142:../Dave/Generated/src/USBLD001/driver/dwc_otg_pcd_intr.c **** 	    ep->dwc_ep.start_xfer_buff != 0) {
 6102              		.loc 2 3142 0 is_stmt 1 discriminator 1
 6103 005c 7B69     		ldr	r3, [r7, #20]
 6104 005e 5B6A     		ldr	r3, [r3, #36]
3141:../Dave/Generated/src/USBLD001/driver/dwc_otg_pcd_intr.c **** 	if (dieptsiz.b.pktcnt && dieptsiz.b.xfersize == 0 &&
 6105              		.loc 2 3141 0 discriminator 1
 6106 0060 002B     		cmp	r3, #0
 6107 0062 5ED0     		beq	.L293
3143:../Dave/Generated/src/USBLD001/driver/dwc_otg_pcd_intr.c **** 		if (ep->dwc_ep.total_len <= ep->dwc_ep.maxpacket) {
 6108              		.loc 2 3143 0
 6109 0064 7B69     		ldr	r3, [r7, #20]
 6110 0066 5B6B     		ldr	r3, [r3, #52]
 6111 0068 C3F31203 		ubfx	r3, r3, #0, #19
 6112 006c 1A46     		mov	r2, r3
 6113 006e 7B69     		ldr	r3, [r7, #20]
 6114 0070 5B8A     		ldrh	r3, [r3, #18]	@ movhi
 6115 0072 C3F38A03 		ubfx	r3, r3, #2, #11
 6116 0076 9BB2     		uxth	r3, r3
 6117 0078 9A42     		cmp	r2, r3
 6118 007a 12DC     		bgt	.L295
3144:../Dave/Generated/src/USBLD001/driver/dwc_otg_pcd_intr.c **** 			ep->dwc_ep.xfer_count = 0;
 6119              		.loc 2 3144 0
 6120 007c 7A69     		ldr	r2, [r7, #20]
 6121 007e 136B     		ldr	r3, [r2, #48]
 6122 0080 6FF31203 		bfc	r3, #0, #19
 6123 0084 1363     		str	r3, [r2, #48]
3145:../Dave/Generated/src/USBLD001/driver/dwc_otg_pcd_intr.c **** 			ep->dwc_ep.xfer_buff = ep->dwc_ep.start_xfer_buff;
 6124              		.loc 2 3145 0
 6125 0086 7B69     		ldr	r3, [r7, #20]
 6126 0088 5A6A     		ldr	r2, [r3, #36]
 6127 008a 7B69     		ldr	r3, [r7, #20]
 6128 008c 9A62     		str	r2, [r3, #40]
3146:../Dave/Generated/src/USBLD001/driver/dwc_otg_pcd_intr.c **** 			ep->dwc_ep.xfer_len = ep->dwc_ep.xfer_count;
 6129              		.loc 2 3146 0
 6130 008e 7B69     		ldr	r3, [r7, #20]
 6131 0090 1B6B     		ldr	r3, [r3, #48]
 6132 0092 C3F31201 		ubfx	r1, r3, #0, #19
 6133 0096 7A69     		ldr	r2, [r7, #20]
 6134 0098 D36A     		ldr	r3, [r2, #44]
 6135 009a 61F31203 		bfi	r3, r1, #0, #19
 6136 009e D362     		str	r3, [r2, #44]
 6137 00a0 28E0     		b	.L296
 6138              	.L295:
3147:../Dave/Generated/src/USBLD001/driver/dwc_otg_pcd_intr.c **** 		} else {
3148:../Dave/Generated/src/USBLD001/driver/dwc_otg_pcd_intr.c **** 			ep->dwc_ep.xfer_count -= ep->dwc_ep.maxpacket;
 6139              		.loc 2 3148 0
 6140 00a2 7B69     		ldr	r3, [r7, #20]
 6141 00a4 1B6B     		ldr	r3, [r3, #48]
 6142 00a6 C3F31203 		ubfx	r3, r3, #0, #19
 6143 00aa 1A46     		mov	r2, r3
 6144 00ac 7B69     		ldr	r3, [r7, #20]
 6145 00ae 5B8A     		ldrh	r3, [r3, #18]	@ movhi
 6146 00b0 C3F38A03 		ubfx	r3, r3, #2, #11
 6147 00b4 9BB2     		uxth	r3, r3
 6148 00b6 D31A     		subs	r3, r2, r3
 6149 00b8 23F07F42 		bic	r2, r3, #-16777216
 6150 00bc 22F47802 		bic	r2, r2, #16252928
 6151 00c0 7969     		ldr	r1, [r7, #20]
 6152 00c2 0B6B     		ldr	r3, [r1, #48]
 6153 00c4 62F31203 		bfi	r3, r2, #0, #19
 6154 00c8 0B63     		str	r3, [r1, #48]
3149:../Dave/Generated/src/USBLD001/driver/dwc_otg_pcd_intr.c **** 			/* convert packet size to dwords. */
3150:../Dave/Generated/src/USBLD001/driver/dwc_otg_pcd_intr.c **** 			ep->dwc_ep.xfer_buff -= ep->dwc_ep.maxpacket;
 6155              		.loc 2 3150 0
 6156 00ca 7B69     		ldr	r3, [r7, #20]
 6157 00cc 9A6A     		ldr	r2, [r3, #40]
 6158 00ce 7B69     		ldr	r3, [r7, #20]
 6159 00d0 5B8A     		ldrh	r3, [r3, #18]	@ movhi
 6160 00d2 C3F38A03 		ubfx	r3, r3, #2, #11
 6161 00d6 9BB2     		uxth	r3, r3
 6162 00d8 C3F10003 		rsb	r3, r3, #0
 6163 00dc D218     		adds	r2, r2, r3
 6164 00de 7B69     		ldr	r3, [r7, #20]
 6165 00e0 9A62     		str	r2, [r3, #40]
3151:../Dave/Generated/src/USBLD001/driver/dwc_otg_pcd_intr.c **** 			ep->dwc_ep.xfer_len = ep->dwc_ep.xfer_count;
 6166              		.loc 2 3151 0
 6167 00e2 7B69     		ldr	r3, [r7, #20]
 6168 00e4 1B6B     		ldr	r3, [r3, #48]
 6169 00e6 C3F31201 		ubfx	r1, r3, #0, #19
 6170 00ea 7A69     		ldr	r2, [r7, #20]
 6171 00ec D36A     		ldr	r3, [r2, #44]
 6172 00ee 61F31203 		bfi	r3, r1, #0, #19
 6173 00f2 D362     		str	r3, [r2, #44]
 6174              	.L296:
3152:../Dave/Generated/src/USBLD001/driver/dwc_otg_pcd_intr.c **** 		}
3153:../Dave/Generated/src/USBLD001/driver/dwc_otg_pcd_intr.c **** 		ep->stopped = 0;
 6175              		.loc 2 3153 0
 6176 00f4 7A69     		ldr	r2, [r7, #20]
 6177 00f6 137B     		ldrb	r3, [r2, #12]
 6178 00f8 6FF30003 		bfc	r3, #0, #1
 6179 00fc 1373     		strb	r3, [r2, #12]
3154:../Dave/Generated/src/USBLD001/driver/dwc_otg_pcd_intr.c **** 		DWC_DEBUGPL(DBG_PCD, "xfer_buff=%p xfer_count=%0x "
3155:../Dave/Generated/src/USBLD001/driver/dwc_otg_pcd_intr.c **** 			    "xfer_len=%0x stopped=%d\n",
3156:../Dave/Generated/src/USBLD001/driver/dwc_otg_pcd_intr.c **** 			    ep->dwc_ep.xfer_buff,
3157:../Dave/Generated/src/USBLD001/driver/dwc_otg_pcd_intr.c **** 			    ep->dwc_ep.xfer_count, ep->dwc_ep.xfer_len,
3158:../Dave/Generated/src/USBLD001/driver/dwc_otg_pcd_intr.c **** 			    ep->stopped);
3159:../Dave/Generated/src/USBLD001/driver/dwc_otg_pcd_intr.c **** 		if (epnum == 0) {
 6180              		.loc 2 3159 0
 6181 00fe 3B68     		ldr	r3, [r7, #0]
 6182 0100 002B     		cmp	r3, #0
 6183 0102 07D1     		bne	.L297
3160:../Dave/Generated/src/USBLD001/driver/dwc_otg_pcd_intr.c **** 			dwc_otg_ep0_start_transfer(core_if, &ep->dwc_ep);
 6184              		.loc 2 3160 0
 6185 0104 7B69     		ldr	r3, [r7, #20]
 6186 0106 03F11003 		add	r3, r3, #16
 6187 010a 3869     		ldr	r0, [r7, #16]
 6188 010c 1946     		mov	r1, r3
 6189 010e FFF7FEFF 		bl	dwc_otg_ep0_start_transfer
 6190 0112 06E0     		b	.L293
 6191              	.L297:
3161:../Dave/Generated/src/USBLD001/driver/dwc_otg_pcd_intr.c **** 		} else {
3162:../Dave/Generated/src/USBLD001/driver/dwc_otg_pcd_intr.c **** 			dwc_otg_ep_start_transfer(core_if, &ep->dwc_ep);
 6192              		.loc 2 3162 0
 6193 0114 7B69     		ldr	r3, [r7, #20]
 6194 0116 03F11003 		add	r3, r3, #16
 6195 011a 3869     		ldr	r0, [r7, #16]
 6196 011c 1946     		mov	r1, r3
 6197 011e FFF7FEFF 		bl	dwc_otg_ep_start_transfer
 6198              	.L293:
3163:../Dave/Generated/src/USBLD001/driver/dwc_otg_pcd_intr.c **** 		}
3164:../Dave/Generated/src/USBLD001/driver/dwc_otg_pcd_intr.c **** 	}
3165:../Dave/Generated/src/USBLD001/driver/dwc_otg_pcd_intr.c **** }
 6199              		.loc 2 3165 0
 6200 0122 07F11807 		add	r7, r7, #24
 6201 0126 BD46     		mov	sp, r7
 6202 0128 80BD     		pop	{r7, pc}
 6203              		.cfi_endproc
 6204              	.LFE56:
 6206 012a 00BF     		.section	.text.handle_in_ep_disable_intr,"ax",%progbits
 6207              		.align	2
 6208              		.thumb
 6209              		.thumb_func
 6211              	handle_in_ep_disable_intr:
 6212              	.LFB57:
3166:../Dave/Generated/src/USBLD001/driver/dwc_otg_pcd_intr.c **** 
3167:../Dave/Generated/src/USBLD001/driver/dwc_otg_pcd_intr.c **** /**
3168:../Dave/Generated/src/USBLD001/driver/dwc_otg_pcd_intr.c ****  * handle the IN EP disable interrupt.
3169:../Dave/Generated/src/USBLD001/driver/dwc_otg_pcd_intr.c ****  */
3170:../Dave/Generated/src/USBLD001/driver/dwc_otg_pcd_intr.c **** static inline void handle_in_ep_disable_intr(dwc_otg_pcd_t * pcd,
3171:../Dave/Generated/src/USBLD001/driver/dwc_otg_pcd_intr.c **** 					     const uint32_t epnum)
3172:../Dave/Generated/src/USBLD001/driver/dwc_otg_pcd_intr.c **** {
 6213              		.loc 2 3172 0
 6214              		.cfi_startproc
 6215              		@ args = 0, pretend = 0, frame = 32
 6216              		@ frame_needed = 1, uses_anonymous_args = 0
 6217 0000 80B5     		push	{r7, lr}
 6218              	.LCFI126:
 6219              		.cfi_def_cfa_offset 8
 6220              		.cfi_offset 7, -8
 6221              		.cfi_offset 14, -4
 6222 0002 88B0     		sub	sp, sp, #32
 6223              	.LCFI127:
 6224              		.cfi_def_cfa_offset 40
 6225 0004 00AF     		add	r7, sp, #0
 6226              	.LCFI128:
 6227              		.cfi_def_cfa_register 7
 6228 0006 7860     		str	r0, [r7, #4]
 6229 0008 3960     		str	r1, [r7, #0]
3173:../Dave/Generated/src/USBLD001/driver/dwc_otg_pcd_intr.c **** 	dwc_otg_core_if_t *core_if = GET_CORE_IF(pcd);
 6230              		.loc 2 3173 0
 6231 000a 7B68     		ldr	r3, [r7, #4]
 6232 000c 9B68     		ldr	r3, [r3, #8]
 6233 000e FB61     		str	r3, [r7, #28]
3174:../Dave/Generated/src/USBLD001/driver/dwc_otg_pcd_intr.c **** 	dwc_otg_dev_if_t *dev_if = core_if->dev_if;
 6234              		.loc 2 3174 0
 6235 0010 FB69     		ldr	r3, [r7, #28]
 6236 0012 9B68     		ldr	r3, [r3, #8]
 6237 0014 BB61     		str	r3, [r7, #24]
3175:../Dave/Generated/src/USBLD001/driver/dwc_otg_pcd_intr.c **** 	deptsiz_data_t dieptsiz = {.d32 = 0 };
 6238              		.loc 2 3175 0
 6239 0016 4FF00003 		mov	r3, #0
 6240 001a FB60     		str	r3, [r7, #12]
3176:../Dave/Generated/src/USBLD001/driver/dwc_otg_pcd_intr.c **** 	dctl_data_t dctl = {.d32 = 0 };
 6241              		.loc 2 3176 0
 6242 001c 4FF00003 		mov	r3, #0
 6243 0020 BB60     		str	r3, [r7, #8]
3177:../Dave/Generated/src/USBLD001/driver/dwc_otg_pcd_intr.c **** 	dwc_otg_pcd_ep_t *ep;
3178:../Dave/Generated/src/USBLD001/driver/dwc_otg_pcd_intr.c **** 	dwc_ep_t *dwc_ep;
3179:../Dave/Generated/src/USBLD001/driver/dwc_otg_pcd_intr.c **** 
3180:../Dave/Generated/src/USBLD001/driver/dwc_otg_pcd_intr.c **** 	ep = get_in_ep(pcd, epnum);
 6244              		.loc 2 3180 0
 6245 0022 7868     		ldr	r0, [r7, #4]
 6246 0024 3968     		ldr	r1, [r7, #0]
 6247 0026 FFF7FEFF 		bl	get_in_ep
 6248 002a 7861     		str	r0, [r7, #20]
3181:../Dave/Generated/src/USBLD001/driver/dwc_otg_pcd_intr.c **** 	dwc_ep = &ep->dwc_ep;
 6249              		.loc 2 3181 0
 6250 002c 7B69     		ldr	r3, [r7, #20]
 6251 002e 03F11003 		add	r3, r3, #16
 6252 0032 3B61     		str	r3, [r7, #16]
3182:../Dave/Generated/src/USBLD001/driver/dwc_otg_pcd_intr.c **** 
3183:../Dave/Generated/src/USBLD001/driver/dwc_otg_pcd_intr.c **** 	if (dwc_ep->type == DWC_OTG_EP_TYPE_ISOC) {
 6253              		.loc 2 3183 0
 6254 0034 3B69     		ldr	r3, [r7, #16]
 6255 0036 5B78     		ldrb	r3, [r3, #1]	@ zero_extendqisi2
 6256 0038 23F03F03 		bic	r3, r3, #63
 6257 003c DBB2     		uxtb	r3, r3
 6258 003e 402B     		cmp	r3, #64
 6259 0040 09D1     		bne	.L299
3184:../Dave/Generated/src/USBLD001/driver/dwc_otg_pcd_intr.c **** 		dwc_otg_flush_tx_fifo(core_if, dwc_ep->tx_fifo_num);
 6260              		.loc 2 3184 0
 6261 0042 3B69     		ldr	r3, [r7, #16]
 6262 0044 5B78     		ldrb	r3, [r3, #1]
 6263 0046 C3F38303 		ubfx	r3, r3, #2, #4
 6264 004a DBB2     		uxtb	r3, r3
 6265 004c F869     		ldr	r0, [r7, #28]
 6266 004e 1946     		mov	r1, r3
 6267 0050 FFF7FEFF 		bl	dwc_otg_flush_tx_fifo
 6268 0054 53E0     		b	.L298
 6269              	.L299:
3185:../Dave/Generated/src/USBLD001/driver/dwc_otg_pcd_intr.c **** 		return;
3186:../Dave/Generated/src/USBLD001/driver/dwc_otg_pcd_intr.c **** 	}
3187:../Dave/Generated/src/USBLD001/driver/dwc_otg_pcd_intr.c **** 
3188:../Dave/Generated/src/USBLD001/driver/dwc_otg_pcd_intr.c **** 	DWC_DEBUGPL(DBG_PCD, "diepctl%d=%0x\n", epnum,
3189:../Dave/Generated/src/USBLD001/driver/dwc_otg_pcd_intr.c **** 		    DWC_READ_REG32(&dev_if->in_ep_regs[epnum]->diepctl));
3190:../Dave/Generated/src/USBLD001/driver/dwc_otg_pcd_intr.c **** 	dieptsiz.d32 = DWC_READ_REG32(&dev_if->in_ep_regs[epnum]->dieptsiz);
 6270              		.loc 2 3190 0
 6271 0056 BA69     		ldr	r2, [r7, #24]
 6272 0058 3B68     		ldr	r3, [r7, #0]
 6273 005a 4FEA8303 		lsl	r3, r3, #2
 6274 005e D318     		adds	r3, r2, r3
 6275 0060 5B68     		ldr	r3, [r3, #4]
 6276 0062 03F11003 		add	r3, r3, #16
 6277 0066 1846     		mov	r0, r3
 6278 0068 FFF7FEFF 		bl	DWC_READ_REG32
 6279 006c 0346     		mov	r3, r0
 6280 006e FB60     		str	r3, [r7, #12]
3191:../Dave/Generated/src/USBLD001/driver/dwc_otg_pcd_intr.c **** 
3192:../Dave/Generated/src/USBLD001/driver/dwc_otg_pcd_intr.c **** 	DWC_DEBUGPL(DBG_ANY, "pktcnt=%d size=%d\n",
3193:../Dave/Generated/src/USBLD001/driver/dwc_otg_pcd_intr.c **** 		    dieptsiz.b.pktcnt, dieptsiz.b.xfersize);
3194:../Dave/Generated/src/USBLD001/driver/dwc_otg_pcd_intr.c **** 
3195:../Dave/Generated/src/USBLD001/driver/dwc_otg_pcd_intr.c **** 	if (ep->stopped) {
 6281              		.loc 2 3195 0
 6282 0070 7B69     		ldr	r3, [r7, #20]
 6283 0072 1B7B     		ldrb	r3, [r3, #12]	@ zero_extendqisi2
 6284 0074 03F00103 		and	r3, r3, #1
 6285 0078 DBB2     		uxtb	r3, r3
 6286 007a 002B     		cmp	r3, #0
 6287 007c 2DD0     		beq	.L301
3196:../Dave/Generated/src/USBLD001/driver/dwc_otg_pcd_intr.c **** 		/* Flush the Tx FIFO */
3197:../Dave/Generated/src/USBLD001/driver/dwc_otg_pcd_intr.c **** 		dwc_otg_flush_tx_fifo(core_if, dwc_ep->tx_fifo_num);
 6288              		.loc 2 3197 0
 6289 007e 3B69     		ldr	r3, [r7, #16]
 6290 0080 5B78     		ldrb	r3, [r3, #1]
 6291 0082 C3F38303 		ubfx	r3, r3, #2, #4
 6292 0086 DBB2     		uxtb	r3, r3
 6293 0088 F869     		ldr	r0, [r7, #28]
 6294 008a 1946     		mov	r1, r3
 6295 008c FFF7FEFF 		bl	dwc_otg_flush_tx_fifo
3198:../Dave/Generated/src/USBLD001/driver/dwc_otg_pcd_intr.c **** 		/* Clear the Global IN NP NAK */
3199:../Dave/Generated/src/USBLD001/driver/dwc_otg_pcd_intr.c **** 		dctl.d32 = 0;
 6296              		.loc 2 3199 0
 6297 0090 4FF00003 		mov	r3, #0
 6298 0094 BB60     		str	r3, [r7, #8]
3200:../Dave/Generated/src/USBLD001/driver/dwc_otg_pcd_intr.c **** 		dctl.b.cgnpinnak = 1;
 6299              		.loc 2 3200 0
 6300 0096 BB68     		ldr	r3, [r7, #8]
 6301 0098 43F48073 		orr	r3, r3, #256
 6302 009c BB60     		str	r3, [r7, #8]
3201:../Dave/Generated/src/USBLD001/driver/dwc_otg_pcd_intr.c **** 		DWC_MODIFY_REG32(&dev_if->dev_global_regs->dctl, dctl.d32, 0);
 6303              		.loc 2 3201 0
 6304 009e BB69     		ldr	r3, [r7, #24]
 6305 00a0 1B68     		ldr	r3, [r3, #0]
 6306 00a2 03F10402 		add	r2, r3, #4
 6307 00a6 BB68     		ldr	r3, [r7, #8]
 6308 00a8 1046     		mov	r0, r2
 6309 00aa 1946     		mov	r1, r3
 6310 00ac 4FF00002 		mov	r2, #0
 6311 00b0 FFF7FEFF 		bl	DWC_MODIFY_REG32
3202:../Dave/Generated/src/USBLD001/driver/dwc_otg_pcd_intr.c **** 		/* Restart the transaction */
3203:../Dave/Generated/src/USBLD001/driver/dwc_otg_pcd_intr.c **** 		if (dieptsiz.b.pktcnt != 0 || dieptsiz.b.xfersize != 0) {
 6312              		.loc 2 3203 0
 6313 00b4 FA89     		ldrh	r2, [r7, #14]
 6314 00b6 41F6F873 		movw	r3, #8184
 6315 00ba 1340     		ands	r3, r3, r2
 6316 00bc 9BB2     		uxth	r3, r3
 6317 00be 002B     		cmp	r3, #0
 6318 00c0 06D1     		bne	.L302
 6319              		.loc 2 3203 0 is_stmt 0 discriminator 1
 6320 00c2 FB68     		ldr	r3, [r7, #12]
 6321 00c4 23F07F43 		bic	r3, r3, #-16777216
 6322 00c8 23F47803 		bic	r3, r3, #16252928
 6323 00cc 002B     		cmp	r3, #0
 6324 00ce 16D0     		beq	.L298
 6325              	.L302:
3204:../Dave/Generated/src/USBLD001/driver/dwc_otg_pcd_intr.c **** 			restart_transfer(pcd, epnum);
 6326              		.loc 2 3204 0 is_stmt 1
 6327 00d0 7868     		ldr	r0, [r7, #4]
 6328 00d2 3968     		ldr	r1, [r7, #0]
 6329 00d4 FFF7FEFF 		bl	restart_transfer
 6330 00d8 11E0     		b	.L298
 6331              	.L301:
3205:../Dave/Generated/src/USBLD001/driver/dwc_otg_pcd_intr.c **** 		}
3206:../Dave/Generated/src/USBLD001/driver/dwc_otg_pcd_intr.c **** 	} else {
3207:../Dave/Generated/src/USBLD001/driver/dwc_otg_pcd_intr.c **** 		/* Restart the transaction */
3208:../Dave/Generated/src/USBLD001/driver/dwc_otg_pcd_intr.c **** 		if (dieptsiz.b.pktcnt != 0 || dieptsiz.b.xfersize != 0) {
 6332              		.loc 2 3208 0
 6333 00da FA89     		ldrh	r2, [r7, #14]
 6334 00dc 41F6F873 		movw	r3, #8184
 6335 00e0 1340     		ands	r3, r3, r2
 6336 00e2 9BB2     		uxth	r3, r3
 6337 00e4 002B     		cmp	r3, #0
 6338 00e6 06D1     		bne	.L304
 6339              		.loc 2 3208 0 is_stmt 0 discriminator 1
 6340 00e8 FB68     		ldr	r3, [r7, #12]
 6341 00ea 23F07F43 		bic	r3, r3, #-16777216
 6342 00ee 23F47803 		bic	r3, r3, #16252928
 6343 00f2 002B     		cmp	r3, #0
 6344 00f4 03D0     		beq	.L298
 6345              	.L304:
3209:../Dave/Generated/src/USBLD001/driver/dwc_otg_pcd_intr.c **** 			restart_transfer(pcd, epnum);
 6346              		.loc 2 3209 0 is_stmt 1
 6347 00f6 7868     		ldr	r0, [r7, #4]
 6348 00f8 3968     		ldr	r1, [r7, #0]
 6349 00fa FFF7FEFF 		bl	restart_transfer
 6350              	.L298:
3210:../Dave/Generated/src/USBLD001/driver/dwc_otg_pcd_intr.c **** 		}
3211:../Dave/Generated/src/USBLD001/driver/dwc_otg_pcd_intr.c **** 		DWC_DEBUGPL(DBG_ANY, "STOPPED!!!\n");
3212:../Dave/Generated/src/USBLD001/driver/dwc_otg_pcd_intr.c **** 	}
3213:../Dave/Generated/src/USBLD001/driver/dwc_otg_pcd_intr.c **** }
 6351              		.loc 2 3213 0
 6352 00fe 07F12007 		add	r7, r7, #32
 6353 0102 BD46     		mov	sp, r7
 6354 0104 80BD     		pop	{r7, pc}
 6355              		.cfi_endproc
 6356              	.LFE57:
 6358 0106 00BF     		.section	.text.handle_in_ep_timeout_intr,"ax",%progbits
 6359              		.align	2
 6360              		.thumb
 6361              		.thumb_func
 6363              	handle_in_ep_timeout_intr:
 6364              	.LFB58:
3214:../Dave/Generated/src/USBLD001/driver/dwc_otg_pcd_intr.c **** 
3215:../Dave/Generated/src/USBLD001/driver/dwc_otg_pcd_intr.c **** /**
3216:../Dave/Generated/src/USBLD001/driver/dwc_otg_pcd_intr.c ****  * Handler for the IN EP timeout handshake interrupt.
3217:../Dave/Generated/src/USBLD001/driver/dwc_otg_pcd_intr.c ****  */
3218:../Dave/Generated/src/USBLD001/driver/dwc_otg_pcd_intr.c **** static inline void handle_in_ep_timeout_intr(dwc_otg_pcd_t * pcd,
3219:../Dave/Generated/src/USBLD001/driver/dwc_otg_pcd_intr.c **** 					     const uint32_t epnum)
3220:../Dave/Generated/src/USBLD001/driver/dwc_otg_pcd_intr.c **** {
 6365              		.loc 2 3220 0
 6366              		.cfi_startproc
 6367              		@ args = 0, pretend = 0, frame = 32
 6368              		@ frame_needed = 1, uses_anonymous_args = 0
 6369 0000 80B5     		push	{r7, lr}
 6370              	.LCFI129:
 6371              		.cfi_def_cfa_offset 8
 6372              		.cfi_offset 7, -8
 6373              		.cfi_offset 14, -4
 6374 0002 88B0     		sub	sp, sp, #32
 6375              	.LCFI130:
 6376              		.cfi_def_cfa_offset 40
 6377 0004 00AF     		add	r7, sp, #0
 6378              	.LCFI131:
 6379              		.cfi_def_cfa_register 7
 6380 0006 7860     		str	r0, [r7, #4]
 6381 0008 3960     		str	r1, [r7, #0]
3221:../Dave/Generated/src/USBLD001/driver/dwc_otg_pcd_intr.c **** 	dwc_otg_core_if_t *core_if = GET_CORE_IF(pcd);
 6382              		.loc 2 3221 0
 6383 000a 7B68     		ldr	r3, [r7, #4]
 6384 000c 9B68     		ldr	r3, [r3, #8]
 6385 000e FB61     		str	r3, [r7, #28]
3222:../Dave/Generated/src/USBLD001/driver/dwc_otg_pcd_intr.c **** 	dwc_otg_dev_if_t *dev_if = core_if->dev_if;
 6386              		.loc 2 3222 0
 6387 0010 FB69     		ldr	r3, [r7, #28]
 6388 0012 9B68     		ldr	r3, [r3, #8]
 6389 0014 BB61     		str	r3, [r7, #24]
3223:../Dave/Generated/src/USBLD001/driver/dwc_otg_pcd_intr.c **** 
3224:../Dave/Generated/src/USBLD001/driver/dwc_otg_pcd_intr.c **** #ifdef DEBUG
3225:../Dave/Generated/src/USBLD001/driver/dwc_otg_pcd_intr.c **** 	deptsiz_data_t dieptsiz = {.d32 = 0 };
3226:../Dave/Generated/src/USBLD001/driver/dwc_otg_pcd_intr.c **** 	uint32_t num = 0;
3227:../Dave/Generated/src/USBLD001/driver/dwc_otg_pcd_intr.c **** #endif
3228:../Dave/Generated/src/USBLD001/driver/dwc_otg_pcd_intr.c **** 	dctl_data_t dctl = {.d32 = 0 };
 6390              		.loc 2 3228 0
 6391 0016 4FF00003 		mov	r3, #0
 6392 001a 3B61     		str	r3, [r7, #16]
3229:../Dave/Generated/src/USBLD001/driver/dwc_otg_pcd_intr.c **** 	dwc_otg_pcd_ep_t *ep;
3230:../Dave/Generated/src/USBLD001/driver/dwc_otg_pcd_intr.c **** 
3231:../Dave/Generated/src/USBLD001/driver/dwc_otg_pcd_intr.c **** 	gintmsk_data_t intr_mask = {.d32 = 0 };
 6393              		.loc 2 3231 0
 6394 001c 4FF00003 		mov	r3, #0
 6395 0020 FB60     		str	r3, [r7, #12]
3232:../Dave/Generated/src/USBLD001/driver/dwc_otg_pcd_intr.c **** 
3233:../Dave/Generated/src/USBLD001/driver/dwc_otg_pcd_intr.c **** 	ep = get_in_ep(pcd, epnum);
 6396              		.loc 2 3233 0
 6397 0022 7868     		ldr	r0, [r7, #4]
 6398 0024 3968     		ldr	r1, [r7, #0]
 6399 0026 FFF7FEFF 		bl	get_in_ep
 6400 002a 7861     		str	r0, [r7, #20]
3234:../Dave/Generated/src/USBLD001/driver/dwc_otg_pcd_intr.c **** 
3235:../Dave/Generated/src/USBLD001/driver/dwc_otg_pcd_intr.c **** 	/* Disable the NP Tx Fifo Empty Interrrupt */
3236:../Dave/Generated/src/USBLD001/driver/dwc_otg_pcd_intr.c **** 	if (!core_if->dma_enable) {
 6401              		.loc 2 3236 0
 6402 002c FB69     		ldr	r3, [r7, #28]
 6403 002e 93F84630 		ldrb	r3, [r3, #70]	@ zero_extendqisi2
 6404 0032 002B     		cmp	r3, #0
 6405 0034 0ED1     		bne	.L306
3237:../Dave/Generated/src/USBLD001/driver/dwc_otg_pcd_intr.c **** 		intr_mask.b.nptxfempty = 1;
 6406              		.loc 2 3237 0
 6407 0036 FB68     		ldr	r3, [r7, #12]
 6408 0038 43F02003 		orr	r3, r3, #32
 6409 003c FB60     		str	r3, [r7, #12]
3238:../Dave/Generated/src/USBLD001/driver/dwc_otg_pcd_intr.c **** 		DWC_MODIFY_REG32(&core_if->core_global_regs->gintmsk,
 6410              		.loc 2 3238 0
 6411 003e FB69     		ldr	r3, [r7, #28]
 6412 0040 5B68     		ldr	r3, [r3, #4]
 6413 0042 03F11802 		add	r2, r3, #24
 6414 0046 FB68     		ldr	r3, [r7, #12]
 6415 0048 1046     		mov	r0, r2
 6416 004a 1946     		mov	r1, r3
 6417 004c 4FF00002 		mov	r2, #0
 6418 0050 FFF7FEFF 		bl	DWC_MODIFY_REG32
 6419              	.L306:
3239:../Dave/Generated/src/USBLD001/driver/dwc_otg_pcd_intr.c **** 				 intr_mask.d32, 0);
3240:../Dave/Generated/src/USBLD001/driver/dwc_otg_pcd_intr.c **** 	}
3241:../Dave/Generated/src/USBLD001/driver/dwc_otg_pcd_intr.c **** 	/** @todo NGS Check EP type.
3242:../Dave/Generated/src/USBLD001/driver/dwc_otg_pcd_intr.c **** 	 * Implement for Periodic EPs */
3243:../Dave/Generated/src/USBLD001/driver/dwc_otg_pcd_intr.c **** 	/*
3244:../Dave/Generated/src/USBLD001/driver/dwc_otg_pcd_intr.c **** 	 * Non-periodic EP
3245:../Dave/Generated/src/USBLD001/driver/dwc_otg_pcd_intr.c **** 	 */
3246:../Dave/Generated/src/USBLD001/driver/dwc_otg_pcd_intr.c **** 	/* Enable the Global IN NAK Effective Interrupt */
3247:../Dave/Generated/src/USBLD001/driver/dwc_otg_pcd_intr.c **** 	intr_mask.b.ginnakeff = 1;
 6420              		.loc 2 3247 0
 6421 0054 FB68     		ldr	r3, [r7, #12]
 6422 0056 43F04003 		orr	r3, r3, #64
 6423 005a FB60     		str	r3, [r7, #12]
3248:../Dave/Generated/src/USBLD001/driver/dwc_otg_pcd_intr.c **** 	DWC_MODIFY_REG32(&core_if->core_global_regs->gintmsk, 0, intr_mask.d32);
 6424              		.loc 2 3248 0
 6425 005c FB69     		ldr	r3, [r7, #28]
 6426 005e 5B68     		ldr	r3, [r3, #4]
 6427 0060 03F11802 		add	r2, r3, #24
 6428 0064 FB68     		ldr	r3, [r7, #12]
 6429 0066 1046     		mov	r0, r2
 6430 0068 4FF00001 		mov	r1, #0
 6431 006c 1A46     		mov	r2, r3
 6432 006e FFF7FEFF 		bl	DWC_MODIFY_REG32
3249:../Dave/Generated/src/USBLD001/driver/dwc_otg_pcd_intr.c **** 
3250:../Dave/Generated/src/USBLD001/driver/dwc_otg_pcd_intr.c **** 	/* Set Global IN NAK */
3251:../Dave/Generated/src/USBLD001/driver/dwc_otg_pcd_intr.c **** 	dctl.b.sgnpinnak = 1;
 6433              		.loc 2 3251 0
 6434 0072 3B69     		ldr	r3, [r7, #16]
 6435 0074 43F08003 		orr	r3, r3, #128
 6436 0078 3B61     		str	r3, [r7, #16]
3252:../Dave/Generated/src/USBLD001/driver/dwc_otg_pcd_intr.c **** 	DWC_MODIFY_REG32(&dev_if->dev_global_regs->dctl, dctl.d32, dctl.d32);
 6437              		.loc 2 3252 0
 6438 007a BB69     		ldr	r3, [r7, #24]
 6439 007c 1B68     		ldr	r3, [r3, #0]
 6440 007e 03F10401 		add	r1, r3, #4
 6441 0082 3A69     		ldr	r2, [r7, #16]
 6442 0084 3B69     		ldr	r3, [r7, #16]
 6443 0086 0846     		mov	r0, r1
 6444 0088 1146     		mov	r1, r2
 6445 008a 1A46     		mov	r2, r3
 6446 008c FFF7FEFF 		bl	DWC_MODIFY_REG32
3253:../Dave/Generated/src/USBLD001/driver/dwc_otg_pcd_intr.c **** 
3254:../Dave/Generated/src/USBLD001/driver/dwc_otg_pcd_intr.c **** 	ep->stopped = 1;
 6447              		.loc 2 3254 0
 6448 0090 7A69     		ldr	r2, [r7, #20]
 6449 0092 137B     		ldrb	r3, [r2, #12]
 6450 0094 43F00103 		orr	r3, r3, #1
 6451 0098 1373     		strb	r3, [r2, #12]
3255:../Dave/Generated/src/USBLD001/driver/dwc_otg_pcd_intr.c **** 
3256:../Dave/Generated/src/USBLD001/driver/dwc_otg_pcd_intr.c **** #ifdef DEBUG
3257:../Dave/Generated/src/USBLD001/driver/dwc_otg_pcd_intr.c **** 	dieptsiz.d32 = DWC_READ_REG32(&dev_if->in_ep_regs[num]->dieptsiz);
3258:../Dave/Generated/src/USBLD001/driver/dwc_otg_pcd_intr.c **** 	DWC_DEBUGPL(DBG_ANY, "pktcnt=%d size=%d\n",
3259:../Dave/Generated/src/USBLD001/driver/dwc_otg_pcd_intr.c **** 		    dieptsiz.b.pktcnt, dieptsiz.b.xfersize);
3260:../Dave/Generated/src/USBLD001/driver/dwc_otg_pcd_intr.c **** #endif
3261:../Dave/Generated/src/USBLD001/driver/dwc_otg_pcd_intr.c **** 
3262:../Dave/Generated/src/USBLD001/driver/dwc_otg_pcd_intr.c **** #ifdef DISABLE_PERIODIC_EP
3263:../Dave/Generated/src/USBLD001/driver/dwc_otg_pcd_intr.c **** 	/*
3264:../Dave/Generated/src/USBLD001/driver/dwc_otg_pcd_intr.c **** 	 * Set the NAK bit for this EP to
3265:../Dave/Generated/src/USBLD001/driver/dwc_otg_pcd_intr.c **** 	 * start the disable process.
3266:../Dave/Generated/src/USBLD001/driver/dwc_otg_pcd_intr.c **** 	 */
3267:../Dave/Generated/src/USBLD001/driver/dwc_otg_pcd_intr.c **** 	diepctl.d32 = 0;
3268:../Dave/Generated/src/USBLD001/driver/dwc_otg_pcd_intr.c **** 	diepctl.b.snak = 1;
3269:../Dave/Generated/src/USBLD001/driver/dwc_otg_pcd_intr.c **** 	DWC_MODIFY_REG32(&dev_if->in_ep_regs[num]->diepctl, diepctl.d32,
3270:../Dave/Generated/src/USBLD001/driver/dwc_otg_pcd_intr.c **** 			 diepctl.d32);
3271:../Dave/Generated/src/USBLD001/driver/dwc_otg_pcd_intr.c **** 	ep->disabling = 1;
3272:../Dave/Generated/src/USBLD001/driver/dwc_otg_pcd_intr.c **** 	ep->stopped = 1;
3273:../Dave/Generated/src/USBLD001/driver/dwc_otg_pcd_intr.c **** #endif
3274:../Dave/Generated/src/USBLD001/driver/dwc_otg_pcd_intr.c **** }
 6452              		.loc 2 3274 0
 6453 009a 07F12007 		add	r7, r7, #32
 6454 009e BD46     		mov	sp, r7
 6455 00a0 80BD     		pop	{r7, pc}
 6456              		.cfi_endproc
 6457              	.LFE58:
 6459 00a2 00BF     		.section	.text.handle_in_ep_nak_intr,"ax",%progbits
 6460              		.align	2
 6461              		.thumb
 6462              		.thumb_func
 6464              	handle_in_ep_nak_intr:
 6465              	.LFB59:
3275:../Dave/Generated/src/USBLD001/driver/dwc_otg_pcd_intr.c **** 
3276:../Dave/Generated/src/USBLD001/driver/dwc_otg_pcd_intr.c **** /**
3277:../Dave/Generated/src/USBLD001/driver/dwc_otg_pcd_intr.c ****  * Handler for the IN EP NAK interrupt.
3278:../Dave/Generated/src/USBLD001/driver/dwc_otg_pcd_intr.c ****  */
3279:../Dave/Generated/src/USBLD001/driver/dwc_otg_pcd_intr.c **** static inline int32_t handle_in_ep_nak_intr(dwc_otg_pcd_t * pcd,
3280:../Dave/Generated/src/USBLD001/driver/dwc_otg_pcd_intr.c **** 					    const uint32_t epnum)
3281:../Dave/Generated/src/USBLD001/driver/dwc_otg_pcd_intr.c **** {
 6466              		.loc 2 3281 0
 6467              		.cfi_startproc
 6468              		@ args = 0, pretend = 0, frame = 16
 6469              		@ frame_needed = 1, uses_anonymous_args = 0
 6470 0000 80B5     		push	{r7, lr}
 6471              	.LCFI132:
 6472              		.cfi_def_cfa_offset 8
 6473              		.cfi_offset 7, -8
 6474              		.cfi_offset 14, -4
 6475 0002 84B0     		sub	sp, sp, #16
 6476              	.LCFI133:
 6477              		.cfi_def_cfa_offset 24
 6478 0004 00AF     		add	r7, sp, #0
 6479              	.LCFI134:
 6480              		.cfi_def_cfa_register 7
 6481 0006 7860     		str	r0, [r7, #4]
 6482 0008 3960     		str	r1, [r7, #0]
3282:../Dave/Generated/src/USBLD001/driver/dwc_otg_pcd_intr.c **** 	/** @todo implement ISR */
3283:../Dave/Generated/src/USBLD001/driver/dwc_otg_pcd_intr.c **** 	dwc_otg_core_if_t *core_if;
3284:../Dave/Generated/src/USBLD001/driver/dwc_otg_pcd_intr.c **** 	diepmsk_data_t intr_mask = {.d32 = 0 };
 6483              		.loc 2 3284 0
 6484 000a 4FF00003 		mov	r3, #0
 6485 000e BB60     		str	r3, [r7, #8]
3285:../Dave/Generated/src/USBLD001/driver/dwc_otg_pcd_intr.c **** 
3286:../Dave/Generated/src/USBLD001/driver/dwc_otg_pcd_intr.c **** 	DWC_PRINTF("INTERRUPT Handler not implemented for %s\n", "IN EP NAK");
3287:../Dave/Generated/src/USBLD001/driver/dwc_otg_pcd_intr.c **** 	core_if = GET_CORE_IF(pcd);
 6486              		.loc 2 3287 0
 6487 0010 7B68     		ldr	r3, [r7, #4]
 6488 0012 9B68     		ldr	r3, [r3, #8]
 6489 0014 FB60     		str	r3, [r7, #12]
3288:../Dave/Generated/src/USBLD001/driver/dwc_otg_pcd_intr.c **** 	intr_mask.b.nak = 1;
 6490              		.loc 2 3288 0
 6491 0016 BB68     		ldr	r3, [r7, #8]
 6492 0018 43F40053 		orr	r3, r3, #8192
 6493 001c BB60     		str	r3, [r7, #8]
3289:../Dave/Generated/src/USBLD001/driver/dwc_otg_pcd_intr.c **** 
3290:../Dave/Generated/src/USBLD001/driver/dwc_otg_pcd_intr.c **** 	if (core_if->multiproc_int_enable) {
 6494              		.loc 2 3290 0
 6495 001e FB68     		ldr	r3, [r7, #12]
 6496 0020 93F84930 		ldrb	r3, [r3, #73]	@ zero_extendqisi2
 6497 0024 002B     		cmp	r3, #0
 6498 0026 10D0     		beq	.L308
3291:../Dave/Generated/src/USBLD001/driver/dwc_otg_pcd_intr.c **** 		DWC_MODIFY_REG32(&core_if->dev_if->dev_global_regs->
 6499              		.loc 2 3291 0
 6500 0028 FB68     		ldr	r3, [r7, #12]
 6501 002a 9B68     		ldr	r3, [r3, #8]
 6502 002c 1A68     		ldr	r2, [r3, #0]
 6503 002e 3B68     		ldr	r3, [r7, #0]
 6504 0030 03F11003 		add	r3, r3, #16
 6505 0034 4FEA8303 		lsl	r3, r3, #2
 6506 0038 D218     		adds	r2, r2, r3
 6507 003a BB68     		ldr	r3, [r7, #8]
 6508 003c 1046     		mov	r0, r2
 6509 003e 1946     		mov	r1, r3
 6510 0040 4FF00002 		mov	r2, #0
 6511 0044 FFF7FEFF 		bl	DWC_MODIFY_REG32
 6512 0048 0BE0     		b	.L309
 6513              	.L308:
3292:../Dave/Generated/src/USBLD001/driver/dwc_otg_pcd_intr.c **** 				 diepeachintmsk[epnum], intr_mask.d32, 0);
3293:../Dave/Generated/src/USBLD001/driver/dwc_otg_pcd_intr.c **** 	} else {
3294:../Dave/Generated/src/USBLD001/driver/dwc_otg_pcd_intr.c **** 		DWC_MODIFY_REG32(&core_if->dev_if->dev_global_regs->diepmsk,
 6514              		.loc 2 3294 0
 6515 004a FB68     		ldr	r3, [r7, #12]
 6516 004c 9B68     		ldr	r3, [r3, #8]
 6517 004e 1B68     		ldr	r3, [r3, #0]
 6518 0050 03F11002 		add	r2, r3, #16
 6519 0054 BB68     		ldr	r3, [r7, #8]
 6520 0056 1046     		mov	r0, r2
 6521 0058 1946     		mov	r1, r3
 6522 005a 4FF00002 		mov	r2, #0
 6523 005e FFF7FEFF 		bl	DWC_MODIFY_REG32
 6524              	.L309:
3295:../Dave/Generated/src/USBLD001/driver/dwc_otg_pcd_intr.c **** 				 intr_mask.d32, 0);
3296:../Dave/Generated/src/USBLD001/driver/dwc_otg_pcd_intr.c **** 	}
3297:../Dave/Generated/src/USBLD001/driver/dwc_otg_pcd_intr.c **** 
3298:../Dave/Generated/src/USBLD001/driver/dwc_otg_pcd_intr.c **** 	return 1;
 6525              		.loc 2 3298 0
 6526 0062 4FF00103 		mov	r3, #1
3299:../Dave/Generated/src/USBLD001/driver/dwc_otg_pcd_intr.c **** }
 6527              		.loc 2 3299 0
 6528 0066 1846     		mov	r0, r3
 6529 0068 07F11007 		add	r7, r7, #16
 6530 006c BD46     		mov	sp, r7
 6531 006e 80BD     		pop	{r7, pc}
 6532              		.cfi_endproc
 6533              	.LFE59:
 6535              		.section	.text.handle_out_ep_babble_intr,"ax",%progbits
 6536              		.align	2
 6537              		.thumb
 6538              		.thumb_func
 6540              	handle_out_ep_babble_intr:
 6541              	.LFB60:
3300:../Dave/Generated/src/USBLD001/driver/dwc_otg_pcd_intr.c **** 
3301:../Dave/Generated/src/USBLD001/driver/dwc_otg_pcd_intr.c **** /**
3302:../Dave/Generated/src/USBLD001/driver/dwc_otg_pcd_intr.c ****  * Handler for the OUT EP Babble interrupt.
3303:../Dave/Generated/src/USBLD001/driver/dwc_otg_pcd_intr.c ****  */
3304:../Dave/Generated/src/USBLD001/driver/dwc_otg_pcd_intr.c **** static inline int32_t handle_out_ep_babble_intr(dwc_otg_pcd_t * pcd,
3305:../Dave/Generated/src/USBLD001/driver/dwc_otg_pcd_intr.c **** 						const uint32_t epnum)
3306:../Dave/Generated/src/USBLD001/driver/dwc_otg_pcd_intr.c **** {
 6542              		.loc 2 3306 0
 6543              		.cfi_startproc
 6544              		@ args = 0, pretend = 0, frame = 16
 6545              		@ frame_needed = 1, uses_anonymous_args = 0
 6546 0000 80B5     		push	{r7, lr}
 6547              	.LCFI135:
 6548              		.cfi_def_cfa_offset 8
 6549              		.cfi_offset 7, -8
 6550              		.cfi_offset 14, -4
 6551 0002 84B0     		sub	sp, sp, #16
 6552              	.LCFI136:
 6553              		.cfi_def_cfa_offset 24
 6554 0004 00AF     		add	r7, sp, #0
 6555              	.LCFI137:
 6556              		.cfi_def_cfa_register 7
 6557 0006 7860     		str	r0, [r7, #4]
 6558 0008 3960     		str	r1, [r7, #0]
3307:../Dave/Generated/src/USBLD001/driver/dwc_otg_pcd_intr.c **** 	/** @todo implement ISR */
3308:../Dave/Generated/src/USBLD001/driver/dwc_otg_pcd_intr.c **** 	dwc_otg_core_if_t *core_if;
3309:../Dave/Generated/src/USBLD001/driver/dwc_otg_pcd_intr.c **** 	doepmsk_data_t intr_mask = {.d32 = 0 };
 6559              		.loc 2 3309 0
 6560 000a 4FF00003 		mov	r3, #0
 6561 000e BB60     		str	r3, [r7, #8]
3310:../Dave/Generated/src/USBLD001/driver/dwc_otg_pcd_intr.c **** 
3311:../Dave/Generated/src/USBLD001/driver/dwc_otg_pcd_intr.c **** 	DWC_PRINTF("INTERRUPT Handler not implemented for %s\n",
3312:../Dave/Generated/src/USBLD001/driver/dwc_otg_pcd_intr.c **** 		   "OUT EP Babble");
3313:../Dave/Generated/src/USBLD001/driver/dwc_otg_pcd_intr.c **** 	core_if = GET_CORE_IF(pcd);
 6562              		.loc 2 3313 0
 6563 0010 7B68     		ldr	r3, [r7, #4]
 6564 0012 9B68     		ldr	r3, [r3, #8]
 6565 0014 FB60     		str	r3, [r7, #12]
3314:../Dave/Generated/src/USBLD001/driver/dwc_otg_pcd_intr.c **** 	intr_mask.b.babble = 1;
 6566              		.loc 2 3314 0
 6567 0016 BB68     		ldr	r3, [r7, #8]
 6568 0018 43F48053 		orr	r3, r3, #4096
 6569 001c BB60     		str	r3, [r7, #8]
3315:../Dave/Generated/src/USBLD001/driver/dwc_otg_pcd_intr.c **** 
3316:../Dave/Generated/src/USBLD001/driver/dwc_otg_pcd_intr.c **** 	if (core_if->multiproc_int_enable) {
 6570              		.loc 2 3316 0
 6571 001e FB68     		ldr	r3, [r7, #12]
 6572 0020 93F84930 		ldrb	r3, [r3, #73]	@ zero_extendqisi2
 6573 0024 002B     		cmp	r3, #0
 6574 0026 10D0     		beq	.L312
3317:../Dave/Generated/src/USBLD001/driver/dwc_otg_pcd_intr.c **** 		DWC_MODIFY_REG32(&core_if->dev_if->dev_global_regs->
 6575              		.loc 2 3317 0
 6576 0028 FB68     		ldr	r3, [r7, #12]
 6577 002a 9B68     		ldr	r3, [r3, #8]
 6578 002c 1A68     		ldr	r2, [r3, #0]
 6579 002e 3B68     		ldr	r3, [r7, #0]
 6580 0030 03F11803 		add	r3, r3, #24
 6581 0034 4FEA8303 		lsl	r3, r3, #2
 6582 0038 D218     		adds	r2, r2, r3
 6583 003a BB68     		ldr	r3, [r7, #8]
 6584 003c 1046     		mov	r0, r2
 6585 003e 1946     		mov	r1, r3
 6586 0040 4FF00002 		mov	r2, #0
 6587 0044 FFF7FEFF 		bl	DWC_MODIFY_REG32
 6588 0048 0BE0     		b	.L313
 6589              	.L312:
3318:../Dave/Generated/src/USBLD001/driver/dwc_otg_pcd_intr.c **** 				 doepeachintmsk[epnum], intr_mask.d32, 0);
3319:../Dave/Generated/src/USBLD001/driver/dwc_otg_pcd_intr.c **** 	} else {
3320:../Dave/Generated/src/USBLD001/driver/dwc_otg_pcd_intr.c **** 		DWC_MODIFY_REG32(&core_if->dev_if->dev_global_regs->doepmsk,
 6590              		.loc 2 3320 0
 6591 004a FB68     		ldr	r3, [r7, #12]
 6592 004c 9B68     		ldr	r3, [r3, #8]
 6593 004e 1B68     		ldr	r3, [r3, #0]
 6594 0050 03F11402 		add	r2, r3, #20
 6595 0054 BB68     		ldr	r3, [r7, #8]
 6596 0056 1046     		mov	r0, r2
 6597 0058 1946     		mov	r1, r3
 6598 005a 4FF00002 		mov	r2, #0
 6599 005e FFF7FEFF 		bl	DWC_MODIFY_REG32
 6600              	.L313:
3321:../Dave/Generated/src/USBLD001/driver/dwc_otg_pcd_intr.c **** 				 intr_mask.d32, 0);
3322:../Dave/Generated/src/USBLD001/driver/dwc_otg_pcd_intr.c **** 	}
3323:../Dave/Generated/src/USBLD001/driver/dwc_otg_pcd_intr.c **** 
3324:../Dave/Generated/src/USBLD001/driver/dwc_otg_pcd_intr.c **** 	return 1;
 6601              		.loc 2 3324 0
 6602 0062 4FF00103 		mov	r3, #1
3325:../Dave/Generated/src/USBLD001/driver/dwc_otg_pcd_intr.c **** }
 6603              		.loc 2 3325 0
 6604 0066 1846     		mov	r0, r3
 6605 0068 07F11007 		add	r7, r7, #16
 6606 006c BD46     		mov	sp, r7
 6607 006e 80BD     		pop	{r7, pc}
 6608              		.cfi_endproc
 6609              	.LFE60:
 6611              		.section	.text.handle_out_ep_nak_intr,"ax",%progbits
 6612              		.align	2
 6613              		.thumb
 6614              		.thumb_func
 6616              	handle_out_ep_nak_intr:
 6617              	.LFB61:
3326:../Dave/Generated/src/USBLD001/driver/dwc_otg_pcd_intr.c **** 
3327:../Dave/Generated/src/USBLD001/driver/dwc_otg_pcd_intr.c **** /**
3328:../Dave/Generated/src/USBLD001/driver/dwc_otg_pcd_intr.c ****  * Handler for the OUT EP NAK interrupt.
3329:../Dave/Generated/src/USBLD001/driver/dwc_otg_pcd_intr.c ****  */
3330:../Dave/Generated/src/USBLD001/driver/dwc_otg_pcd_intr.c **** static inline int32_t handle_out_ep_nak_intr(dwc_otg_pcd_t * pcd,
3331:../Dave/Generated/src/USBLD001/driver/dwc_otg_pcd_intr.c **** 					     const uint32_t epnum)
3332:../Dave/Generated/src/USBLD001/driver/dwc_otg_pcd_intr.c **** {
 6618              		.loc 2 3332 0
 6619              		.cfi_startproc
 6620              		@ args = 0, pretend = 0, frame = 16
 6621              		@ frame_needed = 1, uses_anonymous_args = 0
 6622 0000 80B5     		push	{r7, lr}
 6623              	.LCFI138:
 6624              		.cfi_def_cfa_offset 8
 6625              		.cfi_offset 7, -8
 6626              		.cfi_offset 14, -4
 6627 0002 84B0     		sub	sp, sp, #16
 6628              	.LCFI139:
 6629              		.cfi_def_cfa_offset 24
 6630 0004 00AF     		add	r7, sp, #0
 6631              	.LCFI140:
 6632              		.cfi_def_cfa_register 7
 6633 0006 7860     		str	r0, [r7, #4]
 6634 0008 3960     		str	r1, [r7, #0]
3333:../Dave/Generated/src/USBLD001/driver/dwc_otg_pcd_intr.c **** 	/** @todo implement ISR */
3334:../Dave/Generated/src/USBLD001/driver/dwc_otg_pcd_intr.c **** 	dwc_otg_core_if_t *core_if;
3335:../Dave/Generated/src/USBLD001/driver/dwc_otg_pcd_intr.c **** 	doepmsk_data_t intr_mask = {.d32 = 0 };
 6635              		.loc 2 3335 0
 6636 000a 4FF00003 		mov	r3, #0
 6637 000e BB60     		str	r3, [r7, #8]
3336:../Dave/Generated/src/USBLD001/driver/dwc_otg_pcd_intr.c **** 
3337:../Dave/Generated/src/USBLD001/driver/dwc_otg_pcd_intr.c **** 	DWC_PRINTF("INTERRUPT Handler not implemented for %s\n", "OUT EP NAK");
3338:../Dave/Generated/src/USBLD001/driver/dwc_otg_pcd_intr.c **** 	core_if = GET_CORE_IF(pcd);
 6638              		.loc 2 3338 0
 6639 0010 7B68     		ldr	r3, [r7, #4]
 6640 0012 9B68     		ldr	r3, [r3, #8]
 6641 0014 FB60     		str	r3, [r7, #12]
3339:../Dave/Generated/src/USBLD001/driver/dwc_otg_pcd_intr.c **** 	intr_mask.b.nak = 1;
 6642              		.loc 2 3339 0
 6643 0016 BB68     		ldr	r3, [r7, #8]
 6644 0018 43F40053 		orr	r3, r3, #8192
 6645 001c BB60     		str	r3, [r7, #8]
3340:../Dave/Generated/src/USBLD001/driver/dwc_otg_pcd_intr.c **** 
3341:../Dave/Generated/src/USBLD001/driver/dwc_otg_pcd_intr.c **** 	if (core_if->multiproc_int_enable) {
 6646              		.loc 2 3341 0
 6647 001e FB68     		ldr	r3, [r7, #12]
 6648 0020 93F84930 		ldrb	r3, [r3, #73]	@ zero_extendqisi2
 6649 0024 002B     		cmp	r3, #0
 6650 0026 10D0     		beq	.L316
3342:../Dave/Generated/src/USBLD001/driver/dwc_otg_pcd_intr.c **** 		DWC_MODIFY_REG32(&core_if->dev_if->dev_global_regs->
 6651              		.loc 2 3342 0
 6652 0028 FB68     		ldr	r3, [r7, #12]
 6653 002a 9B68     		ldr	r3, [r3, #8]
 6654 002c 1A68     		ldr	r2, [r3, #0]
 6655 002e 3B68     		ldr	r3, [r7, #0]
 6656 0030 03F11803 		add	r3, r3, #24
 6657 0034 4FEA8303 		lsl	r3, r3, #2
 6658 0038 D218     		adds	r2, r2, r3
 6659 003a BB68     		ldr	r3, [r7, #8]
 6660 003c 1046     		mov	r0, r2
 6661 003e 1946     		mov	r1, r3
 6662 0040 4FF00002 		mov	r2, #0
 6663 0044 FFF7FEFF 		bl	DWC_MODIFY_REG32
 6664 0048 0BE0     		b	.L317
 6665              	.L316:
3343:../Dave/Generated/src/USBLD001/driver/dwc_otg_pcd_intr.c **** 				 doepeachintmsk[epnum], intr_mask.d32, 0);
3344:../Dave/Generated/src/USBLD001/driver/dwc_otg_pcd_intr.c **** 	} else {
3345:../Dave/Generated/src/USBLD001/driver/dwc_otg_pcd_intr.c **** 		DWC_MODIFY_REG32(&core_if->dev_if->dev_global_regs->doepmsk,
 6666              		.loc 2 3345 0
 6667 004a FB68     		ldr	r3, [r7, #12]
 6668 004c 9B68     		ldr	r3, [r3, #8]
 6669 004e 1B68     		ldr	r3, [r3, #0]
 6670 0050 03F11402 		add	r2, r3, #20
 6671 0054 BB68     		ldr	r3, [r7, #8]
 6672 0056 1046     		mov	r0, r2
 6673 0058 1946     		mov	r1, r3
 6674 005a 4FF00002 		mov	r2, #0
 6675 005e FFF7FEFF 		bl	DWC_MODIFY_REG32
 6676              	.L317:
3346:../Dave/Generated/src/USBLD001/driver/dwc_otg_pcd_intr.c **** 				 intr_mask.d32, 0);
3347:../Dave/Generated/src/USBLD001/driver/dwc_otg_pcd_intr.c **** 	}
3348:../Dave/Generated/src/USBLD001/driver/dwc_otg_pcd_intr.c **** 
3349:../Dave/Generated/src/USBLD001/driver/dwc_otg_pcd_intr.c **** 	return 1;
 6677              		.loc 2 3349 0
 6678 0062 4FF00103 		mov	r3, #1
3350:../Dave/Generated/src/USBLD001/driver/dwc_otg_pcd_intr.c **** }
 6679              		.loc 2 3350 0
 6680 0066 1846     		mov	r0, r3
 6681 0068 07F11007 		add	r7, r7, #16
 6682 006c BD46     		mov	sp, r7
 6683 006e 80BD     		pop	{r7, pc}
 6684              		.cfi_endproc
 6685              	.LFE61:
 6687              		.section	.text.handle_out_ep_nyet_intr,"ax",%progbits
 6688              		.align	2
 6689              		.thumb
 6690              		.thumb_func
 6692              	handle_out_ep_nyet_intr:
 6693              	.LFB62:
3351:../Dave/Generated/src/USBLD001/driver/dwc_otg_pcd_intr.c **** 
3352:../Dave/Generated/src/USBLD001/driver/dwc_otg_pcd_intr.c **** /**
3353:../Dave/Generated/src/USBLD001/driver/dwc_otg_pcd_intr.c ****  * Handler for the OUT EP NYET interrupt.
3354:../Dave/Generated/src/USBLD001/driver/dwc_otg_pcd_intr.c ****  */
3355:../Dave/Generated/src/USBLD001/driver/dwc_otg_pcd_intr.c **** static inline int32_t handle_out_ep_nyet_intr(dwc_otg_pcd_t * pcd,
3356:../Dave/Generated/src/USBLD001/driver/dwc_otg_pcd_intr.c **** 					      const uint32_t epnum)
3357:../Dave/Generated/src/USBLD001/driver/dwc_otg_pcd_intr.c **** {
 6694              		.loc 2 3357 0
 6695              		.cfi_startproc
 6696              		@ args = 0, pretend = 0, frame = 16
 6697              		@ frame_needed = 1, uses_anonymous_args = 0
 6698 0000 80B5     		push	{r7, lr}
 6699              	.LCFI141:
 6700              		.cfi_def_cfa_offset 8
 6701              		.cfi_offset 7, -8
 6702              		.cfi_offset 14, -4
 6703 0002 84B0     		sub	sp, sp, #16
 6704              	.LCFI142:
 6705              		.cfi_def_cfa_offset 24
 6706 0004 00AF     		add	r7, sp, #0
 6707              	.LCFI143:
 6708              		.cfi_def_cfa_register 7
 6709 0006 7860     		str	r0, [r7, #4]
 6710 0008 3960     		str	r1, [r7, #0]
3358:../Dave/Generated/src/USBLD001/driver/dwc_otg_pcd_intr.c **** 	/** @todo implement ISR */
3359:../Dave/Generated/src/USBLD001/driver/dwc_otg_pcd_intr.c **** 	dwc_otg_core_if_t *core_if;
3360:../Dave/Generated/src/USBLD001/driver/dwc_otg_pcd_intr.c **** 	doepmsk_data_t intr_mask = {.d32 = 0 };
 6711              		.loc 2 3360 0
 6712 000a 4FF00003 		mov	r3, #0
 6713 000e BB60     		str	r3, [r7, #8]
3361:../Dave/Generated/src/USBLD001/driver/dwc_otg_pcd_intr.c **** 
3362:../Dave/Generated/src/USBLD001/driver/dwc_otg_pcd_intr.c **** 	DWC_PRINTF("INTERRUPT Handler not implemented for %s\n", "OUT EP NYET");
3363:../Dave/Generated/src/USBLD001/driver/dwc_otg_pcd_intr.c **** 	core_if = GET_CORE_IF(pcd);
 6714              		.loc 2 3363 0
 6715 0010 7B68     		ldr	r3, [r7, #4]
 6716 0012 9B68     		ldr	r3, [r3, #8]
 6717 0014 FB60     		str	r3, [r7, #12]
3364:../Dave/Generated/src/USBLD001/driver/dwc_otg_pcd_intr.c **** 	intr_mask.b.nyet = 1;
 6718              		.loc 2 3364 0
 6719 0016 BB68     		ldr	r3, [r7, #8]
 6720 0018 43F48043 		orr	r3, r3, #16384
 6721 001c BB60     		str	r3, [r7, #8]
3365:../Dave/Generated/src/USBLD001/driver/dwc_otg_pcd_intr.c **** 
3366:../Dave/Generated/src/USBLD001/driver/dwc_otg_pcd_intr.c **** 	if (core_if->multiproc_int_enable) {
 6722              		.loc 2 3366 0
 6723 001e FB68     		ldr	r3, [r7, #12]
 6724 0020 93F84930 		ldrb	r3, [r3, #73]	@ zero_extendqisi2
 6725 0024 002B     		cmp	r3, #0
 6726 0026 10D0     		beq	.L320
3367:../Dave/Generated/src/USBLD001/driver/dwc_otg_pcd_intr.c **** 		DWC_MODIFY_REG32(&core_if->dev_if->dev_global_regs->
 6727              		.loc 2 3367 0
 6728 0028 FB68     		ldr	r3, [r7, #12]
 6729 002a 9B68     		ldr	r3, [r3, #8]
 6730 002c 1A68     		ldr	r2, [r3, #0]
 6731 002e 3B68     		ldr	r3, [r7, #0]
 6732 0030 03F11803 		add	r3, r3, #24
 6733 0034 4FEA8303 		lsl	r3, r3, #2
 6734 0038 D218     		adds	r2, r2, r3
 6735 003a BB68     		ldr	r3, [r7, #8]
 6736 003c 1046     		mov	r0, r2
 6737 003e 1946     		mov	r1, r3
 6738 0040 4FF00002 		mov	r2, #0
 6739 0044 FFF7FEFF 		bl	DWC_MODIFY_REG32
 6740 0048 0BE0     		b	.L321
 6741              	.L320:
3368:../Dave/Generated/src/USBLD001/driver/dwc_otg_pcd_intr.c **** 				 doepeachintmsk[epnum], intr_mask.d32, 0);
3369:../Dave/Generated/src/USBLD001/driver/dwc_otg_pcd_intr.c **** 	} else {
3370:../Dave/Generated/src/USBLD001/driver/dwc_otg_pcd_intr.c **** 		DWC_MODIFY_REG32(&core_if->dev_if->dev_global_regs->doepmsk,
 6742              		.loc 2 3370 0
 6743 004a FB68     		ldr	r3, [r7, #12]
 6744 004c 9B68     		ldr	r3, [r3, #8]
 6745 004e 1B68     		ldr	r3, [r3, #0]
 6746 0050 03F11402 		add	r2, r3, #20
 6747 0054 BB68     		ldr	r3, [r7, #8]
 6748 0056 1046     		mov	r0, r2
 6749 0058 1946     		mov	r1, r3
 6750 005a 4FF00002 		mov	r2, #0
 6751 005e FFF7FEFF 		bl	DWC_MODIFY_REG32
 6752              	.L321:
3371:../Dave/Generated/src/USBLD001/driver/dwc_otg_pcd_intr.c **** 				 intr_mask.d32, 0);
3372:../Dave/Generated/src/USBLD001/driver/dwc_otg_pcd_intr.c **** 	}
3373:../Dave/Generated/src/USBLD001/driver/dwc_otg_pcd_intr.c **** 
3374:../Dave/Generated/src/USBLD001/driver/dwc_otg_pcd_intr.c **** 	return 1;
 6753              		.loc 2 3374 0
 6754 0062 4FF00103 		mov	r3, #1
3375:../Dave/Generated/src/USBLD001/driver/dwc_otg_pcd_intr.c **** }
 6755              		.loc 2 3375 0
 6756 0066 1846     		mov	r0, r3
 6757 0068 07F11007 		add	r7, r7, #16
 6758 006c BD46     		mov	sp, r7
 6759 006e 80BD     		pop	{r7, pc}
 6760              		.cfi_endproc
 6761              	.LFE62:
 6763              		.section	.text.dwc_otg_pcd_handle_in_ep_intr,"ax",%progbits
 6764              		.align	2
 6765              		.thumb
 6766              		.thumb_func
 6768              	dwc_otg_pcd_handle_in_ep_intr:
 6769              	.LFB63:
3376:../Dave/Generated/src/USBLD001/driver/dwc_otg_pcd_intr.c **** 
3377:../Dave/Generated/src/USBLD001/driver/dwc_otg_pcd_intr.c **** /**
3378:../Dave/Generated/src/USBLD001/driver/dwc_otg_pcd_intr.c ****  * This interrupt indicates that an IN EP has a pending Interrupt.
3379:../Dave/Generated/src/USBLD001/driver/dwc_otg_pcd_intr.c ****  * The sequence for handling the IN EP interrupt is shown below:
3380:../Dave/Generated/src/USBLD001/driver/dwc_otg_pcd_intr.c ****  * -#	Read the Device All Endpoint Interrupt register
3381:../Dave/Generated/src/USBLD001/driver/dwc_otg_pcd_intr.c ****  * -#	Repeat the following for each IN EP interrupt bit set (from
3382:../Dave/Generated/src/USBLD001/driver/dwc_otg_pcd_intr.c ****  *		LSB to MSB).
3383:../Dave/Generated/src/USBLD001/driver/dwc_otg_pcd_intr.c ****  * -#	Read the Device Endpoint Interrupt (DIEPINTn) register
3384:../Dave/Generated/src/USBLD001/driver/dwc_otg_pcd_intr.c ****  * -#	If "Transfer Complete" call the request complete function
3385:../Dave/Generated/src/USBLD001/driver/dwc_otg_pcd_intr.c ****  * -#	If "Endpoint Disabled" complete the EP disable procedure.
3386:../Dave/Generated/src/USBLD001/driver/dwc_otg_pcd_intr.c ****  * -#	If "AHB Error Interrupt" log error
3387:../Dave/Generated/src/USBLD001/driver/dwc_otg_pcd_intr.c ****  * -#	If "Time-out Handshake" log error
3388:../Dave/Generated/src/USBLD001/driver/dwc_otg_pcd_intr.c ****  * -#	If "IN Token Received when TxFIFO Empty" write packet to Tx
3389:../Dave/Generated/src/USBLD001/driver/dwc_otg_pcd_intr.c ****  *		FIFO.
3390:../Dave/Generated/src/USBLD001/driver/dwc_otg_pcd_intr.c ****  * -#	If "IN Token EP Mismatch" (disable, this is handled by EP
3391:../Dave/Generated/src/USBLD001/driver/dwc_otg_pcd_intr.c ****  *		Mismatch Interrupt)
3392:../Dave/Generated/src/USBLD001/driver/dwc_otg_pcd_intr.c ****  */
3393:../Dave/Generated/src/USBLD001/driver/dwc_otg_pcd_intr.c **** static int32_t dwc_otg_pcd_handle_in_ep_intr(dwc_otg_pcd_t * pcd)
3394:../Dave/Generated/src/USBLD001/driver/dwc_otg_pcd_intr.c **** {
 6770              		.loc 2 3394 0
 6771              		.cfi_startproc
 6772              		@ args = 0, pretend = 0, frame = 96
 6773              		@ frame_needed = 1, uses_anonymous_args = 0
 6774 0000 80B5     		push	{r7, lr}
 6775              	.LCFI144:
 6776              		.cfi_def_cfa_offset 8
 6777              		.cfi_offset 7, -8
 6778              		.cfi_offset 14, -4
 6779 0002 98B0     		sub	sp, sp, #96
 6780              	.LCFI145:
 6781              		.cfi_def_cfa_offset 104
 6782 0004 00AF     		add	r7, sp, #0
 6783              	.LCFI146:
 6784              		.cfi_def_cfa_register 7
 6785 0006 7860     		str	r0, [r7, #4]
3395:../Dave/Generated/src/USBLD001/driver/dwc_otg_pcd_intr.c **** #define CLEAR_IN_EP_INTR(__core_if,__epnum,__intr) \
3396:../Dave/Generated/src/USBLD001/driver/dwc_otg_pcd_intr.c **** do { \
3397:../Dave/Generated/src/USBLD001/driver/dwc_otg_pcd_intr.c **** 		diepint_data_t diepint = {.d32=0}; \
3398:../Dave/Generated/src/USBLD001/driver/dwc_otg_pcd_intr.c **** 		diepint.b.__intr = 1; \
3399:../Dave/Generated/src/USBLD001/driver/dwc_otg_pcd_intr.c **** 		DWC_WRITE_REG32(&__core_if->dev_if->in_ep_regs[__epnum]->diepint, \
3400:../Dave/Generated/src/USBLD001/driver/dwc_otg_pcd_intr.c **** 		diepint.d32); \
3401:../Dave/Generated/src/USBLD001/driver/dwc_otg_pcd_intr.c **** } while (0)
3402:../Dave/Generated/src/USBLD001/driver/dwc_otg_pcd_intr.c **** 
3403:../Dave/Generated/src/USBLD001/driver/dwc_otg_pcd_intr.c **** 	dwc_otg_core_if_t *core_if = GET_CORE_IF(pcd);
 6786              		.loc 2 3403 0
 6787 0008 7B68     		ldr	r3, [r7, #4]
 6788 000a 9B68     		ldr	r3, [r3, #8]
 6789 000c 7B65     		str	r3, [r7, #84]
3404:../Dave/Generated/src/USBLD001/driver/dwc_otg_pcd_intr.c **** 	dwc_otg_dev_if_t *dev_if = core_if->dev_if;
 6790              		.loc 2 3404 0
 6791 000e 7B6D     		ldr	r3, [r7, #84]
 6792 0010 9B68     		ldr	r3, [r3, #8]
 6793 0012 3B65     		str	r3, [r7, #80]
3405:../Dave/Generated/src/USBLD001/driver/dwc_otg_pcd_intr.c **** 	diepint_data_t diepint = {.d32 = 0 };
 6794              		.loc 2 3405 0
 6795 0014 4FF00003 		mov	r3, #0
 6796 0018 3B64     		str	r3, [r7, #64]
3406:../Dave/Generated/src/USBLD001/driver/dwc_otg_pcd_intr.c **** 	depctl_data_t depctl = {.d32 = 0 };
 6797              		.loc 2 3406 0
 6798 001a 4FF00003 		mov	r3, #0
 6799 001e FB63     		str	r3, [r7, #60]
3407:../Dave/Generated/src/USBLD001/driver/dwc_otg_pcd_intr.c **** 	uint32_t ep_intr;
3408:../Dave/Generated/src/USBLD001/driver/dwc_otg_pcd_intr.c **** 	uint32_t epnum = 0;
 6800              		.loc 2 3408 0
 6801 0020 4FF00003 		mov	r3, #0
 6802 0024 BB65     		str	r3, [r7, #88]
3409:../Dave/Generated/src/USBLD001/driver/dwc_otg_pcd_intr.c **** 	dwc_otg_pcd_ep_t *ep;
3410:../Dave/Generated/src/USBLD001/driver/dwc_otg_pcd_intr.c **** 	dwc_ep_t *dwc_ep;
3411:../Dave/Generated/src/USBLD001/driver/dwc_otg_pcd_intr.c **** 	gintmsk_data_t intr_mask = {.d32 = 0 };
 6803              		.loc 2 3411 0
 6804 0026 4FF00003 		mov	r3, #0
 6805 002a BB63     		str	r3, [r7, #56]
3412:../Dave/Generated/src/USBLD001/driver/dwc_otg_pcd_intr.c **** 
3413:../Dave/Generated/src/USBLD001/driver/dwc_otg_pcd_intr.c **** 	DWC_DEBUGPL(DBG_PCDV, "%s(%p)\n", __func__, pcd);
3414:../Dave/Generated/src/USBLD001/driver/dwc_otg_pcd_intr.c **** 
3415:../Dave/Generated/src/USBLD001/driver/dwc_otg_pcd_intr.c **** 	/* Read in the device interrupt bits */
3416:../Dave/Generated/src/USBLD001/driver/dwc_otg_pcd_intr.c **** 	ep_intr = dwc_otg_read_dev_all_in_ep_intr(core_if);
 6806              		.loc 2 3416 0
 6807 002c 786D     		ldr	r0, [r7, #84]
 6808 002e FFF7FEFF 		bl	dwc_otg_read_dev_all_in_ep_intr
 6809 0032 F865     		str	r0, [r7, #92]
3417:../Dave/Generated/src/USBLD001/driver/dwc_otg_pcd_intr.c **** 
3418:../Dave/Generated/src/USBLD001/driver/dwc_otg_pcd_intr.c **** 	/* Service the Device IN interrupts for each endpoint */
3419:../Dave/Generated/src/USBLD001/driver/dwc_otg_pcd_intr.c **** 	while (ep_intr) {
 6810              		.loc 2 3419 0
 6811 0034 0CE2     		b	.L324
 6812              	.L344:
3420:../Dave/Generated/src/USBLD001/driver/dwc_otg_pcd_intr.c **** 		if (ep_intr & 0x1) {
 6813              		.loc 2 3420 0
 6814 0036 FB6D     		ldr	r3, [r7, #92]
 6815 0038 03F00103 		and	r3, r3, #1
 6816 003c 002B     		cmp	r3, #0
 6817 003e 00F0FF81 		beq	.L325
3421:../Dave/Generated/src/USBLD001/driver/dwc_otg_pcd_intr.c **** #ifndef USE_IFX_DEV
3422:../Dave/Generated/src/USBLD001/driver/dwc_otg_pcd_intr.c **** 			uint32_t empty_msk;
3423:../Dave/Generated/src/USBLD001/driver/dwc_otg_pcd_intr.c **** #endif
3424:../Dave/Generated/src/USBLD001/driver/dwc_otg_pcd_intr.c **** 			/* Get EP pointer */
3425:../Dave/Generated/src/USBLD001/driver/dwc_otg_pcd_intr.c **** 			ep = get_in_ep(pcd, epnum);
 6818              		.loc 2 3425 0
 6819 0042 7868     		ldr	r0, [r7, #4]
 6820 0044 B96D     		ldr	r1, [r7, #88]
 6821 0046 FFF7FEFF 		bl	get_in_ep
 6822 004a F864     		str	r0, [r7, #76]
3426:../Dave/Generated/src/USBLD001/driver/dwc_otg_pcd_intr.c **** 			dwc_ep = &ep->dwc_ep;
 6823              		.loc 2 3426 0
 6824 004c FB6C     		ldr	r3, [r7, #76]
 6825 004e 03F11003 		add	r3, r3, #16
 6826 0052 BB64     		str	r3, [r7, #72]
3427:../Dave/Generated/src/USBLD001/driver/dwc_otg_pcd_intr.c **** 
3428:../Dave/Generated/src/USBLD001/driver/dwc_otg_pcd_intr.c **** 			depctl.d32 =
3429:../Dave/Generated/src/USBLD001/driver/dwc_otg_pcd_intr.c **** 			    DWC_READ_REG32(&dev_if->in_ep_regs[epnum]->diepctl);
 6827              		.loc 2 3429 0
 6828 0054 3A6D     		ldr	r2, [r7, #80]
 6829 0056 BB6D     		ldr	r3, [r7, #88]
 6830 0058 4FEA8303 		lsl	r3, r3, #2
 6831 005c D318     		adds	r3, r2, r3
 6832 005e 5B68     		ldr	r3, [r3, #4]
 6833 0060 1846     		mov	r0, r3
 6834 0062 FFF7FEFF 		bl	DWC_READ_REG32
 6835 0066 0346     		mov	r3, r0
3428:../Dave/Generated/src/USBLD001/driver/dwc_otg_pcd_intr.c **** 			depctl.d32 =
 6836              		.loc 2 3428 0
 6837 0068 FB63     		str	r3, [r7, #60]
3430:../Dave/Generated/src/USBLD001/driver/dwc_otg_pcd_intr.c **** #ifndef USE_IFX_DEV
3431:../Dave/Generated/src/USBLD001/driver/dwc_otg_pcd_intr.c **** 			empty_msk =
3432:../Dave/Generated/src/USBLD001/driver/dwc_otg_pcd_intr.c **** 			    DWC_READ_REG32(&dev_if->
3433:../Dave/Generated/src/USBLD001/driver/dwc_otg_pcd_intr.c **** 					   dev_global_regs->dtknqr4_fifoemptymsk);
3434:../Dave/Generated/src/USBLD001/driver/dwc_otg_pcd_intr.c **** 
3435:../Dave/Generated/src/USBLD001/driver/dwc_otg_pcd_intr.c **** 			DWC_DEBUGPL(DBG_PCDV,
3436:../Dave/Generated/src/USBLD001/driver/dwc_otg_pcd_intr.c **** 				    "IN EP INTERRUPT - %d\nepmty_msk - %8x  diepctl - %8x\n",
3437:../Dave/Generated/src/USBLD001/driver/dwc_otg_pcd_intr.c **** 				    epnum, empty_msk, depctl.d32);
3438:../Dave/Generated/src/USBLD001/driver/dwc_otg_pcd_intr.c **** 
3439:../Dave/Generated/src/USBLD001/driver/dwc_otg_pcd_intr.c **** 			DWC_DEBUGPL(DBG_PCD,
3440:../Dave/Generated/src/USBLD001/driver/dwc_otg_pcd_intr.c **** 				    "EP%d-%s: type=%d, mps=%d\n",
3441:../Dave/Generated/src/USBLD001/driver/dwc_otg_pcd_intr.c **** 				    dwc_ep->num, (dwc_ep->is_in ? "IN" : "OUT"),
3442:../Dave/Generated/src/USBLD001/driver/dwc_otg_pcd_intr.c **** 				    dwc_ep->type, dwc_ep->maxpacket);
3443:../Dave/Generated/src/USBLD001/driver/dwc_otg_pcd_intr.c **** #endif
3444:../Dave/Generated/src/USBLD001/driver/dwc_otg_pcd_intr.c **** 			diepint.d32 =
3445:../Dave/Generated/src/USBLD001/driver/dwc_otg_pcd_intr.c **** 			    dwc_otg_read_dev_in_ep_intr(core_if, dwc_ep);
 6838              		.loc 2 3445 0
 6839 006a 786D     		ldr	r0, [r7, #84]
 6840 006c B96C     		ldr	r1, [r7, #72]
 6841 006e FFF7FEFF 		bl	dwc_otg_read_dev_in_ep_intr
 6842 0072 0346     		mov	r3, r0
3444:../Dave/Generated/src/USBLD001/driver/dwc_otg_pcd_intr.c **** 			diepint.d32 =
 6843              		.loc 2 3444 0
 6844 0074 3B64     		str	r3, [r7, #64]
3446:../Dave/Generated/src/USBLD001/driver/dwc_otg_pcd_intr.c **** 
3447:../Dave/Generated/src/USBLD001/driver/dwc_otg_pcd_intr.c **** 			DWC_DEBUGPL(DBG_PCDV,
3448:../Dave/Generated/src/USBLD001/driver/dwc_otg_pcd_intr.c **** 				    "EP %d Interrupt Register - 0x%x\n", epnum,
3449:../Dave/Generated/src/USBLD001/driver/dwc_otg_pcd_intr.c **** 				    diepint.d32);
3450:../Dave/Generated/src/USBLD001/driver/dwc_otg_pcd_intr.c **** 			/* Transfer complete */
3451:../Dave/Generated/src/USBLD001/driver/dwc_otg_pcd_intr.c **** 			if (diepint.b.xfercompl) {
 6845              		.loc 2 3451 0
 6846 0076 97F84030 		ldrb	r3, [r7, #64]	@ zero_extendqisi2
 6847 007a 03F00103 		and	r3, r3, #1
 6848 007e DBB2     		uxtb	r3, r3
 6849 0080 002B     		cmp	r3, #0
 6850 0082 45D0     		beq	.L326
3452:../Dave/Generated/src/USBLD001/driver/dwc_otg_pcd_intr.c **** 				/* Disable the NP Tx FIFO Empty
3453:../Dave/Generated/src/USBLD001/driver/dwc_otg_pcd_intr.c **** 				 * Interrrupt */
3454:../Dave/Generated/src/USBLD001/driver/dwc_otg_pcd_intr.c **** 				if (core_if->en_multiple_tx_fifo == 0) {
 6851              		.loc 2 3454 0
 6852 0084 7B6D     		ldr	r3, [r7, #84]
 6853 0086 93F84A30 		ldrb	r3, [r3, #74]	@ zero_extendqisi2
 6854 008a 002B     		cmp	r3, #0
 6855 008c 0FD1     		bne	.L327
3455:../Dave/Generated/src/USBLD001/driver/dwc_otg_pcd_intr.c **** 					intr_mask.b.nptxfempty = 1;
 6856              		.loc 2 3455 0
 6857 008e BB6B     		ldr	r3, [r7, #56]
 6858 0090 43F02003 		orr	r3, r3, #32
 6859 0094 BB63     		str	r3, [r7, #56]
3456:../Dave/Generated/src/USBLD001/driver/dwc_otg_pcd_intr.c **** 					DWC_MODIFY_REG32
3457:../Dave/Generated/src/USBLD001/driver/dwc_otg_pcd_intr.c **** 					    (&core_if->core_global_regs->gintmsk,
 6860              		.loc 2 3457 0
 6861 0096 7B6D     		ldr	r3, [r7, #84]
 6862 0098 5B68     		ldr	r3, [r3, #4]
 6863 009a 03F11802 		add	r2, r3, #24
 6864 009e BB6B     		ldr	r3, [r7, #56]
 6865 00a0 1046     		mov	r0, r2
 6866 00a2 1946     		mov	r1, r3
 6867 00a4 4FF00002 		mov	r2, #0
 6868 00a8 FFF7FEFF 		bl	DWC_MODIFY_REG32
 6869 00ac 11E0     		b	.L328
 6870              	.L327:
 6871              	.LBB8:
3458:../Dave/Generated/src/USBLD001/driver/dwc_otg_pcd_intr.c **** 					     intr_mask.d32, 0);
3459:../Dave/Generated/src/USBLD001/driver/dwc_otg_pcd_intr.c **** 				} else {
3460:../Dave/Generated/src/USBLD001/driver/dwc_otg_pcd_intr.c **** 					/* Disable the Tx FIFO Empty Interrupt for this EP */
3461:../Dave/Generated/src/USBLD001/driver/dwc_otg_pcd_intr.c **** 					uint32_t fifoemptymsk =
3462:../Dave/Generated/src/USBLD001/driver/dwc_otg_pcd_intr.c **** 					    0x1 << dwc_ep->num;
 6872              		.loc 2 3462 0
 6873 00ae BB6C     		ldr	r3, [r7, #72]
 6874 00b0 1B78     		ldrb	r3, [r3, #0]	@ zero_extendqisi2
 6875 00b2 4FF00102 		mov	r2, #1
 6876 00b6 02FA03F3 		lsl	r3, r2, r3
3461:../Dave/Generated/src/USBLD001/driver/dwc_otg_pcd_intr.c **** 					uint32_t fifoemptymsk =
 6877              		.loc 2 3461 0
 6878 00ba 7B64     		str	r3, [r7, #68]
3463:../Dave/Generated/src/USBLD001/driver/dwc_otg_pcd_intr.c **** 					DWC_MODIFY_REG32(&core_if->
 6879              		.loc 2 3463 0
 6880 00bc 7B6D     		ldr	r3, [r7, #84]
 6881 00be 9B68     		ldr	r3, [r3, #8]
3464:../Dave/Generated/src/USBLD001/driver/dwc_otg_pcd_intr.c **** 							 dev_if->dev_global_regs->dtknqr4_fifoemptymsk,
 6882              		.loc 2 3464 0
 6883 00c0 1B68     		ldr	r3, [r3, #0]
3463:../Dave/Generated/src/USBLD001/driver/dwc_otg_pcd_intr.c **** 					DWC_MODIFY_REG32(&core_if->
 6884              		.loc 2 3463 0
 6885 00c2 03F13403 		add	r3, r3, #52
 6886 00c6 1846     		mov	r0, r3
 6887 00c8 796C     		ldr	r1, [r7, #68]
 6888 00ca 4FF00002 		mov	r2, #0
 6889 00ce FFF7FEFF 		bl	DWC_MODIFY_REG32
 6890              	.L328:
 6891              	.LBE8:
 6892              	.LBB9:
3465:../Dave/Generated/src/USBLD001/driver/dwc_otg_pcd_intr.c **** 							 fifoemptymsk, 0);
3466:../Dave/Generated/src/USBLD001/driver/dwc_otg_pcd_intr.c **** 				}
3467:../Dave/Generated/src/USBLD001/driver/dwc_otg_pcd_intr.c **** 				/* Clear the bit in DIEPINTn for this interrupt */
3468:../Dave/Generated/src/USBLD001/driver/dwc_otg_pcd_intr.c **** 				CLEAR_IN_EP_INTR(core_if, epnum, xfercompl);
 6893              		.loc 2 3468 0
 6894 00d2 4FF00003 		mov	r3, #0
 6895 00d6 7B63     		str	r3, [r7, #52]
 6896 00d8 7B6B     		ldr	r3, [r7, #52]
 6897 00da 43F00103 		orr	r3, r3, #1
 6898 00de 7B63     		str	r3, [r7, #52]
 6899 00e0 7B6D     		ldr	r3, [r7, #84]
 6900 00e2 9A68     		ldr	r2, [r3, #8]
 6901 00e4 BB6D     		ldr	r3, [r7, #88]
 6902 00e6 4FEA8303 		lsl	r3, r3, #2
 6903 00ea D318     		adds	r3, r2, r3
 6904 00ec 5B68     		ldr	r3, [r3, #4]
 6905 00ee 03F10802 		add	r2, r3, #8
 6906 00f2 7B6B     		ldr	r3, [r7, #52]
 6907 00f4 1046     		mov	r0, r2
 6908 00f6 1946     		mov	r1, r3
 6909 00f8 FFF7FEFF 		bl	DWC_WRITE_REG32
 6910              	.LBE9:
3469:../Dave/Generated/src/USBLD001/driver/dwc_otg_pcd_intr.c **** 
3470:../Dave/Generated/src/USBLD001/driver/dwc_otg_pcd_intr.c **** 				/* Complete the transfer */
3471:../Dave/Generated/src/USBLD001/driver/dwc_otg_pcd_intr.c **** 				if (epnum == 0) {
 6911              		.loc 2 3471 0
 6912 00fc BB6D     		ldr	r3, [r7, #88]
 6913 00fe 002B     		cmp	r3, #0
 6914 0100 03D1     		bne	.L329
3472:../Dave/Generated/src/USBLD001/driver/dwc_otg_pcd_intr.c **** 					handle_ep0(pcd);
 6915              		.loc 2 3472 0
 6916 0102 7868     		ldr	r0, [r7, #4]
 6917 0104 FFF7FEFF 		bl	handle_ep0
 6918 0108 02E0     		b	.L326
 6919              	.L329:
3473:../Dave/Generated/src/USBLD001/driver/dwc_otg_pcd_intr.c **** 				}
3474:../Dave/Generated/src/USBLD001/driver/dwc_otg_pcd_intr.c **** #ifdef DWC_EN_ISOC
3475:../Dave/Generated/src/USBLD001/driver/dwc_otg_pcd_intr.c **** 				else if (dwc_ep->type == DWC_OTG_EP_TYPE_ISOC) {
3476:../Dave/Generated/src/USBLD001/driver/dwc_otg_pcd_intr.c **** 					if (!ep->stopped)
3477:../Dave/Generated/src/USBLD001/driver/dwc_otg_pcd_intr.c **** 						complete_iso_ep(pcd, ep);
3478:../Dave/Generated/src/USBLD001/driver/dwc_otg_pcd_intr.c **** 				}
3479:../Dave/Generated/src/USBLD001/driver/dwc_otg_pcd_intr.c **** #endif /* DWC_EN_ISOC */
3480:../Dave/Generated/src/USBLD001/driver/dwc_otg_pcd_intr.c **** #ifdef DWC_UTE_PER_IO
3481:../Dave/Generated/src/USBLD001/driver/dwc_otg_pcd_intr.c **** 				else if (dwc_ep->type == DWC_OTG_EP_TYPE_ISOC) {
3482:../Dave/Generated/src/USBLD001/driver/dwc_otg_pcd_intr.c **** 					if (!ep->stopped)
3483:../Dave/Generated/src/USBLD001/driver/dwc_otg_pcd_intr.c **** 						complete_xiso_ep(ep);
3484:../Dave/Generated/src/USBLD001/driver/dwc_otg_pcd_intr.c **** 				}
3485:../Dave/Generated/src/USBLD001/driver/dwc_otg_pcd_intr.c **** #endif /* DWC_UTE_PER_IO */
3486:../Dave/Generated/src/USBLD001/driver/dwc_otg_pcd_intr.c **** 				else {
3487:../Dave/Generated/src/USBLD001/driver/dwc_otg_pcd_intr.c **** 					complete_ep(ep);
 6920              		.loc 2 3487 0
 6921 010a F86C     		ldr	r0, [r7, #76]
 6922 010c FFF7FEFF 		bl	complete_ep
 6923              	.L326:
3488:../Dave/Generated/src/USBLD001/driver/dwc_otg_pcd_intr.c **** 				}
3489:../Dave/Generated/src/USBLD001/driver/dwc_otg_pcd_intr.c **** 			}
3490:../Dave/Generated/src/USBLD001/driver/dwc_otg_pcd_intr.c **** 			/* Endpoint disable      */
3491:../Dave/Generated/src/USBLD001/driver/dwc_otg_pcd_intr.c **** 			if (diepint.b.epdisabled) {
 6924              		.loc 2 3491 0
 6925 0110 97F84030 		ldrb	r3, [r7, #64]	@ zero_extendqisi2
 6926 0114 03F00203 		and	r3, r3, #2
 6927 0118 DBB2     		uxtb	r3, r3
 6928 011a 002B     		cmp	r3, #0
 6929 011c 18D0     		beq	.L330
3492:../Dave/Generated/src/USBLD001/driver/dwc_otg_pcd_intr.c **** 				DWC_DEBUGPL(DBG_ANY, "EP%d IN disabled\n",
3493:../Dave/Generated/src/USBLD001/driver/dwc_otg_pcd_intr.c **** 					    epnum);
3494:../Dave/Generated/src/USBLD001/driver/dwc_otg_pcd_intr.c **** 				handle_in_ep_disable_intr(pcd, epnum);
 6930              		.loc 2 3494 0
 6931 011e 7868     		ldr	r0, [r7, #4]
 6932 0120 B96D     		ldr	r1, [r7, #88]
 6933 0122 FFF7FEFF 		bl	handle_in_ep_disable_intr
 6934              	.LBB10:
3495:../Dave/Generated/src/USBLD001/driver/dwc_otg_pcd_intr.c **** 
3496:../Dave/Generated/src/USBLD001/driver/dwc_otg_pcd_intr.c **** 				/* Clear the bit in DIEPINTn for this interrupt */
3497:../Dave/Generated/src/USBLD001/driver/dwc_otg_pcd_intr.c **** 				CLEAR_IN_EP_INTR(core_if, epnum, epdisabled);
 6935              		.loc 2 3497 0
 6936 0126 4FF00003 		mov	r3, #0
 6937 012a 3B63     		str	r3, [r7, #48]
 6938 012c 3B6B     		ldr	r3, [r7, #48]
 6939 012e 43F00203 		orr	r3, r3, #2
 6940 0132 3B63     		str	r3, [r7, #48]
 6941 0134 7B6D     		ldr	r3, [r7, #84]
 6942 0136 9A68     		ldr	r2, [r3, #8]
 6943 0138 BB6D     		ldr	r3, [r7, #88]
 6944 013a 4FEA8303 		lsl	r3, r3, #2
 6945 013e D318     		adds	r3, r2, r3
 6946 0140 5B68     		ldr	r3, [r3, #4]
 6947 0142 03F10802 		add	r2, r3, #8
 6948 0146 3B6B     		ldr	r3, [r7, #48]
 6949 0148 1046     		mov	r0, r2
 6950 014a 1946     		mov	r1, r3
 6951 014c FFF7FEFF 		bl	DWC_WRITE_REG32
 6952              	.L330:
 6953              	.LBE10:
3498:../Dave/Generated/src/USBLD001/driver/dwc_otg_pcd_intr.c **** 			}
3499:../Dave/Generated/src/USBLD001/driver/dwc_otg_pcd_intr.c **** 			/* AHB Error */
3500:../Dave/Generated/src/USBLD001/driver/dwc_otg_pcd_intr.c **** 			if (diepint.b.ahberr) {
 6954              		.loc 2 3500 0
 6955 0150 97F84030 		ldrb	r3, [r7, #64]	@ zero_extendqisi2
 6956 0154 03F00403 		and	r3, r3, #4
 6957 0158 DBB2     		uxtb	r3, r3
 6958 015a 002B     		cmp	r3, #0
 6959 015c 14D0     		beq	.L331
 6960              	.LBB11:
3501:../Dave/Generated/src/USBLD001/driver/dwc_otg_pcd_intr.c **** 				DWC_ERROR("EP%d IN AHB Error\n", epnum);
3502:../Dave/Generated/src/USBLD001/driver/dwc_otg_pcd_intr.c **** 				/* Clear the bit in DIEPINTn for this interrupt */
3503:../Dave/Generated/src/USBLD001/driver/dwc_otg_pcd_intr.c **** 				CLEAR_IN_EP_INTR(core_if, epnum, ahberr);
 6961              		.loc 2 3503 0
 6962 015e 4FF00003 		mov	r3, #0
 6963 0162 FB62     		str	r3, [r7, #44]
 6964 0164 FB6A     		ldr	r3, [r7, #44]
 6965 0166 43F00403 		orr	r3, r3, #4
 6966 016a FB62     		str	r3, [r7, #44]
 6967 016c 7B6D     		ldr	r3, [r7, #84]
 6968 016e 9A68     		ldr	r2, [r3, #8]
 6969 0170 BB6D     		ldr	r3, [r7, #88]
 6970 0172 4FEA8303 		lsl	r3, r3, #2
 6971 0176 D318     		adds	r3, r2, r3
 6972 0178 5B68     		ldr	r3, [r3, #4]
 6973 017a 03F10802 		add	r2, r3, #8
 6974 017e FB6A     		ldr	r3, [r7, #44]
 6975 0180 1046     		mov	r0, r2
 6976 0182 1946     		mov	r1, r3
 6977 0184 FFF7FEFF 		bl	DWC_WRITE_REG32
 6978              	.L331:
 6979              	.LBE11:
3504:../Dave/Generated/src/USBLD001/driver/dwc_otg_pcd_intr.c **** 			}
3505:../Dave/Generated/src/USBLD001/driver/dwc_otg_pcd_intr.c **** 			/* TimeOUT Handshake (non-ISOC IN EPs) */
3506:../Dave/Generated/src/USBLD001/driver/dwc_otg_pcd_intr.c **** 			if (diepint.b.timeout) {
 6980              		.loc 2 3506 0
 6981 0188 97F84030 		ldrb	r3, [r7, #64]	@ zero_extendqisi2
 6982 018c 03F00803 		and	r3, r3, #8
 6983 0190 DBB2     		uxtb	r3, r3
 6984 0192 002B     		cmp	r3, #0
 6985 0194 18D0     		beq	.L332
3507:../Dave/Generated/src/USBLD001/driver/dwc_otg_pcd_intr.c **** 				DWC_ERROR("EP%d IN Time-out\n", epnum);
3508:../Dave/Generated/src/USBLD001/driver/dwc_otg_pcd_intr.c **** 				handle_in_ep_timeout_intr(pcd, epnum);
 6986              		.loc 2 3508 0
 6987 0196 7868     		ldr	r0, [r7, #4]
 6988 0198 B96D     		ldr	r1, [r7, #88]
 6989 019a FFF7FEFF 		bl	handle_in_ep_timeout_intr
 6990              	.LBB12:
3509:../Dave/Generated/src/USBLD001/driver/dwc_otg_pcd_intr.c **** 
3510:../Dave/Generated/src/USBLD001/driver/dwc_otg_pcd_intr.c **** 				CLEAR_IN_EP_INTR(core_if, epnum, timeout);
 6991              		.loc 2 3510 0
 6992 019e 4FF00003 		mov	r3, #0
 6993 01a2 BB62     		str	r3, [r7, #40]
 6994 01a4 BB6A     		ldr	r3, [r7, #40]
 6995 01a6 43F00803 		orr	r3, r3, #8
 6996 01aa BB62     		str	r3, [r7, #40]
 6997 01ac 7B6D     		ldr	r3, [r7, #84]
 6998 01ae 9A68     		ldr	r2, [r3, #8]
 6999 01b0 BB6D     		ldr	r3, [r7, #88]
 7000 01b2 4FEA8303 		lsl	r3, r3, #2
 7001 01b6 D318     		adds	r3, r2, r3
 7002 01b8 5B68     		ldr	r3, [r3, #4]
 7003 01ba 03F10802 		add	r2, r3, #8
 7004 01be BB6A     		ldr	r3, [r7, #40]
 7005 01c0 1046     		mov	r0, r2
 7006 01c2 1946     		mov	r1, r3
 7007 01c4 FFF7FEFF 		bl	DWC_WRITE_REG32
 7008              	.L332:
 7009              	.LBE12:
3511:../Dave/Generated/src/USBLD001/driver/dwc_otg_pcd_intr.c **** 			}
3512:../Dave/Generated/src/USBLD001/driver/dwc_otg_pcd_intr.c **** 			/** IN Token received with TxF Empty */
3513:../Dave/Generated/src/USBLD001/driver/dwc_otg_pcd_intr.c **** 			if (diepint.b.intktxfemp) {
 7010              		.loc 2 3513 0
 7011 01c8 97F84030 		ldrb	r3, [r7, #64]	@ zero_extendqisi2
 7012 01cc 03F01003 		and	r3, r3, #16
 7013 01d0 DBB2     		uxtb	r3, r3
 7014 01d2 002B     		cmp	r3, #0
 7015 01d4 78D0     		beq	.L333
3514:../Dave/Generated/src/USBLD001/driver/dwc_otg_pcd_intr.c **** 				DWC_DEBUGPL(DBG_ANY,
3515:../Dave/Generated/src/USBLD001/driver/dwc_otg_pcd_intr.c **** 					    "EP%d IN TKN TxFifo Empty\n",
3516:../Dave/Generated/src/USBLD001/driver/dwc_otg_pcd_intr.c **** 					    epnum);
3517:../Dave/Generated/src/USBLD001/driver/dwc_otg_pcd_intr.c **** 				if (!ep->stopped && epnum != 0) {
 7016              		.loc 2 3517 0
 7017 01d6 FB6C     		ldr	r3, [r7, #76]
 7018 01d8 1B7B     		ldrb	r3, [r3, #12]	@ zero_extendqisi2
 7019 01da 03F00103 		and	r3, r3, #1
 7020 01de DBB2     		uxtb	r3, r3
 7021 01e0 002B     		cmp	r3, #0
 7022 01e2 2AD1     		bne	.L334
 7023              		.loc 2 3517 0 is_stmt 0 discriminator 1
 7024 01e4 BB6D     		ldr	r3, [r7, #88]
 7025 01e6 002B     		cmp	r3, #0
 7026 01e8 27D0     		beq	.L334
 7027              	.LBB13:
3518:../Dave/Generated/src/USBLD001/driver/dwc_otg_pcd_intr.c **** 
3519:../Dave/Generated/src/USBLD001/driver/dwc_otg_pcd_intr.c **** 					diepmsk_data_t diepmsk = {.d32 = 0 };
 7028              		.loc 2 3519 0 is_stmt 1
 7029 01ea 4FF00003 		mov	r3, #0
 7030 01ee 7B62     		str	r3, [r7, #36]
3520:../Dave/Generated/src/USBLD001/driver/dwc_otg_pcd_intr.c **** 					diepmsk.b.intktxfemp = 1;
 7031              		.loc 2 3520 0
 7032 01f0 7B6A     		ldr	r3, [r7, #36]
 7033 01f2 43F01003 		orr	r3, r3, #16
 7034 01f6 7B62     		str	r3, [r7, #36]
3521:../Dave/Generated/src/USBLD001/driver/dwc_otg_pcd_intr.c **** 
3522:../Dave/Generated/src/USBLD001/driver/dwc_otg_pcd_intr.c **** 					if (core_if->multiproc_int_enable) {
 7035              		.loc 2 3522 0
 7036 01f8 7B6D     		ldr	r3, [r7, #84]
 7037 01fa 93F84930 		ldrb	r3, [r3, #73]	@ zero_extendqisi2
 7038 01fe 002B     		cmp	r3, #0
 7039 0200 0FD0     		beq	.L335
3523:../Dave/Generated/src/USBLD001/driver/dwc_otg_pcd_intr.c **** 						DWC_MODIFY_REG32
3524:../Dave/Generated/src/USBLD001/driver/dwc_otg_pcd_intr.c **** 						    (&dev_if->dev_global_regs->diepeachintmsk
 7040              		.loc 2 3524 0
 7041 0202 3B6D     		ldr	r3, [r7, #80]
 7042 0204 1A68     		ldr	r2, [r3, #0]
 7043 0206 BB6D     		ldr	r3, [r7, #88]
 7044 0208 03F11003 		add	r3, r3, #16
 7045 020c 4FEA8303 		lsl	r3, r3, #2
 7046 0210 D218     		adds	r2, r2, r3
 7047 0212 7B6A     		ldr	r3, [r7, #36]
 7048 0214 1046     		mov	r0, r2
 7049 0216 1946     		mov	r1, r3
 7050 0218 4FF00002 		mov	r2, #0
 7051 021c FFF7FEFF 		bl	DWC_MODIFY_REG32
 7052              	.LBE13:
3517:../Dave/Generated/src/USBLD001/driver/dwc_otg_pcd_intr.c **** 				if (!ep->stopped && epnum != 0) {
 7053              		.loc 2 3517 0
 7054 0220 3DE0     		b	.L337
 7055              	.L335:
 7056              	.LBB14:
3525:../Dave/Generated/src/USBLD001/driver/dwc_otg_pcd_intr.c **** 						     [epnum], diepmsk.d32, 0);
3526:../Dave/Generated/src/USBLD001/driver/dwc_otg_pcd_intr.c **** 					} else {
3527:../Dave/Generated/src/USBLD001/driver/dwc_otg_pcd_intr.c **** 						DWC_MODIFY_REG32
3528:../Dave/Generated/src/USBLD001/driver/dwc_otg_pcd_intr.c **** 						    (&dev_if->dev_global_regs->diepmsk,
 7057              		.loc 2 3528 0
 7058 0222 3B6D     		ldr	r3, [r7, #80]
 7059 0224 1B68     		ldr	r3, [r3, #0]
 7060 0226 03F11002 		add	r2, r3, #16
 7061 022a 7B6A     		ldr	r3, [r7, #36]
 7062 022c 1046     		mov	r0, r2
 7063 022e 1946     		mov	r1, r3
 7064 0230 4FF00002 		mov	r2, #0
 7065 0234 FFF7FEFF 		bl	DWC_MODIFY_REG32
 7066              	.LBE14:
3517:../Dave/Generated/src/USBLD001/driver/dwc_otg_pcd_intr.c **** 				if (!ep->stopped && epnum != 0) {
 7067              		.loc 2 3517 0
 7068 0238 31E0     		b	.L337
 7069              	.L334:
3529:../Dave/Generated/src/USBLD001/driver/dwc_otg_pcd_intr.c **** 						     diepmsk.d32, 0);
3530:../Dave/Generated/src/USBLD001/driver/dwc_otg_pcd_intr.c **** 					}
3531:../Dave/Generated/src/USBLD001/driver/dwc_otg_pcd_intr.c **** 				} else if (core_if->dma_desc_enable
 7070              		.loc 2 3531 0
 7071 023a 7B6D     		ldr	r3, [r7, #84]
 7072 023c 93F84730 		ldrb	r3, [r3, #71]	@ zero_extendqisi2
 7073 0240 002B     		cmp	r3, #0
 7074 0242 2CD0     		beq	.L337
3532:../Dave/Generated/src/USBLD001/driver/dwc_otg_pcd_intr.c **** 					   && epnum == 0
 7075              		.loc 2 3532 0
 7076 0244 BB6D     		ldr	r3, [r7, #88]
 7077 0246 002B     		cmp	r3, #0
 7078 0248 29D1     		bne	.L337
3533:../Dave/Generated/src/USBLD001/driver/dwc_otg_pcd_intr.c **** 					   && pcd->ep0state ==
 7079              		.loc 2 3533 0
 7080 024a 7B68     		ldr	r3, [r7, #4]
 7081 024c 1B7B     		ldrb	r3, [r3, #12]	@ zero_extendqisi2
 7082 024e 052B     		cmp	r3, #5
 7083 0250 25D1     		bne	.L337
3534:../Dave/Generated/src/USBLD001/driver/dwc_otg_pcd_intr.c **** 					   EP0_OUT_STATUS_PHASE) {
3535:../Dave/Generated/src/USBLD001/driver/dwc_otg_pcd_intr.c **** 					// EP0 IN set STALL
3536:../Dave/Generated/src/USBLD001/driver/dwc_otg_pcd_intr.c **** 					depctl.d32 =
3537:../Dave/Generated/src/USBLD001/driver/dwc_otg_pcd_intr.c **** 					    DWC_READ_REG32(&dev_if->in_ep_regs
 7084              		.loc 2 3537 0
 7085 0252 3A6D     		ldr	r2, [r7, #80]
3538:../Dave/Generated/src/USBLD001/driver/dwc_otg_pcd_intr.c **** 							   [epnum]->diepctl);
 7086              		.loc 2 3538 0
 7087 0254 BB6D     		ldr	r3, [r7, #88]
 7088 0256 4FEA8303 		lsl	r3, r3, #2
 7089 025a D318     		adds	r3, r2, r3
 7090 025c 5B68     		ldr	r3, [r3, #4]
3537:../Dave/Generated/src/USBLD001/driver/dwc_otg_pcd_intr.c **** 					    DWC_READ_REG32(&dev_if->in_ep_regs
 7091              		.loc 2 3537 0
 7092 025e 1846     		mov	r0, r3
 7093 0260 FFF7FEFF 		bl	DWC_READ_REG32
 7094 0264 0346     		mov	r3, r0
3536:../Dave/Generated/src/USBLD001/driver/dwc_otg_pcd_intr.c **** 					depctl.d32 =
 7095              		.loc 2 3536 0
 7096 0266 FB63     		str	r3, [r7, #60]
3539:../Dave/Generated/src/USBLD001/driver/dwc_otg_pcd_intr.c **** 
3540:../Dave/Generated/src/USBLD001/driver/dwc_otg_pcd_intr.c **** 					/* set the disable and stall bits */
3541:../Dave/Generated/src/USBLD001/driver/dwc_otg_pcd_intr.c **** 					if (depctl.b.epena) {
 7097              		.loc 2 3541 0
 7098 0268 97F83F30 		ldrb	r3, [r7, #63]	@ zero_extendqisi2
 7099 026c 23F07F03 		bic	r3, r3, #127
 7100 0270 DBB2     		uxtb	r3, r3
 7101 0272 002B     		cmp	r3, #0
 7102 0274 03D0     		beq	.L338
3542:../Dave/Generated/src/USBLD001/driver/dwc_otg_pcd_intr.c **** 						depctl.b.epdis = 1;
 7103              		.loc 2 3542 0
 7104 0276 FB6B     		ldr	r3, [r7, #60]
 7105 0278 43F08043 		orr	r3, r3, #1073741824
 7106 027c FB63     		str	r3, [r7, #60]
 7107              	.L338:
3543:../Dave/Generated/src/USBLD001/driver/dwc_otg_pcd_intr.c **** 					}
3544:../Dave/Generated/src/USBLD001/driver/dwc_otg_pcd_intr.c **** 					depctl.b.stall = 1;
 7108              		.loc 2 3544 0
 7109 027e FB6B     		ldr	r3, [r7, #60]
 7110 0280 43F40013 		orr	r3, r3, #2097152
 7111 0284 FB63     		str	r3, [r7, #60]
3545:../Dave/Generated/src/USBLD001/driver/dwc_otg_pcd_intr.c **** 					DWC_WRITE_REG32(&dev_if->in_ep_regs
 7112              		.loc 2 3545 0
 7113 0286 3A6D     		ldr	r2, [r7, #80]
3546:../Dave/Generated/src/USBLD001/driver/dwc_otg_pcd_intr.c **** 							[epnum]->diepctl,
 7114              		.loc 2 3546 0
 7115 0288 BB6D     		ldr	r3, [r7, #88]
 7116 028a 4FEA8303 		lsl	r3, r3, #2
 7117 028e D318     		adds	r3, r2, r3
 7118 0290 5B68     		ldr	r3, [r3, #4]
3545:../Dave/Generated/src/USBLD001/driver/dwc_otg_pcd_intr.c **** 					DWC_WRITE_REG32(&dev_if->in_ep_regs
 7119              		.loc 2 3545 0
 7120 0292 1A46     		mov	r2, r3
 7121 0294 FB6B     		ldr	r3, [r7, #60]
 7122 0296 1046     		mov	r0, r2
 7123 0298 1946     		mov	r1, r3
 7124 029a FFF7FEFF 		bl	DWC_WRITE_REG32
 7125              	.L337:
 7126              	.LBB15:
3547:../Dave/Generated/src/USBLD001/driver/dwc_otg_pcd_intr.c **** 							depctl.d32);
3548:../Dave/Generated/src/USBLD001/driver/dwc_otg_pcd_intr.c **** 				}
3549:../Dave/Generated/src/USBLD001/driver/dwc_otg_pcd_intr.c **** 				CLEAR_IN_EP_INTR(core_if, epnum, intktxfemp);
 7127              		.loc 2 3549 0
 7128 029e 4FF00003 		mov	r3, #0
 7129 02a2 3B62     		str	r3, [r7, #32]
 7130 02a4 3B6A     		ldr	r3, [r7, #32]
 7131 02a6 43F01003 		orr	r3, r3, #16
 7132 02aa 3B62     		str	r3, [r7, #32]
 7133 02ac 7B6D     		ldr	r3, [r7, #84]
 7134 02ae 9A68     		ldr	r2, [r3, #8]
 7135 02b0 BB6D     		ldr	r3, [r7, #88]
 7136 02b2 4FEA8303 		lsl	r3, r3, #2
 7137 02b6 D318     		adds	r3, r2, r3
 7138 02b8 5B68     		ldr	r3, [r3, #4]
 7139 02ba 03F10802 		add	r2, r3, #8
 7140 02be 3B6A     		ldr	r3, [r7, #32]
 7141 02c0 1046     		mov	r0, r2
 7142 02c2 1946     		mov	r1, r3
 7143 02c4 FFF7FEFF 		bl	DWC_WRITE_REG32
 7144              	.L333:
 7145              	.LBE15:
3550:../Dave/Generated/src/USBLD001/driver/dwc_otg_pcd_intr.c **** 			}
3551:../Dave/Generated/src/USBLD001/driver/dwc_otg_pcd_intr.c **** 			/** IN Token Received with EP mismatch */
3552:../Dave/Generated/src/USBLD001/driver/dwc_otg_pcd_intr.c **** 			if (diepint.b.intknepmis) {
 7146              		.loc 2 3552 0
 7147 02c8 97F84030 		ldrb	r3, [r7, #64]	@ zero_extendqisi2
 7148 02cc 03F02003 		and	r3, r3, #32
 7149 02d0 DBB2     		uxtb	r3, r3
 7150 02d2 002B     		cmp	r3, #0
 7151 02d4 14D0     		beq	.L339
 7152              	.LBB16:
3553:../Dave/Generated/src/USBLD001/driver/dwc_otg_pcd_intr.c **** 				DWC_DEBUGPL(DBG_ANY,
3554:../Dave/Generated/src/USBLD001/driver/dwc_otg_pcd_intr.c **** 					    "EP%d IN TKN EP Mismatch\n", epnum);
3555:../Dave/Generated/src/USBLD001/driver/dwc_otg_pcd_intr.c **** 				CLEAR_IN_EP_INTR(core_if, epnum, intknepmis);
 7153              		.loc 2 3555 0
 7154 02d6 4FF00003 		mov	r3, #0
 7155 02da FB61     		str	r3, [r7, #28]
 7156 02dc FB69     		ldr	r3, [r7, #28]
 7157 02de 43F02003 		orr	r3, r3, #32
 7158 02e2 FB61     		str	r3, [r7, #28]
 7159 02e4 7B6D     		ldr	r3, [r7, #84]
 7160 02e6 9A68     		ldr	r2, [r3, #8]
 7161 02e8 BB6D     		ldr	r3, [r7, #88]
 7162 02ea 4FEA8303 		lsl	r3, r3, #2
 7163 02ee D318     		adds	r3, r2, r3
 7164 02f0 5B68     		ldr	r3, [r3, #4]
 7165 02f2 03F10802 		add	r2, r3, #8
 7166 02f6 FB69     		ldr	r3, [r7, #28]
 7167 02f8 1046     		mov	r0, r2
 7168 02fa 1946     		mov	r1, r3
 7169 02fc FFF7FEFF 		bl	DWC_WRITE_REG32
 7170              	.L339:
 7171              	.LBE16:
3556:../Dave/Generated/src/USBLD001/driver/dwc_otg_pcd_intr.c **** 			}
3557:../Dave/Generated/src/USBLD001/driver/dwc_otg_pcd_intr.c **** 			/** IN Endpoint NAK Effective */
3558:../Dave/Generated/src/USBLD001/driver/dwc_otg_pcd_intr.c **** 			if (diepint.b.inepnakeff) {
 7172              		.loc 2 3558 0
 7173 0300 97F84030 		ldrb	r3, [r7, #64]	@ zero_extendqisi2
 7174 0304 03F04003 		and	r3, r3, #64
 7175 0308 DBB2     		uxtb	r3, r3
 7176 030a 002B     		cmp	r3, #0
 7177 030c 34D0     		beq	.L340
3559:../Dave/Generated/src/USBLD001/driver/dwc_otg_pcd_intr.c **** 				DWC_DEBUGPL(DBG_ANY,
3560:../Dave/Generated/src/USBLD001/driver/dwc_otg_pcd_intr.c **** 					    "EP%d IN EP NAK Effective\n",
3561:../Dave/Generated/src/USBLD001/driver/dwc_otg_pcd_intr.c **** 					    epnum);
3562:../Dave/Generated/src/USBLD001/driver/dwc_otg_pcd_intr.c **** 				/* Periodic EP */
3563:../Dave/Generated/src/USBLD001/driver/dwc_otg_pcd_intr.c **** 				if (ep->disabling) {
 7178              		.loc 2 3563 0
 7179 030e FB6C     		ldr	r3, [r7, #76]
 7180 0310 1B7B     		ldrb	r3, [r3, #12]	@ zero_extendqisi2
 7181 0312 03F00203 		and	r3, r3, #2
 7182 0316 DBB2     		uxtb	r3, r3
 7183 0318 002B     		cmp	r3, #0
 7184 031a 18D0     		beq	.L341
3564:../Dave/Generated/src/USBLD001/driver/dwc_otg_pcd_intr.c **** 					depctl.d32 = 0;
 7185              		.loc 2 3564 0
 7186 031c 4FF00003 		mov	r3, #0
 7187 0320 FB63     		str	r3, [r7, #60]
3565:../Dave/Generated/src/USBLD001/driver/dwc_otg_pcd_intr.c **** 					depctl.b.snak = 1;
 7188              		.loc 2 3565 0
 7189 0322 FB6B     		ldr	r3, [r7, #60]
 7190 0324 43F00063 		orr	r3, r3, #134217728
 7191 0328 FB63     		str	r3, [r7, #60]
3566:../Dave/Generated/src/USBLD001/driver/dwc_otg_pcd_intr.c **** 					depctl.b.epdis = 1;
 7192              		.loc 2 3566 0
 7193 032a FB6B     		ldr	r3, [r7, #60]
 7194 032c 43F08043 		orr	r3, r3, #1073741824
 7195 0330 FB63     		str	r3, [r7, #60]
3567:../Dave/Generated/src/USBLD001/driver/dwc_otg_pcd_intr.c **** 					DWC_MODIFY_REG32(&dev_if->in_ep_regs
 7196              		.loc 2 3567 0
 7197 0332 3A6D     		ldr	r2, [r7, #80]
3568:../Dave/Generated/src/USBLD001/driver/dwc_otg_pcd_intr.c **** 							 [epnum]->diepctl,
 7198              		.loc 2 3568 0
 7199 0334 BB6D     		ldr	r3, [r7, #88]
 7200 0336 4FEA8303 		lsl	r3, r3, #2
 7201 033a D318     		adds	r3, r2, r3
 7202 033c 5B68     		ldr	r3, [r3, #4]
3567:../Dave/Generated/src/USBLD001/driver/dwc_otg_pcd_intr.c **** 					DWC_MODIFY_REG32(&dev_if->in_ep_regs
 7203              		.loc 2 3567 0
 7204 033e 1946     		mov	r1, r3
 7205 0340 FA6B     		ldr	r2, [r7, #60]
 7206 0342 FB6B     		ldr	r3, [r7, #60]
 7207 0344 0846     		mov	r0, r1
 7208 0346 1146     		mov	r1, r2
 7209 0348 1A46     		mov	r2, r3
 7210 034a FFF7FEFF 		bl	DWC_MODIFY_REG32
 7211              	.L341:
 7212              	.LBB17:
3569:../Dave/Generated/src/USBLD001/driver/dwc_otg_pcd_intr.c **** 							 depctl.d32,
3570:../Dave/Generated/src/USBLD001/driver/dwc_otg_pcd_intr.c **** 							 depctl.d32);
3571:../Dave/Generated/src/USBLD001/driver/dwc_otg_pcd_intr.c **** 				}
3572:../Dave/Generated/src/USBLD001/driver/dwc_otg_pcd_intr.c **** 				CLEAR_IN_EP_INTR(core_if, epnum, inepnakeff);
 7213              		.loc 2 3572 0
 7214 034e 4FF00003 		mov	r3, #0
 7215 0352 BB61     		str	r3, [r7, #24]
 7216 0354 BB69     		ldr	r3, [r7, #24]
 7217 0356 43F04003 		orr	r3, r3, #64
 7218 035a BB61     		str	r3, [r7, #24]
 7219 035c 7B6D     		ldr	r3, [r7, #84]
 7220 035e 9A68     		ldr	r2, [r3, #8]
 7221 0360 BB6D     		ldr	r3, [r7, #88]
 7222 0362 4FEA8303 		lsl	r3, r3, #2
 7223 0366 D318     		adds	r3, r2, r3
 7224 0368 5B68     		ldr	r3, [r3, #4]
 7225 036a 03F10802 		add	r2, r3, #8
 7226 036e BB69     		ldr	r3, [r7, #24]
 7227 0370 1046     		mov	r0, r2
 7228 0372 1946     		mov	r1, r3
 7229 0374 FFF7FEFF 		bl	DWC_WRITE_REG32
 7230              	.L340:
 7231              	.LBE17:
3573:../Dave/Generated/src/USBLD001/driver/dwc_otg_pcd_intr.c **** 
3574:../Dave/Generated/src/USBLD001/driver/dwc_otg_pcd_intr.c **** 			}
3575:../Dave/Generated/src/USBLD001/driver/dwc_otg_pcd_intr.c **** 
3576:../Dave/Generated/src/USBLD001/driver/dwc_otg_pcd_intr.c **** 			/** IN EP Tx FIFO Empty Intr */
3577:../Dave/Generated/src/USBLD001/driver/dwc_otg_pcd_intr.c **** 			if (diepint.b.emptyintr) {
 7232              		.loc 2 3577 0
 7233 0378 97F84030 		ldrb	r3, [r7, #64]	@ zero_extendqisi2
 7234 037c 23F07F03 		bic	r3, r3, #127
 7235 0380 DBB2     		uxtb	r3, r3
 7236 0382 002B     		cmp	r3, #0
 7237 0384 18D0     		beq	.L342
3578:../Dave/Generated/src/USBLD001/driver/dwc_otg_pcd_intr.c **** 				DWC_DEBUGPL(DBG_ANY,
3579:../Dave/Generated/src/USBLD001/driver/dwc_otg_pcd_intr.c **** 					    "EP%d Tx FIFO Empty Intr \n",
3580:../Dave/Generated/src/USBLD001/driver/dwc_otg_pcd_intr.c **** 					    epnum);
3581:../Dave/Generated/src/USBLD001/driver/dwc_otg_pcd_intr.c **** 				write_empty_tx_fifo(pcd, epnum);
 7238              		.loc 2 3581 0
 7239 0386 7868     		ldr	r0, [r7, #4]
 7240 0388 B96D     		ldr	r1, [r7, #88]
 7241 038a FFF7FEFF 		bl	write_empty_tx_fifo
 7242              	.LBB18:
3582:../Dave/Generated/src/USBLD001/driver/dwc_otg_pcd_intr.c **** 
3583:../Dave/Generated/src/USBLD001/driver/dwc_otg_pcd_intr.c **** 				CLEAR_IN_EP_INTR(core_if, epnum, emptyintr);
 7243              		.loc 2 3583 0
 7244 038e 4FF00003 		mov	r3, #0
 7245 0392 7B61     		str	r3, [r7, #20]
 7246 0394 7B69     		ldr	r3, [r7, #20]
 7247 0396 43F08003 		orr	r3, r3, #128
 7248 039a 7B61     		str	r3, [r7, #20]
 7249 039c 7B6D     		ldr	r3, [r7, #84]
 7250 039e 9A68     		ldr	r2, [r3, #8]
 7251 03a0 BB6D     		ldr	r3, [r7, #88]
 7252 03a2 4FEA8303 		lsl	r3, r3, #2
 7253 03a6 D318     		adds	r3, r2, r3
 7254 03a8 5B68     		ldr	r3, [r3, #4]
 7255 03aa 03F10802 		add	r2, r3, #8
 7256 03ae 7B69     		ldr	r3, [r7, #20]
 7257 03b0 1046     		mov	r0, r2
 7258 03b2 1946     		mov	r1, r3
 7259 03b4 FFF7FEFF 		bl	DWC_WRITE_REG32
 7260              	.L342:
 7261              	.LBE18:
3584:../Dave/Generated/src/USBLD001/driver/dwc_otg_pcd_intr.c **** 
3585:../Dave/Generated/src/USBLD001/driver/dwc_otg_pcd_intr.c **** 			}
3586:../Dave/Generated/src/USBLD001/driver/dwc_otg_pcd_intr.c **** 
3587:../Dave/Generated/src/USBLD001/driver/dwc_otg_pcd_intr.c **** 			/** IN EP BNA Intr */
3588:../Dave/Generated/src/USBLD001/driver/dwc_otg_pcd_intr.c **** 			if (diepint.b.bna) {
 7262              		.loc 2 3588 0
 7263 03b8 97F84130 		ldrb	r3, [r7, #65]	@ zero_extendqisi2
 7264 03bc 03F00203 		and	r3, r3, #2
 7265 03c0 DBB2     		uxtb	r3, r3
 7266 03c2 002B     		cmp	r3, #0
 7267 03c4 1CD0     		beq	.L343
 7268              	.LBB19:
3589:../Dave/Generated/src/USBLD001/driver/dwc_otg_pcd_intr.c **** 				CLEAR_IN_EP_INTR(core_if, epnum, bna);
 7269              		.loc 2 3589 0
 7270 03c6 4FF00003 		mov	r3, #0
 7271 03ca 3B61     		str	r3, [r7, #16]
 7272 03cc 3B69     		ldr	r3, [r7, #16]
 7273 03ce 43F40073 		orr	r3, r3, #512
 7274 03d2 3B61     		str	r3, [r7, #16]
 7275 03d4 7B6D     		ldr	r3, [r7, #84]
 7276 03d6 9A68     		ldr	r2, [r3, #8]
 7277 03d8 BB6D     		ldr	r3, [r7, #88]
 7278 03da 4FEA8303 		lsl	r3, r3, #2
 7279 03de D318     		adds	r3, r2, r3
 7280 03e0 5B68     		ldr	r3, [r3, #4]
 7281 03e2 03F10802 		add	r2, r3, #8
 7282 03e6 3B69     		ldr	r3, [r7, #16]
 7283 03e8 1046     		mov	r0, r2
 7284 03ea 1946     		mov	r1, r3
 7285 03ec FFF7FEFF 		bl	DWC_WRITE_REG32
 7286              	.LBE19:
3590:../Dave/Generated/src/USBLD001/driver/dwc_otg_pcd_intr.c **** 				if (core_if->dma_desc_enable) {
 7287              		.loc 2 3590 0
 7288 03f0 7B6D     		ldr	r3, [r7, #84]
 7289 03f2 93F84730 		ldrb	r3, [r3, #71]	@ zero_extendqisi2
 7290 03f6 002B     		cmp	r3, #0
 7291 03f8 02D0     		beq	.L343
3591:../Dave/Generated/src/USBLD001/driver/dwc_otg_pcd_intr.c **** #ifdef DWC_EN_ISOC
3592:../Dave/Generated/src/USBLD001/driver/dwc_otg_pcd_intr.c **** 					if (dwc_ep->type ==
3593:../Dave/Generated/src/USBLD001/driver/dwc_otg_pcd_intr.c **** 					    DWC_OTG_EP_TYPE_ISOC) {
3594:../Dave/Generated/src/USBLD001/driver/dwc_otg_pcd_intr.c **** 						/*
3595:../Dave/Generated/src/USBLD001/driver/dwc_otg_pcd_intr.c **** 						 * This checking is performed to prevent first "false" BNA
3596:../Dave/Generated/src/USBLD001/driver/dwc_otg_pcd_intr.c **** 						 * handling occuring right after reconnect
3597:../Dave/Generated/src/USBLD001/driver/dwc_otg_pcd_intr.c **** 						 */
3598:../Dave/Generated/src/USBLD001/driver/dwc_otg_pcd_intr.c **** 						if (dwc_ep->next_frame !=
3599:../Dave/Generated/src/USBLD001/driver/dwc_otg_pcd_intr.c **** 						    0xffffffff)
3600:../Dave/Generated/src/USBLD001/driver/dwc_otg_pcd_intr.c **** 							dwc_otg_pcd_handle_iso_bna(ep);
3601:../Dave/Generated/src/USBLD001/driver/dwc_otg_pcd_intr.c **** 					} else
3602:../Dave/Generated/src/USBLD001/driver/dwc_otg_pcd_intr.c **** #endif				/* DWC_EN_ISOC */
3603:../Dave/Generated/src/USBLD001/driver/dwc_otg_pcd_intr.c **** 					{
3604:../Dave/Generated/src/USBLD001/driver/dwc_otg_pcd_intr.c **** 						dwc_otg_pcd_handle_noniso_bna(ep);
 7292              		.loc 2 3604 0
 7293 03fa F86C     		ldr	r0, [r7, #76]
 7294 03fc FFF7FEFF 		bl	dwc_otg_pcd_handle_noniso_bna
 7295              	.L343:
3605:../Dave/Generated/src/USBLD001/driver/dwc_otg_pcd_intr.c **** 					}
3606:../Dave/Generated/src/USBLD001/driver/dwc_otg_pcd_intr.c **** 				}
3607:../Dave/Generated/src/USBLD001/driver/dwc_otg_pcd_intr.c **** 			}
3608:../Dave/Generated/src/USBLD001/driver/dwc_otg_pcd_intr.c **** 			/* NAK Interrutp */
3609:../Dave/Generated/src/USBLD001/driver/dwc_otg_pcd_intr.c **** 			if (diepint.b.nak) {
 7296              		.loc 2 3609 0
 7297 0400 97F84130 		ldrb	r3, [r7, #65]	@ zero_extendqisi2
 7298 0404 03F02003 		and	r3, r3, #32
 7299 0408 DBB2     		uxtb	r3, r3
 7300 040a 002B     		cmp	r3, #0
 7301 040c 18D0     		beq	.L325
3610:../Dave/Generated/src/USBLD001/driver/dwc_otg_pcd_intr.c **** 				DWC_DEBUGPL(DBG_ANY, "EP%d IN NAK Interrupt\n",
3611:../Dave/Generated/src/USBLD001/driver/dwc_otg_pcd_intr.c **** 					    epnum);
3612:../Dave/Generated/src/USBLD001/driver/dwc_otg_pcd_intr.c **** 				handle_in_ep_nak_intr(pcd, epnum);
 7302              		.loc 2 3612 0
 7303 040e 7868     		ldr	r0, [r7, #4]
 7304 0410 B96D     		ldr	r1, [r7, #88]
 7305 0412 FFF7FEFF 		bl	handle_in_ep_nak_intr
 7306              	.LBB20:
3613:../Dave/Generated/src/USBLD001/driver/dwc_otg_pcd_intr.c **** 
3614:../Dave/Generated/src/USBLD001/driver/dwc_otg_pcd_intr.c **** 				CLEAR_IN_EP_INTR(core_if, epnum, nak);
 7307              		.loc 2 3614 0
 7308 0416 4FF00003 		mov	r3, #0
 7309 041a FB60     		str	r3, [r7, #12]
 7310 041c FB68     		ldr	r3, [r7, #12]
 7311 041e 43F40053 		orr	r3, r3, #8192
 7312 0422 FB60     		str	r3, [r7, #12]
 7313 0424 7B6D     		ldr	r3, [r7, #84]
 7314 0426 9A68     		ldr	r2, [r3, #8]
 7315 0428 BB6D     		ldr	r3, [r7, #88]
 7316 042a 4FEA8303 		lsl	r3, r3, #2
 7317 042e D318     		adds	r3, r2, r3
 7318 0430 5B68     		ldr	r3, [r3, #4]
 7319 0432 03F10802 		add	r2, r3, #8
 7320 0436 FB68     		ldr	r3, [r7, #12]
 7321 0438 1046     		mov	r0, r2
 7322 043a 1946     		mov	r1, r3
 7323 043c FFF7FEFF 		bl	DWC_WRITE_REG32
 7324              	.L325:
 7325              	.LBE20:
3615:../Dave/Generated/src/USBLD001/driver/dwc_otg_pcd_intr.c **** 			}
3616:../Dave/Generated/src/USBLD001/driver/dwc_otg_pcd_intr.c **** 		}
3617:../Dave/Generated/src/USBLD001/driver/dwc_otg_pcd_intr.c **** 		epnum++;
 7326              		.loc 2 3617 0
 7327 0440 BB6D     		ldr	r3, [r7, #88]
 7328 0442 03F10103 		add	r3, r3, #1
 7329 0446 BB65     		str	r3, [r7, #88]
3618:../Dave/Generated/src/USBLD001/driver/dwc_otg_pcd_intr.c **** 		ep_intr >>= 1;
 7330              		.loc 2 3618 0
 7331 0448 FB6D     		ldr	r3, [r7, #92]
 7332 044a 4FEA5303 		lsr	r3, r3, #1
 7333 044e FB65     		str	r3, [r7, #92]
 7334              	.L324:
3419:../Dave/Generated/src/USBLD001/driver/dwc_otg_pcd_intr.c **** 	while (ep_intr) {
 7335              		.loc 2 3419 0 discriminator 1
 7336 0450 FB6D     		ldr	r3, [r7, #92]
 7337 0452 002B     		cmp	r3, #0
 7338 0454 7FF4EFAD 		bne	.L344
3619:../Dave/Generated/src/USBLD001/driver/dwc_otg_pcd_intr.c **** 	}
3620:../Dave/Generated/src/USBLD001/driver/dwc_otg_pcd_intr.c **** 
3621:../Dave/Generated/src/USBLD001/driver/dwc_otg_pcd_intr.c **** 	return 1;
 7339              		.loc 2 3621 0
 7340 0458 4FF00103 		mov	r3, #1
3622:../Dave/Generated/src/USBLD001/driver/dwc_otg_pcd_intr.c **** #undef CLEAR_IN_EP_INTR
3623:../Dave/Generated/src/USBLD001/driver/dwc_otg_pcd_intr.c **** }
 7341              		.loc 2 3623 0
 7342 045c 1846     		mov	r0, r3
 7343 045e 07F16007 		add	r7, r7, #96
 7344 0462 BD46     		mov	sp, r7
 7345 0464 80BD     		pop	{r7, pc}
 7346              		.cfi_endproc
 7347              	.LFE63:
 7349 0466 00BF     		.section	.text.dwc_otg_pcd_handle_out_ep_intr,"ax",%progbits
 7350              		.align	2
 7351              		.thumb
 7352              		.thumb_func
 7354              	dwc_otg_pcd_handle_out_ep_intr:
 7355              	.LFB64:
3624:../Dave/Generated/src/USBLD001/driver/dwc_otg_pcd_intr.c **** 
3625:../Dave/Generated/src/USBLD001/driver/dwc_otg_pcd_intr.c **** /**
3626:../Dave/Generated/src/USBLD001/driver/dwc_otg_pcd_intr.c ****  * This interrupt indicates that an OUT EP has a pending Interrupt.
3627:../Dave/Generated/src/USBLD001/driver/dwc_otg_pcd_intr.c ****  * The sequence for handling the OUT EP interrupt is shown below:
3628:../Dave/Generated/src/USBLD001/driver/dwc_otg_pcd_intr.c ****  * -#	Read the Device All Endpoint Interrupt register
3629:../Dave/Generated/src/USBLD001/driver/dwc_otg_pcd_intr.c ****  * -#	Repeat the following for each OUT EP interrupt bit set (from
3630:../Dave/Generated/src/USBLD001/driver/dwc_otg_pcd_intr.c ****  *		LSB to MSB).
3631:../Dave/Generated/src/USBLD001/driver/dwc_otg_pcd_intr.c ****  * -#	Read the Device Endpoint Interrupt (DOEPINTn) register
3632:../Dave/Generated/src/USBLD001/driver/dwc_otg_pcd_intr.c ****  * -#	If "Transfer Complete" call the request complete function
3633:../Dave/Generated/src/USBLD001/driver/dwc_otg_pcd_intr.c ****  * -#	If "Endpoint Disabled" complete the EP disable procedure.
3634:../Dave/Generated/src/USBLD001/driver/dwc_otg_pcd_intr.c ****  * -#	If "AHB Error Interrupt" log error
3635:../Dave/Generated/src/USBLD001/driver/dwc_otg_pcd_intr.c ****  * -#	If "Setup Phase Done" process Setup Packet (See Standard USB
3636:../Dave/Generated/src/USBLD001/driver/dwc_otg_pcd_intr.c ****  *		Command Processing)
3637:../Dave/Generated/src/USBLD001/driver/dwc_otg_pcd_intr.c ****  */
3638:../Dave/Generated/src/USBLD001/driver/dwc_otg_pcd_intr.c **** static int32_t dwc_otg_pcd_handle_out_ep_intr(dwc_otg_pcd_t * pcd)
3639:../Dave/Generated/src/USBLD001/driver/dwc_otg_pcd_intr.c **** {
 7356              		.loc 2 3639 0
 7357              		.cfi_startproc
 7358              		@ args = 0, pretend = 0, frame = 72
 7359              		@ frame_needed = 1, uses_anonymous_args = 0
 7360 0000 80B5     		push	{r7, lr}
 7361              	.LCFI147:
 7362              		.cfi_def_cfa_offset 8
 7363              		.cfi_offset 7, -8
 7364              		.cfi_offset 14, -4
 7365 0002 92B0     		sub	sp, sp, #72
 7366              	.LCFI148:
 7367              		.cfi_def_cfa_offset 80
 7368 0004 00AF     		add	r7, sp, #0
 7369              	.LCFI149:
 7370              		.cfi_def_cfa_register 7
 7371 0006 7860     		str	r0, [r7, #4]
3640:../Dave/Generated/src/USBLD001/driver/dwc_otg_pcd_intr.c **** #define CLEAR_OUT_EP_INTR(__core_if,__epnum,__intr) \
3641:../Dave/Generated/src/USBLD001/driver/dwc_otg_pcd_intr.c **** do { \
3642:../Dave/Generated/src/USBLD001/driver/dwc_otg_pcd_intr.c **** 		doepint_data_t doepint = {.d32=0}; \
3643:../Dave/Generated/src/USBLD001/driver/dwc_otg_pcd_intr.c **** 		doepint.b.__intr = 1; \
3644:../Dave/Generated/src/USBLD001/driver/dwc_otg_pcd_intr.c **** 		DWC_WRITE_REG32(&__core_if->dev_if->out_ep_regs[__epnum]->doepint, \
3645:../Dave/Generated/src/USBLD001/driver/dwc_otg_pcd_intr.c **** 		doepint.d32); \
3646:../Dave/Generated/src/USBLD001/driver/dwc_otg_pcd_intr.c **** } while (0)
3647:../Dave/Generated/src/USBLD001/driver/dwc_otg_pcd_intr.c **** 
3648:../Dave/Generated/src/USBLD001/driver/dwc_otg_pcd_intr.c **** 	dwc_otg_core_if_t *core_if = GET_CORE_IF(pcd);
 7372              		.loc 2 3648 0
 7373 0008 7B68     		ldr	r3, [r7, #4]
 7374 000a 9B68     		ldr	r3, [r3, #8]
 7375 000c FB63     		str	r3, [r7, #60]
3649:../Dave/Generated/src/USBLD001/driver/dwc_otg_pcd_intr.c **** 	uint32_t ep_intr;
3650:../Dave/Generated/src/USBLD001/driver/dwc_otg_pcd_intr.c **** 	doepint_data_t doepint = {.d32 = 0 };
 7376              		.loc 2 3650 0
 7377 000e 4FF00003 		mov	r3, #0
 7378 0012 3B63     		str	r3, [r7, #48]
3651:../Dave/Generated/src/USBLD001/driver/dwc_otg_pcd_intr.c **** 	uint32_t epnum = 0;
 7379              		.loc 2 3651 0
 7380 0014 4FF00003 		mov	r3, #0
 7381 0018 3B64     		str	r3, [r7, #64]
3652:../Dave/Generated/src/USBLD001/driver/dwc_otg_pcd_intr.c **** 	dwc_otg_pcd_ep_t *ep;
3653:../Dave/Generated/src/USBLD001/driver/dwc_otg_pcd_intr.c **** 	dwc_ep_t *dwc_ep;
3654:../Dave/Generated/src/USBLD001/driver/dwc_otg_pcd_intr.c **** 
3655:../Dave/Generated/src/USBLD001/driver/dwc_otg_pcd_intr.c **** 	DWC_DEBUGPL(DBG_PCDV, "%s()\n", __func__);
3656:../Dave/Generated/src/USBLD001/driver/dwc_otg_pcd_intr.c **** 
3657:../Dave/Generated/src/USBLD001/driver/dwc_otg_pcd_intr.c **** 	/* Read in the device interrupt bits */
3658:../Dave/Generated/src/USBLD001/driver/dwc_otg_pcd_intr.c **** 	ep_intr = dwc_otg_read_dev_all_out_ep_intr(core_if);
 7382              		.loc 2 3658 0
 7383 001a F86B     		ldr	r0, [r7, #60]
 7384 001c FFF7FEFF 		bl	dwc_otg_read_dev_all_out_ep_intr
 7385 0020 7864     		str	r0, [r7, #68]
3659:../Dave/Generated/src/USBLD001/driver/dwc_otg_pcd_intr.c **** 
3660:../Dave/Generated/src/USBLD001/driver/dwc_otg_pcd_intr.c **** 	while (ep_intr) {
 7386              		.loc 2 3660 0
 7387 0022 73E1     		b	.L347
 7388              	.L359:
3661:../Dave/Generated/src/USBLD001/driver/dwc_otg_pcd_intr.c **** 		if (ep_intr & 0x1) {
 7389              		.loc 2 3661 0
 7390 0024 7B6C     		ldr	r3, [r7, #68]
 7391 0026 03F00103 		and	r3, r3, #1
 7392 002a 002B     		cmp	r3, #0
 7393 002c 00F06681 		beq	.L348
3662:../Dave/Generated/src/USBLD001/driver/dwc_otg_pcd_intr.c **** 			/* Get EP pointer */
3663:../Dave/Generated/src/USBLD001/driver/dwc_otg_pcd_intr.c **** 			ep = get_out_ep(pcd, epnum);
 7394              		.loc 2 3663 0
 7395 0030 7868     		ldr	r0, [r7, #4]
 7396 0032 396C     		ldr	r1, [r7, #64]
 7397 0034 FFF7FEFF 		bl	get_out_ep
 7398 0038 B863     		str	r0, [r7, #56]
3664:../Dave/Generated/src/USBLD001/driver/dwc_otg_pcd_intr.c **** 			dwc_ep = &ep->dwc_ep;
 7399              		.loc 2 3664 0
 7400 003a BB6B     		ldr	r3, [r7, #56]
 7401 003c 03F11003 		add	r3, r3, #16
 7402 0040 7B63     		str	r3, [r7, #52]
3665:../Dave/Generated/src/USBLD001/driver/dwc_otg_pcd_intr.c **** 
3666:../Dave/Generated/src/USBLD001/driver/dwc_otg_pcd_intr.c **** #ifdef VERBOSE
3667:../Dave/Generated/src/USBLD001/driver/dwc_otg_pcd_intr.c **** 			DWC_DEBUGPL(DBG_PCDV,
3668:../Dave/Generated/src/USBLD001/driver/dwc_otg_pcd_intr.c **** 				    "EP%d-%s: type=%d, mps=%d\n",
3669:../Dave/Generated/src/USBLD001/driver/dwc_otg_pcd_intr.c **** 				    dwc_ep->num, (dwc_ep->is_in ? "IN" : "OUT"),
3670:../Dave/Generated/src/USBLD001/driver/dwc_otg_pcd_intr.c **** 				    dwc_ep->type, dwc_ep->maxpacket);
3671:../Dave/Generated/src/USBLD001/driver/dwc_otg_pcd_intr.c **** #endif
3672:../Dave/Generated/src/USBLD001/driver/dwc_otg_pcd_intr.c **** 			doepint.d32 =
3673:../Dave/Generated/src/USBLD001/driver/dwc_otg_pcd_intr.c **** 			    dwc_otg_read_dev_out_ep_intr(core_if, dwc_ep);
 7403              		.loc 2 3673 0
 7404 0042 F86B     		ldr	r0, [r7, #60]
 7405 0044 796B     		ldr	r1, [r7, #52]
 7406 0046 FFF7FEFF 		bl	dwc_otg_read_dev_out_ep_intr
 7407 004a 0346     		mov	r3, r0
3672:../Dave/Generated/src/USBLD001/driver/dwc_otg_pcd_intr.c **** 			doepint.d32 =
 7408              		.loc 2 3672 0
 7409 004c 3B63     		str	r3, [r7, #48]
3674:../Dave/Generated/src/USBLD001/driver/dwc_otg_pcd_intr.c **** 
3675:../Dave/Generated/src/USBLD001/driver/dwc_otg_pcd_intr.c **** 			/* Transfer complete */
3676:../Dave/Generated/src/USBLD001/driver/dwc_otg_pcd_intr.c **** 			if (doepint.b.xfercompl) {
 7410              		.loc 2 3676 0
 7411 004e 97F83030 		ldrb	r3, [r7, #48]	@ zero_extendqisi2
 7412 0052 03F00103 		and	r3, r3, #1
 7413 0056 DBB2     		uxtb	r3, r3
 7414 0058 002B     		cmp	r3, #0
 7415 005a 40D0     		beq	.L349
3677:../Dave/Generated/src/USBLD001/driver/dwc_otg_pcd_intr.c **** 
3678:../Dave/Generated/src/USBLD001/driver/dwc_otg_pcd_intr.c **** 				if (epnum == 0) {
 7416              		.loc 2 3678 0
 7417 005c 3B6C     		ldr	r3, [r7, #64]
 7418 005e 002B     		cmp	r3, #0
 7419 0060 23D1     		bne	.L350
 7420              	.LBB21:
3679:../Dave/Generated/src/USBLD001/driver/dwc_otg_pcd_intr.c **** 					/* Clear the bit in DOEPINTn for this interrupt */
3680:../Dave/Generated/src/USBLD001/driver/dwc_otg_pcd_intr.c **** 					CLEAR_OUT_EP_INTR(core_if, epnum,
 7421              		.loc 2 3680 0
 7422 0062 4FF00003 		mov	r3, #0
 7423 0066 FB62     		str	r3, [r7, #44]
 7424 0068 FB6A     		ldr	r3, [r7, #44]
 7425 006a 43F00103 		orr	r3, r3, #1
 7426 006e FB62     		str	r3, [r7, #44]
 7427 0070 FB6B     		ldr	r3, [r7, #60]
 7428 0072 9A68     		ldr	r2, [r3, #8]
 7429 0074 3B6C     		ldr	r3, [r7, #64]
 7430 0076 03F10803 		add	r3, r3, #8
 7431 007a 4FEA8303 		lsl	r3, r3, #2
 7432 007e D318     		adds	r3, r2, r3
 7433 0080 5B68     		ldr	r3, [r3, #4]
 7434 0082 03F10802 		add	r2, r3, #8
 7435 0086 FB6A     		ldr	r3, [r7, #44]
 7436 0088 1046     		mov	r0, r2
 7437 008a 1946     		mov	r1, r3
 7438 008c FFF7FEFF 		bl	DWC_WRITE_REG32
 7439              	.LBE21:
3681:../Dave/Generated/src/USBLD001/driver/dwc_otg_pcd_intr.c **** 							  xfercompl);
3682:../Dave/Generated/src/USBLD001/driver/dwc_otg_pcd_intr.c **** 					if (core_if->dma_desc_enable == 0
 7440              		.loc 2 3682 0
 7441 0090 FB6B     		ldr	r3, [r7, #60]
 7442 0092 93F84730 		ldrb	r3, [r3, #71]	@ zero_extendqisi2
 7443 0096 002B     		cmp	r3, #0
 7444 0098 03D0     		beq	.L351
3683:../Dave/Generated/src/USBLD001/driver/dwc_otg_pcd_intr.c **** 					    || pcd->ep0state != EP0_IDLE)
 7445              		.loc 2 3683 0
 7446 009a 7B68     		ldr	r3, [r7, #4]
 7447 009c 1B7B     		ldrb	r3, [r3, #12]	@ zero_extendqisi2
 7448 009e 012B     		cmp	r3, #1
 7449 00a0 1DD0     		beq	.L349
 7450              	.L351:
3684:../Dave/Generated/src/USBLD001/driver/dwc_otg_pcd_intr.c **** 						handle_ep0(pcd);
 7451              		.loc 2 3684 0
 7452 00a2 7868     		ldr	r0, [r7, #4]
 7453 00a4 FFF7FEFF 		bl	handle_ep0
 7454 00a8 19E0     		b	.L349
 7455              	.L350:
 7456              	.LBB22:
3685:../Dave/Generated/src/USBLD001/driver/dwc_otg_pcd_intr.c **** #ifdef DWC_EN_ISOC
3686:../Dave/Generated/src/USBLD001/driver/dwc_otg_pcd_intr.c **** 				} else if (dwc_ep->type == DWC_OTG_EP_TYPE_ISOC) {
3687:../Dave/Generated/src/USBLD001/driver/dwc_otg_pcd_intr.c **** 					if (doepint.b.pktdrpsts == 0) {
3688:../Dave/Generated/src/USBLD001/driver/dwc_otg_pcd_intr.c **** 						/* Clear the bit in DOEPINTn for this interrupt */
3689:../Dave/Generated/src/USBLD001/driver/dwc_otg_pcd_intr.c **** 						CLEAR_OUT_EP_INTR(core_if,
3690:../Dave/Generated/src/USBLD001/driver/dwc_otg_pcd_intr.c **** 								  epnum,
3691:../Dave/Generated/src/USBLD001/driver/dwc_otg_pcd_intr.c **** 								  xfercompl);
3692:../Dave/Generated/src/USBLD001/driver/dwc_otg_pcd_intr.c **** 						complete_iso_ep(pcd, ep);
3693:../Dave/Generated/src/USBLD001/driver/dwc_otg_pcd_intr.c **** 					} else {
3694:../Dave/Generated/src/USBLD001/driver/dwc_otg_pcd_intr.c **** 
3695:../Dave/Generated/src/USBLD001/driver/dwc_otg_pcd_intr.c **** 						doepint_data_t doepint = {.d32 = 0 };
3696:../Dave/Generated/src/USBLD001/driver/dwc_otg_pcd_intr.c **** 						doepint.b.xfercompl = 1;
3697:../Dave/Generated/src/USBLD001/driver/dwc_otg_pcd_intr.c **** 						doepint.b.pktdrpsts = 1;
3698:../Dave/Generated/src/USBLD001/driver/dwc_otg_pcd_intr.c **** 						DWC_WRITE_REG32
3699:../Dave/Generated/src/USBLD001/driver/dwc_otg_pcd_intr.c **** 						    (&core_if->dev_if->out_ep_regs
3700:../Dave/Generated/src/USBLD001/driver/dwc_otg_pcd_intr.c **** 						     [epnum]->doepint,
3701:../Dave/Generated/src/USBLD001/driver/dwc_otg_pcd_intr.c **** 						     doepint.d32);
3702:../Dave/Generated/src/USBLD001/driver/dwc_otg_pcd_intr.c **** 						if (handle_iso_out_pkt_dropped
3703:../Dave/Generated/src/USBLD001/driver/dwc_otg_pcd_intr.c **** 						    (core_if, dwc_ep)) {
3704:../Dave/Generated/src/USBLD001/driver/dwc_otg_pcd_intr.c **** 							complete_iso_ep(pcd,
3705:../Dave/Generated/src/USBLD001/driver/dwc_otg_pcd_intr.c **** 									ep);
3706:../Dave/Generated/src/USBLD001/driver/dwc_otg_pcd_intr.c **** 						}
3707:../Dave/Generated/src/USBLD001/driver/dwc_otg_pcd_intr.c **** 					}
3708:../Dave/Generated/src/USBLD001/driver/dwc_otg_pcd_intr.c **** #endif /* DWC_EN_ISOC */
3709:../Dave/Generated/src/USBLD001/driver/dwc_otg_pcd_intr.c **** #ifdef DWC_UTE_PER_IO
3710:../Dave/Generated/src/USBLD001/driver/dwc_otg_pcd_intr.c **** 				} else if (dwc_ep->type == DWC_OTG_EP_TYPE_ISOC) {
3711:../Dave/Generated/src/USBLD001/driver/dwc_otg_pcd_intr.c **** 					CLEAR_OUT_EP_INTR(core_if, epnum, xfercompl);
3712:../Dave/Generated/src/USBLD001/driver/dwc_otg_pcd_intr.c **** 					if (!ep->stopped)
3713:../Dave/Generated/src/USBLD001/driver/dwc_otg_pcd_intr.c **** 						complete_xiso_ep(ep);
3714:../Dave/Generated/src/USBLD001/driver/dwc_otg_pcd_intr.c **** #endif /* DWC_UTE_PER_IO */
3715:../Dave/Generated/src/USBLD001/driver/dwc_otg_pcd_intr.c **** 				} else {
3716:../Dave/Generated/src/USBLD001/driver/dwc_otg_pcd_intr.c **** 					/* Clear the bit in DOEPINTn for this interrupt */
3717:../Dave/Generated/src/USBLD001/driver/dwc_otg_pcd_intr.c **** 					CLEAR_OUT_EP_INTR(core_if, epnum,
 7457              		.loc 2 3717 0
 7458 00aa 4FF00003 		mov	r3, #0
 7459 00ae BB62     		str	r3, [r7, #40]
 7460 00b0 BB6A     		ldr	r3, [r7, #40]
 7461 00b2 43F00103 		orr	r3, r3, #1
 7462 00b6 BB62     		str	r3, [r7, #40]
 7463 00b8 FB6B     		ldr	r3, [r7, #60]
 7464 00ba 9A68     		ldr	r2, [r3, #8]
 7465 00bc 3B6C     		ldr	r3, [r7, #64]
 7466 00be 03F10803 		add	r3, r3, #8
 7467 00c2 4FEA8303 		lsl	r3, r3, #2
 7468 00c6 D318     		adds	r3, r2, r3
 7469 00c8 5B68     		ldr	r3, [r3, #4]
 7470 00ca 03F10802 		add	r2, r3, #8
 7471 00ce BB6A     		ldr	r3, [r7, #40]
 7472 00d0 1046     		mov	r0, r2
 7473 00d2 1946     		mov	r1, r3
 7474 00d4 FFF7FEFF 		bl	DWC_WRITE_REG32
 7475              	.LBE22:
3718:../Dave/Generated/src/USBLD001/driver/dwc_otg_pcd_intr.c **** 							  xfercompl);
3719:../Dave/Generated/src/USBLD001/driver/dwc_otg_pcd_intr.c **** 					complete_ep(ep);
 7476              		.loc 2 3719 0
 7477 00d8 B86B     		ldr	r0, [r7, #56]
 7478 00da FFF7FEFF 		bl	complete_ep
 7479              	.L349:
3720:../Dave/Generated/src/USBLD001/driver/dwc_otg_pcd_intr.c **** 				}
3721:../Dave/Generated/src/USBLD001/driver/dwc_otg_pcd_intr.c **** 
3722:../Dave/Generated/src/USBLD001/driver/dwc_otg_pcd_intr.c **** 			}
3723:../Dave/Generated/src/USBLD001/driver/dwc_otg_pcd_intr.c **** 
3724:../Dave/Generated/src/USBLD001/driver/dwc_otg_pcd_intr.c **** 			/* Endpoint disable      */
3725:../Dave/Generated/src/USBLD001/driver/dwc_otg_pcd_intr.c **** 			if (doepint.b.epdisabled) {
 7480              		.loc 2 3725 0
 7481 00de 97F83030 		ldrb	r3, [r7, #48]	@ zero_extendqisi2
 7482 00e2 03F00203 		and	r3, r3, #2
 7483 00e6 DBB2     		uxtb	r3, r3
 7484 00e8 002B     		cmp	r3, #0
 7485 00ea 16D0     		beq	.L352
 7486              	.LBB23:
3726:../Dave/Generated/src/USBLD001/driver/dwc_otg_pcd_intr.c **** 
3727:../Dave/Generated/src/USBLD001/driver/dwc_otg_pcd_intr.c **** 				/* Clear the bit in DOEPINTn for this interrupt */
3728:../Dave/Generated/src/USBLD001/driver/dwc_otg_pcd_intr.c **** 				CLEAR_OUT_EP_INTR(core_if, epnum, epdisabled);
 7487              		.loc 2 3728 0
 7488 00ec 4FF00003 		mov	r3, #0
 7489 00f0 7B62     		str	r3, [r7, #36]
 7490 00f2 7B6A     		ldr	r3, [r7, #36]
 7491 00f4 43F00203 		orr	r3, r3, #2
 7492 00f8 7B62     		str	r3, [r7, #36]
 7493 00fa FB6B     		ldr	r3, [r7, #60]
 7494 00fc 9A68     		ldr	r2, [r3, #8]
 7495 00fe 3B6C     		ldr	r3, [r7, #64]
 7496 0100 03F10803 		add	r3, r3, #8
 7497 0104 4FEA8303 		lsl	r3, r3, #2
 7498 0108 D318     		adds	r3, r2, r3
 7499 010a 5B68     		ldr	r3, [r3, #4]
 7500 010c 03F10802 		add	r2, r3, #8
 7501 0110 7B6A     		ldr	r3, [r7, #36]
 7502 0112 1046     		mov	r0, r2
 7503 0114 1946     		mov	r1, r3
 7504 0116 FFF7FEFF 		bl	DWC_WRITE_REG32
 7505              	.L352:
 7506              	.LBE23:
3729:../Dave/Generated/src/USBLD001/driver/dwc_otg_pcd_intr.c **** 			}
3730:../Dave/Generated/src/USBLD001/driver/dwc_otg_pcd_intr.c **** 			/* AHB Error */
3731:../Dave/Generated/src/USBLD001/driver/dwc_otg_pcd_intr.c **** 			if (doepint.b.ahberr) {
 7507              		.loc 2 3731 0
 7508 011a 97F83030 		ldrb	r3, [r7, #48]	@ zero_extendqisi2
 7509 011e 03F00403 		and	r3, r3, #4
 7510 0122 DBB2     		uxtb	r3, r3
 7511 0124 002B     		cmp	r3, #0
 7512 0126 16D0     		beq	.L353
 7513              	.LBB24:
3732:../Dave/Generated/src/USBLD001/driver/dwc_otg_pcd_intr.c **** 				DWC_ERROR("EP%d OUT AHB Error\n", epnum);
3733:../Dave/Generated/src/USBLD001/driver/dwc_otg_pcd_intr.c **** 				DWC_ERROR("EP DMA REG	 %d \n",
3734:../Dave/Generated/src/USBLD001/driver/dwc_otg_pcd_intr.c **** 					  core_if->
3735:../Dave/Generated/src/USBLD001/driver/dwc_otg_pcd_intr.c **** 					  dev_if->out_ep_regs[epnum]->doepdma);
3736:../Dave/Generated/src/USBLD001/driver/dwc_otg_pcd_intr.c **** 				CLEAR_OUT_EP_INTR(core_if, epnum, ahberr);
 7514              		.loc 2 3736 0
 7515 0128 4FF00003 		mov	r3, #0
 7516 012c 3B62     		str	r3, [r7, #32]
 7517 012e 3B6A     		ldr	r3, [r7, #32]
 7518 0130 43F00403 		orr	r3, r3, #4
 7519 0134 3B62     		str	r3, [r7, #32]
 7520 0136 FB6B     		ldr	r3, [r7, #60]
 7521 0138 9A68     		ldr	r2, [r3, #8]
 7522 013a 3B6C     		ldr	r3, [r7, #64]
 7523 013c 03F10803 		add	r3, r3, #8
 7524 0140 4FEA8303 		lsl	r3, r3, #2
 7525 0144 D318     		adds	r3, r2, r3
 7526 0146 5B68     		ldr	r3, [r3, #4]
 7527 0148 03F10802 		add	r2, r3, #8
 7528 014c 3B6A     		ldr	r3, [r7, #32]
 7529 014e 1046     		mov	r0, r2
 7530 0150 1946     		mov	r1, r3
 7531 0152 FFF7FEFF 		bl	DWC_WRITE_REG32
 7532              	.L353:
 7533              	.LBE24:
3737:../Dave/Generated/src/USBLD001/driver/dwc_otg_pcd_intr.c **** 			}
3738:../Dave/Generated/src/USBLD001/driver/dwc_otg_pcd_intr.c **** 			/* Setup Phase Done (contorl EPs) */
3739:../Dave/Generated/src/USBLD001/driver/dwc_otg_pcd_intr.c **** 			if (doepint.b.setup) {
 7534              		.loc 2 3739 0
 7535 0156 97F83030 		ldrb	r3, [r7, #48]	@ zero_extendqisi2
 7536 015a 03F00803 		and	r3, r3, #8
 7537 015e DBB2     		uxtb	r3, r3
 7538 0160 002B     		cmp	r3, #0
 7539 0162 19D0     		beq	.L354
 7540              	.LBB25:
3740:../Dave/Generated/src/USBLD001/driver/dwc_otg_pcd_intr.c **** #ifdef DEBUG_EP0
3741:../Dave/Generated/src/USBLD001/driver/dwc_otg_pcd_intr.c **** 				DWC_DEBUGPL(DBG_PCD, "EP%d SETUP Done\n",
3742:../Dave/Generated/src/USBLD001/driver/dwc_otg_pcd_intr.c **** 					    epnum);
3743:../Dave/Generated/src/USBLD001/driver/dwc_otg_pcd_intr.c **** #endif
3744:../Dave/Generated/src/USBLD001/driver/dwc_otg_pcd_intr.c **** 				CLEAR_OUT_EP_INTR(core_if, epnum, setup);
 7541              		.loc 2 3744 0
 7542 0164 4FF00003 		mov	r3, #0
 7543 0168 FB61     		str	r3, [r7, #28]
 7544 016a FB69     		ldr	r3, [r7, #28]
 7545 016c 43F00803 		orr	r3, r3, #8
 7546 0170 FB61     		str	r3, [r7, #28]
 7547 0172 FB6B     		ldr	r3, [r7, #60]
 7548 0174 9A68     		ldr	r2, [r3, #8]
 7549 0176 3B6C     		ldr	r3, [r7, #64]
 7550 0178 03F10803 		add	r3, r3, #8
 7551 017c 4FEA8303 		lsl	r3, r3, #2
 7552 0180 D318     		adds	r3, r2, r3
 7553 0182 5B68     		ldr	r3, [r3, #4]
 7554 0184 03F10802 		add	r2, r3, #8
 7555 0188 FB69     		ldr	r3, [r7, #28]
 7556 018a 1046     		mov	r0, r2
 7557 018c 1946     		mov	r1, r3
 7558 018e FFF7FEFF 		bl	DWC_WRITE_REG32
 7559              	.LBE25:
3745:../Dave/Generated/src/USBLD001/driver/dwc_otg_pcd_intr.c **** 
3746:../Dave/Generated/src/USBLD001/driver/dwc_otg_pcd_intr.c **** 				handle_ep0(pcd);
 7560              		.loc 2 3746 0
 7561 0192 7868     		ldr	r0, [r7, #4]
 7562 0194 FFF7FEFF 		bl	handle_ep0
 7563              	.L354:
3747:../Dave/Generated/src/USBLD001/driver/dwc_otg_pcd_intr.c **** 			}
3748:../Dave/Generated/src/USBLD001/driver/dwc_otg_pcd_intr.c **** 
3749:../Dave/Generated/src/USBLD001/driver/dwc_otg_pcd_intr.c **** 			/** OUT EP BNA Intr */
3750:../Dave/Generated/src/USBLD001/driver/dwc_otg_pcd_intr.c **** 			if (doepint.b.bna) {
 7564              		.loc 2 3750 0
 7565 0198 97F83130 		ldrb	r3, [r7, #49]	@ zero_extendqisi2
 7566 019c 03F00203 		and	r3, r3, #2
 7567 01a0 DBB2     		uxtb	r3, r3
 7568 01a2 002B     		cmp	r3, #0
 7569 01a4 1ED0     		beq	.L355
 7570              	.LBB26:
3751:../Dave/Generated/src/USBLD001/driver/dwc_otg_pcd_intr.c **** 				CLEAR_OUT_EP_INTR(core_if, epnum, bna);
 7571              		.loc 2 3751 0
 7572 01a6 4FF00003 		mov	r3, #0
 7573 01aa BB61     		str	r3, [r7, #24]
 7574 01ac BB69     		ldr	r3, [r7, #24]
 7575 01ae 43F40073 		orr	r3, r3, #512
 7576 01b2 BB61     		str	r3, [r7, #24]
 7577 01b4 FB6B     		ldr	r3, [r7, #60]
 7578 01b6 9A68     		ldr	r2, [r3, #8]
 7579 01b8 3B6C     		ldr	r3, [r7, #64]
 7580 01ba 03F10803 		add	r3, r3, #8
 7581 01be 4FEA8303 		lsl	r3, r3, #2
 7582 01c2 D318     		adds	r3, r2, r3
 7583 01c4 5B68     		ldr	r3, [r3, #4]
 7584 01c6 03F10802 		add	r2, r3, #8
 7585 01ca BB69     		ldr	r3, [r7, #24]
 7586 01cc 1046     		mov	r0, r2
 7587 01ce 1946     		mov	r1, r3
 7588 01d0 FFF7FEFF 		bl	DWC_WRITE_REG32
 7589              	.LBE26:
3752:../Dave/Generated/src/USBLD001/driver/dwc_otg_pcd_intr.c **** 				if (core_if->dma_desc_enable) {
 7590              		.loc 2 3752 0
 7591 01d4 FB6B     		ldr	r3, [r7, #60]
 7592 01d6 93F84730 		ldrb	r3, [r3, #71]	@ zero_extendqisi2
 7593 01da 002B     		cmp	r3, #0
 7594 01dc 02D0     		beq	.L355
3753:../Dave/Generated/src/USBLD001/driver/dwc_otg_pcd_intr.c **** #ifdef DWC_EN_ISOC
3754:../Dave/Generated/src/USBLD001/driver/dwc_otg_pcd_intr.c **** 					if (dwc_ep->type ==
3755:../Dave/Generated/src/USBLD001/driver/dwc_otg_pcd_intr.c **** 					    DWC_OTG_EP_TYPE_ISOC) {
3756:../Dave/Generated/src/USBLD001/driver/dwc_otg_pcd_intr.c **** 						/*
3757:../Dave/Generated/src/USBLD001/driver/dwc_otg_pcd_intr.c **** 						 * This checking is performed to prevent first "false" BNA
3758:../Dave/Generated/src/USBLD001/driver/dwc_otg_pcd_intr.c **** 						 * handling occuring right after reconnect
3759:../Dave/Generated/src/USBLD001/driver/dwc_otg_pcd_intr.c **** 						 */
3760:../Dave/Generated/src/USBLD001/driver/dwc_otg_pcd_intr.c **** 						if (dwc_ep->next_frame !=
3761:../Dave/Generated/src/USBLD001/driver/dwc_otg_pcd_intr.c **** 						    0xffffffff)
3762:../Dave/Generated/src/USBLD001/driver/dwc_otg_pcd_intr.c **** 							dwc_otg_pcd_handle_iso_bna(ep);
3763:../Dave/Generated/src/USBLD001/driver/dwc_otg_pcd_intr.c **** 					} else
3764:../Dave/Generated/src/USBLD001/driver/dwc_otg_pcd_intr.c **** #endif				/* DWC_EN_ISOC */
3765:../Dave/Generated/src/USBLD001/driver/dwc_otg_pcd_intr.c **** 					{
3766:../Dave/Generated/src/USBLD001/driver/dwc_otg_pcd_intr.c **** 						dwc_otg_pcd_handle_noniso_bna(ep);
 7595              		.loc 2 3766 0
 7596 01de B86B     		ldr	r0, [r7, #56]
 7597 01e0 FFF7FEFF 		bl	dwc_otg_pcd_handle_noniso_bna
 7598              	.L355:
3767:../Dave/Generated/src/USBLD001/driver/dwc_otg_pcd_intr.c **** 					}
3768:../Dave/Generated/src/USBLD001/driver/dwc_otg_pcd_intr.c **** 				}
3769:../Dave/Generated/src/USBLD001/driver/dwc_otg_pcd_intr.c **** 			}
3770:../Dave/Generated/src/USBLD001/driver/dwc_otg_pcd_intr.c **** 			if (doepint.b.stsphsercvd) {
 7599              		.loc 2 3770 0
 7600 01e4 97F83030 		ldrb	r3, [r7, #48]	@ zero_extendqisi2
 7601 01e8 03F02003 		and	r3, r3, #32
 7602 01ec DBB2     		uxtb	r3, r3
 7603 01ee 002B     		cmp	r3, #0
 7604 01f0 1ED0     		beq	.L356
 7605              	.LBB27:
3771:../Dave/Generated/src/USBLD001/driver/dwc_otg_pcd_intr.c **** 				CLEAR_OUT_EP_INTR(core_if, epnum, stsphsercvd);
 7606              		.loc 2 3771 0
 7607 01f2 4FF00003 		mov	r3, #0
 7608 01f6 7B61     		str	r3, [r7, #20]
 7609 01f8 7B69     		ldr	r3, [r7, #20]
 7610 01fa 43F02003 		orr	r3, r3, #32
 7611 01fe 7B61     		str	r3, [r7, #20]
 7612 0200 FB6B     		ldr	r3, [r7, #60]
 7613 0202 9A68     		ldr	r2, [r3, #8]
 7614 0204 3B6C     		ldr	r3, [r7, #64]
 7615 0206 03F10803 		add	r3, r3, #8
 7616 020a 4FEA8303 		lsl	r3, r3, #2
 7617 020e D318     		adds	r3, r2, r3
 7618 0210 5B68     		ldr	r3, [r3, #4]
 7619 0212 03F10802 		add	r2, r3, #8
 7620 0216 7B69     		ldr	r3, [r7, #20]
 7621 0218 1046     		mov	r0, r2
 7622 021a 1946     		mov	r1, r3
 7623 021c FFF7FEFF 		bl	DWC_WRITE_REG32
 7624              	.LBE27:
3772:../Dave/Generated/src/USBLD001/driver/dwc_otg_pcd_intr.c **** 				if (core_if->dma_desc_enable) {
 7625              		.loc 2 3772 0
 7626 0220 FB6B     		ldr	r3, [r7, #60]
 7627 0222 93F84730 		ldrb	r3, [r3, #71]	@ zero_extendqisi2
 7628 0226 002B     		cmp	r3, #0
 7629 0228 02D0     		beq	.L356
3773:../Dave/Generated/src/USBLD001/driver/dwc_otg_pcd_intr.c **** 					do_setup_in_status_phase(pcd);
 7630              		.loc 2 3773 0
 7631 022a 7868     		ldr	r0, [r7, #4]
 7632 022c FFF7FEFF 		bl	do_setup_in_status_phase
 7633              	.L356:
3774:../Dave/Generated/src/USBLD001/driver/dwc_otg_pcd_intr.c **** 				}
3775:../Dave/Generated/src/USBLD001/driver/dwc_otg_pcd_intr.c **** 			}
3776:../Dave/Generated/src/USBLD001/driver/dwc_otg_pcd_intr.c **** 			/* Babble Interrutp */
3777:../Dave/Generated/src/USBLD001/driver/dwc_otg_pcd_intr.c **** 			if (doepint.b.babble) {
 7634              		.loc 2 3777 0
 7635 0230 97F83130 		ldrb	r3, [r7, #49]	@ zero_extendqisi2
 7636 0234 03F01003 		and	r3, r3, #16
 7637 0238 DBB2     		uxtb	r3, r3
 7638 023a 002B     		cmp	r3, #0
 7639 023c 1AD0     		beq	.L357
3778:../Dave/Generated/src/USBLD001/driver/dwc_otg_pcd_intr.c **** 				DWC_DEBUGPL(DBG_ANY, "EP%d OUT Babble\n",
3779:../Dave/Generated/src/USBLD001/driver/dwc_otg_pcd_intr.c **** 					    epnum);
3780:../Dave/Generated/src/USBLD001/driver/dwc_otg_pcd_intr.c **** 				handle_out_ep_babble_intr(pcd, epnum);
 7640              		.loc 2 3780 0
 7641 023e 7868     		ldr	r0, [r7, #4]
 7642 0240 396C     		ldr	r1, [r7, #64]
 7643 0242 FFF7FEFF 		bl	handle_out_ep_babble_intr
 7644              	.LBB28:
3781:../Dave/Generated/src/USBLD001/driver/dwc_otg_pcd_intr.c **** 
3782:../Dave/Generated/src/USBLD001/driver/dwc_otg_pcd_intr.c **** 				CLEAR_OUT_EP_INTR(core_if, epnum, babble);
 7645              		.loc 2 3782 0
 7646 0246 4FF00003 		mov	r3, #0
 7647 024a 3B61     		str	r3, [r7, #16]
 7648 024c 3B69     		ldr	r3, [r7, #16]
 7649 024e 43F48053 		orr	r3, r3, #4096
 7650 0252 3B61     		str	r3, [r7, #16]
 7651 0254 FB6B     		ldr	r3, [r7, #60]
 7652 0256 9A68     		ldr	r2, [r3, #8]
 7653 0258 3B6C     		ldr	r3, [r7, #64]
 7654 025a 03F10803 		add	r3, r3, #8
 7655 025e 4FEA8303 		lsl	r3, r3, #2
 7656 0262 D318     		adds	r3, r2, r3
 7657 0264 5B68     		ldr	r3, [r3, #4]
 7658 0266 03F10802 		add	r2, r3, #8
 7659 026a 3B69     		ldr	r3, [r7, #16]
 7660 026c 1046     		mov	r0, r2
 7661 026e 1946     		mov	r1, r3
 7662 0270 FFF7FEFF 		bl	DWC_WRITE_REG32
 7663              	.L357:
 7664              	.LBE28:
3783:../Dave/Generated/src/USBLD001/driver/dwc_otg_pcd_intr.c **** 			}
3784:../Dave/Generated/src/USBLD001/driver/dwc_otg_pcd_intr.c **** 			/* NAK Interrutp */
3785:../Dave/Generated/src/USBLD001/driver/dwc_otg_pcd_intr.c **** 			if (doepint.b.nak) {
 7665              		.loc 2 3785 0
 7666 0274 97F83130 		ldrb	r3, [r7, #49]	@ zero_extendqisi2
 7667 0278 03F02003 		and	r3, r3, #32
 7668 027c DBB2     		uxtb	r3, r3
 7669 027e 002B     		cmp	r3, #0
 7670 0280 1AD0     		beq	.L358
3786:../Dave/Generated/src/USBLD001/driver/dwc_otg_pcd_intr.c **** 				DWC_DEBUGPL(DBG_ANY, "EP%d OUT NAK\n", epnum);
3787:../Dave/Generated/src/USBLD001/driver/dwc_otg_pcd_intr.c **** 				handle_out_ep_nak_intr(pcd, epnum);
 7671              		.loc 2 3787 0
 7672 0282 7868     		ldr	r0, [r7, #4]
 7673 0284 396C     		ldr	r1, [r7, #64]
 7674 0286 FFF7FEFF 		bl	handle_out_ep_nak_intr
 7675              	.LBB29:
3788:../Dave/Generated/src/USBLD001/driver/dwc_otg_pcd_intr.c **** 
3789:../Dave/Generated/src/USBLD001/driver/dwc_otg_pcd_intr.c **** 				CLEAR_OUT_EP_INTR(core_if, epnum, nak);
 7676              		.loc 2 3789 0
 7677 028a 4FF00003 		mov	r3, #0
 7678 028e FB60     		str	r3, [r7, #12]
 7679 0290 FB68     		ldr	r3, [r7, #12]
 7680 0292 43F40053 		orr	r3, r3, #8192
 7681 0296 FB60     		str	r3, [r7, #12]
 7682 0298 FB6B     		ldr	r3, [r7, #60]
 7683 029a 9A68     		ldr	r2, [r3, #8]
 7684 029c 3B6C     		ldr	r3, [r7, #64]
 7685 029e 03F10803 		add	r3, r3, #8
 7686 02a2 4FEA8303 		lsl	r3, r3, #2
 7687 02a6 D318     		adds	r3, r2, r3
 7688 02a8 5B68     		ldr	r3, [r3, #4]
 7689 02aa 03F10802 		add	r2, r3, #8
 7690 02ae FB68     		ldr	r3, [r7, #12]
 7691 02b0 1046     		mov	r0, r2
 7692 02b2 1946     		mov	r1, r3
 7693 02b4 FFF7FEFF 		bl	DWC_WRITE_REG32
 7694              	.L358:
 7695              	.LBE29:
3790:../Dave/Generated/src/USBLD001/driver/dwc_otg_pcd_intr.c **** 			}
3791:../Dave/Generated/src/USBLD001/driver/dwc_otg_pcd_intr.c **** 			/* NYET Interrutp */
3792:../Dave/Generated/src/USBLD001/driver/dwc_otg_pcd_intr.c **** 			if (doepint.b.nyet) {
 7696              		.loc 2 3792 0
 7697 02b8 97F83130 		ldrb	r3, [r7, #49]	@ zero_extendqisi2
 7698 02bc 03F04003 		and	r3, r3, #64
 7699 02c0 DBB2     		uxtb	r3, r3
 7700 02c2 002B     		cmp	r3, #0
 7701 02c4 1AD0     		beq	.L348
3793:../Dave/Generated/src/USBLD001/driver/dwc_otg_pcd_intr.c **** 				DWC_DEBUGPL(DBG_ANY, "EP%d OUT NYET\n", epnum);
3794:../Dave/Generated/src/USBLD001/driver/dwc_otg_pcd_intr.c **** 				handle_out_ep_nyet_intr(pcd, epnum);
 7702              		.loc 2 3794 0
 7703 02c6 7868     		ldr	r0, [r7, #4]
 7704 02c8 396C     		ldr	r1, [r7, #64]
 7705 02ca FFF7FEFF 		bl	handle_out_ep_nyet_intr
 7706              	.LBB30:
3795:../Dave/Generated/src/USBLD001/driver/dwc_otg_pcd_intr.c **** 
3796:../Dave/Generated/src/USBLD001/driver/dwc_otg_pcd_intr.c **** 				CLEAR_OUT_EP_INTR(core_if, epnum, nyet);
 7707              		.loc 2 3796 0
 7708 02ce 4FF00003 		mov	r3, #0
 7709 02d2 BB60     		str	r3, [r7, #8]
 7710 02d4 BB68     		ldr	r3, [r7, #8]
 7711 02d6 43F48043 		orr	r3, r3, #16384
 7712 02da BB60     		str	r3, [r7, #8]
 7713 02dc FB6B     		ldr	r3, [r7, #60]
 7714 02de 9A68     		ldr	r2, [r3, #8]
 7715 02e0 3B6C     		ldr	r3, [r7, #64]
 7716 02e2 03F10803 		add	r3, r3, #8
 7717 02e6 4FEA8303 		lsl	r3, r3, #2
 7718 02ea D318     		adds	r3, r2, r3
 7719 02ec 5B68     		ldr	r3, [r3, #4]
 7720 02ee 03F10802 		add	r2, r3, #8
 7721 02f2 BB68     		ldr	r3, [r7, #8]
 7722 02f4 1046     		mov	r0, r2
 7723 02f6 1946     		mov	r1, r3
 7724 02f8 FFF7FEFF 		bl	DWC_WRITE_REG32
 7725              	.L348:
 7726              	.LBE30:
3797:../Dave/Generated/src/USBLD001/driver/dwc_otg_pcd_intr.c **** 			}
3798:../Dave/Generated/src/USBLD001/driver/dwc_otg_pcd_intr.c **** 		}
3799:../Dave/Generated/src/USBLD001/driver/dwc_otg_pcd_intr.c **** 
3800:../Dave/Generated/src/USBLD001/driver/dwc_otg_pcd_intr.c **** 		epnum++;
 7727              		.loc 2 3800 0
 7728 02fc 3B6C     		ldr	r3, [r7, #64]
 7729 02fe 03F10103 		add	r3, r3, #1
 7730 0302 3B64     		str	r3, [r7, #64]
3801:../Dave/Generated/src/USBLD001/driver/dwc_otg_pcd_intr.c **** 		ep_intr >>= 1;
 7731              		.loc 2 3801 0
 7732 0304 7B6C     		ldr	r3, [r7, #68]
 7733 0306 4FEA5303 		lsr	r3, r3, #1
 7734 030a 7B64     		str	r3, [r7, #68]
 7735              	.L347:
3660:../Dave/Generated/src/USBLD001/driver/dwc_otg_pcd_intr.c **** 	while (ep_intr) {
 7736              		.loc 2 3660 0 discriminator 1
 7737 030c 7B6C     		ldr	r3, [r7, #68]
 7738 030e 002B     		cmp	r3, #0
 7739 0310 7FF488AE 		bne	.L359
3802:../Dave/Generated/src/USBLD001/driver/dwc_otg_pcd_intr.c **** 	}
3803:../Dave/Generated/src/USBLD001/driver/dwc_otg_pcd_intr.c **** 
3804:../Dave/Generated/src/USBLD001/driver/dwc_otg_pcd_intr.c **** 	return 1;
 7740              		.loc 2 3804 0
 7741 0314 4FF00103 		mov	r3, #1
3805:../Dave/Generated/src/USBLD001/driver/dwc_otg_pcd_intr.c **** 
3806:../Dave/Generated/src/USBLD001/driver/dwc_otg_pcd_intr.c **** #undef CLEAR_OUT_EP_INTR
3807:../Dave/Generated/src/USBLD001/driver/dwc_otg_pcd_intr.c **** }
 7742              		.loc 2 3807 0
 7743 0318 1846     		mov	r0, r3
 7744 031a 07F14807 		add	r7, r7, #72
 7745 031e BD46     		mov	sp, r7
 7746 0320 80BD     		pop	{r7, pc}
 7747              		.cfi_endproc
 7748              	.LFE64:
 7750 0322 00BF     		.section	.text.dwc_otg_pcd_handle_incomplete_isoc_in_intr,"ax",%progbits
 7751              		.align	2
 7752              		.global	dwc_otg_pcd_handle_incomplete_isoc_in_intr
 7753              		.thumb
 7754              		.thumb_func
 7756              	dwc_otg_pcd_handle_incomplete_isoc_in_intr:
 7757              	.LFB65:
3808:../Dave/Generated/src/USBLD001/driver/dwc_otg_pcd_intr.c **** 
3809:../Dave/Generated/src/USBLD001/driver/dwc_otg_pcd_intr.c **** /**
3810:../Dave/Generated/src/USBLD001/driver/dwc_otg_pcd_intr.c ****  * Incomplete ISO IN Transfer Interrupt.
3811:../Dave/Generated/src/USBLD001/driver/dwc_otg_pcd_intr.c ****  * This interrupt indicates one of the following conditions occurred
3812:../Dave/Generated/src/USBLD001/driver/dwc_otg_pcd_intr.c ****  * while transmitting an ISOC transaction.
3813:../Dave/Generated/src/USBLD001/driver/dwc_otg_pcd_intr.c ****  * - Corrupted IN Token for ISOC EP.
3814:../Dave/Generated/src/USBLD001/driver/dwc_otg_pcd_intr.c ****  * - Packet not complete in FIFO.
3815:../Dave/Generated/src/USBLD001/driver/dwc_otg_pcd_intr.c ****  * The follow actions will be taken:
3816:../Dave/Generated/src/USBLD001/driver/dwc_otg_pcd_intr.c ****  *	-#	Determine the EP
3817:../Dave/Generated/src/USBLD001/driver/dwc_otg_pcd_intr.c ****  *	-#	Set incomplete flag in dwc_ep structure
3818:../Dave/Generated/src/USBLD001/driver/dwc_otg_pcd_intr.c ****  *	-#	Disable EP; when "Endpoint Disabled" interrupt is received
3819:../Dave/Generated/src/USBLD001/driver/dwc_otg_pcd_intr.c ****  *		Flush FIFO
3820:../Dave/Generated/src/USBLD001/driver/dwc_otg_pcd_intr.c ****  */
3821:../Dave/Generated/src/USBLD001/driver/dwc_otg_pcd_intr.c **** int32_t dwc_otg_pcd_handle_incomplete_isoc_in_intr(dwc_otg_pcd_t * pcd)
3822:../Dave/Generated/src/USBLD001/driver/dwc_otg_pcd_intr.c **** {
 7758              		.loc 2 3822 0
 7759              		.cfi_startproc
 7760              		@ args = 0, pretend = 0, frame = 16
 7761              		@ frame_needed = 1, uses_anonymous_args = 0
 7762 0000 80B5     		push	{r7, lr}
 7763              	.LCFI150:
 7764              		.cfi_def_cfa_offset 8
 7765              		.cfi_offset 7, -8
 7766              		.cfi_offset 14, -4
 7767 0002 84B0     		sub	sp, sp, #16
 7768              	.LCFI151:
 7769              		.cfi_def_cfa_offset 24
 7770 0004 00AF     		add	r7, sp, #0
 7771              	.LCFI152:
 7772              		.cfi_def_cfa_register 7
 7773 0006 7860     		str	r0, [r7, #4]
3823:../Dave/Generated/src/USBLD001/driver/dwc_otg_pcd_intr.c **** 	gintsts_data_t gintsts;
3824:../Dave/Generated/src/USBLD001/driver/dwc_otg_pcd_intr.c **** 
3825:../Dave/Generated/src/USBLD001/driver/dwc_otg_pcd_intr.c **** #ifdef DWC_EN_ISOC
3826:../Dave/Generated/src/USBLD001/driver/dwc_otg_pcd_intr.c **** 	dwc_otg_dev_if_t *dev_if;
3827:../Dave/Generated/src/USBLD001/driver/dwc_otg_pcd_intr.c **** 	deptsiz_data_t deptsiz = {.d32 = 0 };
3828:../Dave/Generated/src/USBLD001/driver/dwc_otg_pcd_intr.c **** 	depctl_data_t depctl = {.d32 = 0 };
3829:../Dave/Generated/src/USBLD001/driver/dwc_otg_pcd_intr.c **** 	dsts_data_t dsts = {.d32 = 0 };
3830:../Dave/Generated/src/USBLD001/driver/dwc_otg_pcd_intr.c **** 	dwc_ep_t *dwc_ep;
3831:../Dave/Generated/src/USBLD001/driver/dwc_otg_pcd_intr.c **** 	int i;
3832:../Dave/Generated/src/USBLD001/driver/dwc_otg_pcd_intr.c **** 
3833:../Dave/Generated/src/USBLD001/driver/dwc_otg_pcd_intr.c **** 	dev_if = GET_CORE_IF(pcd)->dev_if;
3834:../Dave/Generated/src/USBLD001/driver/dwc_otg_pcd_intr.c **** 
3835:../Dave/Generated/src/USBLD001/driver/dwc_otg_pcd_intr.c **** 	for (i = 1; i <= dev_if->num_in_eps; ++i) {
3836:../Dave/Generated/src/USBLD001/driver/dwc_otg_pcd_intr.c **** 		dwc_ep = &pcd->in_ep[i].dwc_ep;
3837:../Dave/Generated/src/USBLD001/driver/dwc_otg_pcd_intr.c **** 		if (dwc_ep->active && dwc_ep->type == DWC_OTG_EP_TYPE_ISOC) {
3838:../Dave/Generated/src/USBLD001/driver/dwc_otg_pcd_intr.c **** 			deptsiz.d32 =
3839:../Dave/Generated/src/USBLD001/driver/dwc_otg_pcd_intr.c **** 			    DWC_READ_REG32(&dev_if->in_ep_regs[i]->dieptsiz);
3840:../Dave/Generated/src/USBLD001/driver/dwc_otg_pcd_intr.c **** 			depctl.d32 =
3841:../Dave/Generated/src/USBLD001/driver/dwc_otg_pcd_intr.c **** 			    DWC_READ_REG32(&dev_if->in_ep_regs[i]->diepctl);
3842:../Dave/Generated/src/USBLD001/driver/dwc_otg_pcd_intr.c **** 
3843:../Dave/Generated/src/USBLD001/driver/dwc_otg_pcd_intr.c **** 			if (depctl.b.epdis && deptsiz.d32) {
3844:../Dave/Generated/src/USBLD001/driver/dwc_otg_pcd_intr.c **** 				set_current_pkt_info(GET_CORE_IF(pcd), dwc_ep);
3845:../Dave/Generated/src/USBLD001/driver/dwc_otg_pcd_intr.c **** 				if (dwc_ep->cur_pkt >= dwc_ep->pkt_cnt) {
3846:../Dave/Generated/src/USBLD001/driver/dwc_otg_pcd_intr.c **** 					dwc_ep->cur_pkt = 0;
3847:../Dave/Generated/src/USBLD001/driver/dwc_otg_pcd_intr.c **** 					dwc_ep->proc_buf_num =
3848:../Dave/Generated/src/USBLD001/driver/dwc_otg_pcd_intr.c **** 					    (dwc_ep->proc_buf_num ^ 1) & 0x1;
3849:../Dave/Generated/src/USBLD001/driver/dwc_otg_pcd_intr.c **** 
3850:../Dave/Generated/src/USBLD001/driver/dwc_otg_pcd_intr.c **** 					if (dwc_ep->proc_buf_num) {
3851:../Dave/Generated/src/USBLD001/driver/dwc_otg_pcd_intr.c **** 						dwc_ep->cur_pkt_addr =
3852:../Dave/Generated/src/USBLD001/driver/dwc_otg_pcd_intr.c **** 						    dwc_ep->xfer_buff1;
3853:../Dave/Generated/src/USBLD001/driver/dwc_otg_pcd_intr.c **** 						dwc_ep->cur_pkt_dma_addr =
3854:../Dave/Generated/src/USBLD001/driver/dwc_otg_pcd_intr.c **** 						    dwc_ep->dma_addr1;
3855:../Dave/Generated/src/USBLD001/driver/dwc_otg_pcd_intr.c **** 					} else {
3856:../Dave/Generated/src/USBLD001/driver/dwc_otg_pcd_intr.c **** 						dwc_ep->cur_pkt_addr =
3857:../Dave/Generated/src/USBLD001/driver/dwc_otg_pcd_intr.c **** 						    dwc_ep->xfer_buff0;
3858:../Dave/Generated/src/USBLD001/driver/dwc_otg_pcd_intr.c **** 						dwc_ep->cur_pkt_dma_addr =
3859:../Dave/Generated/src/USBLD001/driver/dwc_otg_pcd_intr.c **** 						    dwc_ep->dma_addr0;
3860:../Dave/Generated/src/USBLD001/driver/dwc_otg_pcd_intr.c **** 					}
3861:../Dave/Generated/src/USBLD001/driver/dwc_otg_pcd_intr.c **** 
3862:../Dave/Generated/src/USBLD001/driver/dwc_otg_pcd_intr.c **** 				}
3863:../Dave/Generated/src/USBLD001/driver/dwc_otg_pcd_intr.c **** 
3864:../Dave/Generated/src/USBLD001/driver/dwc_otg_pcd_intr.c **** 				dsts.d32 =
3865:../Dave/Generated/src/USBLD001/driver/dwc_otg_pcd_intr.c **** 				    DWC_READ_REG32(&GET_CORE_IF(pcd)->dev_if->
3866:../Dave/Generated/src/USBLD001/driver/dwc_otg_pcd_intr.c **** 						   dev_global_regs->dsts);
3867:../Dave/Generated/src/USBLD001/driver/dwc_otg_pcd_intr.c **** 				dwc_ep->next_frame = dsts.b.soffn;
3868:../Dave/Generated/src/USBLD001/driver/dwc_otg_pcd_intr.c **** 
3869:../Dave/Generated/src/USBLD001/driver/dwc_otg_pcd_intr.c **** 				dwc_otg_iso_ep_start_frm_transfer(GET_CORE_IF
3870:../Dave/Generated/src/USBLD001/driver/dwc_otg_pcd_intr.c **** 								  (pcd),
3871:../Dave/Generated/src/USBLD001/driver/dwc_otg_pcd_intr.c **** 								  dwc_ep);
3872:../Dave/Generated/src/USBLD001/driver/dwc_otg_pcd_intr.c **** 			}
3873:../Dave/Generated/src/USBLD001/driver/dwc_otg_pcd_intr.c **** 		}
3874:../Dave/Generated/src/USBLD001/driver/dwc_otg_pcd_intr.c **** 	}
3875:../Dave/Generated/src/USBLD001/driver/dwc_otg_pcd_intr.c **** 
3876:../Dave/Generated/src/USBLD001/driver/dwc_otg_pcd_intr.c **** #else
3877:../Dave/Generated/src/USBLD001/driver/dwc_otg_pcd_intr.c **** 	gintmsk_data_t intr_mask = {.d32 = 0 };
 7774              		.loc 2 3877 0
 7775 0008 4FF00003 		mov	r3, #0
 7776 000c BB60     		str	r3, [r7, #8]
3878:../Dave/Generated/src/USBLD001/driver/dwc_otg_pcd_intr.c **** 	DWC_PRINTF("INTERRUPT Handler not implemented for %s\n",
3879:../Dave/Generated/src/USBLD001/driver/dwc_otg_pcd_intr.c **** 		   "IN ISOC Incomplete");
3880:../Dave/Generated/src/USBLD001/driver/dwc_otg_pcd_intr.c **** 
3881:../Dave/Generated/src/USBLD001/driver/dwc_otg_pcd_intr.c **** 	intr_mask.b.incomplisoin = 1;
 7777              		.loc 2 3881 0
 7778 000e BB68     		ldr	r3, [r7, #8]
 7779 0010 43F48013 		orr	r3, r3, #1048576
 7780 0014 BB60     		str	r3, [r7, #8]
3882:../Dave/Generated/src/USBLD001/driver/dwc_otg_pcd_intr.c **** 	DWC_MODIFY_REG32(&GET_CORE_IF(pcd)->core_global_regs->gintmsk,
 7781              		.loc 2 3882 0
 7782 0016 7B68     		ldr	r3, [r7, #4]
 7783 0018 9B68     		ldr	r3, [r3, #8]
 7784 001a 5B68     		ldr	r3, [r3, #4]
 7785 001c 03F11802 		add	r2, r3, #24
 7786 0020 BB68     		ldr	r3, [r7, #8]
 7787 0022 1046     		mov	r0, r2
 7788 0024 1946     		mov	r1, r3
 7789 0026 4FF00002 		mov	r2, #0
 7790 002a FFF7FEFF 		bl	DWC_MODIFY_REG32
3883:../Dave/Generated/src/USBLD001/driver/dwc_otg_pcd_intr.c **** 			 intr_mask.d32, 0);
3884:../Dave/Generated/src/USBLD001/driver/dwc_otg_pcd_intr.c **** #endif				//DWC_EN_ISOC
3885:../Dave/Generated/src/USBLD001/driver/dwc_otg_pcd_intr.c **** 
3886:../Dave/Generated/src/USBLD001/driver/dwc_otg_pcd_intr.c **** 	/* Clear interrupt */
3887:../Dave/Generated/src/USBLD001/driver/dwc_otg_pcd_intr.c **** 	gintsts.d32 = 0;
 7791              		.loc 2 3887 0
 7792 002e 4FF00003 		mov	r3, #0
 7793 0032 FB60     		str	r3, [r7, #12]
3888:../Dave/Generated/src/USBLD001/driver/dwc_otg_pcd_intr.c **** 	gintsts.b.incomplisoin = 1;
 7794              		.loc 2 3888 0
 7795 0034 FB68     		ldr	r3, [r7, #12]
 7796 0036 43F48013 		orr	r3, r3, #1048576
 7797 003a FB60     		str	r3, [r7, #12]
3889:../Dave/Generated/src/USBLD001/driver/dwc_otg_pcd_intr.c **** 	DWC_WRITE_REG32(&GET_CORE_IF(pcd)->core_global_regs->gintsts,
 7798              		.loc 2 3889 0
 7799 003c 7B68     		ldr	r3, [r7, #4]
 7800 003e 9B68     		ldr	r3, [r3, #8]
 7801 0040 5B68     		ldr	r3, [r3, #4]
 7802 0042 03F11402 		add	r2, r3, #20
 7803 0046 FB68     		ldr	r3, [r7, #12]
 7804 0048 1046     		mov	r0, r2
 7805 004a 1946     		mov	r1, r3
 7806 004c FFF7FEFF 		bl	DWC_WRITE_REG32
3890:../Dave/Generated/src/USBLD001/driver/dwc_otg_pcd_intr.c **** 			gintsts.d32);
3891:../Dave/Generated/src/USBLD001/driver/dwc_otg_pcd_intr.c **** 
3892:../Dave/Generated/src/USBLD001/driver/dwc_otg_pcd_intr.c **** 	return 1;
 7807              		.loc 2 3892 0
 7808 0050 4FF00103 		mov	r3, #1
3893:../Dave/Generated/src/USBLD001/driver/dwc_otg_pcd_intr.c **** }
 7809              		.loc 2 3893 0
 7810 0054 1846     		mov	r0, r3
 7811 0056 07F11007 		add	r7, r7, #16
 7812 005a BD46     		mov	sp, r7
 7813 005c 80BD     		pop	{r7, pc}
 7814              		.cfi_endproc
 7815              	.LFE65:
 7817 005e 00BF     		.section	.text.dwc_otg_pcd_handle_incomplete_isoc_out_intr,"ax",%progbits
 7818              		.align	2
 7819              		.global	dwc_otg_pcd_handle_incomplete_isoc_out_intr
 7820              		.thumb
 7821              		.thumb_func
 7823              	dwc_otg_pcd_handle_incomplete_isoc_out_intr:
 7824              	.LFB66:
3894:../Dave/Generated/src/USBLD001/driver/dwc_otg_pcd_intr.c **** 
3895:../Dave/Generated/src/USBLD001/driver/dwc_otg_pcd_intr.c **** /**
3896:../Dave/Generated/src/USBLD001/driver/dwc_otg_pcd_intr.c ****  * Incomplete ISO OUT Transfer Interrupt.
3897:../Dave/Generated/src/USBLD001/driver/dwc_otg_pcd_intr.c ****  *
3898:../Dave/Generated/src/USBLD001/driver/dwc_otg_pcd_intr.c ****  * This interrupt indicates that the core has dropped an ISO OUT
3899:../Dave/Generated/src/USBLD001/driver/dwc_otg_pcd_intr.c ****  * packet. The following conditions can be the cause:
3900:../Dave/Generated/src/USBLD001/driver/dwc_otg_pcd_intr.c ****  * - FIFO Full, the entire packet would not fit in the FIFO.
3901:../Dave/Generated/src/USBLD001/driver/dwc_otg_pcd_intr.c ****  * - CRC Error
3902:../Dave/Generated/src/USBLD001/driver/dwc_otg_pcd_intr.c ****  * - Corrupted Token
3903:../Dave/Generated/src/USBLD001/driver/dwc_otg_pcd_intr.c ****  * The follow actions will be taken:
3904:../Dave/Generated/src/USBLD001/driver/dwc_otg_pcd_intr.c ****  *	-#	Determine the EP
3905:../Dave/Generated/src/USBLD001/driver/dwc_otg_pcd_intr.c ****  *	-#	Set incomplete flag in dwc_ep structure
3906:../Dave/Generated/src/USBLD001/driver/dwc_otg_pcd_intr.c ****  *	-#	Read any data from the FIFO
3907:../Dave/Generated/src/USBLD001/driver/dwc_otg_pcd_intr.c ****  *	-#	Disable EP. When "Endpoint Disabled" interrupt is received
3908:../Dave/Generated/src/USBLD001/driver/dwc_otg_pcd_intr.c ****  *		re-enable EP.
3909:../Dave/Generated/src/USBLD001/driver/dwc_otg_pcd_intr.c ****  */
3910:../Dave/Generated/src/USBLD001/driver/dwc_otg_pcd_intr.c **** int32_t dwc_otg_pcd_handle_incomplete_isoc_out_intr(dwc_otg_pcd_t * pcd)
3911:../Dave/Generated/src/USBLD001/driver/dwc_otg_pcd_intr.c **** {
 7825              		.loc 2 3911 0
 7826              		.cfi_startproc
 7827              		@ args = 0, pretend = 0, frame = 16
 7828              		@ frame_needed = 1, uses_anonymous_args = 0
 7829 0000 80B5     		push	{r7, lr}
 7830              	.LCFI153:
 7831              		.cfi_def_cfa_offset 8
 7832              		.cfi_offset 7, -8
 7833              		.cfi_offset 14, -4
 7834 0002 84B0     		sub	sp, sp, #16
 7835              	.LCFI154:
 7836              		.cfi_def_cfa_offset 24
 7837 0004 00AF     		add	r7, sp, #0
 7838              	.LCFI155:
 7839              		.cfi_def_cfa_register 7
 7840 0006 7860     		str	r0, [r7, #4]
3912:../Dave/Generated/src/USBLD001/driver/dwc_otg_pcd_intr.c **** 
3913:../Dave/Generated/src/USBLD001/driver/dwc_otg_pcd_intr.c **** 	gintsts_data_t gintsts;
3914:../Dave/Generated/src/USBLD001/driver/dwc_otg_pcd_intr.c **** 
3915:../Dave/Generated/src/USBLD001/driver/dwc_otg_pcd_intr.c **** #ifdef DWC_EN_ISOC
3916:../Dave/Generated/src/USBLD001/driver/dwc_otg_pcd_intr.c **** 	dwc_otg_dev_if_t *dev_if;
3917:../Dave/Generated/src/USBLD001/driver/dwc_otg_pcd_intr.c **** 	deptsiz_data_t deptsiz = {.d32 = 0 };
3918:../Dave/Generated/src/USBLD001/driver/dwc_otg_pcd_intr.c **** 	depctl_data_t depctl = {.d32 = 0 };
3919:../Dave/Generated/src/USBLD001/driver/dwc_otg_pcd_intr.c **** 	dsts_data_t dsts = {.d32 = 0 };
3920:../Dave/Generated/src/USBLD001/driver/dwc_otg_pcd_intr.c **** 	dwc_ep_t *dwc_ep;
3921:../Dave/Generated/src/USBLD001/driver/dwc_otg_pcd_intr.c **** 	int i;
3922:../Dave/Generated/src/USBLD001/driver/dwc_otg_pcd_intr.c **** 
3923:../Dave/Generated/src/USBLD001/driver/dwc_otg_pcd_intr.c **** 	dev_if = GET_CORE_IF(pcd)->dev_if;
3924:../Dave/Generated/src/USBLD001/driver/dwc_otg_pcd_intr.c **** 
3925:../Dave/Generated/src/USBLD001/driver/dwc_otg_pcd_intr.c **** 	for (i = 1; i <= dev_if->num_out_eps; ++i) {
3926:../Dave/Generated/src/USBLD001/driver/dwc_otg_pcd_intr.c **** 		dwc_ep = &pcd->in_ep[i].dwc_ep;
3927:../Dave/Generated/src/USBLD001/driver/dwc_otg_pcd_intr.c **** 		if (pcd->out_ep[i].dwc_ep.active &&
3928:../Dave/Generated/src/USBLD001/driver/dwc_otg_pcd_intr.c **** 		    pcd->out_ep[i].dwc_ep.type == DWC_OTG_EP_TYPE_ISOC) {
3929:../Dave/Generated/src/USBLD001/driver/dwc_otg_pcd_intr.c **** 			deptsiz.d32 =
3930:../Dave/Generated/src/USBLD001/driver/dwc_otg_pcd_intr.c **** 			    DWC_READ_REG32(&dev_if->out_ep_regs[i]->doeptsiz);
3931:../Dave/Generated/src/USBLD001/driver/dwc_otg_pcd_intr.c **** 			depctl.d32 =
3932:../Dave/Generated/src/USBLD001/driver/dwc_otg_pcd_intr.c **** 			    DWC_READ_REG32(&dev_if->out_ep_regs[i]->doepctl);
3933:../Dave/Generated/src/USBLD001/driver/dwc_otg_pcd_intr.c **** 
3934:../Dave/Generated/src/USBLD001/driver/dwc_otg_pcd_intr.c **** 			if (depctl.b.epdis && deptsiz.d32) {
3935:../Dave/Generated/src/USBLD001/driver/dwc_otg_pcd_intr.c **** 				set_current_pkt_info(GET_CORE_IF(pcd),
3936:../Dave/Generated/src/USBLD001/driver/dwc_otg_pcd_intr.c **** 						     &pcd->out_ep[i].dwc_ep);
3937:../Dave/Generated/src/USBLD001/driver/dwc_otg_pcd_intr.c **** 				if (dwc_ep->cur_pkt >= dwc_ep->pkt_cnt) {
3938:../Dave/Generated/src/USBLD001/driver/dwc_otg_pcd_intr.c **** 					dwc_ep->cur_pkt = 0;
3939:../Dave/Generated/src/USBLD001/driver/dwc_otg_pcd_intr.c **** 					dwc_ep->proc_buf_num =
3940:../Dave/Generated/src/USBLD001/driver/dwc_otg_pcd_intr.c **** 					    (dwc_ep->proc_buf_num ^ 1) & 0x1;
3941:../Dave/Generated/src/USBLD001/driver/dwc_otg_pcd_intr.c **** 
3942:../Dave/Generated/src/USBLD001/driver/dwc_otg_pcd_intr.c **** 					if (dwc_ep->proc_buf_num) {
3943:../Dave/Generated/src/USBLD001/driver/dwc_otg_pcd_intr.c **** 						dwc_ep->cur_pkt_addr =
3944:../Dave/Generated/src/USBLD001/driver/dwc_otg_pcd_intr.c **** 						    dwc_ep->xfer_buff1;
3945:../Dave/Generated/src/USBLD001/driver/dwc_otg_pcd_intr.c **** 						dwc_ep->cur_pkt_dma_addr =
3946:../Dave/Generated/src/USBLD001/driver/dwc_otg_pcd_intr.c **** 						    dwc_ep->dma_addr1;
3947:../Dave/Generated/src/USBLD001/driver/dwc_otg_pcd_intr.c **** 					} else {
3948:../Dave/Generated/src/USBLD001/driver/dwc_otg_pcd_intr.c **** 						dwc_ep->cur_pkt_addr =
3949:../Dave/Generated/src/USBLD001/driver/dwc_otg_pcd_intr.c **** 						    dwc_ep->xfer_buff0;
3950:../Dave/Generated/src/USBLD001/driver/dwc_otg_pcd_intr.c **** 						dwc_ep->cur_pkt_dma_addr =
3951:../Dave/Generated/src/USBLD001/driver/dwc_otg_pcd_intr.c **** 						    dwc_ep->dma_addr0;
3952:../Dave/Generated/src/USBLD001/driver/dwc_otg_pcd_intr.c **** 					}
3953:../Dave/Generated/src/USBLD001/driver/dwc_otg_pcd_intr.c **** 
3954:../Dave/Generated/src/USBLD001/driver/dwc_otg_pcd_intr.c **** 				}
3955:../Dave/Generated/src/USBLD001/driver/dwc_otg_pcd_intr.c **** 
3956:../Dave/Generated/src/USBLD001/driver/dwc_otg_pcd_intr.c **** 				dsts.d32 =
3957:../Dave/Generated/src/USBLD001/driver/dwc_otg_pcd_intr.c **** 				    DWC_READ_REG32(&GET_CORE_IF(pcd)->dev_if->
3958:../Dave/Generated/src/USBLD001/driver/dwc_otg_pcd_intr.c **** 						   dev_global_regs->dsts);
3959:../Dave/Generated/src/USBLD001/driver/dwc_otg_pcd_intr.c **** 				dwc_ep->next_frame = dsts.b.soffn;
3960:../Dave/Generated/src/USBLD001/driver/dwc_otg_pcd_intr.c **** 
3961:../Dave/Generated/src/USBLD001/driver/dwc_otg_pcd_intr.c **** 				dwc_otg_iso_ep_start_frm_transfer(GET_CORE_IF
3962:../Dave/Generated/src/USBLD001/driver/dwc_otg_pcd_intr.c **** 								  (pcd),
3963:../Dave/Generated/src/USBLD001/driver/dwc_otg_pcd_intr.c **** 								  dwc_ep);
3964:../Dave/Generated/src/USBLD001/driver/dwc_otg_pcd_intr.c **** 			}
3965:../Dave/Generated/src/USBLD001/driver/dwc_otg_pcd_intr.c **** 		}
3966:../Dave/Generated/src/USBLD001/driver/dwc_otg_pcd_intr.c **** 	}
3967:../Dave/Generated/src/USBLD001/driver/dwc_otg_pcd_intr.c **** #else
3968:../Dave/Generated/src/USBLD001/driver/dwc_otg_pcd_intr.c **** 	/** @todo implement ISR */
3969:../Dave/Generated/src/USBLD001/driver/dwc_otg_pcd_intr.c **** 	gintmsk_data_t intr_mask = {.d32 = 0 };
 7841              		.loc 2 3969 0
 7842 0008 4FF00003 		mov	r3, #0
 7843 000c BB60     		str	r3, [r7, #8]
3970:../Dave/Generated/src/USBLD001/driver/dwc_otg_pcd_intr.c **** 
3971:../Dave/Generated/src/USBLD001/driver/dwc_otg_pcd_intr.c **** 	DWC_PRINTF("INTERRUPT Handler not implemented for %s\n",
3972:../Dave/Generated/src/USBLD001/driver/dwc_otg_pcd_intr.c **** 		   "OUT ISOC Incomplete");
3973:../Dave/Generated/src/USBLD001/driver/dwc_otg_pcd_intr.c **** 
3974:../Dave/Generated/src/USBLD001/driver/dwc_otg_pcd_intr.c **** 	intr_mask.b.incomplisoout = 1;
 7844              		.loc 2 3974 0
 7845 000e BB68     		ldr	r3, [r7, #8]
 7846 0010 43F40013 		orr	r3, r3, #2097152
 7847 0014 BB60     		str	r3, [r7, #8]
3975:../Dave/Generated/src/USBLD001/driver/dwc_otg_pcd_intr.c **** 	DWC_MODIFY_REG32(&GET_CORE_IF(pcd)->core_global_regs->gintmsk,
 7848              		.loc 2 3975 0
 7849 0016 7B68     		ldr	r3, [r7, #4]
 7850 0018 9B68     		ldr	r3, [r3, #8]
 7851 001a 5B68     		ldr	r3, [r3, #4]
 7852 001c 03F11802 		add	r2, r3, #24
 7853 0020 BB68     		ldr	r3, [r7, #8]
 7854 0022 1046     		mov	r0, r2
 7855 0024 1946     		mov	r1, r3
 7856 0026 4FF00002 		mov	r2, #0
 7857 002a FFF7FEFF 		bl	DWC_MODIFY_REG32
3976:../Dave/Generated/src/USBLD001/driver/dwc_otg_pcd_intr.c **** 			 intr_mask.d32, 0);
3977:../Dave/Generated/src/USBLD001/driver/dwc_otg_pcd_intr.c **** 
3978:../Dave/Generated/src/USBLD001/driver/dwc_otg_pcd_intr.c **** #endif /* DWC_EN_ISOC */
3979:../Dave/Generated/src/USBLD001/driver/dwc_otg_pcd_intr.c **** 
3980:../Dave/Generated/src/USBLD001/driver/dwc_otg_pcd_intr.c **** 	/* Clear interrupt */
3981:../Dave/Generated/src/USBLD001/driver/dwc_otg_pcd_intr.c **** 	gintsts.d32 = 0;
 7858              		.loc 2 3981 0
 7859 002e 4FF00003 		mov	r3, #0
 7860 0032 FB60     		str	r3, [r7, #12]
3982:../Dave/Generated/src/USBLD001/driver/dwc_otg_pcd_intr.c **** 	gintsts.b.incomplisoout = 1;
 7861              		.loc 2 3982 0
 7862 0034 FB68     		ldr	r3, [r7, #12]
 7863 0036 43F40013 		orr	r3, r3, #2097152
 7864 003a FB60     		str	r3, [r7, #12]
3983:../Dave/Generated/src/USBLD001/driver/dwc_otg_pcd_intr.c **** 	DWC_WRITE_REG32(&GET_CORE_IF(pcd)->core_global_regs->gintsts,
 7865              		.loc 2 3983 0
 7866 003c 7B68     		ldr	r3, [r7, #4]
 7867 003e 9B68     		ldr	r3, [r3, #8]
 7868 0040 5B68     		ldr	r3, [r3, #4]
 7869 0042 03F11402 		add	r2, r3, #20
 7870 0046 FB68     		ldr	r3, [r7, #12]
 7871 0048 1046     		mov	r0, r2
 7872 004a 1946     		mov	r1, r3
 7873 004c FFF7FEFF 		bl	DWC_WRITE_REG32
3984:../Dave/Generated/src/USBLD001/driver/dwc_otg_pcd_intr.c **** 			gintsts.d32);
3985:../Dave/Generated/src/USBLD001/driver/dwc_otg_pcd_intr.c **** 
3986:../Dave/Generated/src/USBLD001/driver/dwc_otg_pcd_intr.c **** 	return 1;
 7874              		.loc 2 3986 0
 7875 0050 4FF00103 		mov	r3, #1
3987:../Dave/Generated/src/USBLD001/driver/dwc_otg_pcd_intr.c **** }
 7876              		.loc 2 3987 0
 7877 0054 1846     		mov	r0, r3
 7878 0056 07F11007 		add	r7, r7, #16
 7879 005a BD46     		mov	sp, r7
 7880 005c 80BD     		pop	{r7, pc}
 7881              		.cfi_endproc
 7882              	.LFE66:
 7884 005e 00BF     		.section	.text.dwc_otg_pcd_handle_in_nak_effective,"ax",%progbits
 7885              		.align	2
 7886              		.global	dwc_otg_pcd_handle_in_nak_effective
 7887              		.thumb
 7888              		.thumb_func
 7890              	dwc_otg_pcd_handle_in_nak_effective:
 7891              	.LFB67:
3988:../Dave/Generated/src/USBLD001/driver/dwc_otg_pcd_intr.c **** 
3989:../Dave/Generated/src/USBLD001/driver/dwc_otg_pcd_intr.c **** /**
3990:../Dave/Generated/src/USBLD001/driver/dwc_otg_pcd_intr.c ****  * This function handles the Global IN NAK Effective interrupt.
3991:../Dave/Generated/src/USBLD001/driver/dwc_otg_pcd_intr.c ****  *
3992:../Dave/Generated/src/USBLD001/driver/dwc_otg_pcd_intr.c ****  */
3993:../Dave/Generated/src/USBLD001/driver/dwc_otg_pcd_intr.c **** int32_t dwc_otg_pcd_handle_in_nak_effective(dwc_otg_pcd_t * pcd)
3994:../Dave/Generated/src/USBLD001/driver/dwc_otg_pcd_intr.c **** {
 7892              		.loc 2 3994 0
 7893              		.cfi_startproc
 7894              		@ args = 0, pretend = 0, frame = 32
 7895              		@ frame_needed = 1, uses_anonymous_args = 0
 7896 0000 80B5     		push	{r7, lr}
 7897              	.LCFI156:
 7898              		.cfi_def_cfa_offset 8
 7899              		.cfi_offset 7, -8
 7900              		.cfi_offset 14, -4
 7901 0002 88B0     		sub	sp, sp, #32
 7902              	.LCFI157:
 7903              		.cfi_def_cfa_offset 40
 7904 0004 00AF     		add	r7, sp, #0
 7905              	.LCFI158:
 7906              		.cfi_def_cfa_register 7
 7907 0006 7860     		str	r0, [r7, #4]
3995:../Dave/Generated/src/USBLD001/driver/dwc_otg_pcd_intr.c **** 	dwc_otg_dev_if_t *dev_if = GET_CORE_IF(pcd)->dev_if;
 7908              		.loc 2 3995 0
 7909 0008 7B68     		ldr	r3, [r7, #4]
 7910 000a 9B68     		ldr	r3, [r3, #8]
 7911 000c 9B68     		ldr	r3, [r3, #8]
 7912 000e BB61     		str	r3, [r7, #24]
3996:../Dave/Generated/src/USBLD001/driver/dwc_otg_pcd_intr.c **** 	depctl_data_t diepctl = {.d32 = 0 };
 7913              		.loc 2 3996 0
 7914 0010 4FF00003 		mov	r3, #0
 7915 0014 7B61     		str	r3, [r7, #20]
3997:../Dave/Generated/src/USBLD001/driver/dwc_otg_pcd_intr.c **** 	depctl_data_t diepctl_rd = {.d32 = 0 };
 7916              		.loc 2 3997 0
 7917 0016 4FF00003 		mov	r3, #0
 7918 001a 3B61     		str	r3, [r7, #16]
3998:../Dave/Generated/src/USBLD001/driver/dwc_otg_pcd_intr.c **** 	gintmsk_data_t intr_mask = {.d32 = 0 };
 7919              		.loc 2 3998 0
 7920 001c 4FF00003 		mov	r3, #0
 7921 0020 FB60     		str	r3, [r7, #12]
3999:../Dave/Generated/src/USBLD001/driver/dwc_otg_pcd_intr.c **** 	gintsts_data_t gintsts;
4000:../Dave/Generated/src/USBLD001/driver/dwc_otg_pcd_intr.c **** 	int i;
4001:../Dave/Generated/src/USBLD001/driver/dwc_otg_pcd_intr.c **** 
4002:../Dave/Generated/src/USBLD001/driver/dwc_otg_pcd_intr.c **** 	DWC_DEBUGPL(DBG_PCD, "Global IN NAK Effective\n");
4003:../Dave/Generated/src/USBLD001/driver/dwc_otg_pcd_intr.c **** 
4004:../Dave/Generated/src/USBLD001/driver/dwc_otg_pcd_intr.c **** 	/* Disable all active IN EPs */
4005:../Dave/Generated/src/USBLD001/driver/dwc_otg_pcd_intr.c **** 	diepctl.b.epdis = 1;
 7922              		.loc 2 4005 0
 7923 0022 7B69     		ldr	r3, [r7, #20]
 7924 0024 43F08043 		orr	r3, r3, #1073741824
 7925 0028 7B61     		str	r3, [r7, #20]
4006:../Dave/Generated/src/USBLD001/driver/dwc_otg_pcd_intr.c **** 	diepctl.b.snak = 1;
 7926              		.loc 2 4006 0
 7927 002a 7B69     		ldr	r3, [r7, #20]
 7928 002c 43F00063 		orr	r3, r3, #134217728
 7929 0030 7B61     		str	r3, [r7, #20]
4007:../Dave/Generated/src/USBLD001/driver/dwc_otg_pcd_intr.c **** 
4008:../Dave/Generated/src/USBLD001/driver/dwc_otg_pcd_intr.c **** 	for (i = 0; i <= dev_if->num_in_eps; i++) {
 7930              		.loc 2 4008 0
 7931 0032 4FF00003 		mov	r3, #0
 7932 0036 FB61     		str	r3, [r7, #28]
 7933 0038 20E0     		b	.L366
 7934              	.L368:
4009:../Dave/Generated/src/USBLD001/driver/dwc_otg_pcd_intr.c **** 		diepctl_rd.d32 =
4010:../Dave/Generated/src/USBLD001/driver/dwc_otg_pcd_intr.c **** 		    DWC_READ_REG32(&dev_if->in_ep_regs[i]->diepctl);
 7935              		.loc 2 4010 0
 7936 003a BA69     		ldr	r2, [r7, #24]
 7937 003c FB69     		ldr	r3, [r7, #28]
 7938 003e 4FEA8303 		lsl	r3, r3, #2
 7939 0042 D318     		adds	r3, r2, r3
 7940 0044 5B68     		ldr	r3, [r3, #4]
 7941 0046 1846     		mov	r0, r3
 7942 0048 FFF7FEFF 		bl	DWC_READ_REG32
 7943 004c 0346     		mov	r3, r0
4009:../Dave/Generated/src/USBLD001/driver/dwc_otg_pcd_intr.c **** 		diepctl_rd.d32 =
 7944              		.loc 2 4009 0
 7945 004e 3B61     		str	r3, [r7, #16]
4011:../Dave/Generated/src/USBLD001/driver/dwc_otg_pcd_intr.c **** 		if (diepctl_rd.b.epena) {
 7946              		.loc 2 4011 0
 7947 0050 FB7C     		ldrb	r3, [r7, #19]	@ zero_extendqisi2
 7948 0052 23F07F03 		bic	r3, r3, #127
 7949 0056 DBB2     		uxtb	r3, r3
 7950 0058 002B     		cmp	r3, #0
 7951 005a 0BD0     		beq	.L367
4012:../Dave/Generated/src/USBLD001/driver/dwc_otg_pcd_intr.c **** 			DWC_WRITE_REG32(&dev_if->in_ep_regs[i]->diepctl,
 7952              		.loc 2 4012 0
 7953 005c BA69     		ldr	r2, [r7, #24]
 7954 005e FB69     		ldr	r3, [r7, #28]
 7955 0060 4FEA8303 		lsl	r3, r3, #2
 7956 0064 D318     		adds	r3, r2, r3
 7957 0066 5B68     		ldr	r3, [r3, #4]
 7958 0068 1A46     		mov	r2, r3
 7959 006a 7B69     		ldr	r3, [r7, #20]
 7960 006c 1046     		mov	r0, r2
 7961 006e 1946     		mov	r1, r3
 7962 0070 FFF7FEFF 		bl	DWC_WRITE_REG32
 7963              	.L367:
4008:../Dave/Generated/src/USBLD001/driver/dwc_otg_pcd_intr.c **** 	for (i = 0; i <= dev_if->num_in_eps; i++) {
 7964              		.loc 2 4008 0
 7965 0074 FB69     		ldr	r3, [r7, #28]
 7966 0076 03F10103 		add	r3, r3, #1
 7967 007a FB61     		str	r3, [r7, #28]
 7968              	.L366:
4008:../Dave/Generated/src/USBLD001/driver/dwc_otg_pcd_intr.c **** 	for (i = 0; i <= dev_if->num_in_eps; i++) {
 7969              		.loc 2 4008 0 is_stmt 0 discriminator 1
 7970 007c BB69     		ldr	r3, [r7, #24]
 7971 007e 93F84530 		ldrb	r3, [r3, #69]	@ zero_extendqisi2
 7972 0082 1A46     		mov	r2, r3
 7973 0084 FB69     		ldr	r3, [r7, #28]
 7974 0086 9A42     		cmp	r2, r3
 7975 0088 D7DA     		bge	.L368
4013:../Dave/Generated/src/USBLD001/driver/dwc_otg_pcd_intr.c **** 					diepctl.d32);
4014:../Dave/Generated/src/USBLD001/driver/dwc_otg_pcd_intr.c **** 		}
4015:../Dave/Generated/src/USBLD001/driver/dwc_otg_pcd_intr.c **** 	}
4016:../Dave/Generated/src/USBLD001/driver/dwc_otg_pcd_intr.c **** 	/* Disable the Global IN NAK Effective Interrupt */
4017:../Dave/Generated/src/USBLD001/driver/dwc_otg_pcd_intr.c **** 	intr_mask.b.ginnakeff = 1;
 7976              		.loc 2 4017 0 is_stmt 1
 7977 008a FB68     		ldr	r3, [r7, #12]
 7978 008c 43F04003 		orr	r3, r3, #64
 7979 0090 FB60     		str	r3, [r7, #12]
4018:../Dave/Generated/src/USBLD001/driver/dwc_otg_pcd_intr.c **** 	DWC_MODIFY_REG32(&GET_CORE_IF(pcd)->core_global_regs->gintmsk,
 7980              		.loc 2 4018 0
 7981 0092 7B68     		ldr	r3, [r7, #4]
 7982 0094 9B68     		ldr	r3, [r3, #8]
 7983 0096 5B68     		ldr	r3, [r3, #4]
 7984 0098 03F11802 		add	r2, r3, #24
 7985 009c FB68     		ldr	r3, [r7, #12]
 7986 009e 1046     		mov	r0, r2
 7987 00a0 1946     		mov	r1, r3
 7988 00a2 4FF00002 		mov	r2, #0
 7989 00a6 FFF7FEFF 		bl	DWC_MODIFY_REG32
4019:../Dave/Generated/src/USBLD001/driver/dwc_otg_pcd_intr.c **** 			 intr_mask.d32, 0);
4020:../Dave/Generated/src/USBLD001/driver/dwc_otg_pcd_intr.c **** 
4021:../Dave/Generated/src/USBLD001/driver/dwc_otg_pcd_intr.c **** 	/* Clear interrupt */
4022:../Dave/Generated/src/USBLD001/driver/dwc_otg_pcd_intr.c **** 	gintsts.d32 = 0;
 7990              		.loc 2 4022 0
 7991 00aa 4FF00003 		mov	r3, #0
 7992 00ae BB60     		str	r3, [r7, #8]
4023:../Dave/Generated/src/USBLD001/driver/dwc_otg_pcd_intr.c **** 	gintsts.b.ginnakeff = 1;
 7993              		.loc 2 4023 0
 7994 00b0 BB68     		ldr	r3, [r7, #8]
 7995 00b2 43F04003 		orr	r3, r3, #64
 7996 00b6 BB60     		str	r3, [r7, #8]
4024:../Dave/Generated/src/USBLD001/driver/dwc_otg_pcd_intr.c **** 	DWC_WRITE_REG32(&GET_CORE_IF(pcd)->core_global_regs->gintsts,
 7997              		.loc 2 4024 0
 7998 00b8 7B68     		ldr	r3, [r7, #4]
 7999 00ba 9B68     		ldr	r3, [r3, #8]
 8000 00bc 5B68     		ldr	r3, [r3, #4]
 8001 00be 03F11402 		add	r2, r3, #20
 8002 00c2 BB68     		ldr	r3, [r7, #8]
 8003 00c4 1046     		mov	r0, r2
 8004 00c6 1946     		mov	r1, r3
 8005 00c8 FFF7FEFF 		bl	DWC_WRITE_REG32
4025:../Dave/Generated/src/USBLD001/driver/dwc_otg_pcd_intr.c **** 			gintsts.d32);
4026:../Dave/Generated/src/USBLD001/driver/dwc_otg_pcd_intr.c **** 
4027:../Dave/Generated/src/USBLD001/driver/dwc_otg_pcd_intr.c **** 	return 1;
 8006              		.loc 2 4027 0
 8007 00cc 4FF00103 		mov	r3, #1
4028:../Dave/Generated/src/USBLD001/driver/dwc_otg_pcd_intr.c **** }
 8008              		.loc 2 4028 0
 8009 00d0 1846     		mov	r0, r3
 8010 00d2 07F12007 		add	r7, r7, #32
 8011 00d6 BD46     		mov	sp, r7
 8012 00d8 80BD     		pop	{r7, pc}
 8013              		.cfi_endproc
 8014              	.LFE67:
 8016 00da 00BF     		.section	.text.dwc_otg_pcd_handle_out_nak_effective,"ax",%progbits
 8017              		.align	2
 8018              		.global	dwc_otg_pcd_handle_out_nak_effective
 8019              		.thumb
 8020              		.thumb_func
 8022              	dwc_otg_pcd_handle_out_nak_effective:
 8023              	.LFB68:
4029:../Dave/Generated/src/USBLD001/driver/dwc_otg_pcd_intr.c **** 
4030:../Dave/Generated/src/USBLD001/driver/dwc_otg_pcd_intr.c **** /**
4031:../Dave/Generated/src/USBLD001/driver/dwc_otg_pcd_intr.c ****  * OUT NAK Effective.
4032:../Dave/Generated/src/USBLD001/driver/dwc_otg_pcd_intr.c ****  *
4033:../Dave/Generated/src/USBLD001/driver/dwc_otg_pcd_intr.c ****  */
4034:../Dave/Generated/src/USBLD001/driver/dwc_otg_pcd_intr.c **** int32_t dwc_otg_pcd_handle_out_nak_effective(dwc_otg_pcd_t * pcd)
4035:../Dave/Generated/src/USBLD001/driver/dwc_otg_pcd_intr.c **** {
 8024              		.loc 2 4035 0
 8025              		.cfi_startproc
 8026              		@ args = 0, pretend = 0, frame = 16
 8027              		@ frame_needed = 1, uses_anonymous_args = 0
 8028 0000 80B5     		push	{r7, lr}
 8029              	.LCFI159:
 8030              		.cfi_def_cfa_offset 8
 8031              		.cfi_offset 7, -8
 8032              		.cfi_offset 14, -4
 8033 0002 84B0     		sub	sp, sp, #16
 8034              	.LCFI160:
 8035              		.cfi_def_cfa_offset 24
 8036 0004 00AF     		add	r7, sp, #0
 8037              	.LCFI161:
 8038              		.cfi_def_cfa_register 7
 8039 0006 7860     		str	r0, [r7, #4]
4036:../Dave/Generated/src/USBLD001/driver/dwc_otg_pcd_intr.c **** 	gintmsk_data_t intr_mask = {.d32 = 0 };
 8040              		.loc 2 4036 0
 8041 0008 4FF00003 		mov	r3, #0
 8042 000c FB60     		str	r3, [r7, #12]
4037:../Dave/Generated/src/USBLD001/driver/dwc_otg_pcd_intr.c **** 	gintsts_data_t gintsts;
4038:../Dave/Generated/src/USBLD001/driver/dwc_otg_pcd_intr.c **** 
4039:../Dave/Generated/src/USBLD001/driver/dwc_otg_pcd_intr.c **** 	DWC_PRINTF("INTERRUPT Handler not implemented for %s\n",
4040:../Dave/Generated/src/USBLD001/driver/dwc_otg_pcd_intr.c **** 		   "Global IN NAK Effective\n");
4041:../Dave/Generated/src/USBLD001/driver/dwc_otg_pcd_intr.c **** 	/* Disable the Global IN NAK Effective Interrupt */
4042:../Dave/Generated/src/USBLD001/driver/dwc_otg_pcd_intr.c **** 	intr_mask.b.goutnakeff = 1;
 8043              		.loc 2 4042 0
 8044 000e FB68     		ldr	r3, [r7, #12]
 8045 0010 43F08003 		orr	r3, r3, #128
 8046 0014 FB60     		str	r3, [r7, #12]
4043:../Dave/Generated/src/USBLD001/driver/dwc_otg_pcd_intr.c **** 	DWC_MODIFY_REG32(&GET_CORE_IF(pcd)->core_global_regs->gintmsk,
 8047              		.loc 2 4043 0
 8048 0016 7B68     		ldr	r3, [r7, #4]
 8049 0018 9B68     		ldr	r3, [r3, #8]
 8050 001a 5B68     		ldr	r3, [r3, #4]
 8051 001c 03F11802 		add	r2, r3, #24
 8052 0020 FB68     		ldr	r3, [r7, #12]
 8053 0022 1046     		mov	r0, r2
 8054 0024 1946     		mov	r1, r3
 8055 0026 4FF00002 		mov	r2, #0
 8056 002a FFF7FEFF 		bl	DWC_MODIFY_REG32
4044:../Dave/Generated/src/USBLD001/driver/dwc_otg_pcd_intr.c **** 			 intr_mask.d32, 0);
4045:../Dave/Generated/src/USBLD001/driver/dwc_otg_pcd_intr.c **** 
4046:../Dave/Generated/src/USBLD001/driver/dwc_otg_pcd_intr.c **** 	/* Clear interrupt */
4047:../Dave/Generated/src/USBLD001/driver/dwc_otg_pcd_intr.c **** 	gintsts.d32 = 0;
 8057              		.loc 2 4047 0
 8058 002e 4FF00003 		mov	r3, #0
 8059 0032 BB60     		str	r3, [r7, #8]
4048:../Dave/Generated/src/USBLD001/driver/dwc_otg_pcd_intr.c **** 	gintsts.b.goutnakeff = 1;
 8060              		.loc 2 4048 0
 8061 0034 BB68     		ldr	r3, [r7, #8]
 8062 0036 43F08003 		orr	r3, r3, #128
 8063 003a BB60     		str	r3, [r7, #8]
4049:../Dave/Generated/src/USBLD001/driver/dwc_otg_pcd_intr.c **** 	DWC_WRITE_REG32(&GET_CORE_IF(pcd)->core_global_regs->gintsts,
 8064              		.loc 2 4049 0
 8065 003c 7B68     		ldr	r3, [r7, #4]
 8066 003e 9B68     		ldr	r3, [r3, #8]
 8067 0040 5B68     		ldr	r3, [r3, #4]
 8068 0042 03F11402 		add	r2, r3, #20
 8069 0046 BB68     		ldr	r3, [r7, #8]
 8070 0048 1046     		mov	r0, r2
 8071 004a 1946     		mov	r1, r3
 8072 004c FFF7FEFF 		bl	DWC_WRITE_REG32
4050:../Dave/Generated/src/USBLD001/driver/dwc_otg_pcd_intr.c **** 			gintsts.d32);
4051:../Dave/Generated/src/USBLD001/driver/dwc_otg_pcd_intr.c **** 
4052:../Dave/Generated/src/USBLD001/driver/dwc_otg_pcd_intr.c **** 	return 1;
 8073              		.loc 2 4052 0
 8074 0050 4FF00103 		mov	r3, #1
4053:../Dave/Generated/src/USBLD001/driver/dwc_otg_pcd_intr.c **** }
 8075              		.loc 2 4053 0
 8076 0054 1846     		mov	r0, r3
 8077 0056 07F11007 		add	r7, r7, #16
 8078 005a BD46     		mov	sp, r7
 8079 005c 80BD     		pop	{r7, pc}
 8080              		.cfi_endproc
 8081              	.LFE68:
 8083 005e 00BF     		.section	.text.dwc_otg_pcd_handle_intr,"ax",%progbits
 8084              		.align	2
 8085              		.global	dwc_otg_pcd_handle_intr
 8086              		.thumb
 8087              		.thumb_func
 8089              	dwc_otg_pcd_handle_intr:
 8090              	.LFB69:
4054:../Dave/Generated/src/USBLD001/driver/dwc_otg_pcd_intr.c **** 
4055:../Dave/Generated/src/USBLD001/driver/dwc_otg_pcd_intr.c **** /**
4056:../Dave/Generated/src/USBLD001/driver/dwc_otg_pcd_intr.c ****  * PCD interrupt handler.
4057:../Dave/Generated/src/USBLD001/driver/dwc_otg_pcd_intr.c ****  *
4058:../Dave/Generated/src/USBLD001/driver/dwc_otg_pcd_intr.c ****  * The PCD handles the device interrupts.  Many conditions can cause a
4059:../Dave/Generated/src/USBLD001/driver/dwc_otg_pcd_intr.c ****  * device interrupt. When an interrupt occurs, the device interrupt
4060:../Dave/Generated/src/USBLD001/driver/dwc_otg_pcd_intr.c ****  * service routine determines the cause of the interrupt and
4061:../Dave/Generated/src/USBLD001/driver/dwc_otg_pcd_intr.c ****  * dispatches handling to the appropriate function. These interrupt
4062:../Dave/Generated/src/USBLD001/driver/dwc_otg_pcd_intr.c ****  * handling functions are described below.
4063:../Dave/Generated/src/USBLD001/driver/dwc_otg_pcd_intr.c ****  *
4064:../Dave/Generated/src/USBLD001/driver/dwc_otg_pcd_intr.c ****  * All interrupt registers are processed from LSB to MSB.
4065:../Dave/Generated/src/USBLD001/driver/dwc_otg_pcd_intr.c ****  *
4066:../Dave/Generated/src/USBLD001/driver/dwc_otg_pcd_intr.c ****  */
4067:../Dave/Generated/src/USBLD001/driver/dwc_otg_pcd_intr.c **** int32_t dwc_otg_pcd_handle_intr(dwc_otg_pcd_t * pcd)
4068:../Dave/Generated/src/USBLD001/driver/dwc_otg_pcd_intr.c **** {
 8091              		.loc 2 4068 0
 8092              		.cfi_startproc
 8093              		@ args = 0, pretend = 0, frame = 24
 8094              		@ frame_needed = 1, uses_anonymous_args = 0
 8095 0000 80B5     		push	{r7, lr}
 8096              	.LCFI162:
 8097              		.cfi_def_cfa_offset 8
 8098              		.cfi_offset 7, -8
 8099              		.cfi_offset 14, -4
 8100 0002 86B0     		sub	sp, sp, #24
 8101              	.LCFI163:
 8102              		.cfi_def_cfa_offset 32
 8103 0004 00AF     		add	r7, sp, #0
 8104              	.LCFI164:
 8105              		.cfi_def_cfa_register 7
 8106 0006 7860     		str	r0, [r7, #4]
4069:../Dave/Generated/src/USBLD001/driver/dwc_otg_pcd_intr.c **** 	dwc_otg_core_if_t *core_if = GET_CORE_IF(pcd);
 8107              		.loc 2 4069 0
 8108 0008 7B68     		ldr	r3, [r7, #4]
 8109 000a 9B68     		ldr	r3, [r3, #8]
 8110 000c 3B61     		str	r3, [r7, #16]
4070:../Dave/Generated/src/USBLD001/driver/dwc_otg_pcd_intr.c **** #ifdef VERBOSE
4071:../Dave/Generated/src/USBLD001/driver/dwc_otg_pcd_intr.c **** 	dwc_otg_core_global_regs_t *global_regs = core_if->core_global_regs;
4072:../Dave/Generated/src/USBLD001/driver/dwc_otg_pcd_intr.c **** #endif
4073:../Dave/Generated/src/USBLD001/driver/dwc_otg_pcd_intr.c **** 	gintsts_data_t gintr_status;
4074:../Dave/Generated/src/USBLD001/driver/dwc_otg_pcd_intr.c **** 	int32_t retval = 0;
 8111              		.loc 2 4074 0
 8112 000e 4FF00003 		mov	r3, #0
 8113 0012 7B61     		str	r3, [r7, #20]
4075:../Dave/Generated/src/USBLD001/driver/dwc_otg_pcd_intr.c **** 
4076:../Dave/Generated/src/USBLD001/driver/dwc_otg_pcd_intr.c **** 	/* Exit from ISR if core is hibernated */
4077:../Dave/Generated/src/USBLD001/driver/dwc_otg_pcd_intr.c **** 	if (core_if->hibernation_suspend == 1) {
 8114              		.loc 2 4077 0
 8115 0014 3B69     		ldr	r3, [r7, #16]
 8116 0016 D3F8C030 		ldr	r3, [r3, #192]
 8117 001a 012B     		cmp	r3, #1
 8118 001c 01D1     		bne	.L373
4078:../Dave/Generated/src/USBLD001/driver/dwc_otg_pcd_intr.c **** 		return retval;
 8119              		.loc 2 4078 0
 8120 001e 7B69     		ldr	r3, [r7, #20]
 8121 0020 08E1     		b	.L393
 8122              	.L373:
4079:../Dave/Generated/src/USBLD001/driver/dwc_otg_pcd_intr.c **** 	}
4080:../Dave/Generated/src/USBLD001/driver/dwc_otg_pcd_intr.c **** #ifdef VERBOSE
4081:../Dave/Generated/src/USBLD001/driver/dwc_otg_pcd_intr.c **** 	DWC_DEBUGPL(DBG_ANY, "%s() gintsts=%08x	 gintmsk=%08x\n",
4082:../Dave/Generated/src/USBLD001/driver/dwc_otg_pcd_intr.c **** 		    __func__,
4083:../Dave/Generated/src/USBLD001/driver/dwc_otg_pcd_intr.c **** 		    DWC_READ_REG32(&global_regs->gintsts),
4084:../Dave/Generated/src/USBLD001/driver/dwc_otg_pcd_intr.c **** 		    DWC_READ_REG32(&global_regs->gintmsk));
4085:../Dave/Generated/src/USBLD001/driver/dwc_otg_pcd_intr.c **** #endif
4086:../Dave/Generated/src/USBLD001/driver/dwc_otg_pcd_intr.c **** 
4087:../Dave/Generated/src/USBLD001/driver/dwc_otg_pcd_intr.c **** 	if (dwc_otg_is_device_mode(core_if)) {
 8123              		.loc 2 4087 0
 8124 0022 3869     		ldr	r0, [r7, #16]
 8125 0024 FFF7FEFF 		bl	dwc_otg_is_device_mode
 8126 0028 0346     		mov	r3, r0
 8127 002a 002B     		cmp	r3, #0
 8128 002c 00F00181 		beq	.L375
4088:../Dave/Generated/src/USBLD001/driver/dwc_otg_pcd_intr.c **** 		DWC_SPINLOCK(pcd->lock);
 8129              		.loc 2 4088 0
 8130 0030 7B68     		ldr	r3, [r7, #4]
 8131 0032 D3F82034 		ldr	r3, [r3, #1056]
 8132 0036 1846     		mov	r0, r3
 8133 0038 FFF7FEFF 		bl	DWC_SPINLOCK
4089:../Dave/Generated/src/USBLD001/driver/dwc_otg_pcd_intr.c **** #ifdef VERBOSE
4090:../Dave/Generated/src/USBLD001/driver/dwc_otg_pcd_intr.c **** 		DWC_DEBUGPL(DBG_PCDV, "%s() gintsts=%08x  gintmsk=%08x\n",
4091:../Dave/Generated/src/USBLD001/driver/dwc_otg_pcd_intr.c **** 			    __func__,
4092:../Dave/Generated/src/USBLD001/driver/dwc_otg_pcd_intr.c **** 			    DWC_READ_REG32(&global_regs->gintsts),
4093:../Dave/Generated/src/USBLD001/driver/dwc_otg_pcd_intr.c **** 			    DWC_READ_REG32(&global_regs->gintmsk));
4094:../Dave/Generated/src/USBLD001/driver/dwc_otg_pcd_intr.c **** #endif
4095:../Dave/Generated/src/USBLD001/driver/dwc_otg_pcd_intr.c **** 		dwc_otg_handle_common_intr(core_if);
 8134              		.loc 2 4095 0
 8135 003c 3869     		ldr	r0, [r7, #16]
 8136 003e FFF7FEFF 		bl	dwc_otg_handle_common_intr
4096:../Dave/Generated/src/USBLD001/driver/dwc_otg_pcd_intr.c **** 		gintr_status.d32 = dwc_otg_read_core_intr(core_if);
 8137              		.loc 2 4096 0
 8138 0042 3869     		ldr	r0, [r7, #16]
 8139 0044 FFF7FEFF 		bl	dwc_otg_read_core_intr
 8140 0048 0346     		mov	r3, r0
 8141 004a FB60     		str	r3, [r7, #12]
4097:../Dave/Generated/src/USBLD001/driver/dwc_otg_pcd_intr.c **** 
4098:../Dave/Generated/src/USBLD001/driver/dwc_otg_pcd_intr.c **** 		DWC_DEBUGPL(DBG_PCDV, "%s: gintsts&gintmsk=%08x\n",
4099:../Dave/Generated/src/USBLD001/driver/dwc_otg_pcd_intr.c **** 			    __func__, gintr_status.d32);
4100:../Dave/Generated/src/USBLD001/driver/dwc_otg_pcd_intr.c **** 
4101:../Dave/Generated/src/USBLD001/driver/dwc_otg_pcd_intr.c **** 		if (gintr_status.b.sofintr) {
 8142              		.loc 2 4101 0
 8143 004c 3B7B     		ldrb	r3, [r7, #12]	@ zero_extendqisi2
 8144 004e 03F00803 		and	r3, r3, #8
 8145 0052 DBB2     		uxtb	r3, r3
 8146 0054 002B     		cmp	r3, #0
 8147 0056 06D0     		beq	.L376
4102:../Dave/Generated/src/USBLD001/driver/dwc_otg_pcd_intr.c **** 			retval |= dwc_otg_pcd_handle_sof_intr(pcd);
 8148              		.loc 2 4102 0
 8149 0058 7868     		ldr	r0, [r7, #4]
 8150 005a FFF7FEFF 		bl	dwc_otg_pcd_handle_sof_intr
 8151 005e 0346     		mov	r3, r0
 8152 0060 7A69     		ldr	r2, [r7, #20]
 8153 0062 1343     		orrs	r3, r3, r2
 8154 0064 7B61     		str	r3, [r7, #20]
 8155              	.L376:
4103:../Dave/Generated/src/USBLD001/driver/dwc_otg_pcd_intr.c **** 		}
4104:../Dave/Generated/src/USBLD001/driver/dwc_otg_pcd_intr.c **** 		if (gintr_status.b.rxstsqlvl) {
 8156              		.loc 2 4104 0
 8157 0066 3B7B     		ldrb	r3, [r7, #12]	@ zero_extendqisi2
 8158 0068 03F01003 		and	r3, r3, #16
 8159 006c DBB2     		uxtb	r3, r3
 8160 006e 002B     		cmp	r3, #0
 8161 0070 06D0     		beq	.L377
4105:../Dave/Generated/src/USBLD001/driver/dwc_otg_pcd_intr.c **** 			retval |=
4106:../Dave/Generated/src/USBLD001/driver/dwc_otg_pcd_intr.c **** 			    dwc_otg_pcd_handle_rx_status_q_level_intr(pcd);
 8162              		.loc 2 4106 0
 8163 0072 7868     		ldr	r0, [r7, #4]
 8164 0074 FFF7FEFF 		bl	dwc_otg_pcd_handle_rx_status_q_level_intr
 8165 0078 0346     		mov	r3, r0
4105:../Dave/Generated/src/USBLD001/driver/dwc_otg_pcd_intr.c **** 			retval |=
 8166              		.loc 2 4105 0
 8167 007a 7A69     		ldr	r2, [r7, #20]
 8168 007c 1343     		orrs	r3, r3, r2
 8169 007e 7B61     		str	r3, [r7, #20]
 8170              	.L377:
4107:../Dave/Generated/src/USBLD001/driver/dwc_otg_pcd_intr.c **** 		}
4108:../Dave/Generated/src/USBLD001/driver/dwc_otg_pcd_intr.c **** 		if (gintr_status.b.nptxfempty) {
 8171              		.loc 2 4108 0
 8172 0080 3B7B     		ldrb	r3, [r7, #12]	@ zero_extendqisi2
 8173 0082 03F02003 		and	r3, r3, #32
 8174 0086 DBB2     		uxtb	r3, r3
 8175 0088 002B     		cmp	r3, #0
 8176 008a 06D0     		beq	.L378
4109:../Dave/Generated/src/USBLD001/driver/dwc_otg_pcd_intr.c **** 			retval |= dwc_otg_pcd_handle_np_tx_fifo_empty_intr(pcd);
 8177              		.loc 2 4109 0
 8178 008c 7868     		ldr	r0, [r7, #4]
 8179 008e FFF7FEFF 		bl	dwc_otg_pcd_handle_np_tx_fifo_empty_intr
 8180 0092 0346     		mov	r3, r0
 8181 0094 7A69     		ldr	r2, [r7, #20]
 8182 0096 1343     		orrs	r3, r3, r2
 8183 0098 7B61     		str	r3, [r7, #20]
 8184              	.L378:
4110:../Dave/Generated/src/USBLD001/driver/dwc_otg_pcd_intr.c **** 		}
4111:../Dave/Generated/src/USBLD001/driver/dwc_otg_pcd_intr.c **** 		if (gintr_status.b.ginnakeff) {
 8185              		.loc 2 4111 0
 8186 009a 3B7B     		ldrb	r3, [r7, #12]	@ zero_extendqisi2
 8187 009c 03F04003 		and	r3, r3, #64
 8188 00a0 DBB2     		uxtb	r3, r3
 8189 00a2 002B     		cmp	r3, #0
 8190 00a4 06D0     		beq	.L379
4112:../Dave/Generated/src/USBLD001/driver/dwc_otg_pcd_intr.c **** 			retval |= dwc_otg_pcd_handle_in_nak_effective(pcd);
 8191              		.loc 2 4112 0
 8192 00a6 7868     		ldr	r0, [r7, #4]
 8193 00a8 FFF7FEFF 		bl	dwc_otg_pcd_handle_in_nak_effective
 8194 00ac 0346     		mov	r3, r0
 8195 00ae 7A69     		ldr	r2, [r7, #20]
 8196 00b0 1343     		orrs	r3, r3, r2
 8197 00b2 7B61     		str	r3, [r7, #20]
 8198              	.L379:
4113:../Dave/Generated/src/USBLD001/driver/dwc_otg_pcd_intr.c **** 		}
4114:../Dave/Generated/src/USBLD001/driver/dwc_otg_pcd_intr.c **** 		if (gintr_status.b.goutnakeff) {
 8199              		.loc 2 4114 0
 8200 00b4 3B7B     		ldrb	r3, [r7, #12]	@ zero_extendqisi2
 8201 00b6 23F07F03 		bic	r3, r3, #127
 8202 00ba DBB2     		uxtb	r3, r3
 8203 00bc 002B     		cmp	r3, #0
 8204 00be 06D0     		beq	.L380
4115:../Dave/Generated/src/USBLD001/driver/dwc_otg_pcd_intr.c **** 			retval |= dwc_otg_pcd_handle_out_nak_effective(pcd);
 8205              		.loc 2 4115 0
 8206 00c0 7868     		ldr	r0, [r7, #4]
 8207 00c2 FFF7FEFF 		bl	dwc_otg_pcd_handle_out_nak_effective
 8208 00c6 0346     		mov	r3, r0
 8209 00c8 7A69     		ldr	r2, [r7, #20]
 8210 00ca 1343     		orrs	r3, r3, r2
 8211 00cc 7B61     		str	r3, [r7, #20]
 8212              	.L380:
4116:../Dave/Generated/src/USBLD001/driver/dwc_otg_pcd_intr.c **** 		}
4117:../Dave/Generated/src/USBLD001/driver/dwc_otg_pcd_intr.c **** 		if (gintr_status.b.i2cintr) {
 8213              		.loc 2 4117 0
 8214 00ce 7B7B     		ldrb	r3, [r7, #13]	@ zero_extendqisi2
 8215 00d0 03F00203 		and	r3, r3, #2
 8216 00d4 DBB2     		uxtb	r3, r3
 8217 00d6 002B     		cmp	r3, #0
 8218 00d8 06D0     		beq	.L381
4118:../Dave/Generated/src/USBLD001/driver/dwc_otg_pcd_intr.c **** 			retval |= dwc_otg_pcd_handle_i2c_intr(pcd);
 8219              		.loc 2 4118 0
 8220 00da 7868     		ldr	r0, [r7, #4]
 8221 00dc FFF7FEFF 		bl	dwc_otg_pcd_handle_i2c_intr
 8222 00e0 0346     		mov	r3, r0
 8223 00e2 7A69     		ldr	r2, [r7, #20]
 8224 00e4 1343     		orrs	r3, r3, r2
 8225 00e6 7B61     		str	r3, [r7, #20]
 8226              	.L381:
4119:../Dave/Generated/src/USBLD001/driver/dwc_otg_pcd_intr.c **** 		}
4120:../Dave/Generated/src/USBLD001/driver/dwc_otg_pcd_intr.c **** 		if (gintr_status.b.erlysuspend) {
 8227              		.loc 2 4120 0
 8228 00e8 7B7B     		ldrb	r3, [r7, #13]	@ zero_extendqisi2
 8229 00ea 03F00403 		and	r3, r3, #4
 8230 00ee DBB2     		uxtb	r3, r3
 8231 00f0 002B     		cmp	r3, #0
 8232 00f2 06D0     		beq	.L382
4121:../Dave/Generated/src/USBLD001/driver/dwc_otg_pcd_intr.c **** 			retval |= dwc_otg_pcd_handle_early_suspend_intr(pcd);
 8233              		.loc 2 4121 0
 8234 00f4 7868     		ldr	r0, [r7, #4]
 8235 00f6 FFF7FEFF 		bl	dwc_otg_pcd_handle_early_suspend_intr
 8236 00fa 0346     		mov	r3, r0
 8237 00fc 7A69     		ldr	r2, [r7, #20]
 8238 00fe 1343     		orrs	r3, r3, r2
 8239 0100 7B61     		str	r3, [r7, #20]
 8240              	.L382:
4122:../Dave/Generated/src/USBLD001/driver/dwc_otg_pcd_intr.c **** 		}
4123:../Dave/Generated/src/USBLD001/driver/dwc_otg_pcd_intr.c **** 		if (gintr_status.b.usbreset) {
 8241              		.loc 2 4123 0
 8242 0102 7B7B     		ldrb	r3, [r7, #13]	@ zero_extendqisi2
 8243 0104 03F01003 		and	r3, r3, #16
 8244 0108 DBB2     		uxtb	r3, r3
 8245 010a 002B     		cmp	r3, #0
 8246 010c 06D0     		beq	.L383
4124:../Dave/Generated/src/USBLD001/driver/dwc_otg_pcd_intr.c **** 			retval |= dwc_otg_pcd_handle_usb_reset_intr(pcd);
 8247              		.loc 2 4124 0
 8248 010e 7868     		ldr	r0, [r7, #4]
 8249 0110 FFF7FEFF 		bl	dwc_otg_pcd_handle_usb_reset_intr
 8250 0114 0346     		mov	r3, r0
 8251 0116 7A69     		ldr	r2, [r7, #20]
 8252 0118 1343     		orrs	r3, r3, r2
 8253 011a 7B61     		str	r3, [r7, #20]
 8254              	.L383:
4125:../Dave/Generated/src/USBLD001/driver/dwc_otg_pcd_intr.c **** 		}
4126:../Dave/Generated/src/USBLD001/driver/dwc_otg_pcd_intr.c **** 		if (gintr_status.b.enumdone) {
 8255              		.loc 2 4126 0
 8256 011c 7B7B     		ldrb	r3, [r7, #13]	@ zero_extendqisi2
 8257 011e 03F02003 		and	r3, r3, #32
 8258 0122 DBB2     		uxtb	r3, r3
 8259 0124 002B     		cmp	r3, #0
 8260 0126 06D0     		beq	.L384
4127:../Dave/Generated/src/USBLD001/driver/dwc_otg_pcd_intr.c **** 			retval |= dwc_otg_pcd_handle_enum_done_intr(pcd);
 8261              		.loc 2 4127 0
 8262 0128 7868     		ldr	r0, [r7, #4]
 8263 012a FFF7FEFF 		bl	dwc_otg_pcd_handle_enum_done_intr
 8264 012e 0346     		mov	r3, r0
 8265 0130 7A69     		ldr	r2, [r7, #20]
 8266 0132 1343     		orrs	r3, r3, r2
 8267 0134 7B61     		str	r3, [r7, #20]
 8268              	.L384:
4128:../Dave/Generated/src/USBLD001/driver/dwc_otg_pcd_intr.c **** 		}
4129:../Dave/Generated/src/USBLD001/driver/dwc_otg_pcd_intr.c **** 		if (gintr_status.b.isooutdrop) {
 8269              		.loc 2 4129 0
 8270 0136 7B7B     		ldrb	r3, [r7, #13]	@ zero_extendqisi2
 8271 0138 03F04003 		and	r3, r3, #64
 8272 013c DBB2     		uxtb	r3, r3
 8273 013e 002B     		cmp	r3, #0
 8274 0140 06D0     		beq	.L385
4130:../Dave/Generated/src/USBLD001/driver/dwc_otg_pcd_intr.c **** 			retval |=
4131:../Dave/Generated/src/USBLD001/driver/dwc_otg_pcd_intr.c **** 			    dwc_otg_pcd_handle_isoc_out_packet_dropped_intr
4132:../Dave/Generated/src/USBLD001/driver/dwc_otg_pcd_intr.c **** 			    (pcd);
 8275              		.loc 2 4132 0
 8276 0142 7868     		ldr	r0, [r7, #4]
 8277 0144 FFF7FEFF 		bl	dwc_otg_pcd_handle_isoc_out_packet_dropped_intr
 8278 0148 0346     		mov	r3, r0
4130:../Dave/Generated/src/USBLD001/driver/dwc_otg_pcd_intr.c **** 			retval |=
 8279              		.loc 2 4130 0
 8280 014a 7A69     		ldr	r2, [r7, #20]
 8281 014c 1343     		orrs	r3, r3, r2
 8282 014e 7B61     		str	r3, [r7, #20]
 8283              	.L385:
4133:../Dave/Generated/src/USBLD001/driver/dwc_otg_pcd_intr.c **** 		}
4134:../Dave/Generated/src/USBLD001/driver/dwc_otg_pcd_intr.c **** 		if (gintr_status.b.eopframe) {
 8284              		.loc 2 4134 0
 8285 0150 7B7B     		ldrb	r3, [r7, #13]	@ zero_extendqisi2
 8286 0152 23F07F03 		bic	r3, r3, #127
 8287 0156 DBB2     		uxtb	r3, r3
 8288 0158 002B     		cmp	r3, #0
 8289 015a 06D0     		beq	.L386
4135:../Dave/Generated/src/USBLD001/driver/dwc_otg_pcd_intr.c **** 			retval |=
4136:../Dave/Generated/src/USBLD001/driver/dwc_otg_pcd_intr.c **** 			    dwc_otg_pcd_handle_end_periodic_frame_intr(pcd);
 8290              		.loc 2 4136 0
 8291 015c 7868     		ldr	r0, [r7, #4]
 8292 015e FFF7FEFF 		bl	dwc_otg_pcd_handle_end_periodic_frame_intr
 8293 0162 0346     		mov	r3, r0
4135:../Dave/Generated/src/USBLD001/driver/dwc_otg_pcd_intr.c **** 			retval |=
 8294              		.loc 2 4135 0
 8295 0164 7A69     		ldr	r2, [r7, #20]
 8296 0166 1343     		orrs	r3, r3, r2
 8297 0168 7B61     		str	r3, [r7, #20]
 8298              	.L386:
4137:../Dave/Generated/src/USBLD001/driver/dwc_otg_pcd_intr.c **** 		}
4138:../Dave/Generated/src/USBLD001/driver/dwc_otg_pcd_intr.c **** 		if (gintr_status.b.epmismatch) {
 8299              		.loc 2 4138 0
 8300 016a BB7B     		ldrb	r3, [r7, #14]	@ zero_extendqisi2
 8301 016c 03F00203 		and	r3, r3, #2
 8302 0170 DBB2     		uxtb	r3, r3
 8303 0172 002B     		cmp	r3, #0
 8304 0174 06D0     		beq	.L387
4139:../Dave/Generated/src/USBLD001/driver/dwc_otg_pcd_intr.c **** 			retval |= dwc_otg_pcd_handle_ep_mismatch_intr(core_if);
 8305              		.loc 2 4139 0
 8306 0176 3869     		ldr	r0, [r7, #16]
 8307 0178 FFF7FEFF 		bl	dwc_otg_pcd_handle_ep_mismatch_intr
 8308 017c 0346     		mov	r3, r0
 8309 017e 7A69     		ldr	r2, [r7, #20]
 8310 0180 1343     		orrs	r3, r3, r2
 8311 0182 7B61     		str	r3, [r7, #20]
 8312              	.L387:
4140:../Dave/Generated/src/USBLD001/driver/dwc_otg_pcd_intr.c **** 		}
4141:../Dave/Generated/src/USBLD001/driver/dwc_otg_pcd_intr.c **** 		if (gintr_status.b.inepint) {
 8313              		.loc 2 4141 0
 8314 0184 BB7B     		ldrb	r3, [r7, #14]	@ zero_extendqisi2
 8315 0186 03F00403 		and	r3, r3, #4
 8316 018a DBB2     		uxtb	r3, r3
 8317 018c 002B     		cmp	r3, #0
 8318 018e 0BD0     		beq	.L388
4142:../Dave/Generated/src/USBLD001/driver/dwc_otg_pcd_intr.c **** 			if (!core_if->multiproc_int_enable) {
 8319              		.loc 2 4142 0
 8320 0190 3B69     		ldr	r3, [r7, #16]
 8321 0192 93F84930 		ldrb	r3, [r3, #73]	@ zero_extendqisi2
 8322 0196 002B     		cmp	r3, #0
 8323 0198 06D1     		bne	.L388
4143:../Dave/Generated/src/USBLD001/driver/dwc_otg_pcd_intr.c **** 				retval |= dwc_otg_pcd_handle_in_ep_intr(pcd);
 8324              		.loc 2 4143 0
 8325 019a 7868     		ldr	r0, [r7, #4]
 8326 019c FFF7FEFF 		bl	dwc_otg_pcd_handle_in_ep_intr
 8327 01a0 0346     		mov	r3, r0
 8328 01a2 7A69     		ldr	r2, [r7, #20]
 8329 01a4 1343     		orrs	r3, r3, r2
 8330 01a6 7B61     		str	r3, [r7, #20]
 8331              	.L388:
4144:../Dave/Generated/src/USBLD001/driver/dwc_otg_pcd_intr.c **** 			}
4145:../Dave/Generated/src/USBLD001/driver/dwc_otg_pcd_intr.c **** 		}
4146:../Dave/Generated/src/USBLD001/driver/dwc_otg_pcd_intr.c **** 		if (gintr_status.b.outepintr) {
 8332              		.loc 2 4146 0
 8333 01a8 BB7B     		ldrb	r3, [r7, #14]	@ zero_extendqisi2
 8334 01aa 03F00803 		and	r3, r3, #8
 8335 01ae DBB2     		uxtb	r3, r3
 8336 01b0 002B     		cmp	r3, #0
 8337 01b2 0BD0     		beq	.L389
4147:../Dave/Generated/src/USBLD001/driver/dwc_otg_pcd_intr.c **** 			if (!core_if->multiproc_int_enable) {
 8338              		.loc 2 4147 0
 8339 01b4 3B69     		ldr	r3, [r7, #16]
 8340 01b6 93F84930 		ldrb	r3, [r3, #73]	@ zero_extendqisi2
 8341 01ba 002B     		cmp	r3, #0
 8342 01bc 06D1     		bne	.L389
4148:../Dave/Generated/src/USBLD001/driver/dwc_otg_pcd_intr.c **** 				retval |= dwc_otg_pcd_handle_out_ep_intr(pcd);
 8343              		.loc 2 4148 0
 8344 01be 7868     		ldr	r0, [r7, #4]
 8345 01c0 FFF7FEFF 		bl	dwc_otg_pcd_handle_out_ep_intr
 8346 01c4 0346     		mov	r3, r0
 8347 01c6 7A69     		ldr	r2, [r7, #20]
 8348 01c8 1343     		orrs	r3, r3, r2
 8349 01ca 7B61     		str	r3, [r7, #20]
 8350              	.L389:
4149:../Dave/Generated/src/USBLD001/driver/dwc_otg_pcd_intr.c **** 			}
4150:../Dave/Generated/src/USBLD001/driver/dwc_otg_pcd_intr.c **** 		}
4151:../Dave/Generated/src/USBLD001/driver/dwc_otg_pcd_intr.c **** 		if (gintr_status.b.incomplisoin) {
 8351              		.loc 2 4151 0
 8352 01cc BB7B     		ldrb	r3, [r7, #14]	@ zero_extendqisi2
 8353 01ce 03F01003 		and	r3, r3, #16
 8354 01d2 DBB2     		uxtb	r3, r3
 8355 01d4 002B     		cmp	r3, #0
 8356 01d6 06D0     		beq	.L390
4152:../Dave/Generated/src/USBLD001/driver/dwc_otg_pcd_intr.c **** 			retval |=
4153:../Dave/Generated/src/USBLD001/driver/dwc_otg_pcd_intr.c **** 			    dwc_otg_pcd_handle_incomplete_isoc_in_intr(pcd);
 8357              		.loc 2 4153 0
 8358 01d8 7868     		ldr	r0, [r7, #4]
 8359 01da FFF7FEFF 		bl	dwc_otg_pcd_handle_incomplete_isoc_in_intr
 8360 01de 0346     		mov	r3, r0
4152:../Dave/Generated/src/USBLD001/driver/dwc_otg_pcd_intr.c **** 			retval |=
 8361              		.loc 2 4152 0
 8362 01e0 7A69     		ldr	r2, [r7, #20]
 8363 01e2 1343     		orrs	r3, r3, r2
 8364 01e4 7B61     		str	r3, [r7, #20]
 8365              	.L390:
4154:../Dave/Generated/src/USBLD001/driver/dwc_otg_pcd_intr.c **** 		}
4155:../Dave/Generated/src/USBLD001/driver/dwc_otg_pcd_intr.c **** 		if (gintr_status.b.incomplisoout) {
 8366              		.loc 2 4155 0
 8367 01e6 BB7B     		ldrb	r3, [r7, #14]	@ zero_extendqisi2
 8368 01e8 03F02003 		and	r3, r3, #32
 8369 01ec DBB2     		uxtb	r3, r3
 8370 01ee 002B     		cmp	r3, #0
 8371 01f0 06D0     		beq	.L391
4156:../Dave/Generated/src/USBLD001/driver/dwc_otg_pcd_intr.c **** 			retval |=
4157:../Dave/Generated/src/USBLD001/driver/dwc_otg_pcd_intr.c **** 			    dwc_otg_pcd_handle_incomplete_isoc_out_intr(pcd);
 8372              		.loc 2 4157 0
 8373 01f2 7868     		ldr	r0, [r7, #4]
 8374 01f4 FFF7FEFF 		bl	dwc_otg_pcd_handle_incomplete_isoc_out_intr
 8375 01f8 0346     		mov	r3, r0
4156:../Dave/Generated/src/USBLD001/driver/dwc_otg_pcd_intr.c **** 			retval |=
 8376              		.loc 2 4156 0
 8377 01fa 7A69     		ldr	r2, [r7, #20]
 8378 01fc 1343     		orrs	r3, r3, r2
 8379 01fe 7B61     		str	r3, [r7, #20]
 8380              	.L391:
4158:../Dave/Generated/src/USBLD001/driver/dwc_otg_pcd_intr.c **** 		}
4159:../Dave/Generated/src/USBLD001/driver/dwc_otg_pcd_intr.c **** 
4160:../Dave/Generated/src/USBLD001/driver/dwc_otg_pcd_intr.c **** 		/* In MPI mode De vice Endpoints intterrupts are asserted
4161:../Dave/Generated/src/USBLD001/driver/dwc_otg_pcd_intr.c **** 		 * without setting outepintr and inepint bits set, so these
4162:../Dave/Generated/src/USBLD001/driver/dwc_otg_pcd_intr.c **** 		 * Interrupt handlers are called without checking these bit-fields
4163:../Dave/Generated/src/USBLD001/driver/dwc_otg_pcd_intr.c **** 		 */
4164:../Dave/Generated/src/USBLD001/driver/dwc_otg_pcd_intr.c **** 		if (core_if->multiproc_int_enable) {
 8381              		.loc 2 4164 0
 8382 0200 3B69     		ldr	r3, [r7, #16]
 8383 0202 93F84930 		ldrb	r3, [r3, #73]	@ zero_extendqisi2
 8384 0206 002B     		cmp	r3, #0
 8385 0208 0DD0     		beq	.L392
4165:../Dave/Generated/src/USBLD001/driver/dwc_otg_pcd_intr.c **** 			retval |= dwc_otg_pcd_handle_in_ep_intr(pcd);
 8386              		.loc 2 4165 0
 8387 020a 7868     		ldr	r0, [r7, #4]
 8388 020c FFF7FEFF 		bl	dwc_otg_pcd_handle_in_ep_intr
 8389 0210 0346     		mov	r3, r0
 8390 0212 7A69     		ldr	r2, [r7, #20]
 8391 0214 1343     		orrs	r3, r3, r2
 8392 0216 7B61     		str	r3, [r7, #20]
4166:../Dave/Generated/src/USBLD001/driver/dwc_otg_pcd_intr.c **** 			retval |= dwc_otg_pcd_handle_out_ep_intr(pcd);
 8393              		.loc 2 4166 0
 8394 0218 7868     		ldr	r0, [r7, #4]
 8395 021a FFF7FEFF 		bl	dwc_otg_pcd_handle_out_ep_intr
 8396 021e 0346     		mov	r3, r0
 8397 0220 7A69     		ldr	r2, [r7, #20]
 8398 0222 1343     		orrs	r3, r3, r2
 8399 0224 7B61     		str	r3, [r7, #20]
 8400              	.L392:
4167:../Dave/Generated/src/USBLD001/driver/dwc_otg_pcd_intr.c **** 		}
4168:../Dave/Generated/src/USBLD001/driver/dwc_otg_pcd_intr.c **** #ifdef VERBOSE
4169:../Dave/Generated/src/USBLD001/driver/dwc_otg_pcd_intr.c **** 		DWC_DEBUGPL(DBG_PCDV, "%s() gintsts=%0x\n", __func__,
4170:../Dave/Generated/src/USBLD001/driver/dwc_otg_pcd_intr.c **** 			    DWC_READ_REG32(&global_regs->gintsts));
4171:../Dave/Generated/src/USBLD001/driver/dwc_otg_pcd_intr.c **** #endif
4172:../Dave/Generated/src/USBLD001/driver/dwc_otg_pcd_intr.c **** 		DWC_SPINUNLOCK(pcd->lock);
 8401              		.loc 2 4172 0
 8402 0226 7B68     		ldr	r3, [r7, #4]
 8403 0228 D3F82034 		ldr	r3, [r3, #1056]
 8404 022c 1846     		mov	r0, r3
 8405 022e FFF7FEFF 		bl	DWC_SPINUNLOCK
 8406              	.L375:
4173:../Dave/Generated/src/USBLD001/driver/dwc_otg_pcd_intr.c **** 	}
4174:../Dave/Generated/src/USBLD001/driver/dwc_otg_pcd_intr.c **** 	return retval;
 8407              		.loc 2 4174 0
 8408 0232 7B69     		ldr	r3, [r7, #20]
 8409              	.L393:
4175:../Dave/Generated/src/USBLD001/driver/dwc_otg_pcd_intr.c **** }
 8410              		.loc 2 4175 0
 8411 0234 1846     		mov	r0, r3
 8412 0236 07F11807 		add	r7, r7, #24
 8413 023a BD46     		mov	sp, r7
 8414 023c 80BD     		pop	{r7, pc}
 8415              		.cfi_endproc
 8416              	.LFE69:
 8418 023e 00BF     		.text
 8419              	.Letext0:
 8420              		.file 3 "c:\\dave-3.1.10\\arm-gcc\\bin\\../lib/gcc/arm-none-eabi/4.7.4/../../../../arm-none-eabi/i
 8421              		.file 4 "../Dave/Generated/src/USBLD001/driver/../type_CM.h"
 8422              		.file 5 "../Dave/Generated/src/USBLD001/driver/usb.h"
 8423              		.file 6 "../Dave/Generated/src/USBLD001/driver/../dwc_common_port/dwc_os.h"
 8424              		.file 7 "../Dave/Generated/src/USBLD001/driver/dwc_otg_core_if.h"
 8425              		.file 8 "../Dave/Generated/src/USBLD001/driver/dwc_otg_regs.h"
 8426              		.file 9 "../Dave/Generated/src/USBLD001/driver/dwc_otg_adp.h"
 8427              		.file 10 "../Dave/Generated/src/USBLD001/driver/dwc_otg_pcd_if.h"
 8428              		.file 11 "../Dave/Generated/src/USBLD001/driver/dwc_otg_pcd.h"
 8429              		.file 12 "../Dave/Generated/src/USBLD001/driver/dwc_otg_dbg.h"
DEFINED SYMBOLS
                            *ABS*:00000000 dwc_otg_pcd_intr.c
C:\Users\maan\AppData\Local\Temp\ccQmd0V7.s:20     .text.dwc_otg_read_core_intr:00000000 $t
C:\Users\maan\AppData\Local\Temp\ccQmd0V7.s:24     .text.dwc_otg_read_core_intr:00000000 dwc_otg_read_core_intr
C:\Users\maan\AppData\Local\Temp\ccQmd0V7.s:69     .text.dwc_otg_read_dev_all_in_ep_intr:00000000 $t
C:\Users\maan\AppData\Local\Temp\ccQmd0V7.s:73     .text.dwc_otg_read_dev_all_in_ep_intr:00000000 dwc_otg_read_dev_all_in_ep_intr
C:\Users\maan\AppData\Local\Temp\ccQmd0V7.s:153    .text.dwc_otg_read_dev_all_out_ep_intr:00000000 $t
C:\Users\maan\AppData\Local\Temp\ccQmd0V7.s:157    .text.dwc_otg_read_dev_all_out_ep_intr:00000000 dwc_otg_read_dev_all_out_ep_intr
C:\Users\maan\AppData\Local\Temp\ccQmd0V7.s:236    .text.dwc_otg_read_dev_in_ep_intr:00000000 $t
C:\Users\maan\AppData\Local\Temp\ccQmd0V7.s:240    .text.dwc_otg_read_dev_in_ep_intr:00000000 dwc_otg_read_dev_in_ep_intr
C:\Users\maan\AppData\Local\Temp\ccQmd0V7.s:367    .text.dwc_otg_read_dev_out_ep_intr:00000000 $t
C:\Users\maan\AppData\Local\Temp\ccQmd0V7.s:371    .text.dwc_otg_read_dev_out_ep_intr:00000000 dwc_otg_read_dev_out_ep_intr
C:\Users\maan\AppData\Local\Temp\ccQmd0V7.s:496    .text.dwc_otg_pcd_update_otg:00000000 $t
C:\Users\maan\AppData\Local\Temp\ccQmd0V7.s:500    .text.dwc_otg_pcd_update_otg:00000000 dwc_otg_pcd_update_otg
C:\Users\maan\AppData\Local\Temp\ccQmd0V7.s:561    .text.print_ep0_state:00000000 $t
C:\Users\maan\AppData\Local\Temp\ccQmd0V7.s:565    .text.print_ep0_state:00000000 print_ep0_state
C:\Users\maan\AppData\Local\Temp\ccQmd0V7.s:592    .text.get_in_ep:00000000 $t
C:\Users\maan\AppData\Local\Temp\ccQmd0V7.s:596    .text.get_in_ep:00000000 get_in_ep
C:\Users\maan\AppData\Local\Temp\ccQmd0V7.s:683    .text.get_out_ep:00000000 $t
C:\Users\maan\AppData\Local\Temp\ccQmd0V7.s:687    .text.get_out_ep:00000000 get_out_ep
C:\Users\maan\AppData\Local\Temp\ccQmd0V7.s:775    .text.get_ep_by_addr:00000000 $t
C:\Users\maan\AppData\Local\Temp\ccQmd0V7.s:780    .text.get_ep_by_addr:00000000 get_ep_by_addr
C:\Users\maan\AppData\Local\Temp\ccQmd0V7.s:856    .text.start_next_request:00000000 $t
C:\Users\maan\AppData\Local\Temp\ccQmd0V7.s:861    .text.start_next_request:00000000 start_next_request
C:\Users\maan\AppData\Local\Temp\ccQmd0V7.s:1074   .text.dwc_otg_pcd_handle_sof_intr:00000000 $t
C:\Users\maan\AppData\Local\Temp\ccQmd0V7.s:1079   .text.dwc_otg_pcd_handle_sof_intr:00000000 dwc_otg_pcd_handle_sof_intr
C:\Users\maan\AppData\Local\Temp\ccQmd0V7.s:1127   .text.dwc_otg_pcd_handle_rx_status_q_level_intr:00000000 $t
C:\Users\maan\AppData\Local\Temp\ccQmd0V7.s:1132   .text.dwc_otg_pcd_handle_rx_status_q_level_intr:00000000 dwc_otg_pcd_handle_rx_status_q_level_intr
C:\Users\maan\AppData\Local\Temp\ccQmd0V7.s:1199   .text.dwc_otg_pcd_handle_rx_status_q_level_intr:00000070 $d
C:\Users\maan\AppData\Local\Temp\ccQmd0V7.s:1207   .text.dwc_otg_pcd_handle_rx_status_q_level_intr:00000088 $t
C:\Users\maan\AppData\Local\Temp\ccQmd0V7.s:1322   .text.get_ep_of_last_in_token:00000000 $t
C:\Users\maan\AppData\Local\Temp\ccQmd0V7.s:1326   .text.get_ep_of_last_in_token:00000000 get_ep_of_last_in_token
C:\Users\maan\AppData\Local\Temp\ccQmd0V7.s:1560   .text.dwc_otg_pcd_handle_np_tx_fifo_empty_intr:00000000 $t
C:\Users\maan\AppData\Local\Temp\ccQmd0V7.s:1565   .text.dwc_otg_pcd_handle_np_tx_fifo_empty_intr:00000000 dwc_otg_pcd_handle_np_tx_fifo_empty_intr
C:\Users\maan\AppData\Local\Temp\ccQmd0V7.s:1748   .text.write_empty_tx_fifo:00000000 $t
C:\Users\maan\AppData\Local\Temp\ccQmd0V7.s:1752   .text.write_empty_tx_fifo:00000000 write_empty_tx_fifo
C:\Users\maan\AppData\Local\Temp\ccQmd0V7.s:1926   .text.dwc_otg_pcd_stop:00000000 $t
C:\Users\maan\AppData\Local\Temp\ccQmd0V7.s:1931   .text.dwc_otg_pcd_stop:00000000 dwc_otg_pcd_stop
C:\Users\maan\AppData\Local\Temp\ccQmd0V7.s:2119   .text.dwc_otg_pcd_handle_i2c_intr:00000000 $t
C:\Users\maan\AppData\Local\Temp\ccQmd0V7.s:2124   .text.dwc_otg_pcd_handle_i2c_intr:00000000 dwc_otg_pcd_handle_i2c_intr
C:\Users\maan\AppData\Local\Temp\ccQmd0V7.s:2186   .text.dwc_otg_pcd_handle_early_suspend_intr:00000000 $t
C:\Users\maan\AppData\Local\Temp\ccQmd0V7.s:2191   .text.dwc_otg_pcd_handle_early_suspend_intr:00000000 dwc_otg_pcd_handle_early_suspend_intr
C:\Users\maan\AppData\Local\Temp\ccQmd0V7.s:2236   .text.ep0_out_start:00000000 $t
C:\Users\maan\AppData\Local\Temp\ccQmd0V7.s:2240   .text.ep0_out_start:00000000 ep0_out_start
C:\Users\maan\AppData\Local\Temp\ccQmd0V7.s:2415   .text.dwc_otg_pcd_handle_usb_reset_intr:00000000 $t
C:\Users\maan\AppData\Local\Temp\ccQmd0V7.s:2420   .text.dwc_otg_pcd_handle_usb_reset_intr:00000000 dwc_otg_pcd_handle_usb_reset_intr
C:\Users\maan\AppData\Local\Temp\ccQmd0V7.s:2810   .text.get_device_speed:00000000 $t
C:\Users\maan\AppData\Local\Temp\ccQmd0V7.s:2814   .text.get_device_speed:00000000 get_device_speed
C:\Users\maan\AppData\Local\Temp\ccQmd0V7.s:2883   .text.dwc_otg_pcd_handle_enum_done_intr:00000000 $t
C:\Users\maan\AppData\Local\Temp\ccQmd0V7.s:2888   .text.dwc_otg_pcd_handle_enum_done_intr:00000000 dwc_otg_pcd_handle_enum_done_intr
C:\Users\maan\AppData\Local\Temp\ccQmd0V7.s:3176   .text.dwc_otg_pcd_handle_isoc_out_packet_dropped_intr:00000000 $t
C:\Users\maan\AppData\Local\Temp\ccQmd0V7.s:3181   .text.dwc_otg_pcd_handle_isoc_out_packet_dropped_intr:00000000 dwc_otg_pcd_handle_isoc_out_packet_dropped_intr
C:\Users\maan\AppData\Local\Temp\ccQmd0V7.s:3243   .text.dwc_otg_pcd_handle_end_periodic_frame_intr:00000000 $t
C:\Users\maan\AppData\Local\Temp\ccQmd0V7.s:3248   .text.dwc_otg_pcd_handle_end_periodic_frame_intr:00000000 dwc_otg_pcd_handle_end_periodic_frame_intr
C:\Users\maan\AppData\Local\Temp\ccQmd0V7.s:3310   .text.dwc_otg_pcd_handle_ep_mismatch_intr:00000000 $t
C:\Users\maan\AppData\Local\Temp\ccQmd0V7.s:3315   .text.dwc_otg_pcd_handle_ep_mismatch_intr:00000000 dwc_otg_pcd_handle_ep_mismatch_intr
C:\Users\maan\AppData\Local\Temp\ccQmd0V7.s:3359   .text.ep0_do_stall:00000000 $t
C:\Users\maan\AppData\Local\Temp\ccQmd0V7.s:3363   .text.ep0_do_stall:00000000 ep0_do_stall
C:\Users\maan\AppData\Local\Temp\ccQmd0V7.s:3422   .text.do_gadget_setup:00000000 $t
C:\Users\maan\AppData\Local\Temp\ccQmd0V7.s:3426   .text.do_gadget_setup:00000000 do_gadget_setup
C:\Users\maan\AppData\Local\Temp\ccQmd0V7.s:3494   .text.do_setup_in_status_phase:00000000 $t
C:\Users\maan\AppData\Local\Temp\ccQmd0V7.s:3498   .text.do_setup_in_status_phase:00000000 do_setup_in_status_phase
C:\Users\maan\AppData\Local\Temp\ccQmd0V7.s:3571   .text.do_setup_out_status_phase:00000000 $t
C:\Users\maan\AppData\Local\Temp\ccQmd0V7.s:3575   .text.do_setup_out_status_phase:00000000 do_setup_out_status_phase
C:\Users\maan\AppData\Local\Temp\ccQmd0V7.s:3660   .text.pcd_clear_halt:00000000 $t
C:\Users\maan\AppData\Local\Temp\ccQmd0V7.s:3664   .text.pcd_clear_halt:00000000 pcd_clear_halt
C:\Users\maan\AppData\Local\Temp\ccQmd0V7.s:3741   .text.do_test_mode:00000000 $t
C:\Users\maan\AppData\Local\Temp\ccQmd0V7.s:3746   .text.do_test_mode:00000000 do_test_mode
C:\Users\maan\AppData\Local\Temp\ccQmd0V7.s:3793   .text.do_test_mode:00000040 $d
C:\Users\maan\AppData\Local\Temp\ccQmd0V7.s:3800   .text.do_test_mode:00000054 $t
C:\Users\maan\AppData\Local\Temp\ccQmd0V7.s:3856   .text.do_get_status:00000000 $t
C:\Users\maan\AppData\Local\Temp\ccQmd0V7.s:3860   .text.do_get_status:00000000 do_get_status
C:\Users\maan\AppData\Local\Temp\ccQmd0V7.s:4035   .text.do_set_feature:00000000 $t
C:\Users\maan\AppData\Local\Temp\ccQmd0V7.s:4039   .text.do_set_feature:00000000 do_set_feature
C:\Users\maan\AppData\Local\Temp\ccQmd0V7.s:4105   .text.do_set_feature:0000006c $d
C:\Users\maan\AppData\Local\Temp\ccQmd0V7.s:4112   .text.do_set_feature:00000080 $t
C:\Users\maan\AppData\Local\Temp\ccQmd0V7.s:4296   .text.do_clear_feature:00000000 $t
C:\Users\maan\AppData\Local\Temp\ccQmd0V7.s:4300   .text.do_clear_feature:00000000 do_clear_feature
C:\Users\maan\AppData\Local\Temp\ccQmd0V7.s:4408   .text.do_set_address:00000000 $t
C:\Users\maan\AppData\Local\Temp\ccQmd0V7.s:4412   .text.do_set_address:00000000 do_set_address
C:\Users\maan\AppData\Local\Temp\ccQmd0V7.s:4485   .text.pcd_setup:00000000 $t
C:\Users\maan\AppData\Local\Temp\ccQmd0V7.s:4489   .text.pcd_setup:00000000 pcd_setup
C:\Users\maan\AppData\Local\Temp\ccQmd0V7.s:4625   .text.pcd_setup:000000ec $d
C:\Users\maan\AppData\Local\Temp\ccQmd0V7.s:4640   .text.pcd_setup:00000120 $t
C:\Users\maan\AppData\Local\Temp\ccQmd0V7.s:4703   .text.ep0_complete_request:00000000 $t
C:\Users\maan\AppData\Local\Temp\ccQmd0V7.s:4707   .text.ep0_complete_request:00000000 ep0_complete_request
C:\Users\maan\AppData\Local\Temp\ccQmd0V7.s:4976   .text.complete_ep:00000000 $t
C:\Users\maan\AppData\Local\Temp\ccQmd0V7.s:4980   .text.complete_ep:00000000 complete_ep
C:\Users\maan\AppData\Local\Temp\ccQmd0V7.s:5553   .text.dwc_otg_pcd_handle_noniso_bna:00000000 $t
C:\Users\maan\AppData\Local\Temp\ccQmd0V7.s:5557   .text.dwc_otg_pcd_handle_noniso_bna:00000000 dwc_otg_pcd_handle_noniso_bna
C:\Users\maan\AppData\Local\Temp\ccQmd0V7.s:5675   .text.handle_ep0:00000000 $t
C:\Users\maan\AppData\Local\Temp\ccQmd0V7.s:5679   .text.handle_ep0:00000000 handle_ep0
C:\Users\maan\AppData\Local\Temp\ccQmd0V7.s:5717   .text.handle_ep0:0000002c $d
C:\Users\maan\AppData\Local\Temp\ccQmd0V7.s:5726   .text.handle_ep0:00000048 $t
C:\Users\maan\AppData\Local\Temp\ccQmd0V7.s:6039   .text.restart_transfer:00000000 $t
C:\Users\maan\AppData\Local\Temp\ccQmd0V7.s:6043   .text.restart_transfer:00000000 restart_transfer
C:\Users\maan\AppData\Local\Temp\ccQmd0V7.s:6207   .text.handle_in_ep_disable_intr:00000000 $t
C:\Users\maan\AppData\Local\Temp\ccQmd0V7.s:6211   .text.handle_in_ep_disable_intr:00000000 handle_in_ep_disable_intr
C:\Users\maan\AppData\Local\Temp\ccQmd0V7.s:6359   .text.handle_in_ep_timeout_intr:00000000 $t
C:\Users\maan\AppData\Local\Temp\ccQmd0V7.s:6363   .text.handle_in_ep_timeout_intr:00000000 handle_in_ep_timeout_intr
C:\Users\maan\AppData\Local\Temp\ccQmd0V7.s:6460   .text.handle_in_ep_nak_intr:00000000 $t
C:\Users\maan\AppData\Local\Temp\ccQmd0V7.s:6464   .text.handle_in_ep_nak_intr:00000000 handle_in_ep_nak_intr
C:\Users\maan\AppData\Local\Temp\ccQmd0V7.s:6536   .text.handle_out_ep_babble_intr:00000000 $t
C:\Users\maan\AppData\Local\Temp\ccQmd0V7.s:6540   .text.handle_out_ep_babble_intr:00000000 handle_out_ep_babble_intr
C:\Users\maan\AppData\Local\Temp\ccQmd0V7.s:6612   .text.handle_out_ep_nak_intr:00000000 $t
C:\Users\maan\AppData\Local\Temp\ccQmd0V7.s:6616   .text.handle_out_ep_nak_intr:00000000 handle_out_ep_nak_intr
C:\Users\maan\AppData\Local\Temp\ccQmd0V7.s:6688   .text.handle_out_ep_nyet_intr:00000000 $t
C:\Users\maan\AppData\Local\Temp\ccQmd0V7.s:6692   .text.handle_out_ep_nyet_intr:00000000 handle_out_ep_nyet_intr
C:\Users\maan\AppData\Local\Temp\ccQmd0V7.s:6764   .text.dwc_otg_pcd_handle_in_ep_intr:00000000 $t
C:\Users\maan\AppData\Local\Temp\ccQmd0V7.s:6768   .text.dwc_otg_pcd_handle_in_ep_intr:00000000 dwc_otg_pcd_handle_in_ep_intr
C:\Users\maan\AppData\Local\Temp\ccQmd0V7.s:7350   .text.dwc_otg_pcd_handle_out_ep_intr:00000000 $t
C:\Users\maan\AppData\Local\Temp\ccQmd0V7.s:7354   .text.dwc_otg_pcd_handle_out_ep_intr:00000000 dwc_otg_pcd_handle_out_ep_intr
C:\Users\maan\AppData\Local\Temp\ccQmd0V7.s:7751   .text.dwc_otg_pcd_handle_incomplete_isoc_in_intr:00000000 $t
C:\Users\maan\AppData\Local\Temp\ccQmd0V7.s:7756   .text.dwc_otg_pcd_handle_incomplete_isoc_in_intr:00000000 dwc_otg_pcd_handle_incomplete_isoc_in_intr
C:\Users\maan\AppData\Local\Temp\ccQmd0V7.s:7818   .text.dwc_otg_pcd_handle_incomplete_isoc_out_intr:00000000 $t
C:\Users\maan\AppData\Local\Temp\ccQmd0V7.s:7823   .text.dwc_otg_pcd_handle_incomplete_isoc_out_intr:00000000 dwc_otg_pcd_handle_incomplete_isoc_out_intr
C:\Users\maan\AppData\Local\Temp\ccQmd0V7.s:7885   .text.dwc_otg_pcd_handle_in_nak_effective:00000000 $t
C:\Users\maan\AppData\Local\Temp\ccQmd0V7.s:7890   .text.dwc_otg_pcd_handle_in_nak_effective:00000000 dwc_otg_pcd_handle_in_nak_effective
C:\Users\maan\AppData\Local\Temp\ccQmd0V7.s:8017   .text.dwc_otg_pcd_handle_out_nak_effective:00000000 $t
C:\Users\maan\AppData\Local\Temp\ccQmd0V7.s:8022   .text.dwc_otg_pcd_handle_out_nak_effective:00000000 dwc_otg_pcd_handle_out_nak_effective
C:\Users\maan\AppData\Local\Temp\ccQmd0V7.s:8084   .text.dwc_otg_pcd_handle_intr:00000000 $t
C:\Users\maan\AppData\Local\Temp\ccQmd0V7.s:8089   .text.dwc_otg_pcd_handle_intr:00000000 dwc_otg_pcd_handle_intr
                     .debug_frame:00000010 $d
                           .group:00000000 wm4.1.84cfd71c6d2dc0bd4021712beaa9efd8
                           .group:00000000 wm4.stdarg.h.31.b70f21342353634f7b44d85f85f13832
                           .group:00000000 wm4.newlib.h.8.a9901dc52d1357e3e94003403d43f8b5
                           .group:00000000 wm4.features.h.22.b72b3baab2bb2eab3661375590100b6b
                           .group:00000000 wm4.config.h.193.5fb8ef056cdff92dec3dee9552839d8c
                           .group:00000000 wm4._ansi.h.23.7aefdac4826acebbfc9f3822a0aeb14c
                           .group:00000000 wm4._default_types.h.6.5e12cd604db8ce00b62bb2f02708eaf3
                           .group:00000000 wm4.lock.h.2.9bc98482741e5e2a9450b12934a684ea
                           .group:00000000 wm4.stddef.h.349.31f4c5baff3fa2689010b32028da9c47
                           .group:00000000 wm4.reent.h.16.9e42f0e588b85e70b2bf6572af57ce64
                           .group:00000000 wm4.stddef.h.187.9e651b6b8b16e149c1353259404973ea
                           .group:00000000 wm4.string.h.17.f8d12df81104836a3f2a5d589ae830d8
                           .group:00000000 wm4.stdint.h.10.90b695f550ca6cc3fb08fa83baf01e05
                           .group:00000000 wm4.stddef.h.40.cf962ebbec441b3ac67502735f0765db
                           .group:00000000 wm4.types.h.60.e75c47576398c648cdcf9000ace5e3d8
                           .group:00000000 wm4.type_CM.h.61.3660c940695d7d5fef91de9c4081d0f0
                           .group:00000000 wm4.usb.h.42.867fe1c62636cc2a68970490ddaffd98
                           .group:00000000 wm4.dwc_list.h.80.8da47a4d46ff6c633100fe5858ae15ea
                           .group:00000000 wm4.dwc_otg_dbg.h.74.dce17e0e4baa7dab653ff5db193ad2a8
                           .group:00000000 wm4.dwc_os.h.82.db2ca40c41e2f648d146b8942e5157d9
                           .group:00000000 wm4.dwc_otg_core_if.h.95.37e41eee47e9a4502e4044edf60ea92d
                           .group:00000000 wm4.dwc_otg_regs.h.126.2e3ceb012c63b4493a7f3895cc69d724
                           .group:00000000 wm4.dwc_otg_adp.h.77.1b967e1ac3ef3726f9d560a2ab3c7ddc
                           .group:00000000 wm4.dwc_otg_cil.h.115.51e9f472a778bee570c9e431e948c25d
                           .group:00000000 wm4.dwc_otg_pcd_if.h.81.ec5a07f769dfb405a61cd7f396c2e0b7
                           .group:00000000 wm4.dwc_otg_pcd.h.107.232f5c29d1286a080dc384183199d471

UNDEFINED SYMBOLS
DWC_READ_REG32
dwc_otg_ep_start_transfer
DWC_WRITE_REG32
DWC_MODIFY_REG32
dwc_otg_read_packet
dwc_otg_read_setup_packet
dwc_otg_ep_write_packet
DWC_SPINLOCK
DWC_SPINUNLOCK
dwc_otg_flush_tx_fifo
dwc_otg_flush_rx_fifo
dwc_otg_request_nuke
dwc_otg_ep0_activate
dwc_otg_ep_set_stall
dwc_otg_ep0_start_transfer
dwc_otg_ep_clear_stall
dwc_otg_ep_activate
DWC_TASK_SCHEDULE
dwc_otg_request_done
dwc_otg_ep_start_zl_transfer
dwc_otg_ep0_continue_transfer
dwc_otg_is_device_mode
dwc_otg_handle_common_intr
