   1              		.syntax unified
   2              		.cpu cortex-m4
   3              		.eabi_attribute 27, 3
   4              		.fpu fpv4-sp-d16
   5              		.eabi_attribute 20, 1
   6              		.eabi_attribute 21, 1
   7              		.eabi_attribute 23, 3
   8              		.eabi_attribute 24, 1
   9              		.eabi_attribute 25, 1
  10              		.eabi_attribute 26, 1
  11              		.eabi_attribute 30, 6
  12              		.eabi_attribute 34, 1
  13              		.eabi_attribute 18, 4
  14              		.thumb
  15              		.file	"GMM001.c"
  16              		.text
  17              	.Ltext0:
  18              		.cfi_sections	.debug_frame
  19              		.comm	GMM001_handle0,6,4
  20              		.comm	GMM001_handle1,6,4
  21              		.comm	GMM001_handle2,6,4
  22              		.section	.text.GMM001_Init,"ax",%progbits
  23              		.align	2
  24              		.global	GMM001_Init
  25              		.thumb
  26              		.thumb_func
  28              	GMM001_Init:
  29              	.LFB120:
  30              		.file 1 "../Dave/Generated/src/GMM001/GMM001.c"
   1:../Dave/Generated/src/GMM001/GMM001.c **** /*******************************************************************************
   2:../Dave/Generated/src/GMM001/GMM001.c **** **  DAVE App Name : GMM001       App Version: 1.0.16               
   3:../Dave/Generated/src/GMM001/GMM001.c **** **  This file is generated by DAVE, User modification to this file will be    **
   4:../Dave/Generated/src/GMM001/GMM001.c **** **  overwritten at the next code generation.                                  **
   5:../Dave/Generated/src/GMM001/GMM001.c **** *******************************************************************************/
   6:../Dave/Generated/src/GMM001/GMM001.c **** 
   7:../Dave/Generated/src/GMM001/GMM001.c **** 
   8:../Dave/Generated/src/GMM001/GMM001.c **** /*CODE_BLOCK_BEGIN[gmm001.c]*/
   9:../Dave/Generated/src/GMM001/GMM001.c **** /*******************************************************************************
  10:../Dave/Generated/src/GMM001/GMM001.c ****  Copyright (c) 2014, Infineon Technologies AG                                 **
  11:../Dave/Generated/src/GMM001/GMM001.c ****  All rights reserved.                                                         **
  12:../Dave/Generated/src/GMM001/GMM001.c ****                                                                               **
  13:../Dave/Generated/src/GMM001/GMM001.c ****  Redistribution and use in source and binary forms, with or without           **
  14:../Dave/Generated/src/GMM001/GMM001.c ****  modification,are permitted provided that the following conditions are met:   **
  15:../Dave/Generated/src/GMM001/GMM001.c ****                                                                               **
  16:../Dave/Generated/src/GMM001/GMM001.c ****  *Redistributions of source code must retain the above copyright notice,      **
  17:../Dave/Generated/src/GMM001/GMM001.c ****  this list of conditions and the following disclaimer.                        **
  18:../Dave/Generated/src/GMM001/GMM001.c ****  *Redistributions in binary form must reproduce the above copyright notice,   **
  19:../Dave/Generated/src/GMM001/GMM001.c ****  this list of conditions and the following disclaimer in the documentation    **
  20:../Dave/Generated/src/GMM001/GMM001.c ****  and/or other materials provided with the distribution.                       **
  21:../Dave/Generated/src/GMM001/GMM001.c ****  *Neither the name of the copyright holders nor the names of its contributors **
  22:../Dave/Generated/src/GMM001/GMM001.c ****  may be used to endorse or promote products derived from this software without** 
  23:../Dave/Generated/src/GMM001/GMM001.c ****  specific prior written permission.                                           **
  24:../Dave/Generated/src/GMM001/GMM001.c ****                                                                               **
  25:../Dave/Generated/src/GMM001/GMM001.c ****  THIS SOFTWARE IS PROVIDED BY THE COPYRIGHT HOLDERS AND CONTRIBUTORS "AS IS"  **
  26:../Dave/Generated/src/GMM001/GMM001.c ****  AND ANY EXPRESS OR IMPLIED WARRANTIES, INCLUDING, BUT NOT LIMITED TO, THE    **
  27:../Dave/Generated/src/GMM001/GMM001.c ****  IMPLIED WARRANTIES OF MERCHANTABILITY AND FITNESS FOR A PARTICULAR PURPOSE   **
  28:../Dave/Generated/src/GMM001/GMM001.c ****  ARE  DISCLAIMED. IN NO EVENT SHALL THE COPYRIGHT HOLDER OR CONTRIBUTORS BE   **
  29:../Dave/Generated/src/GMM001/GMM001.c ****  LIABLE  FOR ANY DIRECT, INDIRECT, INCIDENTAL, SPECIAL, EXEMPLARY, OR         **
  30:../Dave/Generated/src/GMM001/GMM001.c ****  CONSEQUENTIAL DAMAGES (INCLUDING, BUT NOT LIMITED TO, PROCUREMENT OF         **
  31:../Dave/Generated/src/GMM001/GMM001.c ****  SUBSTITUTE GOODS OR  SERVICES; LOSS OF USE, DATA, OR PROFITS; OR BUSINESS    **
  32:../Dave/Generated/src/GMM001/GMM001.c ****  INTERRUPTION) HOWEVER CAUSED AND ON ANY THEORY OF LIABILITY, WHETHER IN      **
  33:../Dave/Generated/src/GMM001/GMM001.c ****  CONTRACT, STRICT LIABILITY,OR TORT (INCLUDING NEGLIGENCE OR OTHERWISE)       **
  34:../Dave/Generated/src/GMM001/GMM001.c ****  ARISING IN ANY WAY OUT OF THE USE OF THIS SOFTWARE, EVEN IF ADVISED OF THE   **
  35:../Dave/Generated/src/GMM001/GMM001.c ****  POSSIBILITY OF SUCH DAMAGE.                                                  **
  36:../Dave/Generated/src/GMM001/GMM001.c ****                                                                               **
  37:../Dave/Generated/src/GMM001/GMM001.c ****  To improve the quality of the software, users are encouraged to share        **
  38:../Dave/Generated/src/GMM001/GMM001.c ****  modifications, enhancements or bug fixes with Infineon Technologies AG       **
  39:../Dave/Generated/src/GMM001/GMM001.c ****  dave@infineon.com).                                                          **
  40:../Dave/Generated/src/GMM001/GMM001.c ****                                                                               **
  41:../Dave/Generated/src/GMM001/GMM001.c **** ********************************************************************************
  42:../Dave/Generated/src/GMM001/GMM001.c **** **                                                                            **
  43:../Dave/Generated/src/GMM001/GMM001.c **** **                                                                            **
  44:../Dave/Generated/src/GMM001/GMM001.c **** ** PLATFORM : Infineon XMC4000 Series                           			  **
  45:../Dave/Generated/src/GMM001/GMM001.c **** **                                                                            **
  46:../Dave/Generated/src/GMM001/GMM001.c **** ** COMPILER : Compiler Independent                                            **
  47:../Dave/Generated/src/GMM001/GMM001.c **** **                                                                            **
  48:../Dave/Generated/src/GMM001/GMM001.c **** ** AUTHOR : App Developer                                         		      **
  49:../Dave/Generated/src/GMM001/GMM001.c **** **                                                                            **
  50:../Dave/Generated/src/GMM001/GMM001.c **** ** MAY BE CHANGED BY USER [yes/no]: Yes                                       **
  51:../Dave/Generated/src/GMM001/GMM001.c **** **                                                                            **
  52:../Dave/Generated/src/GMM001/GMM001.c **** ** MODIFICATION DATE : Jan 20, 2014                                           **
  53:../Dave/Generated/src/GMM001/GMM001.c **** **                                                                            **
  54:../Dave/Generated/src/GMM001/GMM001.c **** *******************************************************************************/
  55:../Dave/Generated/src/GMM001/GMM001.c **** 
  56:../Dave/Generated/src/GMM001/GMM001.c **** /*******************************************************************************
  57:../Dave/Generated/src/GMM001/GMM001.c **** **                       Author(s) Identity                                   **
  58:../Dave/Generated/src/GMM001/GMM001.c **** ********************************************************************************
  59:../Dave/Generated/src/GMM001/GMM001.c **** **                                                                            **
  60:../Dave/Generated/src/GMM001/GMM001.c **** ** Initials   Name                                                            **
  61:../Dave/Generated/src/GMM001/GMM001.c **** ** ---------------------------------------------------------------------------**
  62:../Dave/Generated/src/GMM001/GMM001.c **** ** kks        App Developer                                                   **
  63:../Dave/Generated/src/GMM001/GMM001.c **** *******************************************************************************/
  64:../Dave/Generated/src/GMM001/GMM001.c **** 
  65:../Dave/Generated/src/GMM001/GMM001.c **** /**
  66:../Dave/Generated/src/GMM001/GMM001.c ****  * @file GMM001.c
  67:../Dave/Generated/src/GMM001/GMM001.c ****  *
  68:../Dave/Generated/src/GMM001/GMM001.c ****  * @brief This file implements the APIs for GMM001 App.
  69:../Dave/Generated/src/GMM001/GMM001.c ****  *
  70:../Dave/Generated/src/GMM001/GMM001.c ****  */
  71:../Dave/Generated/src/GMM001/GMM001.c **** 
  72:../Dave/Generated/src/GMM001/GMM001.c **** /*******************************************************************************
  73:../Dave/Generated/src/GMM001/GMM001.c **** **                      Include Files                                         **
  74:../Dave/Generated/src/GMM001/GMM001.c **** *******************************************************************************/
  75:../Dave/Generated/src/GMM001/GMM001.c **** #include <DAVE3.h>
  76:../Dave/Generated/src/GMM001/GMM001.c **** #include "../../inc/LMM001/LMM001.h"
  77:../Dave/Generated/src/GMM001/GMM001.c **** #include "../../inc/GMM001/GMM001.h"
  78:../Dave/Generated/src/GMM001/GMM001.c **** 
  79:../Dave/Generated/src/GMM001/GMM001.c ****   
  80:../Dave/Generated/src/GMM001/GMM001.c **** /*****************************************************************************
  81:../Dave/Generated/src/GMM001/GMM001.c ****               DUMMY DEFINTIONS OF DEBUG LOG MACROS
  82:../Dave/Generated/src/GMM001/GMM001.c **** *****************************************************************************/
  83:../Dave/Generated/src/GMM001/GMM001.c **** /*These definitions are included here to avoid compilation errors,
  84:../Dave/Generated/src/GMM001/GMM001.c ****  since the DBG002 app is not part of the project. All the macros are defined
  85:../Dave/Generated/src/GMM001/GMM001.c ****  as empty*/ 
  86:../Dave/Generated/src/GMM001/GMM001.c **** #ifndef _DBG002_H_
  87:../Dave/Generated/src/GMM001/GMM001.c **** 
  88:../Dave/Generated/src/GMM001/GMM001.c **** #define DBG002_RegisterCallBack(A,B,C)
  89:../Dave/Generated/src/GMM001/GMM001.c **** #define DBG002_I(e) 
  90:../Dave/Generated/src/GMM001/GMM001.c **** #define DBG002_IG(e,g) 
  91:../Dave/Generated/src/GMM001/GMM001.c **** #define DBG002_IH(e,h) 
  92:../Dave/Generated/src/GMM001/GMM001.c **** #define DBG002_IP(e,p) 
  93:../Dave/Generated/src/GMM001/GMM001.c **** #define DBG002_IGH(e,g,h) 
  94:../Dave/Generated/src/GMM001/GMM001.c **** #define DBG002_IGP(e,g,p) 
  95:../Dave/Generated/src/GMM001/GMM001.c **** #define DBG002_IHP(e,h,p) 
  96:../Dave/Generated/src/GMM001/GMM001.c **** #define DBG002_IGHP(e,g,h,p) 
  97:../Dave/Generated/src/GMM001/GMM001.c **** #define DBG002_N(e) 
  98:../Dave/Generated/src/GMM001/GMM001.c **** #define DBG002_NG(e,g) 
  99:../Dave/Generated/src/GMM001/GMM001.c **** #define DBG002_NH(e,h) 
 100:../Dave/Generated/src/GMM001/GMM001.c **** #define DBG002_NP(e,p) 
 101:../Dave/Generated/src/GMM001/GMM001.c **** #define DBG002_NGH(e,g,h) 
 102:../Dave/Generated/src/GMM001/GMM001.c **** #define DBG002_NGP(e,g,p) 
 103:../Dave/Generated/src/GMM001/GMM001.c **** #define DBG002_NHP(e,h,p) 
 104:../Dave/Generated/src/GMM001/GMM001.c **** #define DBG002_NGHP(e,g,h,p) 
 105:../Dave/Generated/src/GMM001/GMM001.c **** #define DBG002_ID(e) 
 106:../Dave/Generated/src/GMM001/GMM001.c **** #define DBG002_IS(e) 
 107:../Dave/Generated/src/GMM001/GMM001.c **** #define DBG002_ISG(e,g) 
 108:../Dave/Generated/src/GMM001/GMM001.c **** #define DBG002_SAFETY_CRITICAL(groupid,messageid,length,value)
 109:../Dave/Generated/src/GMM001/GMM001.c **** #define DBG002_CRITICAL(groupid,messageid,length,value)
 110:../Dave/Generated/src/GMM001/GMM001.c **** #define DBG002_ERROR(groupid,messageid,length,value)
 111:../Dave/Generated/src/GMM001/GMM001.c **** #define DBG002_WARNING(groupid,messageid,length,value)
 112:../Dave/Generated/src/GMM001/GMM001.c **** #define DBG002_INFO(groupid,messageid,length,value)
 113:../Dave/Generated/src/GMM001/GMM001.c **** #define DBG002_TRACE(groupid,messageid,length,value)
 114:../Dave/Generated/src/GMM001/GMM001.c **** #define DBG002_FUNCTION_ENTRY(GID, Status) 
 115:../Dave/Generated/src/GMM001/GMM001.c **** #define DBG002_FUNCTION_EXIT(GID, Status) 
 116:../Dave/Generated/src/GMM001/GMM001.c **** 
 117:../Dave/Generated/src/GMM001/GMM001.c **** #endif/* End of defintions of dummy Debug Log macros*/                  
 118:../Dave/Generated/src/GMM001/GMM001.c **** 
 119:../Dave/Generated/src/GMM001/GMM001.c **** /*******************************************************************************
 120:../Dave/Generated/src/GMM001/GMM001.c **** **                      Global Variable declarations                          **
 121:../Dave/Generated/src/GMM001/GMM001.c **** *******************************************************************************/
 122:../Dave/Generated/src/GMM001/GMM001.c **** /**
 123:../Dave/Generated/src/GMM001/GMM001.c ****  * GROUP ID FOR DBG LOG APP .
 124:../Dave/Generated/src/GMM001/GMM001.c ****  */
 125:../Dave/Generated/src/GMM001/GMM001.c **** #define APP_GID DBG002_GID_GMM001
 126:../Dave/Generated/src/GMM001/GMM001.c **** 
 127:../Dave/Generated/src/GMM001/GMM001.c **** #if defined (__GNUC__) || defined (__TASKING__)
 128:../Dave/Generated/src/GMM001/GMM001.c **** /**
 129:../Dave/Generated/src/GMM001/GMM001.c ****  * Heap Banks : Defined in Linker script
 130:../Dave/Generated/src/GMM001/GMM001.c ****  */
 131:../Dave/Generated/src/GMM001/GMM001.c **** extern unsigned char Heap_Bank1_Start[];
 132:../Dave/Generated/src/GMM001/GMM001.c **** extern unsigned char Heap_Bank2_Start[];
 133:../Dave/Generated/src/GMM001/GMM001.c **** extern unsigned char Heap_Bank3_Start[];
 134:../Dave/Generated/src/GMM001/GMM001.c **** 
 135:../Dave/Generated/src/GMM001/GMM001.c **** /**
 136:../Dave/Generated/src/GMM001/GMM001.c ****   * Sizes of Heap Banks : Defined in Linker script
 137:../Dave/Generated/src/GMM001/GMM001.c ****   */
 138:../Dave/Generated/src/GMM001/GMM001.c **** extern unsigned int Heap_Bank1_Size;
 139:../Dave/Generated/src/GMM001/GMM001.c **** extern unsigned int Heap_Bank2_Size;
 140:../Dave/Generated/src/GMM001/GMM001.c **** extern unsigned int Heap_Bank3_Size;
 141:../Dave/Generated/src/GMM001/GMM001.c **** 
 142:../Dave/Generated/src/GMM001/GMM001.c **** #define LENGTH1 ((uint32_t)(&Heap_Bank1_Size))
 143:../Dave/Generated/src/GMM001/GMM001.c **** #define LENGTH2 ((uint32_t)(&Heap_Bank2_Size))
 144:../Dave/Generated/src/GMM001/GMM001.c **** #define LENGTH3 ((uint32_t)(&Heap_Bank3_Size))
 145:../Dave/Generated/src/GMM001/GMM001.c **** #endif
 146:../Dave/Generated/src/GMM001/GMM001.c **** 
 147:../Dave/Generated/src/GMM001/GMM001.c **** #if defined (__CC_ARM)
 148:../Dave/Generated/src/GMM001/GMM001.c **** /**
 149:../Dave/Generated/src/GMM001/GMM001.c ****  * Heap Banks : Defined in Linker script
 150:../Dave/Generated/src/GMM001/GMM001.c ****  */
 151:../Dave/Generated/src/GMM001/GMM001.c **** extern int Image$$Heap_Bank1_Start$$Base;
 152:../Dave/Generated/src/GMM001/GMM001.c **** extern int Image$$Heap_Bank1_End$$Base;
 153:../Dave/Generated/src/GMM001/GMM001.c **** extern int Image$$Heap_Bank2_Start$$Base;
 154:../Dave/Generated/src/GMM001/GMM001.c **** extern int Image$$Heap_Bank2_End$$Base;
 155:../Dave/Generated/src/GMM001/GMM001.c **** extern int Image$$Heap_Bank3_Start$$Base;
 156:../Dave/Generated/src/GMM001/GMM001.c **** extern int Image$$Heap_Bank3_End$$Base;
 157:../Dave/Generated/src/GMM001/GMM001.c **** 
 158:../Dave/Generated/src/GMM001/GMM001.c **** /**
 159:../Dave/Generated/src/GMM001/GMM001.c ****  * Length of the respective memory banks
 160:../Dave/Generated/src/GMM001/GMM001.c ****  * calculated from linker symbols
 161:../Dave/Generated/src/GMM001/GMM001.c ****  */
 162:../Dave/Generated/src/GMM001/GMM001.c **** #define LENGTH1 ((uint32_t)&Image$$Heap_Bank1_End$$Base -\
 163:../Dave/Generated/src/GMM001/GMM001.c ****                                (uint32_t)&Image$$Heap_Bank1_Start$$Base)
 164:../Dave/Generated/src/GMM001/GMM001.c **** #define LENGTH2 ((uint32_t)&Image$$Heap_Bank2_End$$Base -\
 165:../Dave/Generated/src/GMM001/GMM001.c ****                                (uint32_t)&Image$$Heap_Bank2_Start$$Base)
 166:../Dave/Generated/src/GMM001/GMM001.c **** #define LENGTH3 ((uint32_t)&Image$$Heap_Bank3_End$$Base -\
 167:../Dave/Generated/src/GMM001/GMM001.c ****                                (uint32_t)&Image$$Heap_Bank3_Start$$Base)
 168:../Dave/Generated/src/GMM001/GMM001.c **** 
 169:../Dave/Generated/src/GMM001/GMM001.c **** /**
 170:../Dave/Generated/src/GMM001/GMM001.c ****  * Aliases for start of the banks - 
 171:../Dave/Generated/src/GMM001/GMM001.c ****  * used in further assignments
 172:../Dave/Generated/src/GMM001/GMM001.c ****  */
 173:../Dave/Generated/src/GMM001/GMM001.c **** #define Heap_Bank1_Start (&Image$$Heap_Bank1_Start$$Base)
 174:../Dave/Generated/src/GMM001/GMM001.c **** #define Heap_Bank2_Start (&Image$$Heap_Bank2_Start$$Base)
 175:../Dave/Generated/src/GMM001/GMM001.c **** #define Heap_Bank3_Start (&Image$$Heap_Bank3_Start$$Base)
 176:../Dave/Generated/src/GMM001/GMM001.c **** #endif
 177:../Dave/Generated/src/GMM001/GMM001.c **** 
 178:../Dave/Generated/src/GMM001/GMM001.c **** #if defined (__ICCARM__)
 179:../Dave/Generated/src/GMM001/GMM001.c **** /**
 180:../Dave/Generated/src/GMM001/GMM001.c ****  * Heap Banks : Defined in Linker script
 181:../Dave/Generated/src/GMM001/GMM001.c ****  */
 182:../Dave/Generated/src/GMM001/GMM001.c **** 
 183:../Dave/Generated/src/GMM001/GMM001.c **** #pragma section = "Heap_Bank1_Start" 
 184:../Dave/Generated/src/GMM001/GMM001.c **** #pragma section = "Heap_Bank1_End" 
 185:../Dave/Generated/src/GMM001/GMM001.c **** #pragma section = "Heap_Bank2_Start" 
 186:../Dave/Generated/src/GMM001/GMM001.c **** #pragma section = "Heap_Bank2_End" 
 187:../Dave/Generated/src/GMM001/GMM001.c **** #pragma section = "Heap_Bank3_Start" 
 188:../Dave/Generated/src/GMM001/GMM001.c **** #pragma section = "Heap_Bank3_End" 
 189:../Dave/Generated/src/GMM001/GMM001.c **** 
 190:../Dave/Generated/src/GMM001/GMM001.c **** /**
 191:../Dave/Generated/src/GMM001/GMM001.c ****  * Aliases for start of the banks - 
 192:../Dave/Generated/src/GMM001/GMM001.c ****  * used in further assignments
 193:../Dave/Generated/src/GMM001/GMM001.c ****  */
 194:../Dave/Generated/src/GMM001/GMM001.c **** #define Heap_Bank1_Start ((uint32_t)__section_begin ("Heap_Bank1_Start"))
 195:../Dave/Generated/src/GMM001/GMM001.c **** #define Heap_Bank2_Start ((uint32_t)__section_begin ("Heap_Bank2_Start"))
 196:../Dave/Generated/src/GMM001/GMM001.c **** #define Heap_Bank3_Start ((uint32_t)__section_begin ("Heap_Bank3_Start"))
 197:../Dave/Generated/src/GMM001/GMM001.c **** 
 198:../Dave/Generated/src/GMM001/GMM001.c **** /**
 199:../Dave/Generated/src/GMM001/GMM001.c ****  * Length of the respective memory banks
 200:../Dave/Generated/src/GMM001/GMM001.c ****  * calculated from linker symbols
 201:../Dave/Generated/src/GMM001/GMM001.c ****  */
 202:../Dave/Generated/src/GMM001/GMM001.c **** #define LENGTH1 (((uint32_t)__section_begin ("Heap_Bank1_End")) -\
 203:../Dave/Generated/src/GMM001/GMM001.c ****                ((uint32_t)__section_begin ("Heap_Bank1_Start")))
 204:../Dave/Generated/src/GMM001/GMM001.c **** #define LENGTH2 (((uint32_t)__section_begin ("Heap_Bank2_End")) -\
 205:../Dave/Generated/src/GMM001/GMM001.c ****                ((uint32_t)__section_begin ("Heap_Bank2_Start")))
 206:../Dave/Generated/src/GMM001/GMM001.c **** #define LENGTH3 (((uint32_t)__section_begin ("Heap_Bank3_End")) -\
 207:../Dave/Generated/src/GMM001/GMM001.c ****                ((uint32_t)__section_begin ("Heap_Bank3_Start")))
 208:../Dave/Generated/src/GMM001/GMM001.c **** #endif
 209:../Dave/Generated/src/GMM001/GMM001.c **** 
 210:../Dave/Generated/src/GMM001/GMM001.c **** /**
 211:../Dave/Generated/src/GMM001/GMM001.c ****  * These are the LMM001 handles per RAM section.
 212:../Dave/Generated/src/GMM001/GMM001.c **** */
 213:../Dave/Generated/src/GMM001/GMM001.c **** LMM001_HandleType GMM001_handle0;
 214:../Dave/Generated/src/GMM001/GMM001.c **** LMM001_HandleType GMM001_handle1;
 215:../Dave/Generated/src/GMM001/GMM001.c **** LMM001_HandleType GMM001_handle2;
 216:../Dave/Generated/src/GMM001/GMM001.c **** 
 217:../Dave/Generated/src/GMM001/GMM001.c **** /*******************************************************************************
 218:../Dave/Generated/src/GMM001/GMM001.c **** **                      Public Function Definitions                           **
 219:../Dave/Generated/src/GMM001/GMM001.c **** *******************************************************************************/
 220:../Dave/Generated/src/GMM001/GMM001.c **** /*<<<DD_GMM001_API_1>>>*/
 221:../Dave/Generated/src/GMM001/GMM001.c **** /* This function configures LMM001 handles using different RAM sections available
 222:../Dave/Generated/src/GMM001/GMM001.c ****  * depending on the heap requirement.
 223:../Dave/Generated/src/GMM001/GMM001.c ****  */
 224:../Dave/Generated/src/GMM001/GMM001.c **** void GMM001_Init (void)
 225:../Dave/Generated/src/GMM001/GMM001.c **** {
  31              		.loc 1 225 0
  32              		.cfi_startproc
  33              		@ args = 0, pretend = 0, frame = 0
  34              		@ frame_needed = 1, uses_anonymous_args = 0
  35 0000 80B5     		push	{r7, lr}
  36              	.LCFI0:
  37              		.cfi_def_cfa_offset 8
  38              		.cfi_offset 7, -8
  39              		.cfi_offset 14, -4
  40 0002 00AF     		add	r7, sp, #0
  41              	.LCFI1:
  42              		.cfi_def_cfa_register 7
 226:../Dave/Generated/src/GMM001/GMM001.c ****   
 227:../Dave/Generated/src/GMM001/GMM001.c ****   
 228:../Dave/Generated/src/GMM001/GMM001.c ****   memset ((void *)Heap_Bank1_Start, 0, LENGTH1);
  43              		.loc 1 228 0
  44 0004 40F20003 		movw	r3, #:lower16:Heap_Bank1_Size
  45 0008 C0F20003 		movt	r3, #:upper16:Heap_Bank1_Size
  46 000c 40F20000 		movw	r0, #:lower16:Heap_Bank1_Start
  47 0010 C0F20000 		movt	r0, #:upper16:Heap_Bank1_Start
  48 0014 4FF00001 		mov	r1, #0
  49 0018 1A46     		mov	r2, r3
  50 001a FFF7FEFF 		bl	memset
 229:../Dave/Generated/src/GMM001/GMM001.c ****   memset ((void *)Heap_Bank2_Start, 0, LENGTH2);
  51              		.loc 1 229 0
  52 001e 40F20003 		movw	r3, #:lower16:Heap_Bank2_Size
  53 0022 C0F20003 		movt	r3, #:upper16:Heap_Bank2_Size
  54 0026 40F20000 		movw	r0, #:lower16:Heap_Bank2_Start
  55 002a C0F20000 		movt	r0, #:upper16:Heap_Bank2_Start
  56 002e 4FF00001 		mov	r1, #0
  57 0032 1A46     		mov	r2, r3
  58 0034 FFF7FEFF 		bl	memset
 230:../Dave/Generated/src/GMM001/GMM001.c ****   memset ((void *)Heap_Bank3_Start, 0, LENGTH3);
  59              		.loc 1 230 0
  60 0038 40F20003 		movw	r3, #:lower16:Heap_Bank3_Size
  61 003c C0F20003 		movt	r3, #:upper16:Heap_Bank3_Size
  62 0040 40F20000 		movw	r0, #:lower16:Heap_Bank3_Start
  63 0044 C0F20000 		movt	r0, #:upper16:Heap_Bank3_Start
  64 0048 4FF00001 		mov	r1, #0
  65 004c 1A46     		mov	r2, r3
  66 004e FFF7FEFF 		bl	memset
 231:../Dave/Generated/src/GMM001/GMM001.c **** 
 232:../Dave/Generated/src/GMM001/GMM001.c **** /* Allocate Heap from RAM1 and RAM2 and RAM3*/  
 233:../Dave/Generated/src/GMM001/GMM001.c **** /*<<<DD_GMM001_API_1_6>>>*/  
 234:../Dave/Generated/src/GMM001/GMM001.c ****   GMM001_handle0.umm_heap = ((LMM001_BlockType *)Heap_Bank1_Start);
  67              		.loc 1 234 0
  68 0052 40F20003 		movw	r3, #:lower16:GMM001_handle0
  69 0056 C0F20003 		movt	r3, #:upper16:GMM001_handle0
  70 005a 40F20002 		movw	r2, #:lower16:Heap_Bank1_Start
  71 005e C0F20002 		movt	r2, #:upper16:Heap_Bank1_Start
  72 0062 1A60     		str	r2, [r3, #0]
 235:../Dave/Generated/src/GMM001/GMM001.c ****   GMM001_handle0.umm_numblocks = (uint32_t)LENGTH1 / (sizeof(LMM001_BlockType));
  73              		.loc 1 235 0
  74 0064 40F20003 		movw	r3, #:lower16:Heap_Bank1_Size
  75 0068 C0F20003 		movt	r3, #:upper16:Heap_Bank1_Size
  76 006c 4FEAD303 		lsr	r3, r3, #3
  77 0070 9AB2     		uxth	r2, r3
  78 0072 40F20003 		movw	r3, #:lower16:GMM001_handle0
  79 0076 C0F20003 		movt	r3, #:upper16:GMM001_handle0
  80 007a 9A80     		strh	r2, [r3, #4]	@ movhi
 236:../Dave/Generated/src/GMM001/GMM001.c ****   GMM001_handle1.umm_heap = ((LMM001_BlockType *)Heap_Bank2_Start);
  81              		.loc 1 236 0
  82 007c 40F20003 		movw	r3, #:lower16:GMM001_handle1
  83 0080 C0F20003 		movt	r3, #:upper16:GMM001_handle1
  84 0084 40F20002 		movw	r2, #:lower16:Heap_Bank2_Start
  85 0088 C0F20002 		movt	r2, #:upper16:Heap_Bank2_Start
  86 008c 1A60     		str	r2, [r3, #0]
 237:../Dave/Generated/src/GMM001/GMM001.c ****   GMM001_handle1.umm_numblocks = (uint32_t)LENGTH2 / (sizeof(LMM001_BlockType));
  87              		.loc 1 237 0
  88 008e 40F20003 		movw	r3, #:lower16:Heap_Bank2_Size
  89 0092 C0F20003 		movt	r3, #:upper16:Heap_Bank2_Size
  90 0096 4FEAD303 		lsr	r3, r3, #3
  91 009a 9AB2     		uxth	r2, r3
  92 009c 40F20003 		movw	r3, #:lower16:GMM001_handle1
  93 00a0 C0F20003 		movt	r3, #:upper16:GMM001_handle1
  94 00a4 9A80     		strh	r2, [r3, #4]	@ movhi
 238:../Dave/Generated/src/GMM001/GMM001.c ****   GMM001_handle2.umm_heap = ((LMM001_BlockType *)Heap_Bank3_Start);
  95              		.loc 1 238 0
  96 00a6 40F20003 		movw	r3, #:lower16:GMM001_handle2
  97 00aa C0F20003 		movt	r3, #:upper16:GMM001_handle2
  98 00ae 40F20002 		movw	r2, #:lower16:Heap_Bank3_Start
  99 00b2 C0F20002 		movt	r2, #:upper16:Heap_Bank3_Start
 100 00b6 1A60     		str	r2, [r3, #0]
 239:../Dave/Generated/src/GMM001/GMM001.c ****   GMM001_handle2.umm_numblocks = (uint32_t) LENGTH3/ (sizeof(LMM001_BlockType));
 101              		.loc 1 239 0
 102 00b8 40F20003 		movw	r3, #:lower16:Heap_Bank3_Size
 103 00bc C0F20003 		movt	r3, #:upper16:Heap_Bank3_Size
 104 00c0 4FEAD303 		lsr	r3, r3, #3
 105 00c4 9AB2     		uxth	r2, r3
 106 00c6 40F20003 		movw	r3, #:lower16:GMM001_handle2
 107 00ca C0F20003 		movt	r3, #:upper16:GMM001_handle2
 108 00ce 9A80     		strh	r2, [r3, #4]	@ movhi
 240:../Dave/Generated/src/GMM001/GMM001.c **** 
 241:../Dave/Generated/src/GMM001/GMM001.c ****   
 242:../Dave/Generated/src/GMM001/GMM001.c **** }
 109              		.loc 1 242 0
 110 00d0 80BD     		pop	{r7, pc}
 111              		.cfi_endproc
 112              	.LFE120:
 114 00d2 00BF     		.section	.text.GMM001_malloc,"ax",%progbits
 115              		.align	2
 116              		.global	GMM001_malloc
 117              		.thumb
 118              		.thumb_func
 120              	GMM001_malloc:
 121              	.LFB121:
 243:../Dave/Generated/src/GMM001/GMM001.c **** 
 244:../Dave/Generated/src/GMM001/GMM001.c **** /*<<<DD_GMM001_API_2>>>*/
 245:../Dave/Generated/src/GMM001/GMM001.c **** /*
 246:../Dave/Generated/src/GMM001/GMM001.c ****  * The function allocates memory of 'size' number of bytes.
 247:../Dave/Generated/src/GMM001/GMM001.c ****  */
 248:../Dave/Generated/src/GMM001/GMM001.c **** void * GMM001_malloc (uint32_t size)
 249:../Dave/Generated/src/GMM001/GMM001.c **** {
 122              		.loc 1 249 0
 123              		.cfi_startproc
 124              		@ args = 0, pretend = 0, frame = 16
 125              		@ frame_needed = 1, uses_anonymous_args = 0
 126 0000 80B5     		push	{r7, lr}
 127              	.LCFI2:
 128              		.cfi_def_cfa_offset 8
 129              		.cfi_offset 7, -8
 130              		.cfi_offset 14, -4
 131 0002 84B0     		sub	sp, sp, #16
 132              	.LCFI3:
 133              		.cfi_def_cfa_offset 24
 134 0004 00AF     		add	r7, sp, #0
 135              	.LCFI4:
 136              		.cfi_def_cfa_register 7
 137 0006 7860     		str	r0, [r7, #4]
 250:../Dave/Generated/src/GMM001/GMM001.c ****   void * MemPtr = NULL;
 138              		.loc 1 250 0
 139 0008 4FF00003 		mov	r3, #0
 140 000c FB60     		str	r3, [r7, #12]
 251:../Dave/Generated/src/GMM001/GMM001.c ****   
 252:../Dave/Generated/src/GMM001/GMM001.c **** 
 253:../Dave/Generated/src/GMM001/GMM001.c **** /*<<<DD_GMM001_API_2_1>>>*/  
 254:../Dave/Generated/src/GMM001/GMM001.c ****   MemPtr = LMM001_malloc(&GMM001_handle0, size);
 141              		.loc 1 254 0
 142 000e 40F20000 		movw	r0, #:lower16:GMM001_handle0
 143 0012 C0F20000 		movt	r0, #:upper16:GMM001_handle0
 144 0016 7968     		ldr	r1, [r7, #4]
 145 0018 FFF7FEFF 		bl	LMM001_malloc
 146 001c F860     		str	r0, [r7, #12]
 255:../Dave/Generated/src/GMM001/GMM001.c ****   if (MemPtr == NULL)
 147              		.loc 1 255 0
 148 001e FB68     		ldr	r3, [r7, #12]
 149 0020 002B     		cmp	r3, #0
 150 0022 12D1     		bne	.L3
 256:../Dave/Generated/src/GMM001/GMM001.c ****   {
 257:../Dave/Generated/src/GMM001/GMM001.c ****     MemPtr = LMM001_malloc(&GMM001_handle1, size);
 151              		.loc 1 257 0
 152 0024 40F20000 		movw	r0, #:lower16:GMM001_handle1
 153 0028 C0F20000 		movt	r0, #:upper16:GMM001_handle1
 154 002c 7968     		ldr	r1, [r7, #4]
 155 002e FFF7FEFF 		bl	LMM001_malloc
 156 0032 F860     		str	r0, [r7, #12]
 258:../Dave/Generated/src/GMM001/GMM001.c **** 	if (MemPtr == NULL)
 157              		.loc 1 258 0
 158 0034 FB68     		ldr	r3, [r7, #12]
 159 0036 002B     		cmp	r3, #0
 160 0038 07D1     		bne	.L3
 259:../Dave/Generated/src/GMM001/GMM001.c **** 	{
 260:../Dave/Generated/src/GMM001/GMM001.c **** 		MemPtr = LMM001_malloc(&GMM001_handle2, size);
 161              		.loc 1 260 0
 162 003a 40F20000 		movw	r0, #:lower16:GMM001_handle2
 163 003e C0F20000 		movt	r0, #:upper16:GMM001_handle2
 164 0042 7968     		ldr	r1, [r7, #4]
 165 0044 FFF7FEFF 		bl	LMM001_malloc
 166 0048 F860     		str	r0, [r7, #12]
 167              	.L3:
 261:../Dave/Generated/src/GMM001/GMM001.c **** 	}
 262:../Dave/Generated/src/GMM001/GMM001.c ****   }
 263:../Dave/Generated/src/GMM001/GMM001.c **** 
 264:../Dave/Generated/src/GMM001/GMM001.c ****   
 265:../Dave/Generated/src/GMM001/GMM001.c ****   return MemPtr;
 168              		.loc 1 265 0
 169 004a FB68     		ldr	r3, [r7, #12]
 266:../Dave/Generated/src/GMM001/GMM001.c **** }
 170              		.loc 1 266 0
 171 004c 1846     		mov	r0, r3
 172 004e 07F11007 		add	r7, r7, #16
 173 0052 BD46     		mov	sp, r7
 174 0054 80BD     		pop	{r7, pc}
 175              		.cfi_endproc
 176              	.LFE121:
 178 0056 00BF     		.section	.text.GMM001_realloc,"ax",%progbits
 179              		.align	2
 180              		.global	GMM001_realloc
 181              		.thumb
 182              		.thumb_func
 184              	GMM001_realloc:
 185              	.LFB122:
 267:../Dave/Generated/src/GMM001/GMM001.c **** 
 268:../Dave/Generated/src/GMM001/GMM001.c **** /*<<<DD_GMM001_API_3>>>*/ 
 269:../Dave/Generated/src/GMM001/GMM001.c **** /*
 270:../Dave/Generated/src/GMM001/GMM001.c ****  * This function changes the size of a block of memory that was previously allocated with malloc().
 271:../Dave/Generated/src/GMM001/GMM001.c ****  */
 272:../Dave/Generated/src/GMM001/GMM001.c **** void * GMM001_realloc (uint32_t size, void * MemPtr)
 273:../Dave/Generated/src/GMM001/GMM001.c **** {
 186              		.loc 1 273 0
 187              		.cfi_startproc
 188              		@ args = 0, pretend = 0, frame = 16
 189              		@ frame_needed = 1, uses_anonymous_args = 0
 190 0000 80B5     		push	{r7, lr}
 191              	.LCFI5:
 192              		.cfi_def_cfa_offset 8
 193              		.cfi_offset 7, -8
 194              		.cfi_offset 14, -4
 195 0002 84B0     		sub	sp, sp, #16
 196              	.LCFI6:
 197              		.cfi_def_cfa_offset 24
 198 0004 00AF     		add	r7, sp, #0
 199              	.LCFI7:
 200              		.cfi_def_cfa_register 7
 201 0006 7860     		str	r0, [r7, #4]
 202 0008 3960     		str	r1, [r7, #0]
 274:../Dave/Generated/src/GMM001/GMM001.c ****   void * MemPtr1 = NULL;
 203              		.loc 1 274 0
 204 000a 4FF00003 		mov	r3, #0
 205 000e FB60     		str	r3, [r7, #12]
 275:../Dave/Generated/src/GMM001/GMM001.c ****   
 276:../Dave/Generated/src/GMM001/GMM001.c **** 
 277:../Dave/Generated/src/GMM001/GMM001.c ****   if (MemPtr == NULL)
 206              		.loc 1 277 0
 207 0010 3B68     		ldr	r3, [r7, #0]
 208 0012 002B     		cmp	r3, #0
 209 0014 04D1     		bne	.L6
 278:../Dave/Generated/src/GMM001/GMM001.c ****   {
 279:../Dave/Generated/src/GMM001/GMM001.c ****     return(GMM001_malloc(size));
 210              		.loc 1 279 0
 211 0016 7868     		ldr	r0, [r7, #4]
 212 0018 FFF7FEFF 		bl	GMM001_malloc
 213 001c 0346     		mov	r3, r0
 214 001e 5AE0     		b	.L7
 215              	.L6:
 280:../Dave/Generated/src/GMM001/GMM001.c ****   }
 281:../Dave/Generated/src/GMM001/GMM001.c **** 
 282:../Dave/Generated/src/GMM001/GMM001.c **** /*<<<DD_GMM001_API_3_1>>>*/   
 283:../Dave/Generated/src/GMM001/GMM001.c ****   if (((uint32_t)MemPtr >= (uint32_t)Heap_Bank1_Start) && ((uint32_t)MemPtr <= ((uint32_t)Heap_Bank
 216              		.loc 1 283 0
 217 0020 3A68     		ldr	r2, [r7, #0]
 218 0022 40F20003 		movw	r3, #:lower16:Heap_Bank1_Start
 219 0026 C0F20003 		movt	r3, #:upper16:Heap_Bank1_Start
 220 002a 9A42     		cmp	r2, r3
 221 002c 15D3     		bcc	.L8
 222              		.loc 1 283 0 is_stmt 0 discriminator 1
 223 002e 3968     		ldr	r1, [r7, #0]
 224 0030 40F20002 		movw	r2, #:lower16:Heap_Bank1_Start
 225 0034 C0F20002 		movt	r2, #:upper16:Heap_Bank1_Start
 226 0038 40F20003 		movw	r3, #:lower16:Heap_Bank1_Size
 227 003c C0F20003 		movt	r3, #:upper16:Heap_Bank1_Size
 228 0040 D318     		adds	r3, r2, r3
 229 0042 9942     		cmp	r1, r3
 230 0044 09D8     		bhi	.L8
 284:../Dave/Generated/src/GMM001/GMM001.c ****   {
 285:../Dave/Generated/src/GMM001/GMM001.c ****     MemPtr1 = LMM001_realloc(&GMM001_handle0, MemPtr, size);
 231              		.loc 1 285 0 is_stmt 1
 232 0046 40F20000 		movw	r0, #:lower16:GMM001_handle0
 233 004a C0F20000 		movt	r0, #:upper16:GMM001_handle0
 234 004e 3968     		ldr	r1, [r7, #0]
 235 0050 7A68     		ldr	r2, [r7, #4]
 236 0052 FFF7FEFF 		bl	LMM001_realloc
 237 0056 F860     		str	r0, [r7, #12]
 238 0058 3CE0     		b	.L9
 239              	.L8:
 286:../Dave/Generated/src/GMM001/GMM001.c ****   }
 287:../Dave/Generated/src/GMM001/GMM001.c **** 
 288:../Dave/Generated/src/GMM001/GMM001.c **** /*<<<DD_GMM001_API_3_2>>>*/   
 289:../Dave/Generated/src/GMM001/GMM001.c ****   else if (((uint32_t)MemPtr >= (uint32_t)Heap_Bank2_Start) && ((uint32_t)MemPtr <= ((uint32_t)Heap
 240              		.loc 1 289 0
 241 005a 3A68     		ldr	r2, [r7, #0]
 242 005c 40F20003 		movw	r3, #:lower16:Heap_Bank2_Start
 243 0060 C0F20003 		movt	r3, #:upper16:Heap_Bank2_Start
 244 0064 9A42     		cmp	r2, r3
 245 0066 15D3     		bcc	.L10
 246              		.loc 1 289 0 is_stmt 0 discriminator 1
 247 0068 3968     		ldr	r1, [r7, #0]
 248 006a 40F20002 		movw	r2, #:lower16:Heap_Bank2_Start
 249 006e C0F20002 		movt	r2, #:upper16:Heap_Bank2_Start
 250 0072 40F20003 		movw	r3, #:lower16:Heap_Bank2_Size
 251 0076 C0F20003 		movt	r3, #:upper16:Heap_Bank2_Size
 252 007a D318     		adds	r3, r2, r3
 253 007c 9942     		cmp	r1, r3
 254 007e 09D8     		bhi	.L10
 290:../Dave/Generated/src/GMM001/GMM001.c ****   {
 291:../Dave/Generated/src/GMM001/GMM001.c ****  	MemPtr1 = LMM001_realloc(&GMM001_handle1, MemPtr, size);
 255              		.loc 1 291 0 is_stmt 1
 256 0080 40F20000 		movw	r0, #:lower16:GMM001_handle1
 257 0084 C0F20000 		movt	r0, #:upper16:GMM001_handle1
 258 0088 3968     		ldr	r1, [r7, #0]
 259 008a 7A68     		ldr	r2, [r7, #4]
 260 008c FFF7FEFF 		bl	LMM001_realloc
 261 0090 F860     		str	r0, [r7, #12]
 262 0092 1FE0     		b	.L9
 263              	.L10:
 292:../Dave/Generated/src/GMM001/GMM001.c ****   }
 293:../Dave/Generated/src/GMM001/GMM001.c **** 
 294:../Dave/Generated/src/GMM001/GMM001.c **** /*<<<DD_GMM001_API_3_3>>>*/   
 295:../Dave/Generated/src/GMM001/GMM001.c ****   else if (((uint32_t)MemPtr >= (uint32_t)Heap_Bank3_Start) && ((uint32_t)MemPtr <= ((uint32_t)Heap
 264              		.loc 1 295 0
 265 0094 3A68     		ldr	r2, [r7, #0]
 266 0096 40F20003 		movw	r3, #:lower16:Heap_Bank3_Start
 267 009a C0F20003 		movt	r3, #:upper16:Heap_Bank3_Start
 268 009e 9A42     		cmp	r2, r3
 269 00a0 15D3     		bcc	.L11
 270              		.loc 1 295 0 is_stmt 0 discriminator 1
 271 00a2 3968     		ldr	r1, [r7, #0]
 272 00a4 40F20002 		movw	r2, #:lower16:Heap_Bank3_Start
 273 00a8 C0F20002 		movt	r2, #:upper16:Heap_Bank3_Start
 274 00ac 40F20003 		movw	r3, #:lower16:Heap_Bank3_Size
 275 00b0 C0F20003 		movt	r3, #:upper16:Heap_Bank3_Size
 276 00b4 D318     		adds	r3, r2, r3
 277 00b6 9942     		cmp	r1, r3
 278 00b8 09D8     		bhi	.L11
 296:../Dave/Generated/src/GMM001/GMM001.c ****   {
 297:../Dave/Generated/src/GMM001/GMM001.c ****     MemPtr1 = LMM001_realloc(&GMM001_handle2, MemPtr, size);
 279              		.loc 1 297 0 is_stmt 1
 280 00ba 40F20000 		movw	r0, #:lower16:GMM001_handle2
 281 00be C0F20000 		movt	r0, #:upper16:GMM001_handle2
 282 00c2 3968     		ldr	r1, [r7, #0]
 283 00c4 7A68     		ldr	r2, [r7, #4]
 284 00c6 FFF7FEFF 		bl	LMM001_realloc
 285 00ca F860     		str	r0, [r7, #12]
 286 00cc 02E0     		b	.L9
 287              	.L11:
 298:../Dave/Generated/src/GMM001/GMM001.c ****   }
 299:../Dave/Generated/src/GMM001/GMM001.c ****   else 
 300:../Dave/Generated/src/GMM001/GMM001.c ****   {
 301:../Dave/Generated/src/GMM001/GMM001.c ****     MemPtr1 = NULL;
 288              		.loc 1 301 0
 289 00ce 4FF00003 		mov	r3, #0
 290 00d2 FB60     		str	r3, [r7, #12]
 291              	.L9:
 302:../Dave/Generated/src/GMM001/GMM001.c ****   }
 303:../Dave/Generated/src/GMM001/GMM001.c ****   
 304:../Dave/Generated/src/GMM001/GMM001.c ****   return MemPtr1;
 292              		.loc 1 304 0
 293 00d4 FB68     		ldr	r3, [r7, #12]
 294              	.L7:
 305:../Dave/Generated/src/GMM001/GMM001.c **** }
 295              		.loc 1 305 0
 296 00d6 1846     		mov	r0, r3
 297 00d8 07F11007 		add	r7, r7, #16
 298 00dc BD46     		mov	sp, r7
 299 00de 80BD     		pop	{r7, pc}
 300              		.cfi_endproc
 301              	.LFE122:
 303              		.section	.text.GMM001_free,"ax",%progbits
 304              		.align	2
 305              		.global	GMM001_free
 306              		.thumb
 307              		.thumb_func
 309              	GMM001_free:
 310              	.LFB123:
 306:../Dave/Generated/src/GMM001/GMM001.c **** 
 307:../Dave/Generated/src/GMM001/GMM001.c **** /*<<<DD_GMM001_API_4>>>*/ 
 308:../Dave/Generated/src/GMM001/GMM001.c **** /*
 309:../Dave/Generated/src/GMM001/GMM001.c ****  *  The function deallocates the memory pointed by Memptr.
 310:../Dave/Generated/src/GMM001/GMM001.c ****  */
 311:../Dave/Generated/src/GMM001/GMM001.c **** void GMM001_free (void * MemPtr)
 312:../Dave/Generated/src/GMM001/GMM001.c **** {
 311              		.loc 1 312 0
 312              		.cfi_startproc
 313              		@ args = 0, pretend = 0, frame = 8
 314              		@ frame_needed = 1, uses_anonymous_args = 0
 315 0000 80B5     		push	{r7, lr}
 316              	.LCFI8:
 317              		.cfi_def_cfa_offset 8
 318              		.cfi_offset 7, -8
 319              		.cfi_offset 14, -4
 320 0002 82B0     		sub	sp, sp, #8
 321              	.LCFI9:
 322              		.cfi_def_cfa_offset 16
 323 0004 00AF     		add	r7, sp, #0
 324              	.LCFI10:
 325              		.cfi_def_cfa_register 7
 326 0006 7860     		str	r0, [r7, #4]
 313:../Dave/Generated/src/GMM001/GMM001.c ****   
 314:../Dave/Generated/src/GMM001/GMM001.c **** 
 315:../Dave/Generated/src/GMM001/GMM001.c **** /*<<<DD_GMM001_API_4_1>>>*/   
 316:../Dave/Generated/src/GMM001/GMM001.c ****   if (((uint32_t)MemPtr >= (uint32_t)Heap_Bank1_Start) && ((uint32_t)MemPtr <= ((uint32_t)Heap_Bank
 327              		.loc 1 316 0
 328 0008 7A68     		ldr	r2, [r7, #4]
 329 000a 40F20003 		movw	r3, #:lower16:Heap_Bank1_Start
 330 000e C0F20003 		movt	r3, #:upper16:Heap_Bank1_Start
 331 0012 9A42     		cmp	r2, r3
 332 0014 12D3     		bcc	.L13
 333              		.loc 1 316 0 is_stmt 0 discriminator 1
 334 0016 7968     		ldr	r1, [r7, #4]
 335 0018 40F20002 		movw	r2, #:lower16:Heap_Bank1_Start
 336 001c C0F20002 		movt	r2, #:upper16:Heap_Bank1_Start
 337 0020 40F20003 		movw	r3, #:lower16:Heap_Bank1_Size
 338 0024 C0F20003 		movt	r3, #:upper16:Heap_Bank1_Size
 339 0028 D318     		adds	r3, r2, r3
 340 002a 9942     		cmp	r1, r3
 341 002c 06D8     		bhi	.L13
 317:../Dave/Generated/src/GMM001/GMM001.c ****   {
 318:../Dave/Generated/src/GMM001/GMM001.c ****     LMM001_free(&GMM001_handle0, MemPtr);
 342              		.loc 1 318 0 is_stmt 1
 343 002e 40F20000 		movw	r0, #:lower16:GMM001_handle0
 344 0032 C0F20000 		movt	r0, #:upper16:GMM001_handle0
 345 0036 7968     		ldr	r1, [r7, #4]
 346 0038 FFF7FEFF 		bl	LMM001_free
 347              	.L13:
 319:../Dave/Generated/src/GMM001/GMM001.c ****   }
 320:../Dave/Generated/src/GMM001/GMM001.c **** 
 321:../Dave/Generated/src/GMM001/GMM001.c **** /*<<<DD_GMM001_API_4_2>>>*/   
 322:../Dave/Generated/src/GMM001/GMM001.c ****   if (((uint32_t)MemPtr >= (uint32_t)Heap_Bank2_Start) && ((uint32_t)MemPtr <= ((uint32_t)Heap_Bank
 348              		.loc 1 322 0
 349 003c 7A68     		ldr	r2, [r7, #4]
 350 003e 40F20003 		movw	r3, #:lower16:Heap_Bank2_Start
 351 0042 C0F20003 		movt	r3, #:upper16:Heap_Bank2_Start
 352 0046 9A42     		cmp	r2, r3
 353 0048 12D3     		bcc	.L14
 354              		.loc 1 322 0 is_stmt 0 discriminator 1
 355 004a 7968     		ldr	r1, [r7, #4]
 356 004c 40F20002 		movw	r2, #:lower16:Heap_Bank2_Start
 357 0050 C0F20002 		movt	r2, #:upper16:Heap_Bank2_Start
 358 0054 40F20003 		movw	r3, #:lower16:Heap_Bank2_Size
 359 0058 C0F20003 		movt	r3, #:upper16:Heap_Bank2_Size
 360 005c D318     		adds	r3, r2, r3
 361 005e 9942     		cmp	r1, r3
 362 0060 06D8     		bhi	.L14
 323:../Dave/Generated/src/GMM001/GMM001.c ****   {
 324:../Dave/Generated/src/GMM001/GMM001.c ****     LMM001_free(&GMM001_handle1, MemPtr);
 363              		.loc 1 324 0 is_stmt 1
 364 0062 40F20000 		movw	r0, #:lower16:GMM001_handle1
 365 0066 C0F20000 		movt	r0, #:upper16:GMM001_handle1
 366 006a 7968     		ldr	r1, [r7, #4]
 367 006c FFF7FEFF 		bl	LMM001_free
 368              	.L14:
 325:../Dave/Generated/src/GMM001/GMM001.c ****   }
 326:../Dave/Generated/src/GMM001/GMM001.c **** 
 327:../Dave/Generated/src/GMM001/GMM001.c **** /*<<<DD_GMM001_API_4_3>>>*/   
 328:../Dave/Generated/src/GMM001/GMM001.c ****   if (((uint32_t)MemPtr >= (uint32_t)Heap_Bank3_Start) && ((uint32_t)MemPtr <= ((uint32_t)Heap_Bank
 369              		.loc 1 328 0
 370 0070 7A68     		ldr	r2, [r7, #4]
 371 0072 40F20003 		movw	r3, #:lower16:Heap_Bank3_Start
 372 0076 C0F20003 		movt	r3, #:upper16:Heap_Bank3_Start
 373 007a 9A42     		cmp	r2, r3
 374 007c 12D3     		bcc	.L12
 375              		.loc 1 328 0 is_stmt 0 discriminator 1
 376 007e 7968     		ldr	r1, [r7, #4]
 377 0080 40F20002 		movw	r2, #:lower16:Heap_Bank3_Start
 378 0084 C0F20002 		movt	r2, #:upper16:Heap_Bank3_Start
 379 0088 40F20003 		movw	r3, #:lower16:Heap_Bank3_Size
 380 008c C0F20003 		movt	r3, #:upper16:Heap_Bank3_Size
 381 0090 D318     		adds	r3, r2, r3
 382 0092 9942     		cmp	r1, r3
 383 0094 06D8     		bhi	.L12
 329:../Dave/Generated/src/GMM001/GMM001.c ****   {
 330:../Dave/Generated/src/GMM001/GMM001.c ****     LMM001_free(&GMM001_handle2, MemPtr);
 384              		.loc 1 330 0 is_stmt 1
 385 0096 40F20000 		movw	r0, #:lower16:GMM001_handle2
 386 009a C0F20000 		movt	r0, #:upper16:GMM001_handle2
 387 009e 7968     		ldr	r1, [r7, #4]
 388 00a0 FFF7FEFF 		bl	LMM001_free
 389              	.L12:
 331:../Dave/Generated/src/GMM001/GMM001.c ****   }
 332:../Dave/Generated/src/GMM001/GMM001.c ****   
 333:../Dave/Generated/src/GMM001/GMM001.c **** }
 390              		.loc 1 333 0
 391 00a4 07F10807 		add	r7, r7, #8
 392 00a8 BD46     		mov	sp, r7
 393 00aa 80BD     		pop	{r7, pc}
 394              		.cfi_endproc
 395              	.LFE123:
 397              		.text
 398              	.Letext0:
 399              		.file 2 "c:\\dave-3.1.10\\arm-gcc\\bin\\../lib/gcc/arm-none-eabi/4.7.4/../../../../arm-none-eabi/i
 400              		.file 3 "C:\\DAVE_WorkSpace\\20\\CORE_Larix_V1.0\\Dave\\Generated\\inc\\DAVESupport/../../inc/LMM0
 401              		.file 4 "C:\\DAVE-3.1.10\\eclipse\\/../CMSIS/Include/core_cm4.h"
 402              		.file 5 "C:\\DAVE_WorkSpace\\20\\CORE_Larix_V1.0\\Dave\\Generated\\inc\\DAVESupport/../../inc/NVIC