   1              		.syntax unified
   2              		.cpu cortex-m4
   3              		.eabi_attribute 27, 3
   4              		.fpu fpv4-sp-d16
   5              		.eabi_attribute 20, 1
   6              		.eabi_attribute 21, 1
   7              		.eabi_attribute 23, 3
   8              		.eabi_attribute 24, 1
   9              		.eabi_attribute 25, 1
  10              		.eabi_attribute 26, 1
  11              		.eabi_attribute 30, 6
  12              		.eabi_attribute 34, 1
  13              		.eabi_attribute 18, 4
  14              		.thumb
  15              		.file	"usbld001_delay.c"
  16              		.text
  17              	.Ltext0:
  18              		.cfi_sections	.debug_frame
  19              		.bss
  20              	TimerExpire:
  21 0000 00       		.space	1
  22              		.section	.text.USBLD001_Timer_CallBack,"ax",%progbits
  23              		.align	2
  24              		.global	USBLD001_Timer_CallBack
  25              		.thumb
  26              		.thumb_func
  28              	USBLD001_Timer_CallBack:
  29              	.LFB120:
  30              		.file 1 "../Dave/Generated/src/USBLD001/usbld001_delay.c"
   1:../Dave/Generated/src/USBLD001/usbld001_delay.c **** /*******************************************************************************
   2:../Dave/Generated/src/USBLD001/usbld001_delay.c **** **  DAVE App Name : USBLD001       App Version: 1.0.18               
   3:../Dave/Generated/src/USBLD001/usbld001_delay.c **** **  This file is generated by DAVE, User modification to this file will be    **
   4:../Dave/Generated/src/USBLD001/usbld001_delay.c **** **  overwritten at the next code generation.                                  **
   5:../Dave/Generated/src/USBLD001/usbld001_delay.c **** *******************************************************************************/
   6:../Dave/Generated/src/USBLD001/usbld001_delay.c **** 
   7:../Dave/Generated/src/USBLD001/usbld001_delay.c **** /*******************************************************************************
   8:../Dave/Generated/src/USBLD001/usbld001_delay.c ****  Copyright (c) 2011, Infineon Technologies AG                                 **
   9:../Dave/Generated/src/USBLD001/usbld001_delay.c ****  All rights reserved.                                                         **
  10:../Dave/Generated/src/USBLD001/usbld001_delay.c ****                                                                               **
  11:../Dave/Generated/src/USBLD001/usbld001_delay.c ****  Redistribution and use in source and binary forms, with or without           **
  12:../Dave/Generated/src/USBLD001/usbld001_delay.c ****  modification,are permitted provided that the following conditions are met:   **
  13:../Dave/Generated/src/USBLD001/usbld001_delay.c ****                                                                               **
  14:../Dave/Generated/src/USBLD001/usbld001_delay.c ****  *Redistributions of source code must retain the above copyright notice,      **
  15:../Dave/Generated/src/USBLD001/usbld001_delay.c ****  this list of conditions and the following disclaimer.                        **
  16:../Dave/Generated/src/USBLD001/usbld001_delay.c ****  *Redistributions in binary form must reproduce the above copyright notice,   **
  17:../Dave/Generated/src/USBLD001/usbld001_delay.c ****  this list of conditions and the following disclaimer in the documentation    **
  18:../Dave/Generated/src/USBLD001/usbld001_delay.c ****  and/or other materials provided with the distribution.                       **
  19:../Dave/Generated/src/USBLD001/usbld001_delay.c ****  *Neither the name of the copyright holders nor the names of its contributors **
  20:../Dave/Generated/src/USBLD001/usbld001_delay.c ****  may be used to endorse or promote products derived from this software without** 
  21:../Dave/Generated/src/USBLD001/usbld001_delay.c ****  specific prior written permission.                                           **
  22:../Dave/Generated/src/USBLD001/usbld001_delay.c ****                                                                               **
  23:../Dave/Generated/src/USBLD001/usbld001_delay.c ****  THIS SOFTWARE IS PROVIDED BY THE COPYRIGHT HOLDERS AND CONTRIBUTORS "AS IS"  **
  24:../Dave/Generated/src/USBLD001/usbld001_delay.c ****  AND ANY EXPRESS OR IMPLIED WARRANTIES, INCLUDING, BUT NOT LIMITED TO, THE    **
  25:../Dave/Generated/src/USBLD001/usbld001_delay.c ****  IMPLIED WARRANTIES OF MERCHANTABILITY AND FITNESS FOR A PARTICULAR PURPOSE   **
  26:../Dave/Generated/src/USBLD001/usbld001_delay.c ****  ARE  DISCLAIMED. IN NO EVENT SHALL THE COPYRIGHT HOLDER OR CONTRIBUTORS BE   **
  27:../Dave/Generated/src/USBLD001/usbld001_delay.c ****  LIABLE  FOR ANY DIRECT, INDIRECT, INCIDENTAL, SPECIAL, EXEMPLARY, OR         **
  28:../Dave/Generated/src/USBLD001/usbld001_delay.c ****  CONSEQUENTIAL DAMAGES (INCLUDING, BUT NOT LIMITED TO, PROCUREMENT OF         **
  29:../Dave/Generated/src/USBLD001/usbld001_delay.c ****  SUBSTITUTE GOODS OR  SERVICES; LOSS OF USE, DATA, OR PROFITS; OR BUSINESS    **
  30:../Dave/Generated/src/USBLD001/usbld001_delay.c ****  INTERRUPTION) HOWEVER CAUSED AND ON ANY THEORY OF LIABILITY, WHETHER IN      **
  31:../Dave/Generated/src/USBLD001/usbld001_delay.c ****  CONTRACT, STRICT LIABILITY,OR TORT (INCLUDING NEGLIGENCE OR OTHERWISE)       **
  32:../Dave/Generated/src/USBLD001/usbld001_delay.c ****  ARISING IN ANY WAY OUT OF THE USE OF THIS SOFTWARE, EVEN IF ADVISED OF THE   **
  33:../Dave/Generated/src/USBLD001/usbld001_delay.c ****  POSSIBILITY OF SUCH DAMAGE.                                                  **
  34:../Dave/Generated/src/USBLD001/usbld001_delay.c ****                                                                               **
  35:../Dave/Generated/src/USBLD001/usbld001_delay.c ****  To improve the quality of the software, users are encouraged to share        **
  36:../Dave/Generated/src/USBLD001/usbld001_delay.c ****  modifications, enhancements or bug fixes with Infineon Technologies AG       **
  37:../Dave/Generated/src/USBLD001/usbld001_delay.c ****  dave@infineon.com).                                                          **
  38:../Dave/Generated/src/USBLD001/usbld001_delay.c ****                                                                               **
  39:../Dave/Generated/src/USBLD001/usbld001_delay.c **** ********************************************************************************
  40:../Dave/Generated/src/USBLD001/usbld001_delay.c **** **                                                                            **
  41:../Dave/Generated/src/USBLD001/usbld001_delay.c **** **                                                                            **
  42:../Dave/Generated/src/USBLD001/usbld001_delay.c **** ** PLATFORM : Infineon XMC4000 Series                                         **
  43:../Dave/Generated/src/USBLD001/usbld001_delay.c **** **                                                                            **
  44:../Dave/Generated/src/USBLD001/usbld001_delay.c **** ** COMPILER : Compiler Independent                                            **
  45:../Dave/Generated/src/USBLD001/usbld001_delay.c **** **                                                                            **
  46:../Dave/Generated/src/USBLD001/usbld001_delay.c **** ** AUTHOR : App Developer                                                     **
  47:../Dave/Generated/src/USBLD001/usbld001_delay.c **** **                                                                            **
  48:../Dave/Generated/src/USBLD001/usbld001_delay.c **** ** MAY BE CHANGED BY USER [yes/no]: Yes                                       **
  49:../Dave/Generated/src/USBLD001/usbld001_delay.c **** **                                                                            **
  50:../Dave/Generated/src/USBLD001/usbld001_delay.c **** ** MODIFICATION DATE : Apr 8, 2012                                           **
  51:../Dave/Generated/src/USBLD001/usbld001_delay.c **** **                                                                            **
  52:../Dave/Generated/src/USBLD001/usbld001_delay.c **** *******************************************************************************/
  53:../Dave/Generated/src/USBLD001/usbld001_delay.c **** 
  54:../Dave/Generated/src/USBLD001/usbld001_delay.c **** /*******************************************************************************
  55:../Dave/Generated/src/USBLD001/usbld001_delay.c **** **                       Author(s) Identity                                   **
  56:../Dave/Generated/src/USBLD001/usbld001_delay.c **** ********************************************************************************
  57:../Dave/Generated/src/USBLD001/usbld001_delay.c **** **                                                                            **
  58:../Dave/Generated/src/USBLD001/usbld001_delay.c **** ** Initials    Name                                                           **
  59:../Dave/Generated/src/USBLD001/usbld001_delay.c **** ** ---------------------------------------------------------------------------**
  60:../Dave/Generated/src/USBLD001/usbld001_delay.c **** ** CM          App Developer                                                  **
  61:../Dave/Generated/src/USBLD001/usbld001_delay.c **** *******************************************************************************/
  62:../Dave/Generated/src/USBLD001/usbld001_delay.c **** 
  63:../Dave/Generated/src/USBLD001/usbld001_delay.c **** #include <DAVE3.h>
  64:../Dave/Generated/src/USBLD001/usbld001_delay.c **** 
  65:../Dave/Generated/src/USBLD001/usbld001_delay.c **** 
  66:../Dave/Generated/src/USBLD001/usbld001_delay.c **** 
  67:../Dave/Generated/src/USBLD001/usbld001_delay.c **** 
  68:../Dave/Generated/src/USBLD001/usbld001_delay.c **** #define RTOS_MODE	0
  69:../Dave/Generated/src/USBLD001/usbld001_delay.c **** 
  70:../Dave/Generated/src/USBLD001/usbld001_delay.c **** #if RTOS_MODE
  71:../Dave/Generated/src/USBLD001/usbld001_delay.c **** 
  72:../Dave/Generated/src/USBLD001/usbld001_delay.c **** void USBLD001_lDelay(uint32_t DelayTime)
  73:../Dave/Generated/src/USBLD001/usbld001_delay.c **** {
  74:../Dave/Generated/src/USBLD001/usbld001_delay.c **** 	osStatus status;
  75:../Dave/Generated/src/USBLD001/usbld001_delay.c ****     uint32_t count = 0;
  76:../Dave/Generated/src/USBLD001/usbld001_delay.c ****     uint32_t usec = DelayTime * 1000;
  77:../Dave/Generated/src/USBLD001/usbld001_delay.c ****     const uint32_t utime = (120 * usec / 7);
  78:../Dave/Generated/src/USBLD001/usbld001_delay.c **** 
  79:../Dave/Generated/src/USBLD001/usbld001_delay.c ****     status = osDelay(DelayTime);
  80:../Dave/Generated/src/USBLD001/usbld001_delay.c **** 	if((status == osErrorISR))
  81:../Dave/Generated/src/USBLD001/usbld001_delay.c **** 	{
  82:../Dave/Generated/src/USBLD001/usbld001_delay.c **** 		/*
  83:../Dave/Generated/src/USBLD001/usbld001_delay.c **** 		 * Since synopsys driver expects delay in ISR, which RTOS does not
  84:../Dave/Generated/src/USBLD001/usbld001_delay.c **** 		 * support.
  85:../Dave/Generated/src/USBLD001/usbld001_delay.c **** 		 * Hence manual delay added.
  86:../Dave/Generated/src/USBLD001/usbld001_delay.c **** 		 */
  87:../Dave/Generated/src/USBLD001/usbld001_delay.c **** 		  do
  88:../Dave/Generated/src/USBLD001/usbld001_delay.c **** 		  {
  89:../Dave/Generated/src/USBLD001/usbld001_delay.c **** 			if ( ++count > utime )
  90:../Dave/Generated/src/USBLD001/usbld001_delay.c **** 			{
  91:../Dave/Generated/src/USBLD001/usbld001_delay.c **** 			  return ;
  92:../Dave/Generated/src/USBLD001/usbld001_delay.c **** 			}
  93:../Dave/Generated/src/USBLD001/usbld001_delay.c **** 		  }while (1);
  94:../Dave/Generated/src/USBLD001/usbld001_delay.c **** 	}
  95:../Dave/Generated/src/USBLD001/usbld001_delay.c **** }
  96:../Dave/Generated/src/USBLD001/usbld001_delay.c **** 
  97:../Dave/Generated/src/USBLD001/usbld001_delay.c **** #else
  98:../Dave/Generated/src/USBLD001/usbld001_delay.c **** 
  99:../Dave/Generated/src/USBLD001/usbld001_delay.c **** static volatile bool TimerExpire;
 100:../Dave/Generated/src/USBLD001/usbld001_delay.c **** 
 101:../Dave/Generated/src/USBLD001/usbld001_delay.c **** void USBLD001_Timer_CallBack(void* Temp)
 102:../Dave/Generated/src/USBLD001/usbld001_delay.c **** {
  31              		.loc 1 102 0
  32              		.cfi_startproc
  33              		@ args = 0, pretend = 0, frame = 8
  34              		@ frame_needed = 1, uses_anonymous_args = 0
  35              		@ link register save eliminated.
  36 0000 80B4     		push	{r7}
  37              	.LCFI0:
  38              		.cfi_def_cfa_offset 4
  39              		.cfi_offset 7, -4
  40 0002 83B0     		sub	sp, sp, #12
  41              	.LCFI1:
  42              		.cfi_def_cfa_offset 16
  43 0004 00AF     		add	r7, sp, #0
  44              	.LCFI2:
  45              		.cfi_def_cfa_register 7
  46 0006 7860     		str	r0, [r7, #4]
 103:../Dave/Generated/src/USBLD001/usbld001_delay.c ****   TimerExpire = 0;
  47              		.loc 1 103 0
  48 0008 40F20003 		movw	r3, #:lower16:TimerExpire
  49 000c C0F20003 		movt	r3, #:upper16:TimerExpire
  50 0010 4FF00002 		mov	r2, #0
  51 0014 1A70     		strb	r2, [r3, #0]
 104:../Dave/Generated/src/USBLD001/usbld001_delay.c **** }
  52              		.loc 1 104 0
  53 0016 07F10C07 		add	r7, r7, #12
  54 001a BD46     		mov	sp, r7
  55 001c 80BC     		pop	{r7}
  56 001e 7047     		bx	lr
  57              		.cfi_endproc
  58              	.LFE120:
  60              		.section	.text.USBLD001_lDelay,"ax",%progbits
  61              		.align	2
  62              		.global	USBLD001_lDelay
  63              		.thumb
  64              		.thumb_func
  66              	USBLD001_lDelay:
  67              	.LFB121:
 105:../Dave/Generated/src/USBLD001/usbld001_delay.c **** 
 106:../Dave/Generated/src/USBLD001/usbld001_delay.c **** /**
 107:../Dave/Generated/src/USBLD001/usbld001_delay.c ****  * This function is used to some delay in RTOS or NON-RTOS environment.
 108:../Dave/Generated/src/USBLD001/usbld001_delay.c ****  */
 109:../Dave/Generated/src/USBLD001/usbld001_delay.c **** void USBLD001_lDelay(uint32_t DelayTime)
 110:../Dave/Generated/src/USBLD001/usbld001_delay.c **** {
  68              		.loc 1 110 0
  69              		.cfi_startproc
  70              		@ args = 0, pretend = 0, frame = 16
  71              		@ frame_needed = 1, uses_anonymous_args = 0
  72 0000 80B5     		push	{r7, lr}
  73              	.LCFI3:
  74              		.cfi_def_cfa_offset 8
  75              		.cfi_offset 7, -8
  76              		.cfi_offset 14, -4
  77 0002 84B0     		sub	sp, sp, #16
  78              	.LCFI4:
  79              		.cfi_def_cfa_offset 24
  80 0004 00AF     		add	r7, sp, #0
  81              	.LCFI5:
  82              		.cfi_def_cfa_register 7
  83 0006 7860     		str	r0, [r7, #4]
 111:../Dave/Generated/src/USBLD001/usbld001_delay.c ****   handle_t TimerId;
 112:../Dave/Generated/src/USBLD001/usbld001_delay.c ****   status_t Status;
 113:../Dave/Generated/src/USBLD001/usbld001_delay.c ****   TimerExpire = 1;
  84              		.loc 1 113 0
  85 0008 40F20003 		movw	r3, #:lower16:TimerExpire
  86 000c C0F20003 		movt	r3, #:upper16:TimerExpire
  87 0010 4FF00102 		mov	r2, #1
  88 0014 1A70     		strb	r2, [r3, #0]
 114:../Dave/Generated/src/USBLD001/usbld001_delay.c ****   TimerId = SYSTM001_CreateTimer(DelayTime,SYSTM001_ONE_SHOT,USBLD001_Timer_CallBack,NULL);
  89              		.loc 1 114 0
  90 0016 7868     		ldr	r0, [r7, #4]
  91 0018 4FF00001 		mov	r1, #0
  92 001c 40F20002 		movw	r2, #:lower16:USBLD001_Timer_CallBack
  93 0020 C0F20002 		movt	r2, #:upper16:USBLD001_Timer_CallBack
  94 0024 4FF00003 		mov	r3, #0
  95 0028 FFF7FEFF 		bl	SYSTM001_CreateTimer
  96 002c F860     		str	r0, [r7, #12]
 115:../Dave/Generated/src/USBLD001/usbld001_delay.c ****   if(TimerId != 0)
  97              		.loc 1 115 0
  98 002e FB68     		ldr	r3, [r7, #12]
  99 0030 002B     		cmp	r3, #0
 100 0032 19D0     		beq	.L2
 116:../Dave/Generated/src/USBLD001/usbld001_delay.c ****   {
 117:../Dave/Generated/src/USBLD001/usbld001_delay.c ****     /* Timer is created successfully */
 118:../Dave/Generated/src/USBLD001/usbld001_delay.c ****     Status = SYSTM001_StartTimer(TimerId);
 101              		.loc 1 118 0
 102 0034 F868     		ldr	r0, [r7, #12]
 103 0036 FFF7FEFF 		bl	SYSTM001_StartTimer
 104 003a B860     		str	r0, [r7, #8]
 119:../Dave/Generated/src/USBLD001/usbld001_delay.c ****     if(Status == DAVEApp_SUCCESS)
 105              		.loc 1 119 0
 106 003c BB68     		ldr	r3, [r7, #8]
 107 003e 002B     		cmp	r3, #0
 108 0040 12D1     		bne	.L2
 120:../Dave/Generated/src/USBLD001/usbld001_delay.c ****     {
 121:../Dave/Generated/src/USBLD001/usbld001_delay.c ****       /* Wait in infinite loop till the timer expires */
 122:../Dave/Generated/src/USBLD001/usbld001_delay.c ****       while(TimerExpire)
 109              		.loc 1 122 0
 110 0042 00BF     		nop
 111              	.L4:
 112              		.loc 1 122 0 is_stmt 0 discriminator 1
 113 0044 40F20003 		movw	r3, #:lower16:TimerExpire
 114 0048 C0F20003 		movt	r3, #:upper16:TimerExpire
 115 004c 1B78     		ldrb	r3, [r3, #0]
 116 004e DBB2     		uxtb	r3, r3
 117 0050 002B     		cmp	r3, #0
 118 0052 F7D1     		bne	.L4
 123:../Dave/Generated/src/USBLD001/usbld001_delay.c ****       {
 124:../Dave/Generated/src/USBLD001/usbld001_delay.c ****       }
 125:../Dave/Generated/src/USBLD001/usbld001_delay.c ****       /* stop the timer */
 126:../Dave/Generated/src/USBLD001/usbld001_delay.c ****       Status = SYSTM001_StopTimer(TimerId);
 119              		.loc 1 126 0 is_stmt 1
 120 0054 F868     		ldr	r0, [r7, #12]
 121 0056 FFF7FEFF 		bl	SYSTM001_StopTimer
 122 005a B860     		str	r0, [r7, #8]
 127:../Dave/Generated/src/USBLD001/usbld001_delay.c ****       /* Delete the Timer*/
 128:../Dave/Generated/src/USBLD001/usbld001_delay.c ****       if(Status == DAVEApp_SUCCESS)
 123              		.loc 1 128 0
 124 005c BB68     		ldr	r3, [r7, #8]
 125 005e 002B     		cmp	r3, #0
 126 0060 02D1     		bne	.L2
 129:../Dave/Generated/src/USBLD001/usbld001_delay.c ****       {
 130:../Dave/Generated/src/USBLD001/usbld001_delay.c ****         SYSTM001_DeleteTimer(TimerId);
 127              		.loc 1 130 0
 128 0062 F868     		ldr	r0, [r7, #12]
 129 0064 FFF7FEFF 		bl	SYSTM001_DeleteTimer
 130              	.L2:
 131:../Dave/Generated/src/USBLD001/usbld001_delay.c ****       }
 132:../Dave/Generated/src/USBLD001/usbld001_delay.c ****          
 133:../Dave/Generated/src/USBLD001/usbld001_delay.c ****     }
 134:../Dave/Generated/src/USBLD001/usbld001_delay.c ****   }
 135:../Dave/Generated/src/USBLD001/usbld001_delay.c **** }
 131              		.loc 1 135 0
 132 0068 07F11007 		add	r7, r7, #16
 133 006c BD46     		mov	sp, r7
 134 006e 80BD     		pop	{r7, pc}
 135              		.cfi_endproc
 136              	.LFE121:
 138              		.text
 139              	.Letext0:
 140              		.file 2 "c:\\dave-3.1.10\\arm-gcc\\bin\\../lib/gcc/arm-none-eabi/4.7.4/../../../../arm-none-eabi/i
 141              		.file 3 "C:\\DAVE3_workspace\\ws3.1.10\\CORE_Larix_V1.0\\Dave\\Generated\\inc\\DAVESupport/../../i
 142              		.file 4 "C:\\DAVE3_workspace\\ws3.1.10\\CORE_Larix_V1.0\\Dave\\Generated\\inc\\DAVESupport/../../i
 143              		.file 5 "C:\\DAVE3_workspace\\ws3.1.10\\CORE_Larix_V1.0\\Dave\\Generated\\inc\\DAVESupport/../../i
 144              		.file 6 "C:\\DAVE-3.1.10\\eclipse\\/../CMSIS/Include/core_cm4.h"