   1              		.syntax unified
   2              		.cpu cortex-m4
   3              		.eabi_attribute 27, 3
   4              		.fpu fpv4-sp-d16
   5              		.eabi_attribute 20, 1
   6              		.eabi_attribute 21, 1
   7              		.eabi_attribute 23, 3
   8              		.eabi_attribute 24, 1
   9              		.eabi_attribute 25, 1
  10              		.eabi_attribute 26, 1
  11              		.eabi_attribute 30, 6
  12              		.eabi_attribute 34, 1
  13              		.eabi_attribute 18, 4
  14              		.thumb
  15              		.file	"AttitudeController.c"
  16              		.text
  17              	.Ltext0:
  18              		.cfi_sections	.debug_frame
  19              		.global	__aeabi_f2d
  20              		.global	__aeabi_dmul
  21              		.global	__aeabi_ddiv
  22              		.global	__aeabi_d2f
  23              		.section	.text.AngleController,"ax",%progbits
  24              		.align	2
  25              		.global	AngleController
  26              		.thumb
  27              		.thumb_func
  29              	AngleController:
  30              	.LFB128:
  31              		.file 1 "../AttitudeController.c"
   1:../AttitudeController.c **** /*
   2:../AttitudeController.c ****  * AttitudeController.c
   3:../AttitudeController.c ****  *
   4:../AttitudeController.c ****  *  Created on: 29.12.2014
   5:../AttitudeController.c ****  *      Author: maan
   6:../AttitudeController.c ****  */
   7:../AttitudeController.c **** #include "AttitudeController.h"
   8:../AttitudeController.c **** 
   9:../AttitudeController.c **** void AngleController(float *r, float *y, int n, const float *a, const float *b, float *x, float *u)
  10:../AttitudeController.c **** {
  32              		.loc 1 10 0
  33              		.cfi_startproc
  34              		@ args = 12, pretend = 0, frame = 24
  35              		@ frame_needed = 1, uses_anonymous_args = 0
  36 0000 80B5     		push	{r7, lr}
  37              	.LCFI0:
  38              		.cfi_def_cfa_offset 8
  39              		.cfi_offset 7, -8
  40              		.cfi_offset 14, -4
  41 0002 86B0     		sub	sp, sp, #24
  42              	.LCFI1:
  43              		.cfi_def_cfa_offset 32
  44 0004 00AF     		add	r7, sp, #0
  45              	.LCFI2:
  46              		.cfi_def_cfa_register 7
  47 0006 F860     		str	r0, [r7, #12]
  48 0008 B960     		str	r1, [r7, #8]
  49 000a 7A60     		str	r2, [r7, #4]
  50 000c 3B60     		str	r3, [r7, #0]
  11:../AttitudeController.c **** 	//PID-Controller
  12:../AttitudeController.c **** 
  13:../AttitudeController.c **** 	//control error
  14:../AttitudeController.c **** 	float e = (*r - *y)*M_PI/180.0;
  51              		.loc 1 14 0
  52 000e FB68     		ldr	r3, [r7, #12]
  53 0010 93ED007A 		flds	s14, [r3, #0]
  54 0014 BB68     		ldr	r3, [r7, #8]
  55 0016 D3ED007A 		flds	s15, [r3, #0]
  56 001a 77EE677A 		fsubs	s15, s14, s15
  57 001e 17EE900A 		fmrs	r0, s15
  58 0022 FFF7FEFF 		bl	__aeabi_f2d
  59 0026 0246     		mov	r2, r0
  60 0028 0B46     		mov	r3, r1
  61 002a 1046     		mov	r0, r2
  62 002c 1946     		mov	r1, r3
  63 002e 46A3     		adr	r3, .L4
  64 0030 D3E90023 		ldrd	r2, [r3]
  65 0034 FFF7FEFF 		bl	__aeabi_dmul
  66 0038 0246     		mov	r2, r0
  67 003a 0B46     		mov	r3, r1
  68 003c 1046     		mov	r0, r2
  69 003e 1946     		mov	r1, r3
  70 0040 4FF00002 		mov	r2, #0
  71 0044 4FF40043 		mov	r3, #32768
  72 0048 C4F26603 		movt	r3, 16486
  73 004c FFF7FEFF 		bl	__aeabi_ddiv
  74 0050 0246     		mov	r2, r0
  75 0052 0B46     		mov	r3, r1
  76 0054 1046     		mov	r0, r2
  77 0056 1946     		mov	r1, r3
  78 0058 FFF7FEFF 		bl	__aeabi_d2f
  79 005c 0346     		mov	r3, r0	@ float
  80 005e 3B61     		str	r3, [r7, #16]	@ float
  15:../AttitudeController.c **** 
  16:../AttitudeController.c **** 	//calculate plant input
  17:../AttitudeController.c **** 	*u = x[n-1]+b[n]*e;
  81              		.loc 1 17 0
  82 0060 7B68     		ldr	r3, [r7, #4]
  83 0062 03F1FF33 		add	r3, r3, #-1
  84 0066 4FEA8303 		lsl	r3, r3, #2
  85 006a 7A6A     		ldr	r2, [r7, #36]
  86 006c D318     		adds	r3, r2, r3
  87 006e 93ED007A 		flds	s14, [r3, #0]
  88 0072 7B68     		ldr	r3, [r7, #4]
  89 0074 4FEA8303 		lsl	r3, r3, #2
  90 0078 3A6A     		ldr	r2, [r7, #32]
  91 007a D318     		adds	r3, r2, r3
  92 007c D3ED006A 		flds	s13, [r3, #0]
  93 0080 D7ED047A 		flds	s15, [r7, #16]
  94 0084 66EEA77A 		fmuls	s15, s13, s15
  95 0088 77EE277A 		fadds	s15, s14, s15
  96 008c BB6A     		ldr	r3, [r7, #40]
  97 008e C3ED007A 		fsts	s15, [r3, #0]
  98              	.LBB2:
  18:../AttitudeController.c **** 
  19:../AttitudeController.c **** 	//calculate new coefficients
  20:../AttitudeController.c **** 	for (int i=n-1; i>0; i--)
  99              		.loc 1 20 0
 100 0092 7B68     		ldr	r3, [r7, #4]
 101 0094 03F1FF33 		add	r3, r3, #-1
 102 0098 7B61     		str	r3, [r7, #20]
 103 009a 2EE0     		b	.L2
 104              	.L3:
  21:../AttitudeController.c **** 		x[i]=b[i]*e-a[i]*(*u)+x[i-1];
 105              		.loc 1 21 0 discriminator 2
 106 009c 7B69     		ldr	r3, [r7, #20]
 107 009e 4FEA8303 		lsl	r3, r3, #2
 108 00a2 7A6A     		ldr	r2, [r7, #36]
 109 00a4 D318     		adds	r3, r2, r3
 110 00a6 7A69     		ldr	r2, [r7, #20]
 111 00a8 4FEA8202 		lsl	r2, r2, #2
 112 00ac 396A     		ldr	r1, [r7, #32]
 113 00ae 8A18     		adds	r2, r1, r2
 114 00b0 92ED007A 		flds	s14, [r2, #0]
 115 00b4 D7ED047A 		flds	s15, [r7, #16]
 116 00b8 27EE277A 		fmuls	s14, s14, s15
 117 00bc 7A69     		ldr	r2, [r7, #20]
 118 00be 4FEA8202 		lsl	r2, r2, #2
 119 00c2 3968     		ldr	r1, [r7, #0]
 120 00c4 8A18     		adds	r2, r1, r2
 121 00c6 D2ED006A 		flds	s13, [r2, #0]
 122 00ca BA6A     		ldr	r2, [r7, #40]
 123 00cc D2ED007A 		flds	s15, [r2, #0]
 124 00d0 66EEA77A 		fmuls	s15, s13, s15
 125 00d4 37EE677A 		fsubs	s14, s14, s15
 126 00d8 7A69     		ldr	r2, [r7, #20]
 127 00da 02F1FF32 		add	r2, r2, #-1
 128 00de 4FEA8202 		lsl	r2, r2, #2
 129 00e2 796A     		ldr	r1, [r7, #36]
 130 00e4 8A18     		adds	r2, r1, r2
 131 00e6 D2ED007A 		flds	s15, [r2, #0]
 132 00ea 77EE277A 		fadds	s15, s14, s15
 133 00ee C3ED007A 		fsts	s15, [r3, #0]
  20:../AttitudeController.c **** 	for (int i=n-1; i>0; i--)
 134              		.loc 1 20 0 discriminator 2
 135 00f2 7B69     		ldr	r3, [r7, #20]
 136 00f4 03F1FF33 		add	r3, r3, #-1
 137 00f8 7B61     		str	r3, [r7, #20]
 138              	.L2:
  20:../AttitudeController.c **** 	for (int i=n-1; i>0; i--)
 139              		.loc 1 20 0 is_stmt 0 discriminator 1
 140 00fa 7B69     		ldr	r3, [r7, #20]
 141 00fc 002B     		cmp	r3, #0
 142 00fe CDDC     		bgt	.L3
 143              	.LBE2:
  22:../AttitudeController.c **** 
  23:../AttitudeController.c **** 	x[0]=b[0]*e-a[0]*(*u);
 144              		.loc 1 23 0 is_stmt 1
 145 0100 3B6A     		ldr	r3, [r7, #32]
 146 0102 93ED007A 		flds	s14, [r3, #0]
 147 0106 D7ED047A 		flds	s15, [r7, #16]
 148 010a 27EE277A 		fmuls	s14, s14, s15
 149 010e 3B68     		ldr	r3, [r7, #0]
 150 0110 D3ED006A 		flds	s13, [r3, #0]
 151 0114 BB6A     		ldr	r3, [r7, #40]
 152 0116 D3ED007A 		flds	s15, [r3, #0]
 153 011a 66EEA77A 		fmuls	s15, s13, s15
 154 011e 77EE677A 		fsubs	s15, s14, s15
 155 0122 7B6A     		ldr	r3, [r7, #36]
 156 0124 C3ED007A 		fsts	s15, [r3, #0]
  24:../AttitudeController.c **** 
  25:../AttitudeController.c **** 	*u/=4.0;
 157              		.loc 1 25 0
 158 0128 BB6A     		ldr	r3, [r7, #40]
 159 012a 93ED007A 		flds	s14, [r3, #0]
 160 012e F1EE007A 		fconsts	s15, #16
 161 0132 C7EE277A 		fdivs	s15, s14, s15
 162 0136 BB6A     		ldr	r3, [r7, #40]
 163 0138 C3ED007A 		fsts	s15, [r3, #0]
  26:../AttitudeController.c **** }
 164              		.loc 1 26 0
 165 013c 07F11807 		add	r7, r7, #24
 166 0140 BD46     		mov	sp, r7
 167 0142 80BD     		pop	{r7, pc}
 168              	.L5:
 169 0144 AFF30080 		.align	3
 170              	.L4:
 171 0148 182D4454 		.word	1413754136
 172 014c FB210940 		.word	1074340347
 173              		.cfi_endproc
 174              	.LFE128:
 176              		.section	.text.AngleRateController,"ax",%progbits
 177              		.align	2
 178              		.global	AngleRateController
 179              		.thumb
 180              		.thumb_func
 182              	AngleRateController:
 183              	.LFB129:
  27:../AttitudeController.c **** 
  28:../AttitudeController.c **** void AngleRateController(float *r, float *y, const float *P, float *u)
  29:../AttitudeController.c **** {
 184              		.loc 1 29 0
 185              		.cfi_startproc
 186              		@ args = 0, pretend = 0, frame = 16
 187              		@ frame_needed = 1, uses_anonymous_args = 0
 188 0000 B0B5     		push	{r4, r5, r7, lr}
 189              	.LCFI3:
 190              		.cfi_def_cfa_offset 16
 191              		.cfi_offset 4, -16
 192              		.cfi_offset 5, -12
 193              		.cfi_offset 7, -8
 194              		.cfi_offset 14, -4
 195 0002 84B0     		sub	sp, sp, #16
 196              	.LCFI4:
 197              		.cfi_def_cfa_offset 32
 198 0004 00AF     		add	r7, sp, #0
 199              	.LCFI5:
 200              		.cfi_def_cfa_register 7
 201 0006 F860     		str	r0, [r7, #12]
 202 0008 B960     		str	r1, [r7, #8]
 203 000a 7A60     		str	r2, [r7, #4]
 204 000c 3B60     		str	r3, [r7, #0]
  30:../AttitudeController.c **** 	//P-Controller
  31:../AttitudeController.c **** 	*u=(*r - *y)*M_PI/(180.0*4) * *P;
 205              		.loc 1 31 0
 206 000e FB68     		ldr	r3, [r7, #12]
 207 0010 93ED007A 		flds	s14, [r3, #0]
 208 0014 BB68     		ldr	r3, [r7, #8]
 209 0016 D3ED007A 		flds	s15, [r3, #0]
 210 001a 77EE677A 		fsubs	s15, s14, s15
 211 001e 17EE900A 		fmrs	r0, s15
 212 0022 FFF7FEFF 		bl	__aeabi_f2d
 213 0026 0246     		mov	r2, r0
 214 0028 0B46     		mov	r3, r1
 215 002a 1046     		mov	r0, r2
 216 002c 1946     		mov	r1, r3
 217 002e 16A3     		adr	r3, .L7
 218 0030 D3E90023 		ldrd	r2, [r3]
 219 0034 FFF7FEFF 		bl	__aeabi_dmul
 220 0038 0246     		mov	r2, r0
 221 003a 0B46     		mov	r3, r1
 222 003c 1046     		mov	r0, r2
 223 003e 1946     		mov	r1, r3
 224 0040 4FF00002 		mov	r2, #0
 225 0044 4FF40043 		mov	r3, #32768
 226 0048 C4F28603 		movt	r3, 16518
 227 004c FFF7FEFF 		bl	__aeabi_ddiv
 228 0050 0246     		mov	r2, r0
 229 0052 0B46     		mov	r3, r1
 230 0054 1446     		mov	r4, r2
 231 0056 1D46     		mov	r5, r3
 232 0058 7B68     		ldr	r3, [r7, #4]
 233 005a 1B68     		ldr	r3, [r3, #0]	@ float
 234 005c 1846     		mov	r0, r3	@ float
 235 005e FFF7FEFF 		bl	__aeabi_f2d
 236 0062 0246     		mov	r2, r0
 237 0064 0B46     		mov	r3, r1
 238 0066 2046     		mov	r0, r4
 239 0068 2946     		mov	r1, r5
 240 006a FFF7FEFF 		bl	__aeabi_dmul
 241 006e 0246     		mov	r2, r0
 242 0070 0B46     		mov	r3, r1
 243 0072 1046     		mov	r0, r2
 244 0074 1946     		mov	r1, r3
 245 0076 FFF7FEFF 		bl	__aeabi_d2f
 246 007a 0246     		mov	r2, r0	@ float
 247 007c 3B68     		ldr	r3, [r7, #0]
 248 007e 1A60     		str	r2, [r3, #0]	@ float
  32:../AttitudeController.c **** }
 249              		.loc 1 32 0
 250 0080 07F11007 		add	r7, r7, #16
 251 0084 BD46     		mov	sp, r7
 252 0086 B0BD     		pop	{r4, r5, r7, pc}
 253              	.L8:
 254              		.align	3
 255              	.L7:
 256 0088 182D4454 		.word	1413754136
 257 008c FB210940 		.word	1074340347
 258              		.cfi_endproc
 259              	.LFE129:
 261              		.section	.text.CreatePulseWidth,"ax",%progbits
 262              		.align	2
 263              		.global	CreatePulseWidth
 264              		.thumb
 265              		.thumb_func
 267              	CreatePulseWidth:
 268              	.LFB130:
  33:../AttitudeController.c **** 
  34:../AttitudeController.c **** void CreatePulseWidth(float *u_phi, float *u_deta, float *u_psi_dot, float *u_hover, float *PWM_wid
  35:../AttitudeController.c **** {
 269              		.loc 1 35 0
 270              		.cfi_startproc
 271              		@ args = 4, pretend = 0, frame = 24
 272              		@ frame_needed = 1, uses_anonymous_args = 0
 273              		@ link register save eliminated.
 274 0000 80B4     		push	{r7}
 275              	.LCFI6:
 276              		.cfi_def_cfa_offset 4
 277              		.cfi_offset 7, -4
 278 0002 87B0     		sub	sp, sp, #28
 279              	.LCFI7:
 280              		.cfi_def_cfa_offset 32
 281 0004 00AF     		add	r7, sp, #0
 282              	.LCFI8:
 283              		.cfi_def_cfa_register 7
 284 0006 F860     		str	r0, [r7, #12]
 285 0008 B960     		str	r1, [r7, #8]
 286 000a 7A60     		str	r2, [r7, #4]
 287 000c 3B60     		str	r3, [r7, #0]
  36:../AttitudeController.c **** 	float saturationMax=100;
 288              		.loc 1 36 0
 289 000e 4FF00003 		mov	r3, #0
 290 0012 C4F2C823 		movt	r3, 17096
 291 0016 7B61     		str	r3, [r7, #20]	@ float
  37:../AttitudeController.c **** 	float saturationMin=15;
 292              		.loc 1 37 0
 293 0018 4FF00003 		mov	r3, #0
 294 001c C4F27013 		movt	r3, 16752
 295 0020 3B61     		str	r3, [r7, #16]	@ float
  38:../AttitudeController.c **** 
  39:../AttitudeController.c **** 	//*u_psi_dot = 0;
  40:../AttitudeController.c **** 	//*u_phi = 0;
  41:../AttitudeController.c **** 	//*u_deta = 0;
  42:../AttitudeController.c **** 
  43:../AttitudeController.c **** 	if (*u_hover > 5.0)
 296              		.loc 1 43 0
 297 0022 3B68     		ldr	r3, [r7, #0]
 298 0024 93ED007A 		flds	s14, [r3, #0]
 299 0028 F1EE047A 		fconsts	s15, #20
 300 002c B4EEE77A 		fcmpes	s14, s15
 301 0030 F1EE10FA 		fmstat
 302 0034 5CDD     		ble	.L38
 303              	.L29:
  44:../AttitudeController.c **** 	{
  45:../AttitudeController.c **** 		PWM_width[0]=*u_phi+*u_deta-*u_psi_dot+*u_hover;
 304              		.loc 1 45 0
 305 0036 FB68     		ldr	r3, [r7, #12]
 306 0038 93ED007A 		flds	s14, [r3, #0]
 307 003c BB68     		ldr	r3, [r7, #8]
 308 003e D3ED007A 		flds	s15, [r3, #0]
 309 0042 37EE277A 		fadds	s14, s14, s15
 310 0046 7B68     		ldr	r3, [r7, #4]
 311 0048 D3ED007A 		flds	s15, [r3, #0]
 312 004c 37EE677A 		fsubs	s14, s14, s15
 313 0050 3B68     		ldr	r3, [r7, #0]
 314 0052 D3ED007A 		flds	s15, [r3, #0]
 315 0056 77EE277A 		fadds	s15, s14, s15
 316 005a 3B6A     		ldr	r3, [r7, #32]
 317 005c C3ED007A 		fsts	s15, [r3, #0]
  46:../AttitudeController.c **** 		PWM_width[1]=*u_phi-*u_deta+*u_psi_dot+*u_hover;
 318              		.loc 1 46 0
 319 0060 3B6A     		ldr	r3, [r7, #32]
 320 0062 03F10403 		add	r3, r3, #4
 321 0066 FA68     		ldr	r2, [r7, #12]
 322 0068 92ED007A 		flds	s14, [r2, #0]
 323 006c BA68     		ldr	r2, [r7, #8]
 324 006e D2ED007A 		flds	s15, [r2, #0]
 325 0072 37EE677A 		fsubs	s14, s14, s15
 326 0076 7A68     		ldr	r2, [r7, #4]
 327 0078 D2ED007A 		flds	s15, [r2, #0]
 328 007c 37EE277A 		fadds	s14, s14, s15
 329 0080 3A68     		ldr	r2, [r7, #0]
 330 0082 D2ED007A 		flds	s15, [r2, #0]
 331 0086 77EE277A 		fadds	s15, s14, s15
 332 008a C3ED007A 		fsts	s15, [r3, #0]
  47:../AttitudeController.c **** 		PWM_width[2]=-*u_phi+*u_deta+*u_psi_dot+*u_hover;
 333              		.loc 1 47 0
 334 008e 3B6A     		ldr	r3, [r7, #32]
 335 0090 03F10803 		add	r3, r3, #8
 336 0094 BA68     		ldr	r2, [r7, #8]
 337 0096 92ED007A 		flds	s14, [r2, #0]
 338 009a FA68     		ldr	r2, [r7, #12]
 339 009c D2ED007A 		flds	s15, [r2, #0]
 340 00a0 37EE677A 		fsubs	s14, s14, s15
 341 00a4 7A68     		ldr	r2, [r7, #4]
 342 00a6 D2ED007A 		flds	s15, [r2, #0]
 343 00aa 37EE277A 		fadds	s14, s14, s15
 344 00ae 3A68     		ldr	r2, [r7, #0]
 345 00b0 D2ED007A 		flds	s15, [r2, #0]
 346 00b4 77EE277A 		fadds	s15, s14, s15
 347 00b8 C3ED007A 		fsts	s15, [r3, #0]
  48:../AttitudeController.c **** 		PWM_width[3]=-*u_phi-*u_deta-*u_psi_dot+*u_hover;
 348              		.loc 1 48 0
 349 00bc 3B6A     		ldr	r3, [r7, #32]
 350 00be 03F10C03 		add	r3, r3, #12
 351 00c2 FA68     		ldr	r2, [r7, #12]
 352 00c4 D2ED007A 		flds	s15, [r2, #0]
 353 00c8 B1EE677A 		fnegs	s14, s15
 354 00cc BA68     		ldr	r2, [r7, #8]
 355 00ce D2ED007A 		flds	s15, [r2, #0]
 356 00d2 37EE677A 		fsubs	s14, s14, s15
 357 00d6 7A68     		ldr	r2, [r7, #4]
 358 00d8 D2ED007A 		flds	s15, [r2, #0]
 359 00dc 37EE677A 		fsubs	s14, s14, s15
 360 00e0 3A68     		ldr	r2, [r7, #0]
 361 00e2 D2ED007A 		flds	s15, [r2, #0]
 362 00e6 77EE277A 		fadds	s15, s14, s15
 363 00ea C3ED007A 		fsts	s15, [r3, #0]
 364 00ee 15E0     		b	.L12
 365              	.L38:
  49:../AttitudeController.c **** 	}
  50:../AttitudeController.c **** 	else
  51:../AttitudeController.c **** 	{
  52:../AttitudeController.c **** 		PWM_width[0]=*u_hover;
 366              		.loc 1 52 0
 367 00f0 3B68     		ldr	r3, [r7, #0]
 368 00f2 1A68     		ldr	r2, [r3, #0]	@ float
 369 00f4 3B6A     		ldr	r3, [r7, #32]
 370 00f6 1A60     		str	r2, [r3, #0]	@ float
  53:../AttitudeController.c **** 		PWM_width[1]=*u_hover;
 371              		.loc 1 53 0
 372 00f8 3B6A     		ldr	r3, [r7, #32]
 373 00fa 03F10403 		add	r3, r3, #4
 374 00fe 3A68     		ldr	r2, [r7, #0]
 375 0100 1268     		ldr	r2, [r2, #0]	@ float
 376 0102 1A60     		str	r2, [r3, #0]	@ float
  54:../AttitudeController.c **** 		PWM_width[2]=*u_hover;
 377              		.loc 1 54 0
 378 0104 3B6A     		ldr	r3, [r7, #32]
 379 0106 03F10803 		add	r3, r3, #8
 380 010a 3A68     		ldr	r2, [r7, #0]
 381 010c 1268     		ldr	r2, [r2, #0]	@ float
 382 010e 1A60     		str	r2, [r3, #0]	@ float
  55:../AttitudeController.c **** 		PWM_width[3]=*u_hover;
 383              		.loc 1 55 0
 384 0110 3B6A     		ldr	r3, [r7, #32]
 385 0112 03F10C03 		add	r3, r3, #12
 386 0116 3A68     		ldr	r2, [r7, #0]
 387 0118 1268     		ldr	r2, [r2, #0]	@ float
 388 011a 1A60     		str	r2, [r3, #0]	@ float
 389              	.L12:
  56:../AttitudeController.c **** 	}
  57:../AttitudeController.c **** 
  58:../AttitudeController.c **** 	if (PWM_width[0]>saturationMax)
 390              		.loc 1 58 0
 391 011c 3B6A     		ldr	r3, [r7, #32]
 392 011e 93ED007A 		flds	s14, [r3, #0]
 393 0122 D7ED057A 		flds	s15, [r7, #20]
 394 0126 B4EEE77A 		fcmpes	s14, s15
 395 012a F1EE10FA 		fmstat
 396 012e 02DD     		ble	.L13
 397              	.L30:
  59:../AttitudeController.c **** 		PWM_width[0]=saturationMax;
 398              		.loc 1 59 0
 399 0130 3B6A     		ldr	r3, [r7, #32]
 400 0132 7A69     		ldr	r2, [r7, #20]	@ float
 401 0134 1A60     		str	r2, [r3, #0]	@ float
 402              	.L13:
  60:../AttitudeController.c **** 
  61:../AttitudeController.c **** 	if (PWM_width[0]<saturationMin)
 403              		.loc 1 61 0
 404 0136 3B6A     		ldr	r3, [r7, #32]
 405 0138 93ED007A 		flds	s14, [r3, #0]
 406 013c D7ED047A 		flds	s15, [r7, #16]
 407 0140 B4EEE77A 		fcmpes	s14, s15
 408 0144 F1EE10FA 		fmstat
 409 0148 02D5     		bpl	.L15
 410              	.L31:
  62:../AttitudeController.c **** 		PWM_width[0]=saturationMin;
 411              		.loc 1 62 0
 412 014a 3B6A     		ldr	r3, [r7, #32]
 413 014c 3A69     		ldr	r2, [r7, #16]	@ float
 414 014e 1A60     		str	r2, [r3, #0]	@ float
 415              	.L15:
  63:../AttitudeController.c **** 
  64:../AttitudeController.c **** 	if (PWM_width[1]>saturationMax)
 416              		.loc 1 64 0
 417 0150 3B6A     		ldr	r3, [r7, #32]
 418 0152 03F10403 		add	r3, r3, #4
 419 0156 93ED007A 		flds	s14, [r3, #0]
 420 015a D7ED057A 		flds	s15, [r7, #20]
 421 015e B4EEE77A 		fcmpes	s14, s15
 422 0162 F1EE10FA 		fmstat
 423 0166 04DD     		ble	.L17
 424              	.L32:
  65:../AttitudeController.c **** 		PWM_width[1]=saturationMax;
 425              		.loc 1 65 0
 426 0168 3B6A     		ldr	r3, [r7, #32]
 427 016a 03F10403 		add	r3, r3, #4
 428 016e 7A69     		ldr	r2, [r7, #20]	@ float
 429 0170 1A60     		str	r2, [r3, #0]	@ float
 430              	.L17:
  66:../AttitudeController.c **** 
  67:../AttitudeController.c **** 	if (PWM_width[1]<saturationMin)
 431              		.loc 1 67 0
 432 0172 3B6A     		ldr	r3, [r7, #32]
 433 0174 03F10403 		add	r3, r3, #4
 434 0178 93ED007A 		flds	s14, [r3, #0]
 435 017c D7ED047A 		flds	s15, [r7, #16]
 436 0180 B4EEE77A 		fcmpes	s14, s15
 437 0184 F1EE10FA 		fmstat
 438 0188 04D5     		bpl	.L19
 439              	.L33:
  68:../AttitudeController.c **** 		PWM_width[1]=saturationMin;
 440              		.loc 1 68 0
 441 018a 3B6A     		ldr	r3, [r7, #32]
 442 018c 03F10403 		add	r3, r3, #4
 443 0190 3A69     		ldr	r2, [r7, #16]	@ float
 444 0192 1A60     		str	r2, [r3, #0]	@ float
 445              	.L19:
  69:../AttitudeController.c **** 
  70:../AttitudeController.c **** 	if (PWM_width[2]>saturationMax)
 446              		.loc 1 70 0
 447 0194 3B6A     		ldr	r3, [r7, #32]
 448 0196 03F10803 		add	r3, r3, #8
 449 019a 93ED007A 		flds	s14, [r3, #0]
 450 019e D7ED057A 		flds	s15, [r7, #20]
 451 01a2 B4EEE77A 		fcmpes	s14, s15
 452 01a6 F1EE10FA 		fmstat
 453 01aa 04DD     		ble	.L21
 454              	.L34:
  71:../AttitudeController.c **** 		PWM_width[2]=saturationMax;
 455              		.loc 1 71 0
 456 01ac 3B6A     		ldr	r3, [r7, #32]
 457 01ae 03F10803 		add	r3, r3, #8
 458 01b2 7A69     		ldr	r2, [r7, #20]	@ float
 459 01b4 1A60     		str	r2, [r3, #0]	@ float
 460              	.L21:
  72:../AttitudeController.c **** 
  73:../AttitudeController.c **** 	if (PWM_width[2]<saturationMin)
 461              		.loc 1 73 0
 462 01b6 3B6A     		ldr	r3, [r7, #32]
 463 01b8 03F10803 		add	r3, r3, #8
 464 01bc 93ED007A 		flds	s14, [r3, #0]
 465 01c0 D7ED047A 		flds	s15, [r7, #16]
 466 01c4 B4EEE77A 		fcmpes	s14, s15
 467 01c8 F1EE10FA 		fmstat
 468 01cc 04D5     		bpl	.L23
 469              	.L35:
  74:../AttitudeController.c **** 		PWM_width[2]=saturationMin;
 470              		.loc 1 74 0
 471 01ce 3B6A     		ldr	r3, [r7, #32]
 472 01d0 03F10803 		add	r3, r3, #8
 473 01d4 3A69     		ldr	r2, [r7, #16]	@ float
 474 01d6 1A60     		str	r2, [r3, #0]	@ float
 475              	.L23:
  75:../AttitudeController.c **** 
  76:../AttitudeController.c **** 	if (PWM_width[3]>saturationMax)
 476              		.loc 1 76 0
 477 01d8 3B6A     		ldr	r3, [r7, #32]
 478 01da 03F10C03 		add	r3, r3, #12
 479 01de 93ED007A 		flds	s14, [r3, #0]
 480 01e2 D7ED057A 		flds	s15, [r7, #20]
 481 01e6 B4EEE77A 		fcmpes	s14, s15
 482 01ea F1EE10FA 		fmstat
 483 01ee 04DD     		ble	.L25
 484              	.L36:
  77:../AttitudeController.c **** 		PWM_width[3]=saturationMax;
 485              		.loc 1 77 0
 486 01f0 3B6A     		ldr	r3, [r7, #32]
 487 01f2 03F10C03 		add	r3, r3, #12
 488 01f6 7A69     		ldr	r2, [r7, #20]	@ float
 489 01f8 1A60     		str	r2, [r3, #0]	@ float
 490              	.L25:
  78:../AttitudeController.c **** 
  79:../AttitudeController.c **** 	if (PWM_width[3]<saturationMin)
 491              		.loc 1 79 0
 492 01fa 3B6A     		ldr	r3, [r7, #32]
 493 01fc 03F10C03 		add	r3, r3, #12
 494 0200 93ED007A 		flds	s14, [r3, #0]
 495 0204 D7ED047A 		flds	s15, [r7, #16]
 496 0208 B4EEE77A 		fcmpes	s14, s15
 497 020c F1EE10FA 		fmstat
 498 0210 04D5     		bpl	.L9
 499              	.L37:
  80:../AttitudeController.c **** 		PWM_width[3]=saturationMin;
 500              		.loc 1 80 0
 501 0212 3B6A     		ldr	r3, [r7, #32]
 502 0214 03F10C03 		add	r3, r3, #12
 503 0218 3A69     		ldr	r2, [r7, #16]	@ float
 504 021a 1A60     		str	r2, [r3, #0]	@ float
 505              	.L9:
  81:../AttitudeController.c **** }
 506              		.loc 1 81 0
 507 021c 07F11C07 		add	r7, r7, #28
 508 0220 BD46     		mov	sp, r7
 509 0222 80BC     		pop	{r7}
 510 0224 7047     		bx	lr
 511              		.cfi_endproc
 512              	.LFE130:
 514 0226 00BF     		.text
 515              	.Letext0: