   1              		.syntax unified
   2              		.cpu cortex-m4
   3              		.eabi_attribute 27, 3
   4              		.fpu fpv4-sp-d16
   5              		.eabi_attribute 20, 1
   6              		.eabi_attribute 21, 1
   7              		.eabi_attribute 23, 3
   8              		.eabi_attribute 24, 1
   9              		.eabi_attribute 25, 1
  10              		.eabi_attribute 26, 1
  11              		.eabi_attribute 30, 6
  12              		.eabi_attribute 34, 1
  13              		.eabi_attribute 18, 4
  14              		.thumb
  15              		.file	"DaisyChain.c"
  16              		.text
  17              	.Ltext0:
  18              		.cfi_sections	.debug_frame
  19              		.comm	DaisyTransmit,13,4
  20              		.section	.text.SendDaisyData,"ax",%progbits
  21              		.align	2
  22              		.global	SendDaisyData
  23              		.thumb
  24              		.thumb_func
  26              	SendDaisyData:
  27              	.LFB120:
  28              		.file 1 "../DaisyChain.c"
   1:../DaisyChain.c **** /*
   2:../DaisyChain.c ****  * DaisyChain.c
   3:../DaisyChain.c ****  *
   4:../DaisyChain.c ****  *  Created on: 15.09.2015
   5:../DaisyChain.c ****  *      Author: maan
   6:../DaisyChain.c ****  */
   7:../DaisyChain.c **** 
   8:../DaisyChain.c **** #include "DaisyChain.h"
   9:../DaisyChain.c **** 
  10:../DaisyChain.c **** uint8_t DaisyTransmit[DAISY_BUFFER_SIZE];
  11:../DaisyChain.c **** 
  12:../DaisyChain.c **** /*void InitDaisy()
  13:../DaisyChain.c **** {
  14:../DaisyChain.c **** 	uint8_t trans = 111;
  15:../DaisyChain.c **** 	uint8_t rec = 0;
  16:../DaisyChain.c **** 
  17:../DaisyChain.c **** 	UART001_WriteDataBytes(&UART001_Handle2, &trans, 1);
  18:../DaisyChain.c **** 
  19:../DaisyChain.c **** 	while (rec != 111)
  20:../DaisyChain.c **** 		while(!UART001_ReadDataBytes(&UART001_Handle2, &rec, 1));
  21:../DaisyChain.c **** 
  22:../DaisyChain.c **** 	// if init-Byte has been received empty IO buffer
  23:../DaisyChain.c **** 	while(UART001_ReadDataBytes(&UART001_Handle2, &rec, 1));
  24:../DaisyChain.c **** }*/
  25:../DaisyChain.c **** 
  26:../DaisyChain.c **** void SendDaisyData(uint8_t command, uint16_t data1, uint16_t data2, uint16_t data3, uint16_t data4)
  27:../DaisyChain.c **** {
  29              		.loc 1 27 0
  30              		.cfi_startproc
  31              		@ args = 4, pretend = 0, frame = 8
  32              		@ frame_needed = 1, uses_anonymous_args = 0
  33 0000 80B5     		push	{r7, lr}
  34              	.LCFI0:
  35              		.cfi_def_cfa_offset 8
  36              		.cfi_offset 7, -8
  37              		.cfi_offset 14, -4
  38 0002 82B0     		sub	sp, sp, #8
  39              	.LCFI1:
  40              		.cfi_def_cfa_offset 16
  41 0004 00AF     		add	r7, sp, #0
  42              	.LCFI2:
  43              		.cfi_def_cfa_register 7
  44 0006 F871     		strb	r0, [r7, #7]
  45 0008 B980     		strh	r1, [r7, #4]	@ movhi
  46 000a 7A80     		strh	r2, [r7, #2]	@ movhi
  47 000c 3B80     		strh	r3, [r7, #0]	@ movhi
  28:../DaisyChain.c **** 	//Motor 1
  29:../DaisyChain.c **** 	DaisyTransmit[0]=command;
  48              		.loc 1 29 0
  49 000e 40F20003 		movw	r3, #:lower16:DaisyTransmit
  50 0012 C0F20003 		movt	r3, #:upper16:DaisyTransmit
  51 0016 FA79     		ldrb	r2, [r7, #7]
  52 0018 1A70     		strb	r2, [r3, #0]
  30:../DaisyChain.c **** 	DaisyTransmit[1]=(uint8_t)(data1>>8);
  53              		.loc 1 30 0
  54 001a BB88     		ldrh	r3, [r7, #4]
  55 001c 4FEA1323 		lsr	r3, r3, #8
  56 0020 9BB2     		uxth	r3, r3
  57 0022 DAB2     		uxtb	r2, r3
  58 0024 40F20003 		movw	r3, #:lower16:DaisyTransmit
  59 0028 C0F20003 		movt	r3, #:upper16:DaisyTransmit
  60 002c 5A70     		strb	r2, [r3, #1]
  31:../DaisyChain.c **** 	DaisyTransmit[2]=(uint8_t)data1;
  61              		.loc 1 31 0
  62 002e BB88     		ldrh	r3, [r7, #4]	@ movhi
  63 0030 DAB2     		uxtb	r2, r3
  64 0032 40F20003 		movw	r3, #:lower16:DaisyTransmit
  65 0036 C0F20003 		movt	r3, #:upper16:DaisyTransmit
  66 003a 9A70     		strb	r2, [r3, #2]
  32:../DaisyChain.c **** 
  33:../DaisyChain.c **** 	//Motor 2
  34:../DaisyChain.c **** 	DaisyTransmit[3]=command;
  67              		.loc 1 34 0
  68 003c 40F20003 		movw	r3, #:lower16:DaisyTransmit
  69 0040 C0F20003 		movt	r3, #:upper16:DaisyTransmit
  70 0044 FA79     		ldrb	r2, [r7, #7]
  71 0046 DA70     		strb	r2, [r3, #3]
  35:../DaisyChain.c **** 	DaisyTransmit[4]=(uint8_t)(data2>>8);
  72              		.loc 1 35 0
  73 0048 7B88     		ldrh	r3, [r7, #2]
  74 004a 4FEA1323 		lsr	r3, r3, #8
  75 004e 9BB2     		uxth	r3, r3
  76 0050 DAB2     		uxtb	r2, r3
  77 0052 40F20003 		movw	r3, #:lower16:DaisyTransmit
  78 0056 C0F20003 		movt	r3, #:upper16:DaisyTransmit
  79 005a 1A71     		strb	r2, [r3, #4]
  36:../DaisyChain.c **** 	DaisyTransmit[5]=(uint8_t) data2;
  80              		.loc 1 36 0
  81 005c 7B88     		ldrh	r3, [r7, #2]	@ movhi
  82 005e DAB2     		uxtb	r2, r3
  83 0060 40F20003 		movw	r3, #:lower16:DaisyTransmit
  84 0064 C0F20003 		movt	r3, #:upper16:DaisyTransmit
  85 0068 5A71     		strb	r2, [r3, #5]
  37:../DaisyChain.c **** 
  38:../DaisyChain.c **** 	//Motor 3
  39:../DaisyChain.c **** 	DaisyTransmit[6]=command;
  86              		.loc 1 39 0
  87 006a 40F20003 		movw	r3, #:lower16:DaisyTransmit
  88 006e C0F20003 		movt	r3, #:upper16:DaisyTransmit
  89 0072 FA79     		ldrb	r2, [r7, #7]
  90 0074 9A71     		strb	r2, [r3, #6]
  40:../DaisyChain.c **** 	DaisyTransmit[7]=(uint8_t)(data3>>8);
  91              		.loc 1 40 0
  92 0076 3B88     		ldrh	r3, [r7, #0]
  93 0078 4FEA1323 		lsr	r3, r3, #8
  94 007c 9BB2     		uxth	r3, r3
  95 007e DAB2     		uxtb	r2, r3
  96 0080 40F20003 		movw	r3, #:lower16:DaisyTransmit
  97 0084 C0F20003 		movt	r3, #:upper16:DaisyTransmit
  98 0088 DA71     		strb	r2, [r3, #7]
  41:../DaisyChain.c **** 	DaisyTransmit[8]=(uint8_t) data3;
  99              		.loc 1 41 0
 100 008a 3B88     		ldrh	r3, [r7, #0]	@ movhi
 101 008c DAB2     		uxtb	r2, r3
 102 008e 40F20003 		movw	r3, #:lower16:DaisyTransmit
 103 0092 C0F20003 		movt	r3, #:upper16:DaisyTransmit
 104 0096 1A72     		strb	r2, [r3, #8]
  42:../DaisyChain.c **** 
  43:../DaisyChain.c **** 	//Motor 4
  44:../DaisyChain.c **** 	DaisyTransmit[9]=command;
 105              		.loc 1 44 0
 106 0098 40F20003 		movw	r3, #:lower16:DaisyTransmit
 107 009c C0F20003 		movt	r3, #:upper16:DaisyTransmit
 108 00a0 FA79     		ldrb	r2, [r7, #7]
 109 00a2 5A72     		strb	r2, [r3, #9]
  45:../DaisyChain.c **** 	DaisyTransmit[10]=(uint8_t)(data4>>8);
 110              		.loc 1 45 0
 111 00a4 3B8A     		ldrh	r3, [r7, #16]
 112 00a6 4FEA1323 		lsr	r3, r3, #8
 113 00aa 9BB2     		uxth	r3, r3
 114 00ac DAB2     		uxtb	r2, r3
 115 00ae 40F20003 		movw	r3, #:lower16:DaisyTransmit
 116 00b2 C0F20003 		movt	r3, #:upper16:DaisyTransmit
 117 00b6 9A72     		strb	r2, [r3, #10]
  46:../DaisyChain.c **** 	DaisyTransmit[11]=(uint8_t) data4;
 118              		.loc 1 46 0
 119 00b8 3B8A     		ldrh	r3, [r7, #16]	@ movhi
 120 00ba DAB2     		uxtb	r2, r3
 121 00bc 40F20003 		movw	r3, #:lower16:DaisyTransmit
 122 00c0 C0F20003 		movt	r3, #:upper16:DaisyTransmit
 123 00c4 DA72     		strb	r2, [r3, #11]
  47:../DaisyChain.c **** 
  48:../DaisyChain.c **** 	DaisyTransmit[12]=DAISY_STOP_BYTE;
 124              		.loc 1 48 0
 125 00c6 40F20003 		movw	r3, #:lower16:DaisyTransmit
 126 00ca C0F20003 		movt	r3, #:upper16:DaisyTransmit
 127 00ce 4FF00402 		mov	r2, #4
 128 00d2 1A73     		strb	r2, [r3, #12]
  49:../DaisyChain.c **** 
  50:../DaisyChain.c **** 	UART001_WriteDataBytes(&UART001_Handle1, DaisyTransmit, DAISY_BUFFER_SIZE);
 129              		.loc 1 50 0
 130 00d4 40F20000 		movw	r0, #:lower16:UART001_Handle1
 131 00d8 C0F20000 		movt	r0, #:upper16:UART001_Handle1
 132 00dc 40F20001 		movw	r1, #:lower16:DaisyTransmit
 133 00e0 C0F20001 		movt	r1, #:upper16:DaisyTransmit
 134 00e4 4FF00D02 		mov	r2, #13
 135 00e8 FFF7FEFF 		bl	UART001_WriteDataBytes
  51:../DaisyChain.c **** }
 136              		.loc 1 51 0
 137 00ec 07F10807 		add	r7, r7, #8
 138 00f0 BD46     		mov	sp, r7
 139 00f2 80BD     		pop	{r7, pc}
 140              		.cfi_endproc
 141              	.LFE120:
 143              		.text
 144              	.Letext0:
 145              		.file 2 "c:\\dave-3.1.10\\arm-gcc\\bin\\../lib/gcc/arm-none-eabi/4.7.4/../../../../arm-none-eabi/i
 146              		.file 3 "C:\\DAVE-3.1.10\\eclipse\\/../CMSIS/Infineon/XMC4500_series/Include/XMC4500.h"
 147              		.file 4 "C:\\DAVE3_workspace\\ws3.1.10\\CORE_Larix_V1.0\\Dave\\Generated\\inc\\DAVESupport/../../i
 148              		.file 5 "C:\\DAVE3_workspace\\ws3.1.10\\CORE_Larix_V1.0\\Dave\\Generated\\inc\\DAVESupport/../../i
 149              		.file 6 "C:\\DAVE3_workspace\\ws3.1.10\\CORE_Larix_V1.0\\Dave\\Generated\\inc\\DAVESupport/../../i
 150              		.file 7 "C:\\DAVE3_workspace\\ws3.1.10\\CORE_Larix_V1.0\\Dave\\Generated\\inc\\DAVESupport/../../i
 151              		.file 8 "C:\\DAVE-3.1.10\\eclipse\\/../CMSIS/Include/core_cm4.h"
 152              		.file 9 "C:\\DAVE3_workspace\\ws3.1.10\\CORE_Larix_V1.0\\Dave\\Generated\\inc\\DAVESupport/../../i