   1              		.syntax unified
   2              		.cpu cortex-m4
   3              		.eabi_attribute 27, 3
   4              		.fpu fpv4-sp-d16
   5              		.eabi_attribute 20, 1
   6              		.eabi_attribute 21, 1
   7              		.eabi_attribute 23, 3
   8              		.eabi_attribute 24, 1
   9              		.eabi_attribute 25, 1
  10              		.eabi_attribute 26, 1
  11              		.eabi_attribute 30, 6
  12              		.eabi_attribute 34, 1
  13              		.eabi_attribute 18, 4
  14              		.thumb
  15              		.file	"I2C001.c"
  16              		.text
  17              	.Ltext0:
  18              		.cfi_sections	.debug_frame
  19              		.section	.text.I2C001_lInit,"ax",%progbits
  20              		.align	2
  21              		.global	I2C001_lInit
  22              		.thumb
  23              		.thumb_func
  25              	I2C001_lInit:
  26              	.LFB120:
  27              		.file 1 "../Dave/Generated/src/I2C001/I2C001.c"
   1:../Dave/Generated/src/I2C001/I2C001.c **** /*******************************************************************************
   2:../Dave/Generated/src/I2C001/I2C001.c **** **  DAVE App Name : I2C001       App Version: 1.0.28               
   3:../Dave/Generated/src/I2C001/I2C001.c **** **  This file is generated by DAVE, User modification to this file will be    **
   4:../Dave/Generated/src/I2C001/I2C001.c **** **  overwritten at the next code generation.                                  **
   5:../Dave/Generated/src/I2C001/I2C001.c **** *******************************************************************************/
   6:../Dave/Generated/src/I2C001/I2C001.c **** 
   7:../Dave/Generated/src/I2C001/I2C001.c **** 
   8:../Dave/Generated/src/I2C001/I2C001.c **** /*CODE_BLOCK_BEGIN[I2C001.c]*/
   9:../Dave/Generated/src/I2C001/I2C001.c **** /******************************************************************************
  10:../Dave/Generated/src/I2C001/I2C001.c ****  Copyright (c) 2014, Infineon Technologies AG                                **
  11:../Dave/Generated/src/I2C001/I2C001.c ****  All rights reserved.                                                        **
  12:../Dave/Generated/src/I2C001/I2C001.c ****                                                                              **
  13:../Dave/Generated/src/I2C001/I2C001.c ****  Redistribution and use in source and binary forms, with or without          **
  14:../Dave/Generated/src/I2C001/I2C001.c ****  modification,are permitted provided that the following conditions are met:  **
  15:../Dave/Generated/src/I2C001/I2C001.c ****                                                                              **
  16:../Dave/Generated/src/I2C001/I2C001.c ****  *Redistributions of source code must retain the above copyright notice,     **
  17:../Dave/Generated/src/I2C001/I2C001.c ****  this list of conditions and the following disclaimer.                       **
  18:../Dave/Generated/src/I2C001/I2C001.c ****  *Redistributions in binary form must reproduce the above copyright notice,  **
  19:../Dave/Generated/src/I2C001/I2C001.c ****  this list of conditions and the following disclaimer in the documentation   **
  20:../Dave/Generated/src/I2C001/I2C001.c ****  and/or other materials provided with the distribution.                      **
  21:../Dave/Generated/src/I2C001/I2C001.c ****  *Neither the name of the copyright holders nor the names of its contributors**
  22:../Dave/Generated/src/I2C001/I2C001.c ****  may be used to endorse or promote products derived from this software       **
  23:../Dave/Generated/src/I2C001/I2C001.c ****  without specific prior written permission.                                  **
  24:../Dave/Generated/src/I2C001/I2C001.c ****                                                                              **
  25:../Dave/Generated/src/I2C001/I2C001.c ****  THIS SOFTWARE IS PROVIDED BY THE COPYRIGHT HOLDERS AND CONTRIBUTORS "AS IS" **
  26:../Dave/Generated/src/I2C001/I2C001.c ****  AND ANY EXPRESS OR IMPLIED WARRANTIES, INCLUDING, BUT NOT LIMITED TO, THE   **
  27:../Dave/Generated/src/I2C001/I2C001.c ****  IMPLIED WARRANTIES OF MERCHANTABILITY AND FITNESS FOR A PARTICULAR PURPOSE  **
  28:../Dave/Generated/src/I2C001/I2C001.c ****  ARE  DISCLAIMED. IN NO EVENT SHALL THE COPYRIGHT HOLDER OR CONTRIBUTORS BE  **
  29:../Dave/Generated/src/I2C001/I2C001.c ****  LIABLE  FOR ANY DIRECT, INDIRECT, INCIDENTAL, SPECIAL, EXEMPLARY, OR        **
  30:../Dave/Generated/src/I2C001/I2C001.c ****  CONSEQUENTIAL DAMAGES (INCLUDING, BUT NOT LIMITED TO, PROCUREMENT OF        **
  31:../Dave/Generated/src/I2C001/I2C001.c ****  SUBSTITUTE GOODS OR  SERVICES; LOSS OF USE, DATA, OR PROFITS; OR BUSINESS   **
  32:../Dave/Generated/src/I2C001/I2C001.c ****  INTERRUPTION) HOWEVER CAUSED AND ON ANY THEORY OF LIABILITY, WHETHER IN     **
  33:../Dave/Generated/src/I2C001/I2C001.c ****  CONTRACT, STRICT LIABILITY,OR TORT (INCLUDING NEGLIGENCE OR OTHERWISE)      **
  34:../Dave/Generated/src/I2C001/I2C001.c ****  ARISING IN ANY WAY OUT OF THE USE OF THIS SOFTWARE, EVEN IF ADVISED OF THE  **
  35:../Dave/Generated/src/I2C001/I2C001.c ****  POSSIBILITY OF SUCH DAMAGE.                                                 **
  36:../Dave/Generated/src/I2C001/I2C001.c ****                                                                              **
  37:../Dave/Generated/src/I2C001/I2C001.c ****  To improve the quality of the software, users are encouraged to share       **
  38:../Dave/Generated/src/I2C001/I2C001.c ****  modifications, enhancements or bug fixes with Infineon Technologies AG      **
  39:../Dave/Generated/src/I2C001/I2C001.c ****  dave@infineon.com).                                                         **
  40:../Dave/Generated/src/I2C001/I2C001.c ****                                                                              **
  41:../Dave/Generated/src/I2C001/I2C001.c **** *******************************************************************************
  42:../Dave/Generated/src/I2C001/I2C001.c **** **                                                                           **
  43:../Dave/Generated/src/I2C001/I2C001.c **** **                                                                           **
  44:../Dave/Generated/src/I2C001/I2C001.c **** ** PLATFORM : Infineon XMC4000/XMC1000 Series                                **
  45:../Dave/Generated/src/I2C001/I2C001.c **** **                                                                           **
  46:../Dave/Generated/src/I2C001/I2C001.c **** ** COMPILER : Compiler Independent                                           **
  47:../Dave/Generated/src/I2C001/I2C001.c **** **                                                                           **
  48:../Dave/Generated/src/I2C001/I2C001.c **** ** AUTHOR   : App Developer                                                  **
  49:../Dave/Generated/src/I2C001/I2C001.c **** **                                                                           **
  50:../Dave/Generated/src/I2C001/I2C001.c **** ** MAY BE CHANGED BY USER [yes/no]: Yes                                      **
  51:../Dave/Generated/src/I2C001/I2C001.c **** **                                                                           **
  52:../Dave/Generated/src/I2C001/I2C001.c **** ** MODIFICATION DATE : Feb 07, 2014                                         **
  53:../Dave/Generated/src/I2C001/I2C001.c **** **                                                                           **
  54:../Dave/Generated/src/I2C001/I2C001.c **** ******************************************************************************/
  55:../Dave/Generated/src/I2C001/I2C001.c **** /******************************************************************************
  56:../Dave/Generated/src/I2C001/I2C001.c **** **                      Author(s) Identity                                   **
  57:../Dave/Generated/src/I2C001/I2C001.c **** *******************************************************************************
  58:../Dave/Generated/src/I2C001/I2C001.c **** **                                                                           **
  59:../Dave/Generated/src/I2C001/I2C001.c **** ** Initials     Name                                                         **
  60:../Dave/Generated/src/I2C001/I2C001.c **** ** --------------------------------------------------------------------------**
  61:../Dave/Generated/src/I2C001/I2C001.c **** ** RP         App Developer                                                  **
  62:../Dave/Generated/src/I2C001/I2C001.c **** ******************************************************************************/     
  63:../Dave/Generated/src/I2C001/I2C001.c **** /**
  64:../Dave/Generated/src/I2C001/I2C001.c ****  * @file I2C001.c
  65:../Dave/Generated/src/I2C001/I2C001.c ****  *
  66:../Dave/Generated/src/I2C001/I2C001.c ****  * @App Version I2C001 <1.0.28>
  67:../Dave/Generated/src/I2C001/I2C001.c ****  *
  68:../Dave/Generated/src/I2C001/I2C001.c ****  * @brief  USIC_I2C_I2C001 App provides non reentrant APIs for higher level  
  69:../Dave/Generated/src/I2C001/I2C001.c ****  *          Apps which can be used in a Non -RTOS environment. 
  70:../Dave/Generated/src/I2C001/I2C001.c ****  *           Limitations of USIC_I2C_I2C001 App
  71:../Dave/Generated/src/I2C001/I2C001.c ****  *           a) Read/Write functions are non reentrant.
  72:../Dave/Generated/src/I2C001/I2C001.c ****  *           b) No support for DMA mode
  73:../Dave/Generated/src/I2C001/I2C001.c ****  */
  74:../Dave/Generated/src/I2C001/I2C001.c **** /*
  75:../Dave/Generated/src/I2C001/I2C001.c ****  * Revision History
  76:../Dave/Generated/src/I2C001/I2C001.c ****  * 15 Mar 2013 v1.0.22  Changes from 1.0.12 are
  77:../Dave/Generated/src/I2C001/I2C001.c ****  *                       1. Modified as per coding guidelines and MISRA checks.
  78:../Dave/Generated/src/I2C001/I2C001.c ****  *                       2. Modified the macros FUNCTION_ENTRY, FUNCTION_EXIT
  79:../Dave/Generated/src/I2C001/I2C001.c ****  *                       and ERROR.
  80:../Dave/Generated/src/I2C001/I2C001.c ****  *                       3. The hard coded values are replaced with macros in
  81:../Dave/Generated/src/I2C001/I2C001.c ****  *                       I2C001_lConfigureBitRate() function.
  82:../Dave/Generated/src/I2C001/I2C001.c ****  *                       4. The PCTQ value updation in BRG register is removed
  83:../Dave/Generated/src/I2C001/I2C001.c ****  *                       as the value is taken as zero.
  84:../Dave/Generated/src/I2C001/I2C001.c ****  *                       5. The input parameter of I2C001_WriteData() function
  85:../Dave/Generated/src/I2C001/I2C001.c ****  *                       is modified to I2C001_Type from I2C001_DataType.
  86:../Dave/Generated/src/I2C001/I2C001.c ****  *                       6. The input parameters are modified to I2CHandle from
  87:../Dave/Generated/src/I2C001/I2C001.c ****  *                       Handle in all function comments.
  88:../Dave/Generated/src/I2C001/I2C001.c ****  *                       7. Updated for Code optimisation.
  89:../Dave/Generated/src/I2C001/I2C001.c ****  *                       8. Modified for the IO PDRx updation in I2C001_Init()
  90:../Dave/Generated/src/I2C001/I2C001.c ****  *                       function for SDA pin selection as per UTP
  91:../Dave/Generated/src/I2C001/I2C001.c ****  *                       MCSW300000609.
  92:../Dave/Generated/src/I2C001/I2C001.c ****  *                       9. Updated for baud calculation in I2C001_lInit
  93:../Dave/Generated/src/I2C001/I2C001.c ****  *                       function.
  94:../Dave/Generated/src/I2C001/I2C001.c ****  *                       10. Modified for the I2C001_Init() function for
  95:../Dave/Generated/src/I2C001/I2C001.c ****  *                       disabling the clock gate signal for XMC1000 devices.
  96:../Dave/Generated/src/I2C001/I2C001.c ****  *                       11. Updated for the I2C001_Init() API for invoking
  97:../Dave/Generated/src/I2C001/I2C001.c ****  *                       I2C001_lInit() function for USIC0.
  98:../Dave/Generated/src/I2C001/I2C001.c ****  *                       12. Corrected for spelling in revision history.
  99:../Dave/Generated/src/I2C001/I2C001.c ****  * 05 Jun 2013 v1.0.24   1. UTP MCSW300000612 (I2C001 wrong FIFO handling in 
 100:../Dave/Generated/src/I2C001/I2C001.c ****  *                       I2C001_WriteData function) Fix - Removed TDV bit 
 101:../Dave/Generated/src/I2C001/I2C001.c ****  *                       polling from "I2C001_WriteData()" API.
 102:../Dave/Generated/src/I2C001/I2C001.c ****  *                       2. Removed TBIF bit configuration from "I2C001_lInit()" 
 103:../Dave/Generated/src/I2C001/I2C001.c ****  *                       as polling is not used in the I2C001 App. 
 104:../Dave/Generated/src/I2C001/I2C001.c ****  *                       3. Corrected SCTR.TRM configuration (changed from 01b 
 105:../Dave/Generated/src/I2C001/I2C001.c ****  *                       to 11b) in "I2C001_lInit()".
 106:../Dave/Generated/src/I2C001/I2C001.c ****  *                       4. The input parameter of I2C001_WriteData() function
 107:../Dave/Generated/src/I2C001/I2C001.c ****  *                       is modified to I2C001_DataType from I2C001_Type to 
 108:../Dave/Generated/src/I2C001/I2C001.c ****  *                       maintain backward compatibility. 
 109:../Dave/Generated/src/I2C001/I2C001.c ****  * 26 Sep 2013 v1.0.26   1. In I2C001_Init(), SCL & SDA pin configuration 
 110:../Dave/Generated/src/I2C001/I2C001.c ****  *                       modified from "Open-drain" to "Open-drain with 
 111:../Dave/Generated/src/I2C001/I2C001.c ****  *                       General-purpose output" to avoid unintended spikes. 
 112:../Dave/Generated/src/I2C001/I2C001.c ****  * 07 Feb 2014 v1.0.28   1. Removed DBG002_FUNCTION_ENTRY & 
 113:../Dave/Generated/src/I2C001/I2C001.c ****  *                       DBG002_FUNCTION_EXIT calling from APIs as using these
 114:../Dave/Generated/src/I2C001/I2C001.c ****  *                       macros is highly discouraged.                                             
 115:../Dave/Generated/src/I2C001/I2C001.c ****  */
 116:../Dave/Generated/src/I2C001/I2C001.c **** /******************************************************************************
 117:../Dave/Generated/src/I2C001/I2C001.c ****  ** INCLUDE FILES                                                            **
 118:../Dave/Generated/src/I2C001/I2C001.c ****  *****************************************************************************/
 119:../Dave/Generated/src/I2C001/I2C001.c **** #include <DAVE3.h>                
 120:../Dave/Generated/src/I2C001/I2C001.c **** 
 121:../Dave/Generated/src/I2C001/I2C001.c **** /******************************************************************************
 122:../Dave/Generated/src/I2C001/I2C001.c **** **                      Private Macro Definitions                            **
 123:../Dave/Generated/src/I2C001/I2C001.c **** ******************************************************************************/
 124:../Dave/Generated/src/I2C001/I2C001.c ****   /* System Core clock frequency in MHz */
 125:../Dave/Generated/src/I2C001/I2C001.c **** #define USIC_CLOCK                     120.0F 
 126:../Dave/Generated/src/I2C001/I2C001.c **** 
 127:../Dave/Generated/src/I2C001/I2C001.c **** /* I2C001 Bit rate*/
 128:../Dave/Generated/src/I2C001/I2C001.c **** #define I2C001_BITRATE                 100U
 129:../Dave/Generated/src/I2C001/I2C001.c **** 
 130:../Dave/Generated/src/I2C001/I2C001.c **** /* Frame Length :  64 Bits */
 131:../Dave/Generated/src/I2C001/I2C001.c **** #define I2C001_SCTR_FLE                (0x3FU)
 132:../Dave/Generated/src/I2C001/I2C001.c **** /* Word Length :  8 Bits */
 133:../Dave/Generated/src/I2C001/I2C001.c **** #define I2C001_SCTR_WLE                (0x07U)
 134:../Dave/Generated/src/I2C001/I2C001.c **** /* Direction set, msb transmitted or received first */
 135:../Dave/Generated/src/I2C001/I2C001.c **** #define I2C001_SCTR_SDIR               (0x01U)
 136:../Dave/Generated/src/I2C001/I2C001.c **** /* Enable I2C mode */
 137:../Dave/Generated/src/I2C001/I2C001.c **** #define I2C_ENABLE                     (0x4U)
 138:../Dave/Generated/src/I2C001/I2C001.c **** 
 139:../Dave/Generated/src/I2C001/I2C001.c **** #define I2C001_MAX_VALUE               1023.0F
 140:../Dave/Generated/src/I2C001/I2C001.c **** 
 141:../Dave/Generated/src/I2C001/I2C001.c **** #define I2C001_MAX_STEPVALUE           1024.0F
 142:../Dave/Generated/src/I2C001/I2C001.c **** 
 143:../Dave/Generated/src/I2C001/I2C001.c **** /* Intermediate step value to calculate Pdiv */
 144:../Dave/Generated/src/I2C001/I2C001.c **** #define I2C001_IM_STEPVALUE            500.0F 
 145:../Dave/Generated/src/I2C001/I2C001.c **** 
 146:../Dave/Generated/src/I2C001/I2C001.c **** /* 10 timequanta DCTQ value */
 147:../Dave/Generated/src/I2C001/I2C001.c **** #define I2C_DCTQ1_VALUE                (0x09UL)
 148:../Dave/Generated/src/I2C001/I2C001.c **** 
 149:../Dave/Generated/src/I2C001/I2C001.c **** /* 25 timequanta DCTQ value */
 150:../Dave/Generated/src/I2C001/I2C001.c **** #define I2C_DCTQ2_VALUE                (0x18UL)
 151:../Dave/Generated/src/I2C001/I2C001.c **** 
 152:../Dave/Generated/src/I2C001/I2C001.c **** /******************************************************************************
 153:../Dave/Generated/src/I2C001/I2C001.c **** **                      Private Type Definitions                             **
 154:../Dave/Generated/src/I2C001/I2C001.c **** ******************************************************************************/
 155:../Dave/Generated/src/I2C001/I2C001.c **** 
 156:../Dave/Generated/src/I2C001/I2C001.c **** 
 157:../Dave/Generated/src/I2C001/I2C001.c **** /******************************************************************************
 158:../Dave/Generated/src/I2C001/I2C001.c **** **                 Private Function Declarations:
 159:../Dave/Generated/src/I2C001/I2C001.c **** ******************************************************************************/
 160:../Dave/Generated/src/I2C001/I2C001.c **** 
 161:../Dave/Generated/src/I2C001/I2C001.c **** void I2C001_lInit (const I2C001Handle_type* I2CHandle);
 162:../Dave/Generated/src/I2C001/I2C001.c **** /* Give optimized PDIV and STEP value for the given bit rate */ 
 163:../Dave/Generated/src/I2C001/I2C001.c **** void I2C001_lConfigureBitRate\
 164:../Dave/Generated/src/I2C001/I2C001.c ****                    (uint32_t BitRate,uint32_t* PDivValue,uint32_t* StepValue);
 165:../Dave/Generated/src/I2C001/I2C001.c **** /******************************************************************************
 166:../Dave/Generated/src/I2C001/I2C001.c **** **                      Global Constant Definitions                          **
 167:../Dave/Generated/src/I2C001/I2C001.c **** ******************************************************************************/
 168:../Dave/Generated/src/I2C001/I2C001.c **** 
 169:../Dave/Generated/src/I2C001/I2C001.c **** /******************************************************************************
 170:../Dave/Generated/src/I2C001/I2C001.c **** **                      Global Variable Definitions                          **
 171:../Dave/Generated/src/I2C001/I2C001.c **** ******************************************************************************/
 172:../Dave/Generated/src/I2C001/I2C001.c **** 
 173:../Dave/Generated/src/I2C001/I2C001.c **** /******************************************************************************
 174:../Dave/Generated/src/I2C001/I2C001.c **** **                      Private Constant Definitions                         **
 175:../Dave/Generated/src/I2C001/I2C001.c **** ******************************************************************************/
 176:../Dave/Generated/src/I2C001/I2C001.c **** 
 177:../Dave/Generated/src/I2C001/I2C001.c **** /******************************************************************************
 178:../Dave/Generated/src/I2C001/I2C001.c **** **                 Function like macro definitions                           **
 179:../Dave/Generated/src/I2C001/I2C001.c **** ******************************************************************************/
 180:../Dave/Generated/src/I2C001/I2C001.c **** /******************************************************************************
 181:../Dave/Generated/src/I2C001/I2C001.c **** **                      Private Function Definitions                         **
 182:../Dave/Generated/src/I2C001/I2C001.c **** ******************************************************************************/
 183:../Dave/Generated/src/I2C001/I2C001.c **** 
 184:../Dave/Generated/src/I2C001/I2C001.c **** /******************************************************************************
 185:../Dave/Generated/src/I2C001/I2C001.c **** **                      Public Function Definitions                          **
 186:../Dave/Generated/src/I2C001/I2C001.c **** ******************************************************************************/
 187:../Dave/Generated/src/I2C001/I2C001.c ****  /* Initializes the App based on User provide configuration. */
 188:../Dave/Generated/src/I2C001/I2C001.c ****  void I2C001_lInit (const I2C001Handle_type* I2CHandle)
 189:../Dave/Generated/src/I2C001/I2C001.c **** { 
  28              		.loc 1 189 0
  29              		.cfi_startproc
  30              		@ args = 0, pretend = 0, frame = 24
  31              		@ frame_needed = 1, uses_anonymous_args = 0
  32 0000 80B5     		push	{r7, lr}
  33              	.LCFI0:
  34              		.cfi_def_cfa_offset 8
  35              		.cfi_offset 7, -8
  36              		.cfi_offset 14, -4
  37 0002 86B0     		sub	sp, sp, #24
  38              	.LCFI1:
  39              		.cfi_def_cfa_offset 32
  40 0004 00AF     		add	r7, sp, #0
  41              	.LCFI2:
  42              		.cfi_def_cfa_register 7
  43 0006 7860     		str	r0, [r7, #4]
 190:../Dave/Generated/src/I2C001/I2C001.c ****    uint32_t Brg_PDivValue = 0x00U;
  44              		.loc 1 190 0
  45 0008 4FF00003 		mov	r3, #0
  46 000c 3B61     		str	r3, [r7, #16]
 191:../Dave/Generated/src/I2C001/I2C001.c ****    uint32_t Fdr_StepValue = 0x00U;  
  47              		.loc 1 191 0
  48 000e 4FF00003 		mov	r3, #0
  49 0012 FB60     		str	r3, [r7, #12]
 192:../Dave/Generated/src/I2C001/I2C001.c ****    USIC_CH_TypeDef* I2CRegs = I2CHandle->I2CRegs;
  50              		.loc 1 192 0
  51 0014 7B68     		ldr	r3, [r7, #4]
  52 0016 5B68     		ldr	r3, [r3, #4]
  53 0018 7B61     		str	r3, [r7, #20]
 193:../Dave/Generated/src/I2C001/I2C001.c **** 
 194:../Dave/Generated/src/I2C001/I2C001.c ****    /* <<<DD_I2C001_API_1>>>*/
 195:../Dave/Generated/src/I2C001/I2C001.c **** 
 196:../Dave/Generated/src/I2C001/I2C001.c ****    /** I2C initialization  */
 197:../Dave/Generated/src/I2C001/I2C001.c ****    /* Disable I2C mode before configuring all USIC registers to avoid unintended edges */ 
 198:../Dave/Generated/src/I2C001/I2C001.c ****    I2CRegs->CCR &= ~( ((uint32_t)(I2C_ENABLE  & USIC_CH_CCR_MODE_Msk)));
  54              		.loc 1 198 0
  55 001a 7B69     		ldr	r3, [r7, #20]
  56 001c 1B6C     		ldr	r3, [r3, #64]
  57 001e 23F00402 		bic	r2, r3, #4
  58 0022 7B69     		ldr	r3, [r7, #20]
  59 0024 1A64     		str	r2, [r3, #64]
 199:../Dave/Generated/src/I2C001/I2C001.c **** 
 200:../Dave/Generated/src/I2C001/I2C001.c ****    /* Enable the USIC Channel */
 201:../Dave/Generated/src/I2C001/I2C001.c ****    I2CRegs->KSCFG |= (((uint32_t) 0x01 & USIC_CH_KSCFG_MODEN_Msk)) | \
  60              		.loc 1 201 0
  61 0026 7B69     		ldr	r3, [r7, #20]
  62 0028 DB68     		ldr	r3, [r3, #12]
  63 002a 43F00302 		orr	r2, r3, #3
  64 002e 7B69     		ldr	r3, [r7, #20]
  65 0030 DA60     		str	r2, [r3, #12]
 202:../Dave/Generated/src/I2C001/I2C001.c ****     (((uint32_t)0x01 << USIC_CH_KSCFG_BPMODEN_Pos));
 203:../Dave/Generated/src/I2C001/I2C001.c ****     
 204:../Dave/Generated/src/I2C001/I2C001.c ****    /* Get the optimum PDIV and STEP value for the given bitrate */
 205:../Dave/Generated/src/I2C001/I2C001.c ****    I2C001_lConfigureBitRate(I2CHandle->BitRate,&Brg_PDivValue,&Fdr_StepValue);
  66              		.loc 1 205 0
  67 0032 7B68     		ldr	r3, [r7, #4]
  68 0034 9968     		ldr	r1, [r3, #8]
  69 0036 07F11002 		add	r2, r7, #16
  70 003a 07F10C03 		add	r3, r7, #12
  71 003e 0846     		mov	r0, r1
  72 0040 1146     		mov	r1, r2
  73 0042 1A46     		mov	r2, r3
  74 0044 FFF7FEFF 		bl	I2C001_lConfigureBitRate
 206:../Dave/Generated/src/I2C001/I2C001.c ****    /* Configuration of USIC Channel Fractional Divider */
 207:../Dave/Generated/src/I2C001/I2C001.c **** 
 208:../Dave/Generated/src/I2C001/I2C001.c ****    /* Fractional divider mode selected */
 209:../Dave/Generated/src/I2C001/I2C001.c ****    I2CRegs->FDR |= \
  75              		.loc 1 209 0
  76 0048 7B69     		ldr	r3, [r7, #20]
  77 004a 1A69     		ldr	r2, [r3, #16]
 210:../Dave/Generated/src/I2C001/I2C001.c ****            ((((uint32_t)USIC_FRACTIONAL_DIV_SEL << USIC_CH_FDR_DM_Pos) & \
 211:../Dave/Generated/src/I2C001/I2C001.c ****              USIC_CH_FDR_DM_Msk) | \
 212:../Dave/Generated/src/I2C001/I2C001.c ****             (((uint32_t)Fdr_StepValue << USIC_CH_FDR_STEP_Pos) & \
  78              		.loc 1 212 0
  79 004c FB68     		ldr	r3, [r7, #12]
  80 004e 4FEA8353 		lsl	r3, r3, #22
  81 0052 4FEA9353 		lsr	r3, r3, #22
 209:../Dave/Generated/src/I2C001/I2C001.c ****    I2CRegs->FDR |= \
  82              		.loc 1 209 0
  83 0056 1343     		orrs	r3, r3, r2
  84 0058 43F40042 		orr	r2, r3, #32768
  85 005c 7B69     		ldr	r3, [r7, #20]
  86 005e 1A61     		str	r2, [r3, #16]
 213:../Dave/Generated/src/I2C001/I2C001.c ****             USIC_CH_FDR_STEP_Msk));
 214:../Dave/Generated/src/I2C001/I2C001.c ****    
 215:../Dave/Generated/src/I2C001/I2C001.c ****            
 216:../Dave/Generated/src/I2C001/I2C001.c ****    if(I2CHandle->BitRate <= I2C001_BITRATE)
  87              		.loc 1 216 0
  88 0060 7B68     		ldr	r3, [r7, #4]
  89 0062 9B68     		ldr	r3, [r3, #8]
  90 0064 642B     		cmp	r3, #100
  91 0066 0FD8     		bhi	.L2
 217:../Dave/Generated/src/I2C001/I2C001.c ****    {  
 218:../Dave/Generated/src/I2C001/I2C001.c ****      /* The PreDivider for CTQ, PCTQ = 0  */
 219:../Dave/Generated/src/I2C001/I2C001.c ****      /* The Denominator for CTQ, DCTQ = 9 */
 220:../Dave/Generated/src/I2C001/I2C001.c ****      I2CRegs->BRG |= ((I2C_DCTQ1_VALUE <<  USIC_CH_BRG_DCTQ_Pos) | \
  92              		.loc 1 220 0
  93 0068 7B69     		ldr	r3, [r7, #20]
  94 006a 5A69     		ldr	r2, [r3, #20]
 221:../Dave/Generated/src/I2C001/I2C001.c ****                       (((uint32_t)Brg_PDivValue << USIC_CH_BRG_PDIV_Pos) & \
  95              		.loc 1 221 0
  96 006c 3B69     		ldr	r3, [r7, #16]
  97 006e 4FEA0341 		lsl	r1, r3, #16
  98 0072 4FF00003 		mov	r3, #0
  99 0076 C0F2FF33 		movt	r3, 1023
 100 007a 0B40     		ands	r3, r3, r1
 220:../Dave/Generated/src/I2C001/I2C001.c ****      I2CRegs->BRG |= ((I2C_DCTQ1_VALUE <<  USIC_CH_BRG_DCTQ_Pos) | \
 101              		.loc 1 220 0
 102 007c 1343     		orrs	r3, r3, r2
 103 007e 43F41052 		orr	r2, r3, #9216
 104 0082 7B69     		ldr	r3, [r7, #20]
 105 0084 5A61     		str	r2, [r3, #20]
 106 0086 0EE0     		b	.L3
 107              	.L2:
 222:../Dave/Generated/src/I2C001/I2C001.c ****                         USIC_CH_BRG_PDIV_Msk)); 
 223:../Dave/Generated/src/I2C001/I2C001.c ****    }
 224:../Dave/Generated/src/I2C001/I2C001.c ****    else
 225:../Dave/Generated/src/I2C001/I2C001.c ****    {
 226:../Dave/Generated/src/I2C001/I2C001.c ****      /* The PreDivider for CTQ, PCTQ = 0  */
 227:../Dave/Generated/src/I2C001/I2C001.c ****      /* The Denominator for CTQ, DCTQ = 24 */
 228:../Dave/Generated/src/I2C001/I2C001.c ****      I2CRegs->BRG |= ((I2C_DCTQ2_VALUE << USIC_CH_BRG_DCTQ_Pos) | \
 108              		.loc 1 228 0
 109 0088 7B69     		ldr	r3, [r7, #20]
 110 008a 5A69     		ldr	r2, [r3, #20]
 229:../Dave/Generated/src/I2C001/I2C001.c ****                       (((uint32_t)Brg_PDivValue << USIC_CH_BRG_PDIV_Pos) & \
 111              		.loc 1 229 0
 112 008c 3B69     		ldr	r3, [r7, #16]
 113 008e 4FEA0341 		lsl	r1, r3, #16
 114 0092 4FF00003 		mov	r3, #0
 115 0096 C0F2FF33 		movt	r3, 1023
 116 009a 0B40     		ands	r3, r3, r1
 228:../Dave/Generated/src/I2C001/I2C001.c ****      I2CRegs->BRG |= ((I2C_DCTQ2_VALUE << USIC_CH_BRG_DCTQ_Pos) | \
 117              		.loc 1 228 0
 118 009c 1343     		orrs	r3, r3, r2
 119 009e 43F4C042 		orr	r2, r3, #24576
 120 00a2 7B69     		ldr	r3, [r7, #20]
 121 00a4 5A61     		str	r2, [r3, #20]
 122              	.L3:
 230:../Dave/Generated/src/I2C001/I2C001.c ****                         USIC_CH_BRG_PDIV_Msk));
 231:../Dave/Generated/src/I2C001/I2C001.c ****    }
 232:../Dave/Generated/src/I2C001/I2C001.c **** 
 233:../Dave/Generated/src/I2C001/I2C001.c ****    
 234:../Dave/Generated/src/I2C001/I2C001.c ****    /* Configuration of USIC Shift Control */
 235:../Dave/Generated/src/I2C001/I2C001.c ****    
 236:../Dave/Generated/src/I2C001/I2C001.c ****    /* Transmit/Receive MSB first is selected  */
 237:../Dave/Generated/src/I2C001/I2C001.c ****    /* Transmission Mode (TRM) = 3  */
 238:../Dave/Generated/src/I2C001/I2C001.c ****    /* Passive Data Level (PDL) = 1 */
 239:../Dave/Generated/src/I2C001/I2C001.c ****    /* Frame Length (FLE) = 63 (3F) */
 240:../Dave/Generated/src/I2C001/I2C001.c ****    /* Word Length (WLE) = 7  */
 241:../Dave/Generated/src/I2C001/I2C001.c **** 
 242:../Dave/Generated/src/I2C001/I2C001.c ****    I2CRegs->SCTR |=  \
 123              		.loc 1 242 0
 124 00a6 7B69     		ldr	r3, [r7, #20]
 125 00a8 5A6B     		ldr	r2, [r3, #52]
 126 00aa 40F20333 		movw	r3, #771
 127 00ae C0F23F73 		movt	r3, 1855
 128 00b2 1343     		orrs	r3, r3, r2
 129 00b4 7A69     		ldr	r2, [r7, #20]
 130 00b6 5363     		str	r3, [r2, #52]
 243:../Dave/Generated/src/I2C001/I2C001.c ****                ((((uint32_t)I2C001_SCTR_SDIR << USIC_CH_SCTR_SDIR_Pos)&  \
 244:../Dave/Generated/src/I2C001/I2C001.c ****                   USIC_CH_SCTR_SDIR_Msk) | \
 245:../Dave/Generated/src/I2C001/I2C001.c ****                 ((uint32_t)(0x01) << USIC_CH_SCTR_PDL_Pos ) | \
 246:../Dave/Generated/src/I2C001/I2C001.c ****                 ((uint32_t)(0x03) <<  USIC_CH_SCTR_TRM_Pos) |
 247:../Dave/Generated/src/I2C001/I2C001.c ****                 (((uint32_t)I2C001_SCTR_FLE  << USIC_CH_SCTR_FLE_Pos) & \
 248:../Dave/Generated/src/I2C001/I2C001.c ****                   USIC_CH_SCTR_FLE_Msk ) | \
 249:../Dave/Generated/src/I2C001/I2C001.c ****                 (((uint32_t)I2C001_SCTR_WLE << USIC_CH_SCTR_WLE_Pos) & \
 250:../Dave/Generated/src/I2C001/I2C001.c ****                   USIC_CH_SCTR_WLE_Msk));
 251:../Dave/Generated/src/I2C001/I2C001.c **** 
 252:../Dave/Generated/src/I2C001/I2C001.c ****        
 253:../Dave/Generated/src/I2C001/I2C001.c ****    /* Configuration of USIC Transmit Control/Status Register */ 
 254:../Dave/Generated/src/I2C001/I2C001.c ****    /* TBUF Data Enable (TDEN) = 1 */
 255:../Dave/Generated/src/I2C001/I2C001.c ****    /* TBUF Data Single Shot Mode (TDSSM) = 1 */     
 256:../Dave/Generated/src/I2C001/I2C001.c ****    I2CRegs->TCSR |= ((((uint32_t)0x01 << USIC_CH_TCSR_TDEN_Pos) & \
 131              		.loc 1 256 0
 132 00b8 7B69     		ldr	r3, [r7, #20]
 133 00ba 9B6B     		ldr	r3, [r3, #56]
 134 00bc 43F4A062 		orr	r2, r3, #1280
 135 00c0 7B69     		ldr	r3, [r7, #20]
 136 00c2 9A63     		str	r2, [r3, #56]
 257:../Dave/Generated/src/I2C001/I2C001.c ****      USIC_CH_TCSR_TDEN_Msk) | \
 258:../Dave/Generated/src/I2C001/I2C001.c ****      (((uint32_t)0x01 << USIC_CH_TCSR_TDSSM_Pos) & USIC_CH_TCSR_TDSSM_Msk));
 259:../Dave/Generated/src/I2C001/I2C001.c **** 
 260:../Dave/Generated/src/I2C001/I2C001.c ****    /* Configuration of Protocol Control Register */ 
 261:../Dave/Generated/src/I2C001/I2C001.c ****    /* Symbol timing = 10 time quanta */
 262:../Dave/Generated/src/I2C001/I2C001.c ****    /* The start condition interrupt is enabled */
 263:../Dave/Generated/src/I2C001/I2C001.c ****    /* The repeated start condition interrupt is enabled */
 264:../Dave/Generated/src/I2C001/I2C001.c ****    /* The stop condition interrupt is enabled */
 265:../Dave/Generated/src/I2C001/I2C001.c ****    /* Non-Acknowledge interrupt enabled */
 266:../Dave/Generated/src/I2C001/I2C001.c ****    /* Arbitration Lost interrupt enabled */
 267:../Dave/Generated/src/I2C001/I2C001.c ****    /* Slave read request interrupt enabled */
 268:../Dave/Generated/src/I2C001/I2C001.c ****    /* Error interrupt enabled */
 269:../Dave/Generated/src/I2C001/I2C001.c ****    /* Configuration of Protocol Control Register */ 
 270:../Dave/Generated/src/I2C001/I2C001.c ****    if(I2CHandle->BitRate <= I2C001_BITRATE)
 137              		.loc 1 270 0
 138 00c4 7B68     		ldr	r3, [r7, #4]
 139 00c6 9B68     		ldr	r3, [r3, #8]
 140 00c8 642B     		cmp	r3, #100
 141 00ca 04D8     		bhi	.L4
 271:../Dave/Generated/src/I2C001/I2C001.c ****    {
 272:../Dave/Generated/src/I2C001/I2C001.c **** 	   /* Symbol timing = 10 time quanta */
 273:../Dave/Generated/src/I2C001/I2C001.c **** 	   I2CRegs->PCR_IICMode |= (((((uint32_t)0x0U << \
 142              		.loc 1 273 0
 143 00cc 7B69     		ldr	r3, [r7, #20]
 144 00ce DA6B     		ldr	r2, [r3, #60]
 145 00d0 7B69     		ldr	r3, [r7, #20]
 146 00d2 DA63     		str	r2, [r3, #60]
 147 00d4 05E0     		b	.L5
 148              	.L4:
 274:../Dave/Generated/src/I2C001/I2C001.c **** 	                             USIC_CH_PCR_IICMode_STIM_Pos)) & \
 275:../Dave/Generated/src/I2C001/I2C001.c **** 			                         (uint32_t)USIC_CH_PCR_IICMode_STIM_Msk));
 276:../Dave/Generated/src/I2C001/I2C001.c ****    }
 277:../Dave/Generated/src/I2C001/I2C001.c ****    else
 278:../Dave/Generated/src/I2C001/I2C001.c ****    {
 279:../Dave/Generated/src/I2C001/I2C001.c **** 	   /* Symbol timing = 25 time quanta */
 280:../Dave/Generated/src/I2C001/I2C001.c ****   	 I2CRegs->PCR_IICMode |= (((((uint32_t)0x1U << \
 149              		.loc 1 280 0
 150 00d6 7B69     		ldr	r3, [r7, #20]
 151 00d8 DB6B     		ldr	r3, [r3, #60]
 152 00da 43F40032 		orr	r2, r3, #131072
 153 00de 7B69     		ldr	r3, [r7, #20]
 154 00e0 DA63     		str	r2, [r3, #60]
 155              	.L5:
 281:../Dave/Generated/src/I2C001/I2C001.c ****                             	USIC_CH_PCR_IICMode_STIM_Pos)) & \
 282:../Dave/Generated/src/I2C001/I2C001.c ****                         			(uint32_t)USIC_CH_PCR_IICMode_STIM_Msk));
 283:../Dave/Generated/src/I2C001/I2C001.c ****    }
 284:../Dave/Generated/src/I2C001/I2C001.c **** 
 285:../Dave/Generated/src/I2C001/I2C001.c ****    if(I2CHandle->StartCondRecvIntEn)
 156              		.loc 1 285 0
 157 00e2 7B68     		ldr	r3, [r7, #4]
 158 00e4 1B7C     		ldrb	r3, [r3, #16]	@ zero_extendqisi2
 159 00e6 002B     		cmp	r3, #0
 160 00e8 05D0     		beq	.L6
 286:../Dave/Generated/src/I2C001/I2C001.c ****    {
 287:../Dave/Generated/src/I2C001/I2C001.c ****      /* Enable Start Condition Recv Interrupt*/  
 288:../Dave/Generated/src/I2C001/I2C001.c ****      I2CRegs->PCR_IICMode |=(((uint32_t)0x01  << USIC_CH_PCR_CTR18_Pos) & \
 161              		.loc 1 288 0
 162 00ea 7B69     		ldr	r3, [r7, #20]
 163 00ec DB6B     		ldr	r3, [r3, #60]
 164 00ee 43F48022 		orr	r2, r3, #262144
 165 00f2 7B69     		ldr	r3, [r7, #20]
 166 00f4 DA63     		str	r2, [r3, #60]
 167              	.L6:
 289:../Dave/Generated/src/I2C001/I2C001.c ****     		  	  	  	  	  USIC_CH_PCR_CTR18_Msk); 
 290:../Dave/Generated/src/I2C001/I2C001.c ****    }
 291:../Dave/Generated/src/I2C001/I2C001.c ****       
 292:../Dave/Generated/src/I2C001/I2C001.c ****    if(I2CHandle->RepStartCondRecvIntEn)
 168              		.loc 1 292 0
 169 00f6 7B68     		ldr	r3, [r7, #4]
 170 00f8 5B7C     		ldrb	r3, [r3, #17]	@ zero_extendqisi2
 171 00fa 002B     		cmp	r3, #0
 172 00fc 05D0     		beq	.L7
 293:../Dave/Generated/src/I2C001/I2C001.c ****    {
 294:../Dave/Generated/src/I2C001/I2C001.c ****     	/* Enable Repeated Start Condition Interrupt*/  
 295:../Dave/Generated/src/I2C001/I2C001.c ****       I2CRegs->PCR_IICMode |=(((uint32_t)0x01 << USIC_CH_PCR_CTR19_Pos) & \
 173              		.loc 1 295 0
 174 00fe 7B69     		ldr	r3, [r7, #20]
 175 0100 DB6B     		ldr	r3, [r3, #60]
 176 0102 43F40022 		orr	r2, r3, #524288
 177 0106 7B69     		ldr	r3, [r7, #20]
 178 0108 DA63     		str	r2, [r3, #60]
 179              	.L7:
 296:../Dave/Generated/src/I2C001/I2C001.c ****     		  	  	  	  	  USIC_CH_PCR_CTR19_Msk); 
 297:../Dave/Generated/src/I2C001/I2C001.c ****    }
 298:../Dave/Generated/src/I2C001/I2C001.c ****      
 299:../Dave/Generated/src/I2C001/I2C001.c ****    if(I2CHandle->StopCondRecvIntEn)
 180              		.loc 1 299 0
 181 010a 7B68     		ldr	r3, [r7, #4]
 182 010c 9B7C     		ldrb	r3, [r3, #18]	@ zero_extendqisi2
 183 010e 002B     		cmp	r3, #0
 184 0110 05D0     		beq	.L8
 300:../Dave/Generated/src/I2C001/I2C001.c ****    {
 301:../Dave/Generated/src/I2C001/I2C001.c ****      	/* Enable Stop Condition Interrupt*/  
 302:../Dave/Generated/src/I2C001/I2C001.c ****       I2CRegs->PCR_IICMode |=(((uint32_t)0x01  << USIC_CH_PCR_CTR20_Pos) & \
 185              		.loc 1 302 0
 186 0112 7B69     		ldr	r3, [r7, #20]
 187 0114 DB6B     		ldr	r3, [r3, #60]
 188 0116 43F48012 		orr	r2, r3, #1048576
 189 011a 7B69     		ldr	r3, [r7, #20]
 190 011c DA63     		str	r2, [r3, #60]
 191              	.L8:
 303:../Dave/Generated/src/I2C001/I2C001.c ****     		  	  	  	  	  USIC_CH_PCR_CTR20_Msk); 
 304:../Dave/Generated/src/I2C001/I2C001.c ****    }
 305:../Dave/Generated/src/I2C001/I2C001.c ****       
 306:../Dave/Generated/src/I2C001/I2C001.c ****    if(I2CHandle->NackDetectIntEn)
 192              		.loc 1 306 0
 193 011e 7B68     		ldr	r3, [r7, #4]
 194 0120 DB7C     		ldrb	r3, [r3, #19]	@ zero_extendqisi2
 195 0122 002B     		cmp	r3, #0
 196 0124 05D0     		beq	.L9
 307:../Dave/Generated/src/I2C001/I2C001.c ****    {
 308:../Dave/Generated/src/I2C001/I2C001.c ****      	/* Enable Non Ack Interrupt */  
 309:../Dave/Generated/src/I2C001/I2C001.c ****       I2CRegs->PCR_IICMode |=(((uint32_t)0x01  << USIC_CH_PCR_CTR21_Pos) & \
 197              		.loc 1 309 0
 198 0126 7B69     		ldr	r3, [r7, #20]
 199 0128 DB6B     		ldr	r3, [r3, #60]
 200 012a 43F40012 		orr	r2, r3, #2097152
 201 012e 7B69     		ldr	r3, [r7, #20]
 202 0130 DA63     		str	r2, [r3, #60]
 203              	.L9:
 310:../Dave/Generated/src/I2C001/I2C001.c ****     		  	  	  	  	  USIC_CH_PCR_CTR21_Msk); 
 311:../Dave/Generated/src/I2C001/I2C001.c ****    }
 312:../Dave/Generated/src/I2C001/I2C001.c ****       
 313:../Dave/Generated/src/I2C001/I2C001.c ****    if(I2CHandle->ArbLostIntEn)
 204              		.loc 1 313 0
 205 0132 7B68     		ldr	r3, [r7, #4]
 206 0134 1B7D     		ldrb	r3, [r3, #20]	@ zero_extendqisi2
 207 0136 002B     		cmp	r3, #0
 208 0138 05D0     		beq	.L10
 314:../Dave/Generated/src/I2C001/I2C001.c ****    {
 315:../Dave/Generated/src/I2C001/I2C001.c ****     	/* Enable Arbitration lost Interrupt */  
 316:../Dave/Generated/src/I2C001/I2C001.c ****       I2CRegs->PCR_IICMode |=(((uint32_t)0x01  << USIC_CH_PCR_CTR22_Pos) & \
 209              		.loc 1 316 0
 210 013a 7B69     		ldr	r3, [r7, #20]
 211 013c DB6B     		ldr	r3, [r3, #60]
 212 013e 43F48002 		orr	r2, r3, #4194304
 213 0142 7B69     		ldr	r3, [r7, #20]
 214 0144 DA63     		str	r2, [r3, #60]
 215              	.L10:
 317:../Dave/Generated/src/I2C001/I2C001.c ****    		  	  	  	  	  USIC_CH_PCR_CTR22_Msk); 
 318:../Dave/Generated/src/I2C001/I2C001.c ****    }
 319:../Dave/Generated/src/I2C001/I2C001.c ****       
 320:../Dave/Generated/src/I2C001/I2C001.c ****    if(I2CHandle->ErrorIntEn)
 216              		.loc 1 320 0
 217 0146 7B68     		ldr	r3, [r7, #4]
 218 0148 5B7D     		ldrb	r3, [r3, #21]	@ zero_extendqisi2
 219 014a 002B     		cmp	r3, #0
 220 014c 05D0     		beq	.L11
 321:../Dave/Generated/src/I2C001/I2C001.c ****    {
 322:../Dave/Generated/src/I2C001/I2C001.c ****     	/* Enable IIC Error Interrupt */ 
 323:../Dave/Generated/src/I2C001/I2C001.c ****       I2CRegs->PCR_IICMode |=(((uint32_t)0x01  << USIC_CH_PCR_CTR24_Pos) & \
 221              		.loc 1 323 0
 222 014e 7B69     		ldr	r3, [r7, #20]
 223 0150 DB6B     		ldr	r3, [r3, #60]
 224 0152 43F08072 		orr	r2, r3, #16777216
 225 0156 7B69     		ldr	r3, [r7, #20]
 226 0158 DA63     		str	r2, [r3, #60]
 227              	.L11:
 324:../Dave/Generated/src/I2C001/I2C001.c ****    		  	  	  	  	  USIC_CH_PCR_CTR24_Msk); 
 325:../Dave/Generated/src/I2C001/I2C001.c ****    }
 326:../Dave/Generated/src/I2C001/I2C001.c ****       
 327:../Dave/Generated/src/I2C001/I2C001.c ****    if(I2CHandle->AckIntEn)
 228              		.loc 1 327 0
 229 015a 7B68     		ldr	r3, [r7, #4]
 230 015c 9B7D     		ldrb	r3, [r3, #22]	@ zero_extendqisi2
 231 015e 002B     		cmp	r3, #0
 232 0160 05D0     		beq	.L12
 328:../Dave/Generated/src/I2C001/I2C001.c ****    {
 329:../Dave/Generated/src/I2C001/I2C001.c ****     	/*  Enable Ack  Interrupt */ 
 330:../Dave/Generated/src/I2C001/I2C001.c ****       I2CRegs->PCR_IICMode |=(((uint32_t)0x01  << USIC_CH_PCR_CTR30_Pos) & \
 233              		.loc 1 330 0
 234 0162 7B69     		ldr	r3, [r7, #20]
 235 0164 DB6B     		ldr	r3, [r3, #60]
 236 0166 43F08042 		orr	r2, r3, #1073741824
 237 016a 7B69     		ldr	r3, [r7, #20]
 238 016c DA63     		str	r2, [r3, #60]
 239              	.L12:
 331:../Dave/Generated/src/I2C001/I2C001.c ****    		  	  	  	  	  USIC_CH_PCR_CTR30_Msk); 
 332:../Dave/Generated/src/I2C001/I2C001.c ****    }					          
 333:../Dave/Generated/src/I2C001/I2C001.c ****    
 334:../Dave/Generated/src/I2C001/I2C001.c ****    /** FIFO Configuration */
 335:../Dave/Generated/src/I2C001/I2C001.c ****        
 336:../Dave/Generated/src/I2C001/I2C001.c ****    /* Configuration of Transmitter Buffer Control Register */ 
 337:../Dave/Generated/src/I2C001/I2C001.c ****    /* Limit for transmit FIFO interrupt generation is set based on UI */
 338:../Dave/Generated/src/I2C001/I2C001.c **** 
 339:../Dave/Generated/src/I2C001/I2C001.c ****    I2CRegs->TBCTR |= \
 240              		.loc 1 339 0
 241 016e 7B69     		ldr	r3, [r7, #20]
 242 0170 D3F80821 		ldr	r2, [r3, #264]
 340:../Dave/Generated/src/I2C001/I2C001.c ****              ((((uint32_t)I2CHandle->TxLimit << USIC_CH_TBCTR_LIMIT_Pos ) & \
 243              		.loc 1 340 0
 244 0174 7B68     		ldr	r3, [r7, #4]
 245 0176 1B7B     		ldrb	r3, [r3, #12]	@ zero_extendqisi2
 246 0178 4FEA0323 		lsl	r3, r3, #8
 247 017c 03F47C53 		and	r3, r3, #16128
 339:../Dave/Generated/src/I2C001/I2C001.c ****    I2CRegs->TBCTR |= \
 248              		.loc 1 339 0
 249 0180 1A43     		orrs	r2, r2, r3
 250 0182 7B69     		ldr	r3, [r7, #20]
 251 0184 C3F80821 		str	r2, [r3, #264]
 341:../Dave/Generated/src/I2C001/I2C001.c **** 	 			                                          USIC_CH_TBCTR_LIMIT_Msk));
 342:../Dave/Generated/src/I2C001/I2C001.c ****         
 343:../Dave/Generated/src/I2C001/I2C001.c ****    /* Configuration of Receiver Buffer Control Register */ 
 344:../Dave/Generated/src/I2C001/I2C001.c ****    /* Limit for receive FIFO interrupt generation is set based on UI*/
 345:../Dave/Generated/src/I2C001/I2C001.c ****    /* Filling level mode is selected */
 346:../Dave/Generated/src/I2C001/I2C001.c ****    I2CRegs->RBCTR |= \
 252              		.loc 1 346 0
 253 0188 7B69     		ldr	r3, [r7, #20]
 254 018a D3F80C21 		ldr	r2, [r3, #268]
 347:../Dave/Generated/src/I2C001/I2C001.c ****                ((((uint32_t)I2CHandle->RxLimit << USIC_CH_RBCTR_LIMIT_Pos) & \
 255              		.loc 1 347 0
 256 018e 7B68     		ldr	r3, [r7, #4]
 257 0190 5B7B     		ldrb	r3, [r3, #13]	@ zero_extendqisi2
 258 0192 4FEA0323 		lsl	r3, r3, #8
 259 0196 03F47C53 		and	r3, r3, #16128
 346:../Dave/Generated/src/I2C001/I2C001.c ****    I2CRegs->RBCTR |= \
 260              		.loc 1 346 0
 261 019a 1343     		orrs	r3, r3, r2
 262 019c 43F08052 		orr	r2, r3, #268435456
 263 01a0 7B69     		ldr	r3, [r7, #20]
 264 01a2 C3F80C21 		str	r2, [r3, #268]
 348:../Dave/Generated/src/I2C001/I2C001.c **** 	 			         USIC_CH_RBCTR_LIMIT_Msk) |  \
 349:../Dave/Generated/src/I2C001/I2C001.c ****                 (((uint32_t)0x01 << USIC_CH_RBCTR_LOF_Pos) & \
 350:../Dave/Generated/src/I2C001/I2C001.c ****                 USIC_CH_RBCTR_LOF_Msk));
 351:../Dave/Generated/src/I2C001/I2C001.c ****    I2CRegs->CCR |= ((I2C_ENABLE) & USIC_CH_CCR_MODE_Msk);
 265              		.loc 1 351 0
 266 01a6 7B69     		ldr	r3, [r7, #20]
 267 01a8 1B6C     		ldr	r3, [r3, #64]
 268 01aa 43F00402 		orr	r2, r3, #4
 269 01ae 7B69     		ldr	r3, [r7, #20]
 270 01b0 1A64     		str	r2, [r3, #64]
 352:../Dave/Generated/src/I2C001/I2C001.c **** }
 271              		.loc 1 352 0
 272 01b2 07F11807 		add	r7, r7, #24
 273 01b6 BD46     		mov	sp, r7
 274 01b8 80BD     		pop	{r7, pc}
 275              		.cfi_endproc
 276              	.LFE120:
 278 01ba 00BF     		.section	.text.I2C001_lConfigureBitRate,"ax",%progbits
 279              		.align	2
 280              		.global	I2C001_lConfigureBitRate
 281              		.thumb
 282              		.thumb_func
 284              	I2C001_lConfigureBitRate:
 285              	.LFB121:
 353:../Dave/Generated/src/I2C001/I2C001.c **** 
 354:../Dave/Generated/src/I2C001/I2C001.c **** 
 355:../Dave/Generated/src/I2C001/I2C001.c **** /* Give optimized PDIV and STEP value for the given baud rate */ 
 356:../Dave/Generated/src/I2C001/I2C001.c **** void I2C001_lConfigureBitRate\
 357:../Dave/Generated/src/I2C001/I2C001.c ****                     (uint32_t BitRate,uint32_t* PDivValue,uint32_t* StepValue)
 358:../Dave/Generated/src/I2C001/I2C001.c **** {
 286              		.loc 1 358 0
 287              		.cfi_startproc
 288              		@ args = 0, pretend = 0, frame = 32
 289              		@ frame_needed = 1, uses_anonymous_args = 0
 290              		@ link register save eliminated.
 291 0000 80B4     		push	{r7}
 292              	.LCFI3:
 293              		.cfi_def_cfa_offset 4
 294              		.cfi_offset 7, -4
 295 0002 89B0     		sub	sp, sp, #36
 296              	.LCFI4:
 297              		.cfi_def_cfa_offset 40
 298 0004 00AF     		add	r7, sp, #0
 299              	.LCFI5:
 300              		.cfi_def_cfa_register 7
 301 0006 F860     		str	r0, [r7, #12]
 302 0008 B960     		str	r1, [r7, #8]
 303 000a 7A60     		str	r2, [r7, #4]
 359:../Dave/Generated/src/I2C001/I2C001.c ****   float ratio = (float)0.0;
 304              		.loc 1 359 0
 305 000c 4FF00003 		mov	r3, #0
 306 0010 FB61     		str	r3, [r7, #28]	@ float
 360:../Dave/Generated/src/I2C001/I2C001.c ****   float TempBitrate = ((float)BitRate * ((float)1000));
 307              		.loc 1 360 0
 308 0012 D7ED037A 		flds	s15, [r7, #12]	@ int
 309 0016 B8EE677A 		fuitos	s14, s15
 310 001a DFED597A 		flds	s15, .L34
 311 001e 67EE277A 		fmuls	s15, s14, s15
 312 0022 C7ED047A 		fsts	s15, [r7, #16]
 361:../Dave/Generated/src/I2C001/I2C001.c ****   float TempPdiv = (float)0.0;
 313              		.loc 1 361 0
 314 0026 4FF00003 		mov	r3, #0
 315 002a BB61     		str	r3, [r7, #24]	@ float
 362:../Dave/Generated/src/I2C001/I2C001.c ****   float TempStep = (float)0.0;
 316              		.loc 1 362 0
 317 002c 4FF00003 		mov	r3, #0
 318 0030 7B61     		str	r3, [r7, #20]	@ float
 363:../Dave/Generated/src/I2C001/I2C001.c **** 
 364:../Dave/Generated/src/I2C001/I2C001.c ****   if(TempBitrate <= 100000.0)
 319              		.loc 1 364 0
 320 0032 97ED047A 		flds	s14, [r7, #16]
 321 0036 DFED537A 		flds	s15, .L34+4
 322 003a B4EEE77A 		fcmpes	s14, s15
 323 003e F1EE10FA 		fmstat
 324 0042 08D8     		bhi	.L31
 325              	.L26:
 365:../Dave/Generated/src/I2C001/I2C001.c ****   {
 366:../Dave/Generated/src/I2C001/I2C001.c ****     ratio = ((((USIC_CLOCK * (float)1000000)/ \
 326              		.loc 1 366 0
 327 0044 9FED507A 		flds	s14, .L34+8
 328 0048 D7ED047A 		flds	s15, [r7, #16]
 329 004c C7EE277A 		fdivs	s15, s14, s15
 330 0050 C7ED077A 		fsts	s15, [r7, #28]
 331 0054 07E0     		b	.L16
 332              	.L31:
 367:../Dave/Generated/src/I2C001/I2C001.c ****              (((float)1 + (float)I2C_DCTQ1_VALUE)*I2C001_MAX_STEPVALUE)) * \
 368:../Dave/Generated/src/I2C001/I2C001.c ****              I2C001_IM_STEPVALUE)/TempBitrate);
 369:../Dave/Generated/src/I2C001/I2C001.c ****   }
 370:../Dave/Generated/src/I2C001/I2C001.c ****   else
 371:../Dave/Generated/src/I2C001/I2C001.c ****   {
 372:../Dave/Generated/src/I2C001/I2C001.c ****     ratio = ((((USIC_CLOCK * (float)1000000)/ \
 333              		.loc 1 372 0
 334 0056 9FED4D7A 		flds	s14, .L34+12
 335 005a D7ED047A 		flds	s15, [r7, #16]
 336 005e C7EE277A 		fdivs	s15, s14, s15
 337 0062 C7ED077A 		fsts	s15, [r7, #28]
 338              	.L16:
 373:../Dave/Generated/src/I2C001/I2C001.c ****              (((float)1 + (float)I2C_DCTQ2_VALUE)*I2C001_MAX_STEPVALUE)) * \
 374:../Dave/Generated/src/I2C001/I2C001.c ****              I2C001_IM_STEPVALUE)/TempBitrate);
 375:../Dave/Generated/src/I2C001/I2C001.c ****   }
 376:../Dave/Generated/src/I2C001/I2C001.c ****   /* Calculating optimum PDIV value */
 377:../Dave/Generated/src/I2C001/I2C001.c ****   if( ratio <= (float)1)
 339              		.loc 1 377 0
 340 0066 97ED077A 		flds	s14, [r7, #28]
 341 006a F7EE007A 		fconsts	s15, #112
 342 006e B4EEE77A 		fcmpes	s14, s15
 343 0072 F1EE10FA 		fmstat
 344 0076 03D8     		bhi	.L32
 345              	.L27:
 378:../Dave/Generated/src/I2C001/I2C001.c ****   {
 379:../Dave/Generated/src/I2C001/I2C001.c ****     TempPdiv = (float)0;
 346              		.loc 1 379 0
 347 0078 4FF00003 		mov	r3, #0
 348 007c BB61     		str	r3, [r7, #24]	@ float
 349 007e 15E0     		b	.L19
 350              	.L32:
 380:../Dave/Generated/src/I2C001/I2C001.c ****   }
 381:../Dave/Generated/src/I2C001/I2C001.c ****   else
 382:../Dave/Generated/src/I2C001/I2C001.c ****   {
 383:../Dave/Generated/src/I2C001/I2C001.c ****     TempPdiv =  ratio - (float)1;
 351              		.loc 1 383 0
 352 0080 97ED077A 		flds	s14, [r7, #28]
 353 0084 F7EE007A 		fconsts	s15, #112
 354 0088 77EE677A 		fsubs	s15, s14, s15
 355 008c C7ED067A 		fsts	s15, [r7, #24]
 384:../Dave/Generated/src/I2C001/I2C001.c ****     if( TempPdiv > I2C001_MAX_VALUE)
 356              		.loc 1 384 0
 357 0090 97ED067A 		flds	s14, [r7, #24]
 358 0094 DFED3E7A 		flds	s15, .L34+16
 359 0098 B4EEE77A 		fcmpes	s14, s15
 360 009c F1EE10FA 		fmstat
 361 00a0 04DD     		ble	.L19
 362              	.L28:
 385:../Dave/Generated/src/I2C001/I2C001.c ****     {
 386:../Dave/Generated/src/I2C001/I2C001.c ****   	  TempPdiv = I2C001_MAX_VALUE;
 363              		.loc 1 386 0
 364 00a2 4FF44043 		mov	r3, #49152
 365 00a6 C4F27F43 		movt	r3, 17535
 366 00aa BB61     		str	r3, [r7, #24]	@ float
 367              	.L19:
 387:../Dave/Generated/src/I2C001/I2C001.c ****     }
 388:../Dave/Generated/src/I2C001/I2C001.c ****   }
 389:../Dave/Generated/src/I2C001/I2C001.c ****   *PDivValue = (uint32_t)(TempPdiv);
 368              		.loc 1 389 0
 369 00ac D7ED067A 		flds	s15, [r7, #24]
 370 00b0 FCEEE77A 		ftouizs	s15, s15
 371 00b4 BB68     		ldr	r3, [r7, #8]
 372 00b6 C3ED007A 		fsts	s15, [r3, #0]	@ int
 390:../Dave/Generated/src/I2C001/I2C001.c ****   /* Calculating STEP value */
 391:../Dave/Generated/src/I2C001/I2C001.c ****   if(TempBitrate <= 100000.0)
 373              		.loc 1 391 0
 374 00ba 97ED047A 		flds	s14, [r7, #16]
 375 00be DFED317A 		flds	s15, .L34+4
 376 00c2 B4EEE77A 		fcmpes	s14, s15
 377 00c6 F1EE10FA 		fmstat
 378 00ca 1FD8     		bhi	.L33
 379              	.L29:
 392:../Dave/Generated/src/I2C001/I2C001.c ****   {
 393:../Dave/Generated/src/I2C001/I2C001.c ****     TempStep = (((((TempBitrate * ((float)1 + (float)I2C_DCTQ1_VALUE) * \
 380              		.loc 1 393 0
 381 00cc 97ED047A 		flds	s14, [r7, #16]
 382 00d0 F2EE047A 		fconsts	s15, #36
 383 00d4 27EE277A 		fmuls	s14, s14, s15
 384 00d8 DFED2E7A 		flds	s15, .L34+20
 385 00dc 27EE277A 		fmuls	s14, s14, s15
 394:../Dave/Generated/src/I2C001/I2C001.c ****                  I2C001_MAX_STEPVALUE)/(float)1000000)) * \
 386              		.loc 1 394 0
 387 00e0 DFED2D7A 		flds	s15, .L34+24
 388 00e4 87EE277A 		fdivs	s14, s14, s15
 395:../Dave/Generated/src/I2C001/I2C001.c **** 	               ((float)1+ ((float)*PDivValue)))/(USIC_CLOCK));
 389              		.loc 1 395 0
 390 00e8 BB68     		ldr	r3, [r7, #8]
 391 00ea D3ED007A 		flds	s15, [r3, #0]	@ int
 392 00ee F8EE676A 		fuitos	s13, s15
 393 00f2 F7EE007A 		fconsts	s15, #112
 394 00f6 76EEA77A 		fadds	s15, s13, s15
 394:../Dave/Generated/src/I2C001/I2C001.c ****                  I2C001_MAX_STEPVALUE)/(float)1000000)) * \
 395              		.loc 1 394 0
 396 00fa 27EE277A 		fmuls	s14, s14, s15
 393:../Dave/Generated/src/I2C001/I2C001.c ****     TempStep = (((((TempBitrate * ((float)1 + (float)I2C_DCTQ1_VALUE) * \
 397              		.loc 1 393 0
 398 00fe DFED277A 		flds	s15, .L34+28
 399 0102 C7EE277A 		fdivs	s15, s14, s15
 400 0106 C7ED057A 		fsts	s15, [r7, #20]
 401 010a 1EE0     		b	.L23
 402              	.L33:
 396:../Dave/Generated/src/I2C001/I2C001.c ****   }
 397:../Dave/Generated/src/I2C001/I2C001.c ****   else
 398:../Dave/Generated/src/I2C001/I2C001.c ****   {
 399:../Dave/Generated/src/I2C001/I2C001.c ****     TempStep = (((((TempBitrate * ((float)1 + (float)I2C_DCTQ2_VALUE) * \
 403              		.loc 1 399 0
 404 010c 97ED047A 		flds	s14, [r7, #16]
 405 0110 F3EE097A 		fconsts	s15, #57
 406 0114 27EE277A 		fmuls	s14, s14, s15
 407 0118 DFED1E7A 		flds	s15, .L34+20
 408 011c 27EE277A 		fmuls	s14, s14, s15
 400:../Dave/Generated/src/I2C001/I2C001.c ****                  I2C001_MAX_STEPVALUE)/ (float)1000000)) * \
 409              		.loc 1 400 0
 410 0120 DFED1D7A 		flds	s15, .L34+24
 411 0124 87EE277A 		fdivs	s14, s14, s15
 401:../Dave/Generated/src/I2C001/I2C001.c **** 	               ((float)1+ ((float)*PDivValue)))/(USIC_CLOCK));
 412              		.loc 1 401 0
 413 0128 BB68     		ldr	r3, [r7, #8]
 414 012a D3ED007A 		flds	s15, [r3, #0]	@ int
 415 012e F8EE676A 		fuitos	s13, s15
 416 0132 F7EE007A 		fconsts	s15, #112
 417 0136 76EEA77A 		fadds	s15, s13, s15
 400:../Dave/Generated/src/I2C001/I2C001.c ****                  I2C001_MAX_STEPVALUE)/ (float)1000000)) * \
 418              		.loc 1 400 0
 419 013a 27EE277A 		fmuls	s14, s14, s15
 399:../Dave/Generated/src/I2C001/I2C001.c ****     TempStep = (((((TempBitrate * ((float)1 + (float)I2C_DCTQ2_VALUE) * \
 420              		.loc 1 399 0
 421 013e DFED177A 		flds	s15, .L34+28
 422 0142 C7EE277A 		fdivs	s15, s14, s15
 423 0146 C7ED057A 		fsts	s15, [r7, #20]
 424              	.L23:
 402:../Dave/Generated/src/I2C001/I2C001.c ****   }
 403:../Dave/Generated/src/I2C001/I2C001.c ****   if(TempStep > I2C001_MAX_VALUE)
 425              		.loc 1 403 0
 426 014a 97ED057A 		flds	s14, [r7, #20]
 427 014e DFED107A 		flds	s15, .L34+16
 428 0152 B4EEE77A 		fcmpes	s14, s15
 429 0156 F1EE10FA 		fmstat
 430 015a 04DD     		ble	.L24
 431              	.L30:
 404:../Dave/Generated/src/I2C001/I2C001.c ****   {
 405:../Dave/Generated/src/I2C001/I2C001.c **** 	  TempStep = I2C001_MAX_VALUE;
 432              		.loc 1 405 0
 433 015c 4FF44043 		mov	r3, #49152
 434 0160 C4F27F43 		movt	r3, 17535
 435 0164 7B61     		str	r3, [r7, #20]	@ float
 436              	.L24:
 406:../Dave/Generated/src/I2C001/I2C001.c ****   }
 407:../Dave/Generated/src/I2C001/I2C001.c ****   *StepValue = (uint32_t)(TempStep);
 437              		.loc 1 407 0
 438 0166 D7ED057A 		flds	s15, [r7, #20]
 439 016a FCEEE77A 		ftouizs	s15, s15
 440 016e 7B68     		ldr	r3, [r7, #4]
 441 0170 C3ED007A 		fsts	s15, [r3, #0]	@ int
 408:../Dave/Generated/src/I2C001/I2C001.c **** }
 442              		.loc 1 408 0
 443 0174 07F12407 		add	r7, r7, #36
 444 0178 BD46     		mov	sp, r7
 445 017a 80BC     		pop	{r7}
 446 017c 7047     		bx	lr
 447              	.L35:
 448 017e 00BF     		.align	2
 449              	.L34:
 450 0180 00007A44 		.word	1148846080
 451 0184 0050C347 		.word	1203982336
 452 0188 5ED0B24A 		.word	1253232734
 453 018c 180D0F4A 		.word	1242500376
 454 0190 00C07F44 		.word	1149222912
 455 0194 00008044 		.word	1149239296
 456 0198 00247449 		.word	1232348160
 457 019c 0000F042 		.word	1123024896
 458              		.cfi_endproc
 459              	.LFE121:
 461              		.section	.text.I2C001_Init,"ax",%progbits
 462              		.align	2
 463              		.global	I2C001_Init
 464              		.thumb
 465              		.thumb_func
 467              	I2C001_Init:
 468              	.LFB122:
 409:../Dave/Generated/src/I2C001/I2C001.c **** /******************************************************************************
 410:../Dave/Generated/src/I2C001/I2C001.c **** **                      Public Function Definitions                          **
 411:../Dave/Generated/src/I2C001/I2C001.c **** ******************************************************************************/
 412:../Dave/Generated/src/I2C001/I2C001.c **** void I2C001_Init(void)
 413:../Dave/Generated/src/I2C001/I2C001.c **** {
 469              		.loc 1 413 0
 470              		.cfi_startproc
 471              		@ args = 0, pretend = 0, frame = 0
 472              		@ frame_needed = 1, uses_anonymous_args = 0
 473 0000 80B5     		push	{r7, lr}
 474              	.LCFI6:
 475              		.cfi_def_cfa_offset 8
 476              		.cfi_offset 7, -8
 477              		.cfi_offset 14, -4
 478 0002 00AF     		add	r7, sp, #0
 479              	.LCFI7:
 480              		.cfi_def_cfa_register 7
 414:../Dave/Generated/src/I2C001/I2C001.c ****   /* Reset the Peripheral*/
 415:../Dave/Generated/src/I2C001/I2C001.c ****   RESET001_DeassertReset(PER1_USIC2); 
 481              		.loc 1 415 0
 482 0004 4FF48070 		mov	r0, #256
 483 0008 C1F20000 		movt	r0, 4096
 484 000c FFF7FEFF 		bl	RESET001_DeassertReset
 416:../Dave/Generated/src/I2C001/I2C001.c ****   I2C001_lInit(&I2C001_Handle0);          
 485              		.loc 1 416 0
 486 0010 40F20000 		movw	r0, #:lower16:I2C001_Handle0
 487 0014 C0F20000 		movt	r0, #:upper16:I2C001_Handle0
 488 0018 FFF7FEFF 		bl	I2C001_lInit
 417:../Dave/Generated/src/I2C001/I2C001.c ****      /* Configuration of SCL Pin 5.2 based on User configuration */
 418:../Dave/Generated/src/I2C001/I2C001.c ****   PORT5->PDR0  &= (~(PORT5_PDR0_PD2_Msk));
 489              		.loc 1 418 0
 490 001c 4FF40543 		mov	r3, #34048
 491 0020 C4F60203 		movt	r3, 18434
 492 0024 4FF40542 		mov	r2, #34048
 493 0028 C4F60202 		movt	r2, 18434
 494 002c 126C     		ldr	r2, [r2, #64]
 495 002e 22F4E062 		bic	r2, r2, #1792
 496 0032 1A64     		str	r2, [r3, #64]
 419:../Dave/Generated/src/I2C001/I2C001.c ****   PORT5->PDR0  |= (((uint32_t)0 << PORT5_PDR0_PD2_Pos) & PORT5_PDR0_PD2_Msk);       
 497              		.loc 1 419 0
 498 0034 4FF40543 		mov	r3, #34048
 499 0038 C4F60203 		movt	r3, 18434
 500 003c 4FF40542 		mov	r2, #34048
 501 0040 C4F60202 		movt	r2, 18434
 502 0044 126C     		ldr	r2, [r2, #64]
 503 0046 1A64     		str	r2, [r3, #64]
 420:../Dave/Generated/src/I2C001/I2C001.c ****   PORT5->IOCR0 |= ((uint32_t)24 << 19);
 504              		.loc 1 420 0
 505 0048 4FF40543 		mov	r3, #34048
 506 004c C4F60203 		movt	r3, 18434
 507 0050 4FF40542 		mov	r2, #34048
 508 0054 C4F60202 		movt	r2, 18434
 509 0058 1269     		ldr	r2, [r2, #16]
 510 005a 42F44002 		orr	r2, r2, #12582912
 511 005e 1A61     		str	r2, [r3, #16]
 421:../Dave/Generated/src/I2C001/I2C001.c ****  	 
 422:../Dave/Generated/src/I2C001/I2C001.c ****   PORT5->OMR |= ((uint32_t)0x01 << 2);          
 512              		.loc 1 422 0
 513 0060 4FF40543 		mov	r3, #34048
 514 0064 C4F60203 		movt	r3, 18434
 515 0068 4FF40542 		mov	r2, #34048
 516 006c C4F60202 		movt	r2, 18434
 517 0070 5268     		ldr	r2, [r2, #4]
 518 0072 42F00402 		orr	r2, r2, #4
 519 0076 5A60     		str	r2, [r3, #4]
 423:../Dave/Generated/src/I2C001/I2C001.c ****      /* Configuration of SDA Pin 5.0 based on User configuration */
 424:../Dave/Generated/src/I2C001/I2C001.c ****   PORT5->PDR0  &= (~(PORT5_PDR0_PD0_Msk));
 520              		.loc 1 424 0
 521 0078 4FF40543 		mov	r3, #34048
 522 007c C4F60203 		movt	r3, 18434
 523 0080 4FF40542 		mov	r2, #34048
 524 0084 C4F60202 		movt	r2, 18434
 525 0088 126C     		ldr	r2, [r2, #64]
 526 008a 22F00702 		bic	r2, r2, #7
 527 008e 1A64     		str	r2, [r3, #64]
 425:../Dave/Generated/src/I2C001/I2C001.c ****   PORT5->PDR0  |= (((uint32_t)0 << PORT5_PDR0_PD0_Pos) & PORT5_PDR0_PD0_Msk);
 528              		.loc 1 425 0
 529 0090 4FF40543 		mov	r3, #34048
 530 0094 C4F60203 		movt	r3, 18434
 531 0098 4FF40542 		mov	r2, #34048
 532 009c C4F60202 		movt	r2, 18434
 533 00a0 126C     		ldr	r2, [r2, #64]
 534 00a2 1A64     		str	r2, [r3, #64]
 426:../Dave/Generated/src/I2C001/I2C001.c ****  	
 427:../Dave/Generated/src/I2C001/I2C001.c ****  	
 428:../Dave/Generated/src/I2C001/I2C001.c ****   PORT5->IOCR0 |= ((uint32_t)24 << 3);
 535              		.loc 1 428 0
 536 00a4 4FF40543 		mov	r3, #34048
 537 00a8 C4F60203 		movt	r3, 18434
 538 00ac 4FF40542 		mov	r2, #34048
 539 00b0 C4F60202 		movt	r2, 18434
 540 00b4 1269     		ldr	r2, [r2, #16]
 541 00b6 42F0C002 		orr	r2, r2, #192
 542 00ba 1A61     		str	r2, [r3, #16]
 429:../Dave/Generated/src/I2C001/I2C001.c ****  	 
 430:../Dave/Generated/src/I2C001/I2C001.c ****   PORT5->OMR |= ((uint32_t)0x01 << 0);
 543              		.loc 1 430 0
 544 00bc 4FF40543 		mov	r3, #34048
 545 00c0 C4F60203 		movt	r3, 18434
 546 00c4 4FF40542 		mov	r2, #34048
 547 00c8 C4F60202 		movt	r2, 18434
 548 00cc 5268     		ldr	r2, [r2, #4]
 549 00ce 42F00102 		orr	r2, r2, #1
 550 00d2 5A60     		str	r2, [r3, #4]
 431:../Dave/Generated/src/I2C001/I2C001.c **** 
 432:../Dave/Generated/src/I2C001/I2C001.c **** }
 551              		.loc 1 432 0
 552 00d4 80BD     		pop	{r7, pc}
 553              		.cfi_endproc
 554              	.LFE122:
 556 00d6 00BF     		.section	.text.I2C001_DeInit,"ax",%progbits
 557              		.align	2
 558              		.global	I2C001_DeInit
 559              		.thumb
 560              		.thumb_func
 562              	I2C001_DeInit:
 563              	.LFB123:
 433:../Dave/Generated/src/I2C001/I2C001.c ****  /* Function provide to reset the App to default values. */
 434:../Dave/Generated/src/I2C001/I2C001.c ****  
 435:../Dave/Generated/src/I2C001/I2C001.c **** void  I2C001_DeInit (void)
 436:../Dave/Generated/src/I2C001/I2C001.c **** {
 564              		.loc 1 436 0
 565              		.cfi_startproc
 566              		@ args = 0, pretend = 0, frame = 0
 567              		@ frame_needed = 1, uses_anonymous_args = 0
 568              		@ link register save eliminated.
 569 0000 80B4     		push	{r7}
 570              	.LCFI8:
 571              		.cfi_def_cfa_offset 4
 572              		.cfi_offset 7, -4
 573 0002 00AF     		add	r7, sp, #0
 574              	.LCFI9:
 575              		.cfi_def_cfa_register 7
 437:../Dave/Generated/src/I2C001/I2C001.c ****   /* <<<DD_I2C001_API_2>>>*/
 438:../Dave/Generated/src/I2C001/I2C001.c ****   /* Redundant Api */
 439:../Dave/Generated/src/I2C001/I2C001.c **** }
 576              		.loc 1 439 0
 577 0004 BD46     		mov	sp, r7
 578 0006 80BC     		pop	{r7}
 579 0008 7047     		bx	lr
 580              		.cfi_endproc
 581              	.LFE123:
 583 000a 00BF     		.section	.text.I2C001_Configure,"ax",%progbits
 584              		.align	2
 585              		.global	I2C001_Configure
 586              		.thumb
 587              		.thumb_func
 589              	I2C001_Configure:
 590              	.LFB124:
 440:../Dave/Generated/src/I2C001/I2C001.c **** 
 441:../Dave/Generated/src/I2C001/I2C001.c **** 
 442:../Dave/Generated/src/I2C001/I2C001.c **** /* Function which allows changing of bitrate at run time.*/
 443:../Dave/Generated/src/I2C001/I2C001.c **** status_t  I2C001_Configure(const I2C001Handle_type* I2CHandle,uint32_t BitRate)
 444:../Dave/Generated/src/I2C001/I2C001.c **** {
 591              		.loc 1 444 0
 592              		.cfi_startproc
 593              		@ args = 0, pretend = 0, frame = 24
 594              		@ frame_needed = 1, uses_anonymous_args = 0
 595 0000 80B5     		push	{r7, lr}
 596              	.LCFI10:
 597              		.cfi_def_cfa_offset 8
 598              		.cfi_offset 7, -8
 599              		.cfi_offset 14, -4
 600 0002 86B0     		sub	sp, sp, #24
 601              	.LCFI11:
 602              		.cfi_def_cfa_offset 32
 603 0004 00AF     		add	r7, sp, #0
 604              	.LCFI12:
 605              		.cfi_def_cfa_register 7
 606 0006 7860     		str	r0, [r7, #4]
 607 0008 3960     		str	r1, [r7, #0]
 445:../Dave/Generated/src/I2C001/I2C001.c ****   uint32_t Brg_PDivValue = 0x00U;
 608              		.loc 1 445 0
 609 000a 4FF00003 		mov	r3, #0
 610 000e FB60     		str	r3, [r7, #12]
 446:../Dave/Generated/src/I2C001/I2C001.c ****   uint32_t Fdr_StepValue = 0x00U;
 611              		.loc 1 446 0
 612 0010 4FF00003 		mov	r3, #0
 613 0014 BB60     		str	r3, [r7, #8]
 447:../Dave/Generated/src/I2C001/I2C001.c ****   USIC_CH_TypeDef* I2CRegs = I2CHandle->I2CRegs;
 614              		.loc 1 447 0
 615 0016 7B68     		ldr	r3, [r7, #4]
 616 0018 5B68     		ldr	r3, [r3, #4]
 617 001a 7B61     		str	r3, [r7, #20]
 448:../Dave/Generated/src/I2C001/I2C001.c ****   status_t Status = (status_t)I2C001_FAIL; 
 618              		.loc 1 448 0
 619 001c 4FF00403 		mov	r3, #4
 620 0020 3B61     		str	r3, [r7, #16]
 449:../Dave/Generated/src/I2C001/I2C001.c ****  
 450:../Dave/Generated/src/I2C001/I2C001.c ****   /* <<<DD_I2C001_API_3>>>*/    
 451:../Dave/Generated/src/I2C001/I2C001.c ****   /* Disable I2C mode before configuring all USIC registers to avoid unintended edges */ 
 452:../Dave/Generated/src/I2C001/I2C001.c ****   I2CRegs->CCR &= ~( ((uint32_t)(I2C_ENABLE  & USIC_CH_CCR_MODE_Msk)));
 621              		.loc 1 452 0
 622 0022 7B69     		ldr	r3, [r7, #20]
 623 0024 1B6C     		ldr	r3, [r3, #64]
 624 0026 23F00402 		bic	r2, r3, #4
 625 002a 7B69     		ldr	r3, [r7, #20]
 626 002c 1A64     		str	r2, [r3, #64]
 453:../Dave/Generated/src/I2C001/I2C001.c **** 
 454:../Dave/Generated/src/I2C001/I2C001.c ****   /* Configuration of USIC Channel Fractional Divider */
 455:../Dave/Generated/src/I2C001/I2C001.c ****   /* Get the optimum PDIV and STEP value for the given bitrate */
 456:../Dave/Generated/src/I2C001/I2C001.c ****   I2C001_lConfigureBitRate(BitRate,&Brg_PDivValue,&Fdr_StepValue);    
 627              		.loc 1 456 0
 628 002e 07F10C02 		add	r2, r7, #12
 629 0032 07F10803 		add	r3, r7, #8
 630 0036 3868     		ldr	r0, [r7, #0]
 631 0038 1146     		mov	r1, r2
 632 003a 1A46     		mov	r2, r3
 633 003c FFF7FEFF 		bl	I2C001_lConfigureBitRate
 457:../Dave/Generated/src/I2C001/I2C001.c ****       
 458:../Dave/Generated/src/I2C001/I2C001.c ****   /* Fractional divider mode selected */
 459:../Dave/Generated/src/I2C001/I2C001.c ****   I2CRegs->FDR &= ~(USIC_CH_FDR_STEP_Msk);
 634              		.loc 1 459 0
 635 0040 7B69     		ldr	r3, [r7, #20]
 636 0042 1B69     		ldr	r3, [r3, #16]
 637 0044 23F47F73 		bic	r3, r3, #1020
 638 0048 23F00303 		bic	r3, r3, #3
 639 004c 7A69     		ldr	r2, [r7, #20]
 640 004e 1361     		str	r3, [r2, #16]
 460:../Dave/Generated/src/I2C001/I2C001.c ****   I2CRegs->FDR |= (Fdr_StepValue & USIC_CH_FDR_STEP_Msk);
 641              		.loc 1 460 0
 642 0050 7B69     		ldr	r3, [r7, #20]
 643 0052 1A69     		ldr	r2, [r3, #16]
 644 0054 BB68     		ldr	r3, [r7, #8]
 645 0056 4FEA8353 		lsl	r3, r3, #22
 646 005a 4FEA9353 		lsr	r3, r3, #22
 647 005e 1A43     		orrs	r2, r2, r3
 648 0060 7B69     		ldr	r3, [r7, #20]
 649 0062 1A61     		str	r2, [r3, #16]
 461:../Dave/Generated/src/I2C001/I2C001.c ****               
 462:../Dave/Generated/src/I2C001/I2C001.c ****   /* Configure BitRate */
 463:../Dave/Generated/src/I2C001/I2C001.c ****   I2CRegs->BRG &= ~(USIC_CH_BRG_PDIV_Msk | USIC_CH_BRG_DCTQ_Msk | \
 650              		.loc 1 463 0
 651 0064 7B69     		ldr	r3, [r7, #20]
 652 0066 5A69     		ldr	r2, [r3, #20]
 653 0068 48F2FF03 		movw	r3, #33023
 654 006c CFF60043 		movt	r3, 64512
 655 0070 1340     		ands	r3, r3, r2
 656 0072 7A69     		ldr	r2, [r7, #20]
 657 0074 5361     		str	r3, [r2, #20]
 464:../Dave/Generated/src/I2C001/I2C001.c **** 	                    USIC_CH_BRG_PCTQ_Msk);
 465:../Dave/Generated/src/I2C001/I2C001.c ****     		                           
 466:../Dave/Generated/src/I2C001/I2C001.c ****   if(BitRate <= I2C001_BITRATE)
 658              		.loc 1 466 0
 659 0076 3B68     		ldr	r3, [r7, #0]
 660 0078 642B     		cmp	r3, #100
 661 007a 0FD8     		bhi	.L39
 467:../Dave/Generated/src/I2C001/I2C001.c ****   {  
 468:../Dave/Generated/src/I2C001/I2C001.c ****      /* The PreDivider for CTQ, PCTQ = 0  */
 469:../Dave/Generated/src/I2C001/I2C001.c ****      /* The Denominator for CTQ, DCTQ = 9 */
 470:../Dave/Generated/src/I2C001/I2C001.c ****      I2CRegs->BRG |= ((I2C_DCTQ1_VALUE <<  USIC_CH_BRG_DCTQ_Pos) | \
 662              		.loc 1 470 0
 663 007c 7B69     		ldr	r3, [r7, #20]
 664 007e 5A69     		ldr	r2, [r3, #20]
 471:../Dave/Generated/src/I2C001/I2C001.c ****       (((uint32_t)Brg_PDivValue  <<  USIC_CH_BRG_PDIV_Pos) & \
 665              		.loc 1 471 0
 666 0080 FB68     		ldr	r3, [r7, #12]
 667 0082 4FEA0341 		lsl	r1, r3, #16
 668 0086 4FF00003 		mov	r3, #0
 669 008a C0F2FF33 		movt	r3, 1023
 670 008e 0B40     		ands	r3, r3, r1
 470:../Dave/Generated/src/I2C001/I2C001.c ****      I2CRegs->BRG |= ((I2C_DCTQ1_VALUE <<  USIC_CH_BRG_DCTQ_Pos) | \
 671              		.loc 1 470 0
 672 0090 1343     		orrs	r3, r3, r2
 673 0092 43F41052 		orr	r2, r3, #9216
 674 0096 7B69     		ldr	r3, [r7, #20]
 675 0098 5A61     		str	r2, [r3, #20]
 676 009a 0EE0     		b	.L40
 677              	.L39:
 472:../Dave/Generated/src/I2C001/I2C001.c ****        USIC_CH_BRG_PDIV_Msk)); 
 473:../Dave/Generated/src/I2C001/I2C001.c ****   }
 474:../Dave/Generated/src/I2C001/I2C001.c ****   else
 475:../Dave/Generated/src/I2C001/I2C001.c ****   {
 476:../Dave/Generated/src/I2C001/I2C001.c ****      /* The PreDivider for CTQ, PCTQ = 0  */
 477:../Dave/Generated/src/I2C001/I2C001.c ****      /* The Denominator for CTQ, DCTQ = 24 */
 478:../Dave/Generated/src/I2C001/I2C001.c ****      I2CRegs->BRG |= ((I2C_DCTQ2_VALUE <<  USIC_CH_BRG_DCTQ_Pos) | \
 678              		.loc 1 478 0
 679 009c 7B69     		ldr	r3, [r7, #20]
 680 009e 5A69     		ldr	r2, [r3, #20]
 479:../Dave/Generated/src/I2C001/I2C001.c ****       (((uint32_t)Brg_PDivValue  <<  USIC_CH_BRG_PDIV_Pos) & \
 681              		.loc 1 479 0
 682 00a0 FB68     		ldr	r3, [r7, #12]
 683 00a2 4FEA0341 		lsl	r1, r3, #16
 684 00a6 4FF00003 		mov	r3, #0
 685 00aa C0F2FF33 		movt	r3, 1023
 686 00ae 0B40     		ands	r3, r3, r1
 478:../Dave/Generated/src/I2C001/I2C001.c ****      I2CRegs->BRG |= ((I2C_DCTQ2_VALUE <<  USIC_CH_BRG_DCTQ_Pos) | \
 687              		.loc 1 478 0
 688 00b0 1343     		orrs	r3, r3, r2
 689 00b2 43F4C042 		orr	r2, r3, #24576
 690 00b6 7B69     		ldr	r3, [r7, #20]
 691 00b8 5A61     		str	r2, [r3, #20]
 692              	.L40:
 480:../Dave/Generated/src/I2C001/I2C001.c ****         USIC_CH_BRG_PDIV_Msk));
 481:../Dave/Generated/src/I2C001/I2C001.c ****   }
 482:../Dave/Generated/src/I2C001/I2C001.c ****       	 
 483:../Dave/Generated/src/I2C001/I2C001.c ****   I2CRegs->PCR_IICMode &= ~(USIC_CH_PCR_IICMode_STIM_Msk);    
 693              		.loc 1 483 0
 694 00ba 7B69     		ldr	r3, [r7, #20]
 695 00bc DB6B     		ldr	r3, [r3, #60]
 696 00be 23F40032 		bic	r2, r3, #131072
 697 00c2 7B69     		ldr	r3, [r7, #20]
 698 00c4 DA63     		str	r2, [r3, #60]
 484:../Dave/Generated/src/I2C001/I2C001.c ****   /* Configuration of Protocol Control Register */ 
 485:../Dave/Generated/src/I2C001/I2C001.c ****   if(BitRate <= I2C001_BITRATE)
 699              		.loc 1 485 0
 700 00c6 3B68     		ldr	r3, [r7, #0]
 701 00c8 642B     		cmp	r3, #100
 702 00ca 04D8     		bhi	.L41
 486:../Dave/Generated/src/I2C001/I2C001.c ****   {
 487:../Dave/Generated/src/I2C001/I2C001.c ****      /* Symbol timing = 10 time quanta */
 488:../Dave/Generated/src/I2C001/I2C001.c ****      I2CRegs->PCR_IICMode |= \
 703              		.loc 1 488 0
 704 00cc 7B69     		ldr	r3, [r7, #20]
 705 00ce DA6B     		ldr	r2, [r3, #60]
 706 00d0 7B69     		ldr	r3, [r7, #20]
 707 00d2 DA63     		str	r2, [r3, #60]
 708 00d4 05E0     		b	.L42
 709              	.L41:
 489:../Dave/Generated/src/I2C001/I2C001.c ****               (((((uint32_t)0x0 << USIC_CH_PCR_IICMode_STIM_Pos)) & \
 490:../Dave/Generated/src/I2C001/I2C001.c ****                                             USIC_CH_PCR_IICMode_STIM_Msk)); 
 491:../Dave/Generated/src/I2C001/I2C001.c ****   }
 492:../Dave/Generated/src/I2C001/I2C001.c ****   else
 493:../Dave/Generated/src/I2C001/I2C001.c ****   {
 494:../Dave/Generated/src/I2C001/I2C001.c ****      /* Symbol timing = 25 time quanta */
 495:../Dave/Generated/src/I2C001/I2C001.c ****      I2CRegs->PCR_IICMode |= \
 710              		.loc 1 495 0
 711 00d6 7B69     		ldr	r3, [r7, #20]
 712 00d8 DB6B     		ldr	r3, [r3, #60]
 713 00da 43F40032 		orr	r2, r3, #131072
 714 00de 7B69     		ldr	r3, [r7, #20]
 715 00e0 DA63     		str	r2, [r3, #60]
 716              	.L42:
 496:../Dave/Generated/src/I2C001/I2C001.c ****                  (((((uint32_t)0x1 << USIC_CH_PCR_IICMode_STIM_Pos)) & \
 497:../Dave/Generated/src/I2C001/I2C001.c ****                                              USIC_CH_PCR_IICMode_STIM_Msk));  
 498:../Dave/Generated/src/I2C001/I2C001.c ****   }
 499:../Dave/Generated/src/I2C001/I2C001.c ****       	                            
 500:../Dave/Generated/src/I2C001/I2C001.c ****   Status = (status_t)DAVEApp_SUCCESS;
 717              		.loc 1 500 0
 718 00e2 4FF00003 		mov	r3, #0
 719 00e6 3B61     		str	r3, [r7, #16]
 501:../Dave/Generated/src/I2C001/I2C001.c ****   /* Enable I2C mode */
 502:../Dave/Generated/src/I2C001/I2C001.c ****   I2CRegs->CCR |= ((I2C_ENABLE) & USIC_CH_CCR_MODE_Msk);
 720              		.loc 1 502 0
 721 00e8 7B69     		ldr	r3, [r7, #20]
 722 00ea 1B6C     		ldr	r3, [r3, #64]
 723 00ec 43F00402 		orr	r2, r3, #4
 724 00f0 7B69     		ldr	r3, [r7, #20]
 725 00f2 1A64     		str	r2, [r3, #64]
 503:../Dave/Generated/src/I2C001/I2C001.c ****   
 504:../Dave/Generated/src/I2C001/I2C001.c ****   return Status;
 726              		.loc 1 504 0
 727 00f4 3B69     		ldr	r3, [r7, #16]
 505:../Dave/Generated/src/I2C001/I2C001.c **** }
 728              		.loc 1 505 0
 729 00f6 1846     		mov	r0, r3
 730 00f8 07F11807 		add	r7, r7, #24
 731 00fc BD46     		mov	sp, r7
 732 00fe 80BD     		pop	{r7, pc}
 733              		.cfi_endproc
 734              	.LFE124:
 736              		.section	.text.I2C001_ReadData,"ax",%progbits
 737              		.align	2
 738              		.global	I2C001_ReadData
 739              		.thumb
 740              		.thumb_func
 742              	I2C001_ReadData:
 743              	.LFB125:
 506:../Dave/Generated/src/I2C001/I2C001.c **** 
 507:../Dave/Generated/src/I2C001/I2C001.c **** 
 508:../Dave/Generated/src/I2C001/I2C001.c **** /* This function reads out  the content of the USIC receive FIFO Buffer. 
 509:../Dave/Generated/src/I2C001/I2C001.c ****  * Returns true in case FIFO is not empty.else  otherwise.
 510:../Dave/Generated/src/I2C001/I2C001.c ****  *
 511:../Dave/Generated/src/I2C001/I2C001.c ****  */
 512:../Dave/Generated/src/I2C001/I2C001.c **** bool I2C001_ReadData(const I2C001Handle_type* I2CHandle, uint16_t* buffer)
 513:../Dave/Generated/src/I2C001/I2C001.c **** { 
 744              		.loc 1 513 0
 745              		.cfi_startproc
 746              		@ args = 0, pretend = 0, frame = 16
 747              		@ frame_needed = 1, uses_anonymous_args = 0
 748              		@ link register save eliminated.
 749 0000 80B4     		push	{r7}
 750              	.LCFI13:
 751              		.cfi_def_cfa_offset 4
 752              		.cfi_offset 7, -4
 753 0002 85B0     		sub	sp, sp, #20
 754              	.LCFI14:
 755              		.cfi_def_cfa_offset 24
 756 0004 00AF     		add	r7, sp, #0
 757              	.LCFI15:
 758              		.cfi_def_cfa_register 7
 759 0006 7860     		str	r0, [r7, #4]
 760 0008 3960     		str	r1, [r7, #0]
 514:../Dave/Generated/src/I2C001/I2C001.c ****   bool Result = (bool)FALSE;
 761              		.loc 1 514 0
 762 000a 4FF00003 		mov	r3, #0
 763 000e FB73     		strb	r3, [r7, #15]
 515:../Dave/Generated/src/I2C001/I2C001.c ****   USIC_CH_TypeDef* I2CRegs = I2CHandle->I2CRegs;
 764              		.loc 1 515 0
 765 0010 7B68     		ldr	r3, [r7, #4]
 766 0012 5B68     		ldr	r3, [r3, #4]
 767 0014 BB60     		str	r3, [r7, #8]
 516:../Dave/Generated/src/I2C001/I2C001.c ****   
 517:../Dave/Generated/src/I2C001/I2C001.c ****   /* <<<DD_I2C001_API_4>>>*/
 518:../Dave/Generated/src/I2C001/I2C001.c ****   if(USIC_ubIsRxFIFOempty(I2CRegs))
 768              		.loc 1 518 0
 769 0016 BB68     		ldr	r3, [r7, #8]
 770 0018 D3F81431 		ldr	r3, [r3, #276]
 771 001c 03F00803 		and	r3, r3, #8
 772 0020 4FEAD303 		lsr	r3, r3, #3
 773 0024 002B     		cmp	r3, #0
 774 0026 03D0     		beq	.L45
 519:../Dave/Generated/src/I2C001/I2C001.c ****   {
 520:../Dave/Generated/src/I2C001/I2C001.c ****     Result = (bool)FALSE;
 775              		.loc 1 520 0
 776 0028 4FF00003 		mov	r3, #0
 777 002c FB73     		strb	r3, [r7, #15]
 778 002e 09E0     		b	.L46
 779              	.L45:
 521:../Dave/Generated/src/I2C001/I2C001.c ****   }
 522:../Dave/Generated/src/I2C001/I2C001.c ****   else
 523:../Dave/Generated/src/I2C001/I2C001.c ****   {
 524:../Dave/Generated/src/I2C001/I2C001.c ****     *buffer = (uint8_t)I2CRegs->OUTR;
 780              		.loc 1 524 0
 781 0030 BB68     		ldr	r3, [r7, #8]
 782 0032 D3F81C31 		ldr	r3, [r3, #284]
 783 0036 DBB2     		uxtb	r3, r3
 784 0038 1A46     		mov	r2, r3
 785 003a 3B68     		ldr	r3, [r7, #0]
 786 003c 1A80     		strh	r2, [r3, #0]	@ movhi
 525:../Dave/Generated/src/I2C001/I2C001.c ****     Result = (bool)TRUE;
 787              		.loc 1 525 0
 788 003e 4FF00103 		mov	r3, #1
 789 0042 FB73     		strb	r3, [r7, #15]
 790              	.L46:
 526:../Dave/Generated/src/I2C001/I2C001.c ****   }
 527:../Dave/Generated/src/I2C001/I2C001.c ****   
 528:../Dave/Generated/src/I2C001/I2C001.c ****   return Result;
 791              		.loc 1 528 0
 792 0044 FB7B     		ldrb	r3, [r7, #15]	@ zero_extendqisi2
 529:../Dave/Generated/src/I2C001/I2C001.c **** }
 793              		.loc 1 529 0
 794 0046 1846     		mov	r0, r3
 795 0048 07F11407 		add	r7, r7, #20
 796 004c BD46     		mov	sp, r7
 797 004e 80BC     		pop	{r7}
 798 0050 7047     		bx	lr
 799              		.cfi_endproc
 800              	.LFE125:
 802 0052 00BF     		.section	.text.I2C001_WriteData,"ax",%progbits
 803              		.align	2
 804              		.global	I2C001_WriteData
 805              		.thumb
 806              		.thumb_func
 808              	I2C001_WriteData:
 809              	.LFB126:
 530:../Dave/Generated/src/I2C001/I2C001.c **** 
 531:../Dave/Generated/src/I2C001/I2C001.c **** /* This function writes out a word to the USIC FIFO transmit buffer register.
 532:../Dave/Generated/src/I2C001/I2C001.c ****  * Returns true in case if the FIFO is not full else otherwise.
 533:../Dave/Generated/src/I2C001/I2C001.c ****  *
 534:../Dave/Generated/src/I2C001/I2C001.c ****  */
 535:../Dave/Generated/src/I2C001/I2C001.c **** bool I2C001_WriteData \
 536:../Dave/Generated/src/I2C001/I2C001.c ****                    (const I2C001Handle_type* I2CHandle,const I2C001_DataType* Data)
 537:../Dave/Generated/src/I2C001/I2C001.c **** {
 810              		.loc 1 537 0
 811              		.cfi_startproc
 812              		@ args = 0, pretend = 0, frame = 16
 813              		@ frame_needed = 1, uses_anonymous_args = 0
 814              		@ link register save eliminated.
 815 0000 80B4     		push	{r7}
 816              	.LCFI16:
 817              		.cfi_def_cfa_offset 4
 818              		.cfi_offset 7, -4
 819 0002 85B0     		sub	sp, sp, #20
 820              	.LCFI17:
 821              		.cfi_def_cfa_offset 24
 822 0004 00AF     		add	r7, sp, #0
 823              	.LCFI18:
 824              		.cfi_def_cfa_register 7
 825 0006 7860     		str	r0, [r7, #4]
 826 0008 3960     		str	r1, [r7, #0]
 538:../Dave/Generated/src/I2C001/I2C001.c ****   bool Result = (bool)FALSE;
 827              		.loc 1 538 0
 828 000a 4FF00003 		mov	r3, #0
 829 000e FB73     		strb	r3, [r7, #15]
 539:../Dave/Generated/src/I2C001/I2C001.c ****   USIC_CH_TypeDef* I2CRegs = I2CHandle->I2CRegs;
 830              		.loc 1 539 0
 831 0010 7B68     		ldr	r3, [r7, #4]
 832 0012 5B68     		ldr	r3, [r3, #4]
 833 0014 BB60     		str	r3, [r7, #8]
 540:../Dave/Generated/src/I2C001/I2C001.c ****   
 541:../Dave/Generated/src/I2C001/I2C001.c ****   /* <<<DD_I2C001_API_5>>>*/
 542:../Dave/Generated/src/I2C001/I2C001.c ****   do
 543:../Dave/Generated/src/I2C001/I2C001.c ****   {
 544:../Dave/Generated/src/I2C001/I2C001.c ****      if(I2CRegs->PSR_IICMode & USIC_CH_PSR_IICMode_WTDF_Msk)
 834              		.loc 1 544 0
 835 0016 BB68     		ldr	r3, [r7, #8]
 836 0018 9B6C     		ldr	r3, [r3, #72]
 837 001a 03F00203 		and	r3, r3, #2
 838 001e 002B     		cmp	r3, #0
 839 0020 03D0     		beq	.L49
 545:../Dave/Generated/src/I2C001/I2C001.c ****      {
 546:../Dave/Generated/src/I2C001/I2C001.c **** 	     Result = (bool)FALSE;
 840              		.loc 1 546 0
 841 0022 4FF00003 		mov	r3, #0
 842 0026 FB73     		strb	r3, [r7, #15]
 547:../Dave/Generated/src/I2C001/I2C001.c ****        break;
 843              		.loc 1 547 0
 844 0028 19E0     		b	.L50
 845              	.L49:
 548:../Dave/Generated/src/I2C001/I2C001.c ****      }
 549:../Dave/Generated/src/I2C001/I2C001.c **** 
 550:../Dave/Generated/src/I2C001/I2C001.c ****      if(USIC_IsTxFIFOfull(I2CRegs))
 846              		.loc 1 550 0
 847 002a BB68     		ldr	r3, [r7, #8]
 848 002c D3F81431 		ldr	r3, [r3, #276]
 849 0030 03F48053 		and	r3, r3, #4096
 850 0034 4FEA1333 		lsr	r3, r3, #12
 851 0038 002B     		cmp	r3, #0
 852 003a 03D0     		beq	.L51
 551:../Dave/Generated/src/I2C001/I2C001.c ****      {
 552:../Dave/Generated/src/I2C001/I2C001.c ****        Result = (bool)FALSE;
 853              		.loc 1 552 0
 854 003c 4FF00003 		mov	r3, #0
 855 0040 FB73     		strb	r3, [r7, #15]
 856 0042 0CE0     		b	.L50
 857              	.L51:
 553:../Dave/Generated/src/I2C001/I2C001.c ****      }
 554:../Dave/Generated/src/I2C001/I2C001.c **** 
 555:../Dave/Generated/src/I2C001/I2C001.c ****      else
 556:../Dave/Generated/src/I2C001/I2C001.c ****      {
 557:../Dave/Generated/src/I2C001/I2C001.c ****        I2CRegs->IN[0] = \
 558:../Dave/Generated/src/I2C001/I2C001.c ****                     (((uint32_t)Data->Data1.TDF_Type << 8) | Data->Data1.Data);
 858              		.loc 1 558 0
 859 0044 3B68     		ldr	r3, [r7, #0]
 860 0046 5B78     		ldrb	r3, [r3, #1]	@ zero_extendqisi2
 861 0048 4FEA0322 		lsl	r2, r3, #8
 862 004c 3B68     		ldr	r3, [r7, #0]
 863 004e 1B78     		ldrb	r3, [r3, #0]	@ zero_extendqisi2
 864 0050 1A43     		orrs	r2, r2, r3
 557:../Dave/Generated/src/I2C001/I2C001.c ****        I2CRegs->IN[0] = \
 865              		.loc 1 557 0
 866 0052 BB68     		ldr	r3, [r7, #8]
 867 0054 C3F88021 		str	r2, [r3, #384]
 559:../Dave/Generated/src/I2C001/I2C001.c ****        Result = (bool)TRUE;     
 868              		.loc 1 559 0
 869 0058 4FF00103 		mov	r3, #1
 870 005c FB73     		strb	r3, [r7, #15]
 871              	.L50:
 560:../Dave/Generated/src/I2C001/I2C001.c ****      }
 561:../Dave/Generated/src/I2C001/I2C001.c ****   
 562:../Dave/Generated/src/I2C001/I2C001.c ****   }while(0);
 563:../Dave/Generated/src/I2C001/I2C001.c ****   return Result;
 872              		.loc 1 563 0
 873 005e FB7B     		ldrb	r3, [r7, #15]	@ zero_extendqisi2
 564:../Dave/Generated/src/I2C001/I2C001.c **** 
 565:../Dave/Generated/src/I2C001/I2C001.c **** }
 874              		.loc 1 565 0
 875 0060 1846     		mov	r0, r3
 876 0062 07F11407 		add	r7, r7, #20
 877 0066 BD46     		mov	sp, r7
 878 0068 80BC     		pop	{r7}
 879 006a 7047     		bx	lr
 880              		.cfi_endproc
 881              	.LFE126:
 883              		.section	.text.I2C001_GetFlagStatus,"ax",%progbits
 884              		.align	2
 885              		.global	I2C001_GetFlagStatus
 886              		.thumb
 887              		.thumb_func
 889              	I2C001_GetFlagStatus:
 890              	.LFB127:
 566:../Dave/Generated/src/I2C001/I2C001.c **** /* Checks the specified Flag status bit.
 567:../Dave/Generated/src/I2C001/I2C001.c ****  * The function is used to get the flag status.
 568:../Dave/Generated/src/I2C001/I2C001.c ****  * It returns I2C_SET if the corresponding flag is set else otherwise.
 569:../Dave/Generated/src/I2C001/I2C001.c ****  *
 570:../Dave/Generated/src/I2C001/I2C001.c ****  * */
 571:../Dave/Generated/src/I2C001/I2C001.c **** 
 572:../Dave/Generated/src/I2C001/I2C001.c **** status_t I2C001_GetFlagStatus \
 573:../Dave/Generated/src/I2C001/I2C001.c ****                (const I2C001Handle_type* I2CHandle,I2C001_FlagStatusType Flag)
 574:../Dave/Generated/src/I2C001/I2C001.c **** {
 891              		.loc 1 574 0
 892              		.cfi_startproc
 893              		@ args = 0, pretend = 0, frame = 24
 894              		@ frame_needed = 1, uses_anonymous_args = 0
 895              		@ link register save eliminated.
 896 0000 80B4     		push	{r7}
 897              	.LCFI19:
 898              		.cfi_def_cfa_offset 4
 899              		.cfi_offset 7, -4
 900 0002 87B0     		sub	sp, sp, #28
 901              	.LCFI20:
 902              		.cfi_def_cfa_offset 32
 903 0004 00AF     		add	r7, sp, #0
 904              	.LCFI21:
 905              		.cfi_def_cfa_register 7
 906 0006 7860     		str	r0, [r7, #4]
 907 0008 0B46     		mov	r3, r1
 908 000a FB70     		strb	r3, [r7, #3]
 575:../Dave/Generated/src/I2C001/I2C001.c ****   status_t Status = (status_t)I2C001_RESET;
 909              		.loc 1 575 0
 910 000c 4FF00203 		mov	r3, #2
 911 0010 7B61     		str	r3, [r7, #20]
 576:../Dave/Generated/src/I2C001/I2C001.c ****   uint32_t TempValue = 0x00U;
 912              		.loc 1 576 0
 913 0012 4FF00003 		mov	r3, #0
 914 0016 3B61     		str	r3, [r7, #16]
 577:../Dave/Generated/src/I2C001/I2C001.c ****   USIC_CH_TypeDef* I2CRegs = I2CHandle->I2CRegs;
 915              		.loc 1 577 0
 916 0018 7B68     		ldr	r3, [r7, #4]
 917 001a 5B68     		ldr	r3, [r3, #4]
 918 001c FB60     		str	r3, [r7, #12]
 578:../Dave/Generated/src/I2C001/I2C001.c ****   
 579:../Dave/Generated/src/I2C001/I2C001.c ****   /* <<<DD_I2C001_API_6>>>*/
 580:../Dave/Generated/src/I2C001/I2C001.c ****   if(Flag <= I2C001_FLAG_RIF)
 919              		.loc 1 580 0
 920 001e FB78     		ldrb	r3, [r7, #3]	@ zero_extendqisi2
 921 0020 042B     		cmp	r3, #4
 922 0022 0DD8     		bhi	.L54
 581:../Dave/Generated/src/I2C001/I2C001.c ****   {
 582:../Dave/Generated/src/I2C001/I2C001.c ****     TempValue = I2CRegs->PSR_IICMode;
 923              		.loc 1 582 0
 924 0024 FB68     		ldr	r3, [r7, #12]
 925 0026 9B6C     		ldr	r3, [r3, #72]
 926 0028 3B61     		str	r3, [r7, #16]
 583:../Dave/Generated/src/I2C001/I2C001.c ****     TempValue &= ((uint32_t)0x01 << ((uint32_t)Flag + 10U ));
 927              		.loc 1 583 0
 928 002a FB78     		ldrb	r3, [r7, #3]	@ zero_extendqisi2
 929 002c 03F10A03 		add	r3, r3, #10
 930 0030 4FF00102 		mov	r2, #1
 931 0034 02FA03F3 		lsl	r3, r2, r3
 932 0038 3A69     		ldr	r2, [r7, #16]
 933 003a 1340     		ands	r3, r3, r2
 934 003c 3B61     		str	r3, [r7, #16]
 935 003e 35E0     		b	.L55
 936              	.L54:
 584:../Dave/Generated/src/I2C001/I2C001.c ****   }
 585:../Dave/Generated/src/I2C001/I2C001.c ****   else if(Flag == I2C001_FLAG_NACK_RECEIVED)
 937              		.loc 1 585 0
 938 0040 FB78     		ldrb	r3, [r7, #3]	@ zero_extendqisi2
 939 0042 062B     		cmp	r3, #6
 940 0044 07D1     		bne	.L56
 586:../Dave/Generated/src/I2C001/I2C001.c ****   {
 587:../Dave/Generated/src/I2C001/I2C001.c ****     TempValue = I2CRegs->PSR_IICMode;
 941              		.loc 1 587 0
 942 0046 FB68     		ldr	r3, [r7, #12]
 943 0048 9B6C     		ldr	r3, [r3, #72]
 944 004a 3B61     		str	r3, [r7, #16]
 588:../Dave/Generated/src/I2C001/I2C001.c ****     TempValue &= ((uint32_t)0x01 << (uint32_t)I2C001_FLAG_WRONG_TDF);
 945              		.loc 1 588 0
 946 004c 3B69     		ldr	r3, [r7, #16]
 947 004e 03F02003 		and	r3, r3, #32
 948 0052 3B61     		str	r3, [r7, #16]
 949 0054 2AE0     		b	.L55
 950              	.L56:
 589:../Dave/Generated/src/I2C001/I2C001.c ****   }
 590:../Dave/Generated/src/I2C001/I2C001.c ****   else if(Flag == I2C001_FLAG_WRONG_TDF)
 951              		.loc 1 590 0
 952 0056 FB78     		ldrb	r3, [r7, #3]	@ zero_extendqisi2
 953 0058 052B     		cmp	r3, #5
 954 005a 07D1     		bne	.L57
 591:../Dave/Generated/src/I2C001/I2C001.c ****   {
 592:../Dave/Generated/src/I2C001/I2C001.c ****     TempValue = I2CRegs->PSR_IICMode;
 955              		.loc 1 592 0
 956 005c FB68     		ldr	r3, [r7, #12]
 957 005e 9B6C     		ldr	r3, [r3, #72]
 958 0060 3B61     		str	r3, [r7, #16]
 593:../Dave/Generated/src/I2C001/I2C001.c ****     TempValue &= ((uint32_t)0x01 << (uint32_t)I2C001_FLAG_DLIF);	
 959              		.loc 1 593 0
 960 0062 3B69     		ldr	r3, [r7, #16]
 961 0064 03F00203 		and	r3, r3, #2
 962 0068 3B61     		str	r3, [r7, #16]
 963 006a 1FE0     		b	.L55
 964              	.L57:
 594:../Dave/Generated/src/I2C001/I2C001.c ****   }
 595:../Dave/Generated/src/I2C001/I2C001.c ****   else if(Flag <= I2C001_FLAG_RBERI)
 965              		.loc 1 595 0
 966 006c FB78     		ldrb	r3, [r7, #3]	@ zero_extendqisi2
 967 006e 082B     		cmp	r3, #8
 968 0070 0ED8     		bhi	.L58
 596:../Dave/Generated/src/I2C001/I2C001.c ****   {
 597:../Dave/Generated/src/I2C001/I2C001.c ****     TempValue = I2CRegs->TRBSR;
 969              		.loc 1 597 0
 970 0072 FB68     		ldr	r3, [r7, #12]
 971 0074 D3F81431 		ldr	r3, [r3, #276]
 972 0078 3B61     		str	r3, [r7, #16]
 598:../Dave/Generated/src/I2C001/I2C001.c ****     TempValue &= ((uint32_t)0x01 << ((uint32_t)Flag - \
 973              		.loc 1 598 0
 974 007a FB78     		ldrb	r3, [r7, #3]	@ zero_extendqisi2
 975 007c A3F10703 		sub	r3, r3, #7
 976 0080 4FF00102 		mov	r2, #1
 977 0084 02FA03F3 		lsl	r3, r2, r3
 978 0088 3A69     		ldr	r2, [r7, #16]
 979 008a 1340     		ands	r3, r3, r2
 980 008c 3B61     		str	r3, [r7, #16]
 981 008e 0DE0     		b	.L55
 982              	.L58:
 599:../Dave/Generated/src/I2C001/I2C001.c ****                                                (uint32_t)I2C001_FLAG_SRBI));		
 600:../Dave/Generated/src/I2C001/I2C001.c ****   }
 601:../Dave/Generated/src/I2C001/I2C001.c ****   else
 602:../Dave/Generated/src/I2C001/I2C001.c ****   {
 603:../Dave/Generated/src/I2C001/I2C001.c ****     TempValue = I2CRegs->TRBSR;
 983              		.loc 1 603 0
 984 0090 FB68     		ldr	r3, [r7, #12]
 985 0092 D3F81431 		ldr	r3, [r3, #276]
 986 0096 3B61     		str	r3, [r7, #16]
 604:../Dave/Generated/src/I2C001/I2C001.c ****     TempValue &= ((uint32_t)0x01 << (((uint32_t)Flag - \
 987              		.loc 1 604 0
 988 0098 FB78     		ldrb	r3, [r7, #3]	@ zero_extendqisi2
 605:../Dave/Generated/src/I2C001/I2C001.c ****                                   (uint32_t)I2C001_FLAG_STBI) + 8U));		
 989              		.loc 1 605 0
 990 009a 03F1FF33 		add	r3, r3, #-1
 604:../Dave/Generated/src/I2C001/I2C001.c ****     TempValue &= ((uint32_t)0x01 << (((uint32_t)Flag - \
 991              		.loc 1 604 0
 992 009e 4FF00102 		mov	r2, #1
 993 00a2 02FA03F3 		lsl	r3, r2, r3
 994 00a6 3A69     		ldr	r2, [r7, #16]
 995 00a8 1340     		ands	r3, r3, r2
 996 00aa 3B61     		str	r3, [r7, #16]
 997              	.L55:
 606:../Dave/Generated/src/I2C001/I2C001.c ****   }
 607:../Dave/Generated/src/I2C001/I2C001.c ****   if(TempValue != 0x00U)
 998              		.loc 1 607 0
 999 00ac 3B69     		ldr	r3, [r7, #16]
 1000 00ae 002B     		cmp	r3, #0
 1001 00b0 02D0     		beq	.L59
 608:../Dave/Generated/src/I2C001/I2C001.c ****   {
 609:../Dave/Generated/src/I2C001/I2C001.c ****     Status = (status_t)I2C001_SET;
 1002              		.loc 1 609 0
 1003 00b2 4FF00303 		mov	r3, #3
 1004 00b6 7B61     		str	r3, [r7, #20]
 1005              	.L59:
 610:../Dave/Generated/src/I2C001/I2C001.c ****   }
 611:../Dave/Generated/src/I2C001/I2C001.c ****   return Status;
 1006              		.loc 1 611 0
 1007 00b8 7B69     		ldr	r3, [r7, #20]
 612:../Dave/Generated/src/I2C001/I2C001.c **** }
 1008              		.loc 1 612 0
 1009 00ba 1846     		mov	r0, r3
 1010 00bc 07F11C07 		add	r7, r7, #28
 1011 00c0 BD46     		mov	sp, r7
 1012 00c2 80BC     		pop	{r7}
 1013 00c4 7047     		bx	lr
 1014              		.cfi_endproc
 1015              	.LFE127:
 1017 00c6 00BF     		.section	.text.I2C001_ClearFlag,"ax",%progbits
 1018              		.align	2
 1019              		.global	I2C001_ClearFlag
 1020              		.thumb
 1021              		.thumb_func
 1023              	I2C001_ClearFlag:
 1024              	.LFB128:
 613:../Dave/Generated/src/I2C001/I2C001.c **** 
 614:../Dave/Generated/src/I2C001/I2C001.c **** /* Clears the specified flag status.*/
 615:../Dave/Generated/src/I2C001/I2C001.c **** void I2C001_ClearFlag\
 616:../Dave/Generated/src/I2C001/I2C001.c ****                 (const I2C001Handle_type* I2CHandle,I2C001_FlagStatusType Flag)
 617:../Dave/Generated/src/I2C001/I2C001.c **** {
 1025              		.loc 1 617 0
 1026              		.cfi_startproc
 1027              		@ args = 0, pretend = 0, frame = 16
 1028              		@ frame_needed = 1, uses_anonymous_args = 0
 1029              		@ link register save eliminated.
 1030 0000 80B4     		push	{r7}
 1031              	.LCFI22:
 1032              		.cfi_def_cfa_offset 4
 1033              		.cfi_offset 7, -4
 1034 0002 85B0     		sub	sp, sp, #20
 1035              	.LCFI23:
 1036              		.cfi_def_cfa_offset 24
 1037 0004 00AF     		add	r7, sp, #0
 1038              	.LCFI24:
 1039              		.cfi_def_cfa_register 7
 1040 0006 7860     		str	r0, [r7, #4]
 1041 0008 0B46     		mov	r3, r1
 1042 000a FB70     		strb	r3, [r7, #3]
 618:../Dave/Generated/src/I2C001/I2C001.c ****   USIC_CH_TypeDef* I2CRegs = I2CHandle->I2CRegs;
 1043              		.loc 1 618 0
 1044 000c 7B68     		ldr	r3, [r7, #4]
 1045 000e 5B68     		ldr	r3, [r3, #4]
 1046 0010 FB60     		str	r3, [r7, #12]
 619:../Dave/Generated/src/I2C001/I2C001.c **** 
 620:../Dave/Generated/src/I2C001/I2C001.c ****   /* <<<DD_SIMPLE_I2C_API_7>>>*/
 621:../Dave/Generated/src/I2C001/I2C001.c ****   if(Flag <= I2C001_FLAG_RIF)
 1047              		.loc 1 621 0
 1048 0012 FB78     		ldrb	r3, [r7, #3]	@ zero_extendqisi2
 1049 0014 042B     		cmp	r3, #4
 1050 0016 09D8     		bhi	.L62
 622:../Dave/Generated/src/I2C001/I2C001.c ****   {
 623:../Dave/Generated/src/I2C001/I2C001.c ****     I2CRegs->PSCR = ((uint32_t)0x01 << (((uint32_t)Flag - \
 1051              		.loc 1 623 0
 1052 0018 FB78     		ldrb	r3, [r7, #3]	@ zero_extendqisi2
 624:../Dave/Generated/src/I2C001/I2C001.c ****                                   (uint32_t)I2C001_FLAG_RSIF) + 10U));
 1053              		.loc 1 624 0
 1054 001a 03F10A03 		add	r3, r3, #10
 623:../Dave/Generated/src/I2C001/I2C001.c ****     I2CRegs->PSCR = ((uint32_t)0x01 << (((uint32_t)Flag - \
 1055              		.loc 1 623 0
 1056 001e 4FF00102 		mov	r2, #1
 1057 0022 02FA03F2 		lsl	r2, r2, r3
 1058 0026 FB68     		ldr	r3, [r7, #12]
 1059 0028 DA64     		str	r2, [r3, #76]
 1060 002a 25E0     		b	.L61
 1061              	.L62:
 625:../Dave/Generated/src/I2C001/I2C001.c ****   }
 626:../Dave/Generated/src/I2C001/I2C001.c ****   else if(Flag == I2C001_FLAG_NACK_RECEIVED)
 1062              		.loc 1 626 0
 1063 002c FB78     		ldrb	r3, [r7, #3]	@ zero_extendqisi2
 1064 002e 062B     		cmp	r3, #6
 1065 0030 04D1     		bne	.L64
 627:../Dave/Generated/src/I2C001/I2C001.c ****   {
 628:../Dave/Generated/src/I2C001/I2C001.c ****     I2CRegs->PSCR = ((uint32_t)0x01 << (uint32_t)I2C001_FLAG_WRONG_TDF);
 1066              		.loc 1 628 0
 1067 0032 FB68     		ldr	r3, [r7, #12]
 1068 0034 4FF02002 		mov	r2, #32
 1069 0038 DA64     		str	r2, [r3, #76]
 1070 003a 1DE0     		b	.L61
 1071              	.L64:
 629:../Dave/Generated/src/I2C001/I2C001.c ****   }
 630:../Dave/Generated/src/I2C001/I2C001.c ****   else if(Flag == I2C001_FLAG_WRONG_TDF)
 1072              		.loc 1 630 0
 1073 003c FB78     		ldrb	r3, [r7, #3]	@ zero_extendqisi2
 1074 003e 052B     		cmp	r3, #5
 1075 0040 04D1     		bne	.L65
 631:../Dave/Generated/src/I2C001/I2C001.c ****   {
 632:../Dave/Generated/src/I2C001/I2C001.c ****     I2CRegs->PSCR = ((uint32_t)0x01 << (uint32_t)I2C001_FLAG_DLIF);	
 1076              		.loc 1 632 0
 1077 0042 FB68     		ldr	r3, [r7, #12]
 1078 0044 4FF00202 		mov	r2, #2
 1079 0048 DA64     		str	r2, [r3, #76]
 1080 004a 15E0     		b	.L61
 1081              	.L65:
 633:../Dave/Generated/src/I2C001/I2C001.c ****   }
 634:../Dave/Generated/src/I2C001/I2C001.c ****   else if(Flag <= I2C001_FLAG_RBERI)
 1082              		.loc 1 634 0
 1083 004c FB78     		ldrb	r3, [r7, #3]	@ zero_extendqisi2
 1084 004e 082B     		cmp	r3, #8
 1085 0050 09D8     		bhi	.L66
 635:../Dave/Generated/src/I2C001/I2C001.c ****   {
 636:../Dave/Generated/src/I2C001/I2C001.c ****     I2CRegs->PSCR = ((uint32_t)0x01 << ((uint32_t)Flag - \
 1086              		.loc 1 636 0
 1087 0052 FB78     		ldrb	r3, [r7, #3]	@ zero_extendqisi2
 1088 0054 A3F10703 		sub	r3, r3, #7
 1089 0058 4FF00102 		mov	r2, #1
 1090 005c 02FA03F2 		lsl	r2, r2, r3
 1091 0060 FB68     		ldr	r3, [r7, #12]
 1092 0062 DA64     		str	r2, [r3, #76]
 1093 0064 08E0     		b	.L61
 1094              	.L66:
 637:../Dave/Generated/src/I2C001/I2C001.c ****                                         (uint32_t)I2C001_FLAG_SRBI));		
 638:../Dave/Generated/src/I2C001/I2C001.c ****   }
 639:../Dave/Generated/src/I2C001/I2C001.c ****   else
 640:../Dave/Generated/src/I2C001/I2C001.c ****   {
 641:../Dave/Generated/src/I2C001/I2C001.c ****     I2CRegs->PSCR = ((uint32_t)0x01 << (((uint32_t)Flag - \
 1095              		.loc 1 641 0
 1096 0066 FB78     		ldrb	r3, [r7, #3]	@ zero_extendqisi2
 642:../Dave/Generated/src/I2C001/I2C001.c ****                                           (uint32_t)I2C001_FLAG_STBI) + 8U));
 1097              		.loc 1 642 0
 1098 0068 03F1FF33 		add	r3, r3, #-1
 641:../Dave/Generated/src/I2C001/I2C001.c ****     I2CRegs->PSCR = ((uint32_t)0x01 << (((uint32_t)Flag - \
 1099              		.loc 1 641 0
 1100 006c 4FF00102 		mov	r2, #1
 1101 0070 02FA03F2 		lsl	r2, r2, r3
 1102 0074 FB68     		ldr	r3, [r7, #12]
 1103 0076 DA64     		str	r2, [r3, #76]
 1104              	.L61:
 643:../Dave/Generated/src/I2C001/I2C001.c ****   }
 644:../Dave/Generated/src/I2C001/I2C001.c **** }
 1105              		.loc 1 644 0
 1106 0078 07F11407 		add	r7, r7, #20
 1107 007c BD46     		mov	sp, r7
 1108 007e 80BC     		pop	{r7}
 1109 0080 7047     		bx	lr
 1110              		.cfi_endproc
 1111              	.LFE128:
 1113 0082 00BF     		.text
 1114              	.Letext0:
 1115              		.file 2 "c:\\dave-3.1.10\\arm-gcc\\bin\\../lib/gcc/arm-none-eabi/4.7.4/../../../../arm-none-eabi/i
 1116              		.file 3 "C:\\DAVE-3.1.10\\eclipse\\/../CMSIS/Infineon/XMC4500_series/Include/XMC4500.h"
 1117              		.file 4 "C:\\DAVE_WorkSpace\\20\\CORE_Larix_V1.0\\Dave\\Generated\\inc\\DAVESupport/../../inc/LIBS
 1118              		.file 5 "C:\\DAVE_WorkSpace\\20\\CORE_Larix_V1.0\\Dave\\Generated\\inc\\DAVESupport/../../inc/RESE
 1119              		.file 6 "C:\\DAVE_WorkSpace\\20\\CORE_Larix_V1.0\\Dave\\Generated\\inc\\DAVESupport/../../inc/UART
 1120              		.file 7 "C:\\DAVE_WorkSpace\\20\\CORE_Larix_V1.0\\Dave\\Generated\\inc\\DAVESupport/../../inc/I2C0
 1121              		.file 8 "C:\\DAVE-3.1.10\\eclipse\\/../CMSIS/Include/core_cm4.h"
 1122              		.file 9 "C:\\DAVE_WorkSpace\\20\\CORE_Larix_V1.0\\Dave\\Generated\\inc\\DAVESupport/../../inc/I2C0