   1              		.syntax unified
   2              		.cpu cortex-m4
   3              		.eabi_attribute 27, 3
   4              		.fpu fpv4-sp-d16
   5              		.eabi_attribute 20, 1
   6              		.eabi_attribute 21, 1
   7              		.eabi_attribute 23, 3
   8              		.eabi_attribute 24, 1
   9              		.eabi_attribute 25, 1
  10              		.eabi_attribute 26, 1
  11              		.eabi_attribute 30, 6
  12              		.eabi_attribute 34, 1
  13              		.eabi_attribute 18, 4
  14              		.thumb
  15              		.file	"CDC.c"
  16              		.text
  17              	.Ltext0:
  18              		.cfi_sections	.debug_frame
  19              		.comm	LineEncodingRx,7,4
  20              		.section	.text.CDC_Device_ProcessControlRequest,"ax",%progbits
  21              		.align	2
  22              		.global	CDC_Device_ProcessControlRequest
  23              		.thumb
  24              		.thumb_func
  26              	CDC_Device_ProcessControlRequest:
  27              	.LFB3:
  28              		.file 1 "../Dave/Generated/src/USBCDC001/Drivers/USB/Class/Device/CDC.c"
   1:../Dave/Generated/src/USBCDC001/Drivers/USB/Class/Device/CDC.c **** /*
   2:../Dave/Generated/src/USBCDC001/Drivers/USB/Class/Device/CDC.c ****              LUFA Library
   3:../Dave/Generated/src/USBCDC001/Drivers/USB/Class/Device/CDC.c ****      Copyright (C) Dean Camera, 2011.
   4:../Dave/Generated/src/USBCDC001/Drivers/USB/Class/Device/CDC.c **** 
   5:../Dave/Generated/src/USBCDC001/Drivers/USB/Class/Device/CDC.c ****   dean [at] fourwalledcubicle [dot] com
   6:../Dave/Generated/src/USBCDC001/Drivers/USB/Class/Device/CDC.c ****            www.lufa-lib.org
   7:../Dave/Generated/src/USBCDC001/Drivers/USB/Class/Device/CDC.c **** */
   8:../Dave/Generated/src/USBCDC001/Drivers/USB/Class/Device/CDC.c **** 
   9:../Dave/Generated/src/USBCDC001/Drivers/USB/Class/Device/CDC.c **** /*
  10:../Dave/Generated/src/USBCDC001/Drivers/USB/Class/Device/CDC.c ****   Copyright 2011  Dean Camera (dean [at] fourwalledcubicle [dot] com)
  11:../Dave/Generated/src/USBCDC001/Drivers/USB/Class/Device/CDC.c **** 
  12:../Dave/Generated/src/USBCDC001/Drivers/USB/Class/Device/CDC.c ****   Permission to use, copy, modify, distribute, and sell this
  13:../Dave/Generated/src/USBCDC001/Drivers/USB/Class/Device/CDC.c ****   software and its documentation for any purpose is hereby granted
  14:../Dave/Generated/src/USBCDC001/Drivers/USB/Class/Device/CDC.c ****   without fee, provided that the above copyright notice appear in
  15:../Dave/Generated/src/USBCDC001/Drivers/USB/Class/Device/CDC.c ****   all copies and that both that the copyright notice and this
  16:../Dave/Generated/src/USBCDC001/Drivers/USB/Class/Device/CDC.c ****   permission notice and warranty disclaimer appear in supporting
  17:../Dave/Generated/src/USBCDC001/Drivers/USB/Class/Device/CDC.c ****   documentation, and that the name of the author not be used in
  18:../Dave/Generated/src/USBCDC001/Drivers/USB/Class/Device/CDC.c ****   advertising or publicity pertaining to distribution of the
  19:../Dave/Generated/src/USBCDC001/Drivers/USB/Class/Device/CDC.c ****   software without specific, written prior permission.
  20:../Dave/Generated/src/USBCDC001/Drivers/USB/Class/Device/CDC.c **** 
  21:../Dave/Generated/src/USBCDC001/Drivers/USB/Class/Device/CDC.c ****   The author disclaim all warranties with regard to this
  22:../Dave/Generated/src/USBCDC001/Drivers/USB/Class/Device/CDC.c ****   software, including all implied warranties of merchantability
  23:../Dave/Generated/src/USBCDC001/Drivers/USB/Class/Device/CDC.c ****   and fitness.  In no event shall the author be liable for any
  24:../Dave/Generated/src/USBCDC001/Drivers/USB/Class/Device/CDC.c ****   special, indirect or consequential damages or any damages
  25:../Dave/Generated/src/USBCDC001/Drivers/USB/Class/Device/CDC.c ****   whatsoever resulting from loss of use, data or profits, whether
  26:../Dave/Generated/src/USBCDC001/Drivers/USB/Class/Device/CDC.c ****   in an action of contract, negligence or other tortious action,
  27:../Dave/Generated/src/USBCDC001/Drivers/USB/Class/Device/CDC.c ****   arising out of or in connection with the use or performance of
  28:../Dave/Generated/src/USBCDC001/Drivers/USB/Class/Device/CDC.c ****   this software.
  29:../Dave/Generated/src/USBCDC001/Drivers/USB/Class/Device/CDC.c **** */
  30:../Dave/Generated/src/USBCDC001/Drivers/USB/Class/Device/CDC.c **** 
  31:../Dave/Generated/src/USBCDC001/Drivers/USB/Class/Device/CDC.c **** /*******************************************************************************
  32:../Dave/Generated/src/USBCDC001/Drivers/USB/Class/Device/CDC.c ****  Copyright (c) 2011, Infineon Technologies AG                                 **
  33:../Dave/Generated/src/USBCDC001/Drivers/USB/Class/Device/CDC.c ****  All rights reserved.                                                         **
  34:../Dave/Generated/src/USBCDC001/Drivers/USB/Class/Device/CDC.c ****                                                                               **
  35:../Dave/Generated/src/USBCDC001/Drivers/USB/Class/Device/CDC.c ****  Redistribution and use in source and binary forms, with or without           **
  36:../Dave/Generated/src/USBCDC001/Drivers/USB/Class/Device/CDC.c ****  modification,are permitted provided that the following conditions are met:   **
  37:../Dave/Generated/src/USBCDC001/Drivers/USB/Class/Device/CDC.c ****                                                                               **
  38:../Dave/Generated/src/USBCDC001/Drivers/USB/Class/Device/CDC.c ****  *Redistributions of source code must retain the above copyright notice,      **
  39:../Dave/Generated/src/USBCDC001/Drivers/USB/Class/Device/CDC.c ****  this list of conditions and the following disclaimer.                        **
  40:../Dave/Generated/src/USBCDC001/Drivers/USB/Class/Device/CDC.c ****  *Redistributions in binary form must reproduce the above copyright notice,   **
  41:../Dave/Generated/src/USBCDC001/Drivers/USB/Class/Device/CDC.c ****  this list of conditions and the following disclaimer in the documentation    **
  42:../Dave/Generated/src/USBCDC001/Drivers/USB/Class/Device/CDC.c ****  and/or other materials provided with the distribution.                       **
  43:../Dave/Generated/src/USBCDC001/Drivers/USB/Class/Device/CDC.c ****  *Neither the name of the copyright holders nor the names of its contributors **
  44:../Dave/Generated/src/USBCDC001/Drivers/USB/Class/Device/CDC.c ****  may be used to endorse or promote products derived from this software without**
  45:../Dave/Generated/src/USBCDC001/Drivers/USB/Class/Device/CDC.c ****  specific prior written permission.                                           **
  46:../Dave/Generated/src/USBCDC001/Drivers/USB/Class/Device/CDC.c ****                                                                               **
  47:../Dave/Generated/src/USBCDC001/Drivers/USB/Class/Device/CDC.c ****  THIS SOFTWARE IS PROVIDED BY THE COPYRIGHT HOLDERS AND CONTRIBUTORS "AS IS"  **
  48:../Dave/Generated/src/USBCDC001/Drivers/USB/Class/Device/CDC.c ****  AND ANY EXPRESS OR IMPLIED WARRANTIES, INCLUDING, BUT NOT LIMITED TO, THE    **
  49:../Dave/Generated/src/USBCDC001/Drivers/USB/Class/Device/CDC.c ****  IMPLIED WARRANTIES OF MERCHANTABILITY AND FITNESS FOR A PARTICULAR PURPOSE   **
  50:../Dave/Generated/src/USBCDC001/Drivers/USB/Class/Device/CDC.c ****  ARE  DISCLAIMED. IN NO EVENT SHALL THE COPYRIGHT HOLDER OR CONTRIBUTORS BE   **
  51:../Dave/Generated/src/USBCDC001/Drivers/USB/Class/Device/CDC.c ****  LIABLE  FOR ANY DIRECT, INDIRECT, INCIDENTAL, SPECIAL, EXEMPLARY, OR         **
  52:../Dave/Generated/src/USBCDC001/Drivers/USB/Class/Device/CDC.c ****  CONSEQUENTIAL DAMAGES (INCLUDING, BUT NOT LIMITED TO, PROCUREMENT OF         **
  53:../Dave/Generated/src/USBCDC001/Drivers/USB/Class/Device/CDC.c ****  SUBSTITUTE GOODS OR  SERVICES; LOSS OF USE, DATA, OR PROFITS; OR BUSINESS    **
  54:../Dave/Generated/src/USBCDC001/Drivers/USB/Class/Device/CDC.c ****  INTERRUPTION) HOWEVER CAUSED AND ON ANY THEORY OF LIABILITY, WHETHER IN      **
  55:../Dave/Generated/src/USBCDC001/Drivers/USB/Class/Device/CDC.c ****  CONTRACT, STRICT LIABILITY,OR TORT (INCLUDING NEGLIGENCE OR OTHERWISE)       **
  56:../Dave/Generated/src/USBCDC001/Drivers/USB/Class/Device/CDC.c ****  ARISING IN ANY WAY OUT OF THE USE OF THIS SOFTWARE, EVEN IF ADVISED OF THE   **
  57:../Dave/Generated/src/USBCDC001/Drivers/USB/Class/Device/CDC.c ****  POSSIBILITY OF SUCH DAMAGE.                                                  **
  58:../Dave/Generated/src/USBCDC001/Drivers/USB/Class/Device/CDC.c ****                                                                               **
  59:../Dave/Generated/src/USBCDC001/Drivers/USB/Class/Device/CDC.c ****  To improve the quality of the software, users are encouraged to share        **
  60:../Dave/Generated/src/USBCDC001/Drivers/USB/Class/Device/CDC.c ****  modifications, enhancements or bug fixes with Infineon Technologies AG       **
  61:../Dave/Generated/src/USBCDC001/Drivers/USB/Class/Device/CDC.c ****  dave@infineon.com).                                                          **
  62:../Dave/Generated/src/USBCDC001/Drivers/USB/Class/Device/CDC.c ****                                                                               **
  63:../Dave/Generated/src/USBCDC001/Drivers/USB/Class/Device/CDC.c **** ********************************************************************************
  64:../Dave/Generated/src/USBCDC001/Drivers/USB/Class/Device/CDC.c **** **                                                                            **
  65:../Dave/Generated/src/USBCDC001/Drivers/USB/Class/Device/CDC.c **** **                                                                            **
  66:../Dave/Generated/src/USBCDC001/Drivers/USB/Class/Device/CDC.c **** ** PLATFORM : Infineon XMC4000 Series                                         **
  67:../Dave/Generated/src/USBCDC001/Drivers/USB/Class/Device/CDC.c **** **                                                                            **
  68:../Dave/Generated/src/USBCDC001/Drivers/USB/Class/Device/CDC.c **** ** COMPILER : Compiler Independent                                            **
  69:../Dave/Generated/src/USBCDC001/Drivers/USB/Class/Device/CDC.c **** **                                                                            **
  70:../Dave/Generated/src/USBCDC001/Drivers/USB/Class/Device/CDC.c **** ** AUTHOR : App Developer                                                     **
  71:../Dave/Generated/src/USBCDC001/Drivers/USB/Class/Device/CDC.c **** **                                                                            **
  72:../Dave/Generated/src/USBCDC001/Drivers/USB/Class/Device/CDC.c **** ** MAY BE CHANGED BY USER [yes/no]: Yes                                       **
  73:../Dave/Generated/src/USBCDC001/Drivers/USB/Class/Device/CDC.c **** **                                                                            **
  74:../Dave/Generated/src/USBCDC001/Drivers/USB/Class/Device/CDC.c **** ** MODIFICATION DATE : Nov 29, 2012                                           **
  75:../Dave/Generated/src/USBCDC001/Drivers/USB/Class/Device/CDC.c **** **                                                                            **
  76:../Dave/Generated/src/USBCDC001/Drivers/USB/Class/Device/CDC.c **** *******************************************************************************/
  77:../Dave/Generated/src/USBCDC001/Drivers/USB/Class/Device/CDC.c **** 
  78:../Dave/Generated/src/USBCDC001/Drivers/USB/Class/Device/CDC.c **** /*******************************************************************************
  79:../Dave/Generated/src/USBCDC001/Drivers/USB/Class/Device/CDC.c **** **                       Author(s) Identity                                   **
  80:../Dave/Generated/src/USBCDC001/Drivers/USB/Class/Device/CDC.c **** ********************************************************************************
  81:../Dave/Generated/src/USBCDC001/Drivers/USB/Class/Device/CDC.c **** **                                                                            **
  82:../Dave/Generated/src/USBCDC001/Drivers/USB/Class/Device/CDC.c **** ** Initials    Name                                                           **
  83:../Dave/Generated/src/USBCDC001/Drivers/USB/Class/Device/CDC.c **** ** ---------------------------------------------------------------------------**
  84:../Dave/Generated/src/USBCDC001/Drivers/USB/Class/Device/CDC.c **** ** CM          App Developer                                                  **
  85:../Dave/Generated/src/USBCDC001/Drivers/USB/Class/Device/CDC.c **** *******************************************************************************/
  86:../Dave/Generated/src/USBCDC001/Drivers/USB/Class/Device/CDC.c **** #define  __INCLUDE_FROM_USB_DRIVER
  87:../Dave/Generated/src/USBCDC001/Drivers/USB/Class/Device/CDC.c **** #include "../../Core/USBMode.h"
  88:../Dave/Generated/src/USBCDC001/Drivers/USB/Class/Device/CDC.c **** #include "../../inc/USBCORE001/usbcore001.h"
  89:../Dave/Generated/src/USBCDC001/Drivers/USB/Class/Device/CDC.c **** #include "../../inc/USBCORE001/usbcore001_device.h"
  90:../Dave/Generated/src/USBCDC001/Drivers/USB/Class/Device/CDC.c **** 
  91:../Dave/Generated/src/USBCDC001/Drivers/USB/Class/Device/CDC.c **** #if defined(USB_CAN_BE_DEVICE)
  92:../Dave/Generated/src/USBCDC001/Drivers/USB/Class/Device/CDC.c **** 
  93:../Dave/Generated/src/USBCDC001/Drivers/USB/Class/Device/CDC.c **** #define  __INCLUDE_FROM_CDC_DRIVER
  94:../Dave/Generated/src/USBCDC001/Drivers/USB/Class/Device/CDC.c **** #define  __INCLUDE_FROM_CDC_DEVICE_C
  95:../Dave/Generated/src/USBCDC001/Drivers/USB/Class/Device/CDC.c **** #include "CDC.h"
  96:../Dave/Generated/src/USBCDC001/Drivers/USB/Class/Device/CDC.c **** 
  97:../Dave/Generated/src/USBCDC001/Drivers/USB/Class/Device/CDC.c **** /* Stores CDC class line encoding */
  98:../Dave/Generated/src/USBCDC001/Drivers/USB/Class/Device/CDC.c **** CDC_LineEncoding_t LineEncodingRx;
  99:../Dave/Generated/src/USBCDC001/Drivers/USB/Class/Device/CDC.c **** 
 100:../Dave/Generated/src/USBCDC001/Drivers/USB/Class/Device/CDC.c **** void CDC_Device_ProcessControlRequest(USB_ClassInfo_CDC_Device_t* const CDCInterfaceInfo)
 101:../Dave/Generated/src/USBCDC001/Drivers/USB/Class/Device/CDC.c **** {
  29              		.loc 1 101 0
  30              		.cfi_startproc
  31              		@ args = 0, pretend = 0, frame = 8
  32              		@ frame_needed = 1, uses_anonymous_args = 0
  33 0000 80B5     		push	{r7, lr}
  34              	.LCFI0:
  35              		.cfi_def_cfa_offset 8
  36              		.cfi_offset 7, -8
  37              		.cfi_offset 14, -4
  38 0002 82B0     		sub	sp, sp, #8
  39              	.LCFI1:
  40              		.cfi_def_cfa_offset 16
  41 0004 00AF     		add	r7, sp, #0
  42              	.LCFI2:
  43              		.cfi_def_cfa_register 7
  44 0006 7860     		str	r0, [r7, #4]
 102:../Dave/Generated/src/USBCDC001/Drivers/USB/Class/Device/CDC.c ****   if (!(Endpoint_IsSETUPReceived()))
  45              		.loc 1 102 0
  46 0008 FFF7FEFF 		bl	Endpoint_IsSETUPReceived
  47 000c 0346     		mov	r3, r0
  48 000e 002B     		cmp	r3, #0
  49 0010 00F09580 		beq	.L15
  50              	.L2:
 103:../Dave/Generated/src/USBCDC001/Drivers/USB/Class/Device/CDC.c ****     return;
 104:../Dave/Generated/src/USBCDC001/Drivers/USB/Class/Device/CDC.c **** 
 105:../Dave/Generated/src/USBCDC001/Drivers/USB/Class/Device/CDC.c ****   if (USB_ControlRequest.wIndex != CDCInterfaceInfo->Config.ControlInterfaceNumber)
  51              		.loc 1 105 0
  52 0014 40F20003 		movw	r3, #:lower16:USB_ControlRequest
  53 0018 C0F20003 		movt	r3, #:upper16:USB_ControlRequest
  54 001c 9A88     		ldrh	r2, [r3, #4]
  55 001e 7B68     		ldr	r3, [r7, #4]
  56 0020 1B78     		ldrb	r3, [r3, #0]	@ zero_extendqisi2
  57 0022 9A42     		cmp	r2, r3
  58 0024 40F08D80 		bne	.L16
  59              	.L4:
 106:../Dave/Generated/src/USBCDC001/Drivers/USB/Class/Device/CDC.c ****     return;
 107:../Dave/Generated/src/USBCDC001/Drivers/USB/Class/Device/CDC.c **** 
 108:../Dave/Generated/src/USBCDC001/Drivers/USB/Class/Device/CDC.c ****   switch (USB_ControlRequest.bRequest)
  60              		.loc 1 108 0
  61 0028 40F20003 		movw	r3, #:lower16:USB_ControlRequest
  62 002c C0F20003 		movt	r3, #:upper16:USB_ControlRequest
  63 0030 5B78     		ldrb	r3, [r3, #1]	@ zero_extendqisi2
  64 0032 A3F12003 		sub	r3, r3, #32
  65 0036 032B     		cmp	r3, #3
  66 0038 00F28C80 		bhi	.L1
  67 003c 01A2     		adr	r2, .L9
  68 003e 52F823F0 		ldr	pc, [r2, r3, lsl #2]
  69 0042 00BF     		.align	2
  70              	.L9:
  71 0044 81000000 		.word	.L5+1
  72 0048 55000000 		.word	.L6+1
  73 004c E5000000 		.word	.L7+1
  74 0050 13010000 		.word	.L8+1
  75              	.L6:
 109:../Dave/Generated/src/USBCDC001/Drivers/USB/Class/Device/CDC.c ****   {
 110:../Dave/Generated/src/USBCDC001/Drivers/USB/Class/Device/CDC.c ****     case CDC_REQ_GetLineEncoding:
 111:../Dave/Generated/src/USBCDC001/Drivers/USB/Class/Device/CDC.c ****       if (USB_ControlRequest.bmRequestType == (REQDIR_DEVICETOHOST | REQTYPE_CLASS | REQREC_INTERFA
  76              		.loc 1 111 0
  77 0054 40F20003 		movw	r3, #:lower16:USB_ControlRequest
  78 0058 C0F20003 		movt	r3, #:upper16:USB_ControlRequest
  79 005c 1B78     		ldrb	r3, [r3, #0]	@ zero_extendqisi2
  80 005e A12B     		cmp	r3, #161
  81 0060 71D1     		bne	.L17
 112:../Dave/Generated/src/USBCDC001/Drivers/USB/Class/Device/CDC.c ****       {
 113:../Dave/Generated/src/USBCDC001/Drivers/USB/Class/Device/CDC.c ****         Endpoint_ClearSETUP();
  82              		.loc 1 113 0
  83 0062 FFF7FEFF 		bl	Endpoint_ClearSETUP
 114:../Dave/Generated/src/USBCDC001/Drivers/USB/Class/Device/CDC.c ****         Endpoint_Write_Control_Stream_LE(&LineEncodingRx, sizeof(CDCInterfaceInfo->State.LineEncodi
  84              		.loc 1 114 0
  85 0066 40F20000 		movw	r0, #:lower16:LineEncodingRx
  86 006a C0F20000 		movt	r0, #:upper16:LineEncodingRx
  87 006e 4FF00701 		mov	r1, #7
  88 0072 FFF7FEFF 		bl	Endpoint_Write_Control_Stream_LE
 115:../Dave/Generated/src/USBCDC001/Drivers/USB/Class/Device/CDC.c ****         Endpoint_ClearOUT();
  89              		.loc 1 115 0
  90 0076 FFF7FEFF 		bl	Endpoint_ClearOUT
 116:../Dave/Generated/src/USBCDC001/Drivers/USB/Class/Device/CDC.c **** 
 117:../Dave/Generated/src/USBCDC001/Drivers/USB/Class/Device/CDC.c ****         //++IFX
 118:../Dave/Generated/src/USBCDC001/Drivers/USB/Class/Device/CDC.c ****         Endpoint_ClearIN();
  91              		.loc 1 118 0
  92 007a FFF7FEFF 		bl	Endpoint_ClearIN
 119:../Dave/Generated/src/USBCDC001/Drivers/USB/Class/Device/CDC.c ****       }
 120:../Dave/Generated/src/USBCDC001/Drivers/USB/Class/Device/CDC.c **** 
 121:../Dave/Generated/src/USBCDC001/Drivers/USB/Class/Device/CDC.c ****       break;
  93              		.loc 1 121 0
  94 007e 62E0     		b	.L17
  95              	.L5:
 122:../Dave/Generated/src/USBCDC001/Drivers/USB/Class/Device/CDC.c ****     case CDC_REQ_SetLineEncoding:
 123:../Dave/Generated/src/USBCDC001/Drivers/USB/Class/Device/CDC.c ****       if (USB_ControlRequest.bmRequestType == (REQDIR_HOSTTODEVICE | REQTYPE_CLASS | REQREC_INTERFA
  96              		.loc 1 123 0
  97 0080 40F20003 		movw	r3, #:lower16:USB_ControlRequest
  98 0084 C0F20003 		movt	r3, #:upper16:USB_ControlRequest
  99 0088 1B78     		ldrb	r3, [r3, #0]	@ zero_extendqisi2
 100 008a 212B     		cmp	r3, #33
 101 008c 5DD1     		bne	.L18
 124:../Dave/Generated/src/USBCDC001/Drivers/USB/Class/Device/CDC.c ****       {
 125:../Dave/Generated/src/USBCDC001/Drivers/USB/Class/Device/CDC.c ****         Endpoint_ClearSETUP();
 102              		.loc 1 125 0
 103 008e FFF7FEFF 		bl	Endpoint_ClearSETUP
 126:../Dave/Generated/src/USBCDC001/Drivers/USB/Class/Device/CDC.c ****         Endpoint_Read_Control_Stream_LE(&LineEncodingRx, sizeof(CDCInterfaceInfo->State.LineEncodin
 104              		.loc 1 126 0
 105 0092 40F20000 		movw	r0, #:lower16:LineEncodingRx
 106 0096 C0F20000 		movt	r0, #:upper16:LineEncodingRx
 107 009a 4FF00701 		mov	r1, #7
 108 009e FFF7FEFF 		bl	Endpoint_Read_Control_Stream_LE
 127:../Dave/Generated/src/USBCDC001/Drivers/USB/Class/Device/CDC.c ****         Endpoint_ClearIN();
 109              		.loc 1 127 0
 110 00a2 FFF7FEFF 		bl	Endpoint_ClearIN
 128:../Dave/Generated/src/USBCDC001/Drivers/USB/Class/Device/CDC.c **** 
 129:../Dave/Generated/src/USBCDC001/Drivers/USB/Class/Device/CDC.c ****         if((LineEncodingRx.DataBits != 0) &&
 111              		.loc 1 129 0
 112 00a6 40F20003 		movw	r3, #:lower16:LineEncodingRx
 113 00aa C0F20003 		movt	r3, #:upper16:LineEncodingRx
 114 00ae 9B79     		ldrb	r3, [r3, #6]	@ zero_extendqisi2
 115 00b0 002B     		cmp	r3, #0
 116 00b2 13D0     		beq	.L12
 130:../Dave/Generated/src/USBCDC001/Drivers/USB/Class/Device/CDC.c ****             (LineEncodingRx.BaudRateBPS != 0))
 117              		.loc 1 130 0 discriminator 1
 118 00b4 40F20003 		movw	r3, #:lower16:LineEncodingRx
 119 00b8 C0F20003 		movt	r3, #:upper16:LineEncodingRx
 120 00bc 1B68     		ldr	r3, [r3, #0]
 129:../Dave/Generated/src/USBCDC001/Drivers/USB/Class/Device/CDC.c ****         if((LineEncodingRx.DataBits != 0) &&
 121              		.loc 1 129 0 discriminator 1
 122 00be 002B     		cmp	r3, #0
 123 00c0 0CD0     		beq	.L12
 131:../Dave/Generated/src/USBCDC001/Drivers/USB/Class/Device/CDC.c ****         {
 132:../Dave/Generated/src/USBCDC001/Drivers/USB/Class/Device/CDC.c ****           memcpy(&CDCInterfaceInfo->State.LineEncoding, &LineEncodingRx, sizeof(CDCInterfaceInfo->S
 124              		.loc 1 132 0
 125 00c2 7B68     		ldr	r3, [r7, #4]
 126 00c4 03F11003 		add	r3, r3, #16
 127 00c8 40F20002 		movw	r2, #:lower16:LineEncodingRx
 128 00cc C0F20002 		movt	r2, #:upper16:LineEncodingRx
 129 00d0 1068     		ldr	r0, [r2, #0]	@ unaligned
 130 00d2 1860     		str	r0, [r3, #0]	@ unaligned
 131 00d4 9188     		ldrh	r1, [r2, #4]	@ unaligned
 132 00d6 9279     		ldrb	r2, [r2, #6]
 133 00d8 9980     		strh	r1, [r3, #4]	@ unaligned
 134 00da 9A71     		strb	r2, [r3, #6]
 135              	.L12:
 133:../Dave/Generated/src/USBCDC001/Drivers/USB/Class/Device/CDC.c ****         }
 134:../Dave/Generated/src/USBCDC001/Drivers/USB/Class/Device/CDC.c **** 
 135:../Dave/Generated/src/USBCDC001/Drivers/USB/Class/Device/CDC.c ****         EVENT_CDC_Device_LineEncodingChanged(CDCInterfaceInfo);
 136              		.loc 1 135 0
 137 00dc 7868     		ldr	r0, [r7, #4]
 138 00de FFF7FEFF 		bl	EVENT_CDC_Device_LineEncodingChanged
 136:../Dave/Generated/src/USBCDC001/Drivers/USB/Class/Device/CDC.c ****       }
 137:../Dave/Generated/src/USBCDC001/Drivers/USB/Class/Device/CDC.c **** 
 138:../Dave/Generated/src/USBCDC001/Drivers/USB/Class/Device/CDC.c ****       break;
 139              		.loc 1 138 0
 140 00e2 32E0     		b	.L18
 141              	.L7:
 139:../Dave/Generated/src/USBCDC001/Drivers/USB/Class/Device/CDC.c ****     case CDC_REQ_SetControlLineState:
 140:../Dave/Generated/src/USBCDC001/Drivers/USB/Class/Device/CDC.c ****       if (USB_ControlRequest.bmRequestType == (REQDIR_HOSTTODEVICE | REQTYPE_CLASS | REQREC_INTERFA
 142              		.loc 1 140 0
 143 00e4 40F20003 		movw	r3, #:lower16:USB_ControlRequest
 144 00e8 C0F20003 		movt	r3, #:upper16:USB_ControlRequest
 145 00ec 1B78     		ldrb	r3, [r3, #0]	@ zero_extendqisi2
 146 00ee 212B     		cmp	r3, #33
 147 00f0 2DD1     		bne	.L19
 141:../Dave/Generated/src/USBCDC001/Drivers/USB/Class/Device/CDC.c ****       {
 142:../Dave/Generated/src/USBCDC001/Drivers/USB/Class/Device/CDC.c ****         Endpoint_ClearSETUP();
 148              		.loc 1 142 0
 149 00f2 FFF7FEFF 		bl	Endpoint_ClearSETUP
 143:../Dave/Generated/src/USBCDC001/Drivers/USB/Class/Device/CDC.c ****         Endpoint_ClearStatusStage();
 150              		.loc 1 143 0
 151 00f6 FFF7FEFF 		bl	Endpoint_ClearStatusStage
 144:../Dave/Generated/src/USBCDC001/Drivers/USB/Class/Device/CDC.c **** 
 145:../Dave/Generated/src/USBCDC001/Drivers/USB/Class/Device/CDC.c ****         CDCInterfaceInfo->State.ControlLineStates.HostToDevice = USB_ControlRequest.wValue;
 152              		.loc 1 145 0
 153 00fa 40F20003 		movw	r3, #:lower16:USB_ControlRequest
 154 00fe C0F20003 		movt	r3, #:upper16:USB_ControlRequest
 155 0102 5B88     		ldrh	r3, [r3, #2]
 156 0104 DAB2     		uxtb	r2, r3
 157 0106 7B68     		ldr	r3, [r7, #4]
 158 0108 9A73     		strb	r2, [r3, #14]
 146:../Dave/Generated/src/USBCDC001/Drivers/USB/Class/Device/CDC.c **** 
 147:../Dave/Generated/src/USBCDC001/Drivers/USB/Class/Device/CDC.c ****         EVENT_CDC_Device_ControLineStateChanged(CDCInterfaceInfo);
 159              		.loc 1 147 0
 160 010a 7868     		ldr	r0, [r7, #4]
 161 010c FFF7FEFF 		bl	EVENT_CDC_Device_ControLineStateChanged
 148:../Dave/Generated/src/USBCDC001/Drivers/USB/Class/Device/CDC.c ****       }
 149:../Dave/Generated/src/USBCDC001/Drivers/USB/Class/Device/CDC.c **** 
 150:../Dave/Generated/src/USBCDC001/Drivers/USB/Class/Device/CDC.c ****       break;
 162              		.loc 1 150 0
 163 0110 1DE0     		b	.L19
 164              	.L8:
 151:../Dave/Generated/src/USBCDC001/Drivers/USB/Class/Device/CDC.c ****     case CDC_REQ_SendBreak:
 152:../Dave/Generated/src/USBCDC001/Drivers/USB/Class/Device/CDC.c ****       if (USB_ControlRequest.bmRequestType == (REQDIR_HOSTTODEVICE | REQTYPE_CLASS | REQREC_INTERFA
 165              		.loc 1 152 0
 166 0112 40F20003 		movw	r3, #:lower16:USB_ControlRequest
 167 0116 C0F20003 		movt	r3, #:upper16:USB_ControlRequest
 168 011a 1B78     		ldrb	r3, [r3, #0]	@ zero_extendqisi2
 169 011c 212B     		cmp	r3, #33
 170 011e 18D1     		bne	.L20
 153:../Dave/Generated/src/USBCDC001/Drivers/USB/Class/Device/CDC.c ****       {
 154:../Dave/Generated/src/USBCDC001/Drivers/USB/Class/Device/CDC.c ****         Endpoint_ClearSETUP();
 171              		.loc 1 154 0
 172 0120 FFF7FEFF 		bl	Endpoint_ClearSETUP
 155:../Dave/Generated/src/USBCDC001/Drivers/USB/Class/Device/CDC.c ****         Endpoint_ClearStatusStage();
 173              		.loc 1 155 0
 174 0124 FFF7FEFF 		bl	Endpoint_ClearStatusStage
 156:../Dave/Generated/src/USBCDC001/Drivers/USB/Class/Device/CDC.c **** 
 157:../Dave/Generated/src/USBCDC001/Drivers/USB/Class/Device/CDC.c ****         EVENT_CDC_Device_BreakSent(CDCInterfaceInfo, (uint8_t)USB_ControlRequest.wValue);
 175              		.loc 1 157 0
 176 0128 40F20003 		movw	r3, #:lower16:USB_ControlRequest
 177 012c C0F20003 		movt	r3, #:upper16:USB_ControlRequest
 178 0130 5B88     		ldrh	r3, [r3, #2]
 179 0132 DBB2     		uxtb	r3, r3
 180 0134 7868     		ldr	r0, [r7, #4]
 181 0136 1946     		mov	r1, r3
 182 0138 FFF7FEFF 		bl	EVENT_CDC_Device_BreakSent
 158:../Dave/Generated/src/USBCDC001/Drivers/USB/Class/Device/CDC.c ****       }
 159:../Dave/Generated/src/USBCDC001/Drivers/USB/Class/Device/CDC.c **** 
 160:../Dave/Generated/src/USBCDC001/Drivers/USB/Class/Device/CDC.c ****       break;
 183              		.loc 1 160 0
 184 013c 09E0     		b	.L20
 185              	.L15:
 103:../Dave/Generated/src/USBCDC001/Drivers/USB/Class/Device/CDC.c ****     return;
 186              		.loc 1 103 0
 187 013e 00BF     		nop
 188 0140 08E0     		b	.L1
 189              	.L16:
 106:../Dave/Generated/src/USBCDC001/Drivers/USB/Class/Device/CDC.c ****     return;
 190              		.loc 1 106 0
 191 0142 00BF     		nop
 192 0144 06E0     		b	.L1
 193              	.L17:
 121:../Dave/Generated/src/USBCDC001/Drivers/USB/Class/Device/CDC.c ****       break;
 194              		.loc 1 121 0
 195 0146 00BF     		nop
 196 0148 04E0     		b	.L1
 197              	.L18:
 138:../Dave/Generated/src/USBCDC001/Drivers/USB/Class/Device/CDC.c ****       break;
 198              		.loc 1 138 0
 199 014a 00BF     		nop
 200 014c 02E0     		b	.L1
 201              	.L19:
 150:../Dave/Generated/src/USBCDC001/Drivers/USB/Class/Device/CDC.c ****       break;
 202              		.loc 1 150 0
 203 014e 00BF     		nop
 204 0150 00E0     		b	.L1
 205              	.L20:
 206              		.loc 1 160 0
 207 0152 00BF     		nop
 208              	.L1:
 161:../Dave/Generated/src/USBCDC001/Drivers/USB/Class/Device/CDC.c ****   }
 162:../Dave/Generated/src/USBCDC001/Drivers/USB/Class/Device/CDC.c **** }
 209              		.loc 1 162 0
 210 0154 07F10807 		add	r7, r7, #8
 211 0158 BD46     		mov	sp, r7
 212 015a 80BD     		pop	{r7, pc}
 213              		.cfi_endproc
 214              	.LFE3:
 216              		.section	.text.CDC_Device_ConfigureEndpoints,"ax",%progbits
 217              		.align	2
 218              		.global	CDC_Device_ConfigureEndpoints
 219              		.thumb
 220              		.thumb_func
 222              	CDC_Device_ConfigureEndpoints:
 223              	.LFB4:
 163:../Dave/Generated/src/USBCDC001/Drivers/USB/Class/Device/CDC.c **** 
 164:../Dave/Generated/src/USBCDC001/Drivers/USB/Class/Device/CDC.c **** bool CDC_Device_ConfigureEndpoints(USB_ClassInfo_CDC_Device_t* const CDCInterfaceInfo)
 165:../Dave/Generated/src/USBCDC001/Drivers/USB/Class/Device/CDC.c **** {
 224              		.loc 1 165 0
 225              		.cfi_startproc
 226              		@ args = 0, pretend = 0, frame = 16
 227              		@ frame_needed = 1, uses_anonymous_args = 0
 228 0000 90B5     		push	{r4, r7, lr}
 229              	.LCFI3:
 230              		.cfi_def_cfa_offset 12
 231              		.cfi_offset 4, -12
 232              		.cfi_offset 7, -8
 233              		.cfi_offset 14, -4
 234 0002 87B0     		sub	sp, sp, #28
 235              	.LCFI4:
 236              		.cfi_def_cfa_offset 40
 237 0004 02AF     		add	r7, sp, #8
 238              	.LCFI5:
 239              		.cfi_def_cfa 7, 32
 240 0006 7860     		str	r0, [r7, #4]
 166:../Dave/Generated/src/USBCDC001/Drivers/USB/Class/Device/CDC.c ****   memset(&CDCInterfaceInfo->State, 0x00, sizeof(CDCInterfaceInfo->State));
 241              		.loc 1 166 0
 242 0008 7B68     		ldr	r3, [r7, #4]
 243 000a 03F10E03 		add	r3, r3, #14
 244 000e 1846     		mov	r0, r3
 245 0010 4FF00001 		mov	r1, #0
 246 0014 4FF00902 		mov	r2, #9
 247 0018 FFF7FEFF 		bl	memset
 248              	.LBB2:
 167:../Dave/Generated/src/USBCDC001/Drivers/USB/Class/Device/CDC.c **** 
 168:../Dave/Generated/src/USBCDC001/Drivers/USB/Class/Device/CDC.c ****   for (uint8_t EndpointNum = 1; EndpointNum < ENDPOINT_TOTAL_ENDPOINTS; EndpointNum++)
 249              		.loc 1 168 0
 250 001c 4FF00103 		mov	r3, #1
 251 0020 FB73     		strb	r3, [r7, #15]
 252 0022 4DE0     		b	.L22
 253              	.L29:
 254              	.LBB3:
 169:../Dave/Generated/src/USBCDC001/Drivers/USB/Class/Device/CDC.c ****   {
 170:../Dave/Generated/src/USBCDC001/Drivers/USB/Class/Device/CDC.c ****     uint16_t Size;
 171:../Dave/Generated/src/USBCDC001/Drivers/USB/Class/Device/CDC.c ****     uint8_t  Type;
 172:../Dave/Generated/src/USBCDC001/Drivers/USB/Class/Device/CDC.c ****     uint8_t  Direction;
 173:../Dave/Generated/src/USBCDC001/Drivers/USB/Class/Device/CDC.c ****     bool     DoubleBanked;
 174:../Dave/Generated/src/USBCDC001/Drivers/USB/Class/Device/CDC.c **** 
 175:../Dave/Generated/src/USBCDC001/Drivers/USB/Class/Device/CDC.c ****     if (EndpointNum == CDCInterfaceInfo->Config.DataINEndpointNumber)
 255              		.loc 1 175 0
 256 0024 7B68     		ldr	r3, [r7, #4]
 257 0026 5B78     		ldrb	r3, [r3, #1]	@ zero_extendqisi2
 258 0028 FA7B     		ldrb	r2, [r7, #15]	@ zero_extendqisi2
 259 002a 9A42     		cmp	r2, r3
 260 002c 0CD1     		bne	.L23
 176:../Dave/Generated/src/USBCDC001/Drivers/USB/Class/Device/CDC.c ****     {
 177:../Dave/Generated/src/USBCDC001/Drivers/USB/Class/Device/CDC.c ****       Size         = CDCInterfaceInfo->Config.DataINEndpointSize;
 261              		.loc 1 177 0
 262 002e 7B68     		ldr	r3, [r7, #4]
 263 0030 5B88     		ldrh	r3, [r3, #2]	@ movhi
 264 0032 BB81     		strh	r3, [r7, #12]	@ movhi
 178:../Dave/Generated/src/USBCDC001/Drivers/USB/Class/Device/CDC.c ****       Direction    = ENDPOINT_DIR_IN;
 265              		.loc 1 178 0
 266 0034 4FF08003 		mov	r3, #128
 267 0038 BB72     		strb	r3, [r7, #10]
 179:../Dave/Generated/src/USBCDC001/Drivers/USB/Class/Device/CDC.c ****       Type         = EP_TYPE_BULK;
 268              		.loc 1 179 0
 269 003a 4FF00203 		mov	r3, #2
 270 003e FB72     		strb	r3, [r7, #11]
 180:../Dave/Generated/src/USBCDC001/Drivers/USB/Class/Device/CDC.c ****       DoubleBanked = CDCInterfaceInfo->Config.DataINEndpointDoubleBank;
 271              		.loc 1 180 0
 272 0040 7B68     		ldr	r3, [r7, #4]
 273 0042 1B79     		ldrb	r3, [r3, #4]
 274 0044 7B72     		strb	r3, [r7, #9]
 275 0046 22E0     		b	.L24
 276              	.L23:
 181:../Dave/Generated/src/USBCDC001/Drivers/USB/Class/Device/CDC.c ****     }
 182:../Dave/Generated/src/USBCDC001/Drivers/USB/Class/Device/CDC.c ****     else if (EndpointNum == CDCInterfaceInfo->Config.DataOUTEndpointNumber)
 277              		.loc 1 182 0
 278 0048 7B68     		ldr	r3, [r7, #4]
 279 004a 5B79     		ldrb	r3, [r3, #5]	@ zero_extendqisi2
 280 004c FA7B     		ldrb	r2, [r7, #15]	@ zero_extendqisi2
 281 004e 9A42     		cmp	r2, r3
 282 0050 0CD1     		bne	.L25
 183:../Dave/Generated/src/USBCDC001/Drivers/USB/Class/Device/CDC.c ****     {
 184:../Dave/Generated/src/USBCDC001/Drivers/USB/Class/Device/CDC.c ****       Size         = CDCInterfaceInfo->Config.DataOUTEndpointSize;
 283              		.loc 1 184 0
 284 0052 7B68     		ldr	r3, [r7, #4]
 285 0054 DB88     		ldrh	r3, [r3, #6]	@ movhi
 286 0056 BB81     		strh	r3, [r7, #12]	@ movhi
 185:../Dave/Generated/src/USBCDC001/Drivers/USB/Class/Device/CDC.c ****       Direction    = ENDPOINT_DIR_OUT;
 287              		.loc 1 185 0
 288 0058 4FF00003 		mov	r3, #0
 289 005c BB72     		strb	r3, [r7, #10]
 186:../Dave/Generated/src/USBCDC001/Drivers/USB/Class/Device/CDC.c ****       Type         = EP_TYPE_BULK;
 290              		.loc 1 186 0
 291 005e 4FF00203 		mov	r3, #2
 292 0062 FB72     		strb	r3, [r7, #11]
 187:../Dave/Generated/src/USBCDC001/Drivers/USB/Class/Device/CDC.c ****       DoubleBanked = CDCInterfaceInfo->Config.DataOUTEndpointDoubleBank;
 293              		.loc 1 187 0
 294 0064 7B68     		ldr	r3, [r7, #4]
 295 0066 1B7A     		ldrb	r3, [r3, #8]
 296 0068 7B72     		strb	r3, [r7, #9]
 297 006a 10E0     		b	.L24
 298              	.L25:
 188:../Dave/Generated/src/USBCDC001/Drivers/USB/Class/Device/CDC.c ****     }
 189:../Dave/Generated/src/USBCDC001/Drivers/USB/Class/Device/CDC.c ****     else if (EndpointNum == CDCInterfaceInfo->Config.NotificationEndpointNumber)
 299              		.loc 1 189 0
 300 006c 7B68     		ldr	r3, [r7, #4]
 301 006e 5B7A     		ldrb	r3, [r3, #9]	@ zero_extendqisi2
 302 0070 FA7B     		ldrb	r2, [r7, #15]	@ zero_extendqisi2
 303 0072 9A42     		cmp	r2, r3
 304 0074 1FD1     		bne	.L30
 190:../Dave/Generated/src/USBCDC001/Drivers/USB/Class/Device/CDC.c ****     {
 191:../Dave/Generated/src/USBCDC001/Drivers/USB/Class/Device/CDC.c ****       Size         = CDCInterfaceInfo->Config.NotificationEndpointSize;
 305              		.loc 1 191 0
 306 0076 7B68     		ldr	r3, [r7, #4]
 307 0078 5B89     		ldrh	r3, [r3, #10]	@ movhi
 308 007a BB81     		strh	r3, [r7, #12]	@ movhi
 192:../Dave/Generated/src/USBCDC001/Drivers/USB/Class/Device/CDC.c ****       Direction    = ENDPOINT_DIR_IN;
 309              		.loc 1 192 0
 310 007c 4FF08003 		mov	r3, #128
 311 0080 BB72     		strb	r3, [r7, #10]
 193:../Dave/Generated/src/USBCDC001/Drivers/USB/Class/Device/CDC.c ****       Type         = EP_TYPE_INTERRUPT;
 312              		.loc 1 193 0
 313 0082 4FF00303 		mov	r3, #3
 314 0086 FB72     		strb	r3, [r7, #11]
 194:../Dave/Generated/src/USBCDC001/Drivers/USB/Class/Device/CDC.c ****       DoubleBanked = CDCInterfaceInfo->Config.NotificationEndpointDoubleBank;
 315              		.loc 1 194 0
 316 0088 7B68     		ldr	r3, [r7, #4]
 317 008a 1B7B     		ldrb	r3, [r3, #12]
 318 008c 7B72     		strb	r3, [r7, #9]
 319              	.L24:
 195:../Dave/Generated/src/USBCDC001/Drivers/USB/Class/Device/CDC.c ****     }
 196:../Dave/Generated/src/USBCDC001/Drivers/USB/Class/Device/CDC.c ****     else
 197:../Dave/Generated/src/USBCDC001/Drivers/USB/Class/Device/CDC.c ****     {
 198:../Dave/Generated/src/USBCDC001/Drivers/USB/Class/Device/CDC.c ****       continue;
 199:../Dave/Generated/src/USBCDC001/Drivers/USB/Class/Device/CDC.c ****     }
 200:../Dave/Generated/src/USBCDC001/Drivers/USB/Class/Device/CDC.c **** 
 201:../Dave/Generated/src/USBCDC001/Drivers/USB/Class/Device/CDC.c ****     if (!(Endpoint_ConfigureEndpoint(EndpointNum, Type, Direction, Size,
 320              		.loc 1 201 0
 321 008e 7B7A     		ldrb	r3, [r7, #9]	@ zero_extendqisi2
 322 0090 002B     		cmp	r3, #0
 323 0092 0CBF     		ite	eq
 324 0094 0023     		moveq	r3, #0
 325 0096 0123     		movne	r3, #1
 326 0098 DBB2     		uxtb	r3, r3
 327 009a 1C46     		mov	r4, r3
 328 009c F87B     		ldrb	r0, [r7, #15]	@ zero_extendqisi2
 329 009e F97A     		ldrb	r1, [r7, #11]	@ zero_extendqisi2
 330 00a0 BA7A     		ldrb	r2, [r7, #10]	@ zero_extendqisi2
 331 00a2 BB89     		ldrh	r3, [r7, #12]
 332 00a4 0094     		str	r4, [sp, #0]
 333 00a6 FFF7FEFF 		bl	Endpoint_ConfigureEndpoint
 334 00aa 0346     		mov	r3, r0
 335 00ac 002B     		cmp	r3, #0
 336 00ae 03D1     		bne	.L27
 202:../Dave/Generated/src/USBCDC001/Drivers/USB/Class/Device/CDC.c ****         DoubleBanked ? ENDPOINT_BANK_DOUBLE : ENDPOINT_BANK_SINGLE)))
 203:../Dave/Generated/src/USBCDC001/Drivers/USB/Class/Device/CDC.c ****     {
 204:../Dave/Generated/src/USBCDC001/Drivers/USB/Class/Device/CDC.c ****       return false;
 337              		.loc 1 204 0
 338 00b0 4FF00003 		mov	r3, #0
 339 00b4 09E0     		b	.L28
 340              	.L30:
 198:../Dave/Generated/src/USBCDC001/Drivers/USB/Class/Device/CDC.c ****       continue;
 341              		.loc 1 198 0
 342 00b6 00BF     		nop
 343              	.L27:
 344              	.LBE3:
 168:../Dave/Generated/src/USBCDC001/Drivers/USB/Class/Device/CDC.c ****   for (uint8_t EndpointNum = 1; EndpointNum < ENDPOINT_TOTAL_ENDPOINTS; EndpointNum++)
 345              		.loc 1 168 0
 346 00b8 FB7B     		ldrb	r3, [r7, #15]
 347 00ba 03F10103 		add	r3, r3, #1
 348 00be FB73     		strb	r3, [r7, #15]
 349              	.L22:
 168:../Dave/Generated/src/USBCDC001/Drivers/USB/Class/Device/CDC.c ****   for (uint8_t EndpointNum = 1; EndpointNum < ENDPOINT_TOTAL_ENDPOINTS; EndpointNum++)
 350              		.loc 1 168 0 is_stmt 0 discriminator 1
 351 00c0 FB7B     		ldrb	r3, [r7, #15]	@ zero_extendqisi2
 352 00c2 072B     		cmp	r3, #7
 353 00c4 AED9     		bls	.L29
 354              	.LBE2:
 205:../Dave/Generated/src/USBCDC001/Drivers/USB/Class/Device/CDC.c ****     }
 206:../Dave/Generated/src/USBCDC001/Drivers/USB/Class/Device/CDC.c ****   }
 207:../Dave/Generated/src/USBCDC001/Drivers/USB/Class/Device/CDC.c **** 
 208:../Dave/Generated/src/USBCDC001/Drivers/USB/Class/Device/CDC.c ****   return true;
 355              		.loc 1 208 0 is_stmt 1
 356 00c6 4FF00103 		mov	r3, #1
 357              	.L28:
 209:../Dave/Generated/src/USBCDC001/Drivers/USB/Class/Device/CDC.c **** }
 358              		.loc 1 209 0
 359 00ca 1846     		mov	r0, r3
 360 00cc 07F11407 		add	r7, r7, #20
 361 00d0 BD46     		mov	sp, r7
 362 00d2 90BD     		pop	{r4, r7, pc}
 363              		.cfi_endproc
 364              	.LFE4:
 366              		.section	.text.CDC_Device_USBTask,"ax",%progbits
 367              		.align	2
 368              		.global	CDC_Device_USBTask
 369              		.thumb
 370              		.thumb_func
 372              	CDC_Device_USBTask:
 373              	.LFB5:
 210:../Dave/Generated/src/USBCDC001/Drivers/USB/Class/Device/CDC.c **** 
 211:../Dave/Generated/src/USBCDC001/Drivers/USB/Class/Device/CDC.c **** void CDC_Device_USBTask(USB_ClassInfo_CDC_Device_t* const CDCInterfaceInfo)
 212:../Dave/Generated/src/USBCDC001/Drivers/USB/Class/Device/CDC.c **** {
 374              		.loc 1 212 0
 375              		.cfi_startproc
 376              		@ args = 0, pretend = 0, frame = 8
 377              		@ frame_needed = 1, uses_anonymous_args = 0
 378 0000 80B5     		push	{r7, lr}
 379              	.LCFI6:
 380              		.cfi_def_cfa_offset 8
 381              		.cfi_offset 7, -8
 382              		.cfi_offset 14, -4
 383 0002 82B0     		sub	sp, sp, #8
 384              	.LCFI7:
 385              		.cfi_def_cfa_offset 16
 386 0004 00AF     		add	r7, sp, #0
 387              	.LCFI8:
 388              		.cfi_def_cfa_register 7
 389 0006 7860     		str	r0, [r7, #4]
 213:../Dave/Generated/src/USBCDC001/Drivers/USB/Class/Device/CDC.c ****   if ((USB_DeviceState != DEVICE_STATE_Configured) || !(CDCInterfaceInfo->State.LineEncoding.BaudRa
 390              		.loc 1 213 0
 391 0008 40F20003 		movw	r3, #:lower16:USB_DeviceState
 392 000c C0F20003 		movt	r3, #:upper16:USB_DeviceState
 393 0010 1B78     		ldrb	r3, [r3, #0]
 394 0012 DBB2     		uxtb	r3, r3
 395 0014 042B     		cmp	r3, #4
 396 0016 07D1     		bne	.L35
 397              		.loc 1 213 0 is_stmt 0 discriminator 1
 398 0018 7B68     		ldr	r3, [r7, #4]
 399 001a 1B69     		ldr	r3, [r3, #16]	@ unaligned
 400 001c 002B     		cmp	r3, #0
 401 001e 03D0     		beq	.L35
 402              	.L33:
 214:../Dave/Generated/src/USBCDC001/Drivers/USB/Class/Device/CDC.c ****     return;
 215:../Dave/Generated/src/USBCDC001/Drivers/USB/Class/Device/CDC.c **** 
 216:../Dave/Generated/src/USBCDC001/Drivers/USB/Class/Device/CDC.c **** #if !defined(NO_CLASS_DRIVER_AUTOFLUSH)
 217:../Dave/Generated/src/USBCDC001/Drivers/USB/Class/Device/CDC.c ****   CDC_Device_Flush(CDCInterfaceInfo);
 403              		.loc 1 217 0 is_stmt 1
 404 0020 7868     		ldr	r0, [r7, #4]
 405 0022 FFF7FEFF 		bl	CDC_Device_Flush
 406 0026 00E0     		b	.L31
 407              	.L35:
 214:../Dave/Generated/src/USBCDC001/Drivers/USB/Class/Device/CDC.c ****     return;
 408              		.loc 1 214 0
 409 0028 00BF     		nop
 410              	.L31:
 218:../Dave/Generated/src/USBCDC001/Drivers/USB/Class/Device/CDC.c **** #endif
 219:../Dave/Generated/src/USBCDC001/Drivers/USB/Class/Device/CDC.c **** }
 411              		.loc 1 219 0
 412 002a 07F10807 		add	r7, r7, #8
 413 002e BD46     		mov	sp, r7
 414 0030 80BD     		pop	{r7, pc}
 415              		.cfi_endproc
 416              	.LFE5:
 418 0032 00BF     		.section	.text.CDC_Device_SendString,"ax",%progbits
 419              		.align	2
 420              		.global	CDC_Device_SendString
 421              		.thumb
 422              		.thumb_func
 424              	CDC_Device_SendString:
 425              	.LFB6:
 220:../Dave/Generated/src/USBCDC001/Drivers/USB/Class/Device/CDC.c **** 
 221:../Dave/Generated/src/USBCDC001/Drivers/USB/Class/Device/CDC.c **** uint8_t CDC_Device_SendString(USB_ClassInfo_CDC_Device_t* const CDCInterfaceInfo,
 222:../Dave/Generated/src/USBCDC001/Drivers/USB/Class/Device/CDC.c ****     const char* const String)
 223:../Dave/Generated/src/USBCDC001/Drivers/USB/Class/Device/CDC.c **** {
 426              		.loc 1 223 0
 427              		.cfi_startproc
 428              		@ args = 0, pretend = 0, frame = 8
 429              		@ frame_needed = 1, uses_anonymous_args = 0
 430 0000 80B5     		push	{r7, lr}
 431              	.LCFI9:
 432              		.cfi_def_cfa_offset 8
 433              		.cfi_offset 7, -8
 434              		.cfi_offset 14, -4
 435 0002 82B0     		sub	sp, sp, #8
 436              	.LCFI10:
 437              		.cfi_def_cfa_offset 16
 438 0004 00AF     		add	r7, sp, #0
 439              	.LCFI11:
 440              		.cfi_def_cfa_register 7
 441 0006 7860     		str	r0, [r7, #4]
 442 0008 3960     		str	r1, [r7, #0]
 224:../Dave/Generated/src/USBCDC001/Drivers/USB/Class/Device/CDC.c ****   if ((USB_DeviceState != DEVICE_STATE_Configured) || !(CDCInterfaceInfo->State.LineEncoding.BaudRa
 443              		.loc 1 224 0
 444 000a 40F20003 		movw	r3, #:lower16:USB_DeviceState
 445 000e C0F20003 		movt	r3, #:upper16:USB_DeviceState
 446 0012 1B78     		ldrb	r3, [r3, #0]
 447 0014 DBB2     		uxtb	r3, r3
 448 0016 042B     		cmp	r3, #4
 449 0018 03D1     		bne	.L37
 450              		.loc 1 224 0 is_stmt 0 discriminator 1
 451 001a 7B68     		ldr	r3, [r7, #4]
 452 001c 1B69     		ldr	r3, [r3, #16]	@ unaligned
 453 001e 002B     		cmp	r3, #0
 454 0020 02D1     		bne	.L38
 455              	.L37:
 225:../Dave/Generated/src/USBCDC001/Drivers/USB/Class/Device/CDC.c ****     return ENDPOINT_RWSTREAM_DeviceDisconnected;
 456              		.loc 1 225 0 is_stmt 1
 457 0022 4FF00203 		mov	r3, #2
 458 0026 12E0     		b	.L39
 459              	.L38:
 226:../Dave/Generated/src/USBCDC001/Drivers/USB/Class/Device/CDC.c **** 
 227:../Dave/Generated/src/USBCDC001/Drivers/USB/Class/Device/CDC.c ****   Endpoint_SelectEndpoint(CDCInterfaceInfo->Config.DataINEndpointNumber, ENDPOINT_DIR_IN);
 460              		.loc 1 227 0
 461 0028 7B68     		ldr	r3, [r7, #4]
 462 002a 5B78     		ldrb	r3, [r3, #1]	@ zero_extendqisi2
 463 002c 1846     		mov	r0, r3
 464 002e 4FF08001 		mov	r1, #128
 465 0032 FFF7FEFF 		bl	Endpoint_SelectEndpoint
 228:../Dave/Generated/src/USBCDC001/Drivers/USB/Class/Device/CDC.c ****   return Endpoint_Write_Stream_LE(String, strlen(String), NULL);
 466              		.loc 1 228 0
 467 0036 3868     		ldr	r0, [r7, #0]
 468 0038 FFF7FEFF 		bl	strlen
 469 003c 0346     		mov	r3, r0
 470 003e 9BB2     		uxth	r3, r3
 471 0040 3868     		ldr	r0, [r7, #0]
 472 0042 1946     		mov	r1, r3
 473 0044 4FF00002 		mov	r2, #0
 474 0048 FFF7FEFF 		bl	Endpoint_Write_Stream_LE
 475 004c 0346     		mov	r3, r0
 476              	.L39:
 229:../Dave/Generated/src/USBCDC001/Drivers/USB/Class/Device/CDC.c **** }
 477              		.loc 1 229 0
 478 004e 1846     		mov	r0, r3
 479 0050 07F10807 		add	r7, r7, #8
 480 0054 BD46     		mov	sp, r7
 481 0056 80BD     		pop	{r7, pc}
 482              		.cfi_endproc
 483              	.LFE6:
 485              		.section	.text.CDC_Device_SendData,"ax",%progbits
 486              		.align	2
 487              		.global	CDC_Device_SendData
 488              		.thumb
 489              		.thumb_func
 491              	CDC_Device_SendData:
 492              	.LFB7:
 230:../Dave/Generated/src/USBCDC001/Drivers/USB/Class/Device/CDC.c **** 
 231:../Dave/Generated/src/USBCDC001/Drivers/USB/Class/Device/CDC.c **** uint8_t CDC_Device_SendData(USB_ClassInfo_CDC_Device_t* const CDCInterfaceInfo,
 232:../Dave/Generated/src/USBCDC001/Drivers/USB/Class/Device/CDC.c ****     const char* const Buffer,
 233:../Dave/Generated/src/USBCDC001/Drivers/USB/Class/Device/CDC.c ****     const uint16_t Length)
 234:../Dave/Generated/src/USBCDC001/Drivers/USB/Class/Device/CDC.c **** {
 493              		.loc 1 234 0
 494              		.cfi_startproc
 495              		@ args = 0, pretend = 0, frame = 16
 496              		@ frame_needed = 1, uses_anonymous_args = 0
 497 0000 80B5     		push	{r7, lr}
 498              	.LCFI12:
 499              		.cfi_def_cfa_offset 8
 500              		.cfi_offset 7, -8
 501              		.cfi_offset 14, -4
 502 0002 84B0     		sub	sp, sp, #16
 503              	.LCFI13:
 504              		.cfi_def_cfa_offset 24
 505 0004 00AF     		add	r7, sp, #0
 506              	.LCFI14:
 507              		.cfi_def_cfa_register 7
 508 0006 F860     		str	r0, [r7, #12]
 509 0008 B960     		str	r1, [r7, #8]
 510 000a 1346     		mov	r3, r2
 511 000c FB80     		strh	r3, [r7, #6]	@ movhi
 235:../Dave/Generated/src/USBCDC001/Drivers/USB/Class/Device/CDC.c ****   if ((USB_DeviceState != DEVICE_STATE_Configured) || !(CDCInterfaceInfo->State.LineEncoding.BaudRa
 512              		.loc 1 235 0
 513 000e 40F20003 		movw	r3, #:lower16:USB_DeviceState
 514 0012 C0F20003 		movt	r3, #:upper16:USB_DeviceState
 515 0016 1B78     		ldrb	r3, [r3, #0]
 516 0018 DBB2     		uxtb	r3, r3
 517 001a 042B     		cmp	r3, #4
 518 001c 03D1     		bne	.L41
 519              		.loc 1 235 0 is_stmt 0 discriminator 1
 520 001e FB68     		ldr	r3, [r7, #12]
 521 0020 1B69     		ldr	r3, [r3, #16]	@ unaligned
 522 0022 002B     		cmp	r3, #0
 523 0024 02D1     		bne	.L42
 524              	.L41:
 236:../Dave/Generated/src/USBCDC001/Drivers/USB/Class/Device/CDC.c ****     return ENDPOINT_RWSTREAM_DeviceDisconnected;
 525              		.loc 1 236 0 is_stmt 1
 526 0026 4FF00203 		mov	r3, #2
 527 002a 0EE0     		b	.L43
 528              	.L42:
 237:../Dave/Generated/src/USBCDC001/Drivers/USB/Class/Device/CDC.c **** 
 238:../Dave/Generated/src/USBCDC001/Drivers/USB/Class/Device/CDC.c ****   Endpoint_SelectEndpoint(CDCInterfaceInfo->Config.DataINEndpointNumber, ENDPOINT_DIR_IN);
 529              		.loc 1 238 0
 530 002c FB68     		ldr	r3, [r7, #12]
 531 002e 5B78     		ldrb	r3, [r3, #1]	@ zero_extendqisi2
 532 0030 1846     		mov	r0, r3
 533 0032 4FF08001 		mov	r1, #128
 534 0036 FFF7FEFF 		bl	Endpoint_SelectEndpoint
 239:../Dave/Generated/src/USBCDC001/Drivers/USB/Class/Device/CDC.c ****   return Endpoint_Write_Stream_LE(Buffer, Length, NULL);
 535              		.loc 1 239 0
 536 003a FB88     		ldrh	r3, [r7, #6]
 537 003c B868     		ldr	r0, [r7, #8]
 538 003e 1946     		mov	r1, r3
 539 0040 4FF00002 		mov	r2, #0
 540 0044 FFF7FEFF 		bl	Endpoint_Write_Stream_LE
 541 0048 0346     		mov	r3, r0
 542              	.L43:
 240:../Dave/Generated/src/USBCDC001/Drivers/USB/Class/Device/CDC.c **** }
 543              		.loc 1 240 0
 544 004a 1846     		mov	r0, r3
 545 004c 07F11007 		add	r7, r7, #16
 546 0050 BD46     		mov	sp, r7
 547 0052 80BD     		pop	{r7, pc}
 548              		.cfi_endproc
 549              	.LFE7:
 551              		.section	.text.CDC_Device_SendByte,"ax",%progbits
 552              		.align	2
 553              		.global	CDC_Device_SendByte
 554              		.thumb
 555              		.thumb_func
 557              	CDC_Device_SendByte:
 558              	.LFB8:
 241:../Dave/Generated/src/USBCDC001/Drivers/USB/Class/Device/CDC.c **** 
 242:../Dave/Generated/src/USBCDC001/Drivers/USB/Class/Device/CDC.c **** uint8_t CDC_Device_SendByte(USB_ClassInfo_CDC_Device_t* const CDCInterfaceInfo,
 243:../Dave/Generated/src/USBCDC001/Drivers/USB/Class/Device/CDC.c ****     const uint8_t Data)
 244:../Dave/Generated/src/USBCDC001/Drivers/USB/Class/Device/CDC.c **** {
 559              		.loc 1 244 0
 560              		.cfi_startproc
 561              		@ args = 0, pretend = 0, frame = 16
 562              		@ frame_needed = 1, uses_anonymous_args = 0
 563 0000 80B5     		push	{r7, lr}
 564              	.LCFI15:
 565              		.cfi_def_cfa_offset 8
 566              		.cfi_offset 7, -8
 567              		.cfi_offset 14, -4
 568 0002 84B0     		sub	sp, sp, #16
 569              	.LCFI16:
 570              		.cfi_def_cfa_offset 24
 571 0004 00AF     		add	r7, sp, #0
 572              	.LCFI17:
 573              		.cfi_def_cfa_register 7
 574 0006 7860     		str	r0, [r7, #4]
 575 0008 0B46     		mov	r3, r1
 576 000a FB70     		strb	r3, [r7, #3]
 245:../Dave/Generated/src/USBCDC001/Drivers/USB/Class/Device/CDC.c ****   if ((USB_DeviceState != DEVICE_STATE_Configured) || !(CDCInterfaceInfo->State.LineEncoding.BaudRa
 577              		.loc 1 245 0
 578 000c 40F20003 		movw	r3, #:lower16:USB_DeviceState
 579 0010 C0F20003 		movt	r3, #:upper16:USB_DeviceState
 580 0014 1B78     		ldrb	r3, [r3, #0]
 581 0016 DBB2     		uxtb	r3, r3
 582 0018 042B     		cmp	r3, #4
 583 001a 03D1     		bne	.L45
 584              		.loc 1 245 0 is_stmt 0 discriminator 1
 585 001c 7B68     		ldr	r3, [r7, #4]
 586 001e 1B69     		ldr	r3, [r3, #16]	@ unaligned
 587 0020 002B     		cmp	r3, #0
 588 0022 02D1     		bne	.L46
 589              	.L45:
 246:../Dave/Generated/src/USBCDC001/Drivers/USB/Class/Device/CDC.c ****     return ENDPOINT_RWSTREAM_DeviceDisconnected;
 590              		.loc 1 246 0 is_stmt 1
 591 0024 4FF00203 		mov	r3, #2
 592 0028 1CE0     		b	.L47
 593              	.L46:
 247:../Dave/Generated/src/USBCDC001/Drivers/USB/Class/Device/CDC.c **** 
 248:../Dave/Generated/src/USBCDC001/Drivers/USB/Class/Device/CDC.c ****   Endpoint_SelectEndpoint(CDCInterfaceInfo->Config.DataINEndpointNumber, ENDPOINT_DIR_IN);
 594              		.loc 1 248 0
 595 002a 7B68     		ldr	r3, [r7, #4]
 596 002c 5B78     		ldrb	r3, [r3, #1]	@ zero_extendqisi2
 597 002e 1846     		mov	r0, r3
 598 0030 4FF08001 		mov	r1, #128
 599 0034 FFF7FEFF 		bl	Endpoint_SelectEndpoint
 249:../Dave/Generated/src/USBCDC001/Drivers/USB/Class/Device/CDC.c **** 
 250:../Dave/Generated/src/USBCDC001/Drivers/USB/Class/Device/CDC.c ****   if (!(Endpoint_IsReadWriteAllowed()))
 600              		.loc 1 250 0
 601 0038 FFF7FEFF 		bl	Endpoint_IsReadWriteAllowed
 602 003c 0346     		mov	r3, r0
 603 003e 002B     		cmp	r3, #0
 604 0040 0AD1     		bne	.L48
 605              	.LBB4:
 251:../Dave/Generated/src/USBCDC001/Drivers/USB/Class/Device/CDC.c ****   {
 252:../Dave/Generated/src/USBCDC001/Drivers/USB/Class/Device/CDC.c ****     Endpoint_ClearIN();
 606              		.loc 1 252 0
 607 0042 FFF7FEFF 		bl	Endpoint_ClearIN
 253:../Dave/Generated/src/USBCDC001/Drivers/USB/Class/Device/CDC.c **** 
 254:../Dave/Generated/src/USBCDC001/Drivers/USB/Class/Device/CDC.c ****     uint8_t ErrorCode;
 255:../Dave/Generated/src/USBCDC001/Drivers/USB/Class/Device/CDC.c **** 
 256:../Dave/Generated/src/USBCDC001/Drivers/USB/Class/Device/CDC.c ****     if ((ErrorCode = Endpoint_WaitUntilReady()) != ENDPOINT_READYWAIT_NoError)
 608              		.loc 1 256 0
 609 0046 FFF7FEFF 		bl	Endpoint_WaitUntilReady
 610 004a 0346     		mov	r3, r0
 611 004c FB73     		strb	r3, [r7, #15]
 612 004e FB7B     		ldrb	r3, [r7, #15]	@ zero_extendqisi2
 613 0050 002B     		cmp	r3, #0
 614 0052 01D0     		beq	.L48
 257:../Dave/Generated/src/USBCDC001/Drivers/USB/Class/Device/CDC.c ****       return ErrorCode;
 615              		.loc 1 257 0
 616 0054 FB7B     		ldrb	r3, [r7, #15]	@ zero_extendqisi2
 617 0056 05E0     		b	.L47
 618              	.L48:
 619              	.LBE4:
 258:../Dave/Generated/src/USBCDC001/Drivers/USB/Class/Device/CDC.c ****   }
 259:../Dave/Generated/src/USBCDC001/Drivers/USB/Class/Device/CDC.c **** 
 260:../Dave/Generated/src/USBCDC001/Drivers/USB/Class/Device/CDC.c ****   Endpoint_Write_8(Data);
 620              		.loc 1 260 0
 621 0058 FB78     		ldrb	r3, [r7, #3]	@ zero_extendqisi2
 622 005a 1846     		mov	r0, r3
 623 005c FFF7FEFF 		bl	Endpoint_Write_8
 261:../Dave/Generated/src/USBCDC001/Drivers/USB/Class/Device/CDC.c ****   return ENDPOINT_READYWAIT_NoError;
 624              		.loc 1 261 0
 625 0060 4FF00003 		mov	r3, #0
 626              	.L47:
 262:../Dave/Generated/src/USBCDC001/Drivers/USB/Class/Device/CDC.c **** }
 627              		.loc 1 262 0
 628 0064 1846     		mov	r0, r3
 629 0066 07F11007 		add	r7, r7, #16
 630 006a BD46     		mov	sp, r7
 631 006c 80BD     		pop	{r7, pc}
 632              		.cfi_endproc
 633              	.LFE8:
 635 006e 00BF     		.section	.text.CDC_Device_Flush,"ax",%progbits
 636              		.align	2
 637              		.global	CDC_Device_Flush
 638              		.thumb
 639              		.thumb_func
 641              	CDC_Device_Flush:
 642              	.LFB9:
 263:../Dave/Generated/src/USBCDC001/Drivers/USB/Class/Device/CDC.c **** 
 264:../Dave/Generated/src/USBCDC001/Drivers/USB/Class/Device/CDC.c **** uint8_t CDC_Device_Flush(USB_ClassInfo_CDC_Device_t* const CDCInterfaceInfo)
 265:../Dave/Generated/src/USBCDC001/Drivers/USB/Class/Device/CDC.c **** {
 643              		.loc 1 265 0
 644              		.cfi_startproc
 645              		@ args = 0, pretend = 0, frame = 16
 646              		@ frame_needed = 1, uses_anonymous_args = 0
 647 0000 80B5     		push	{r7, lr}
 648              	.LCFI18:
 649              		.cfi_def_cfa_offset 8
 650              		.cfi_offset 7, -8
 651              		.cfi_offset 14, -4
 652 0002 84B0     		sub	sp, sp, #16
 653              	.LCFI19:
 654              		.cfi_def_cfa_offset 24
 655 0004 00AF     		add	r7, sp, #0
 656              	.LCFI20:
 657              		.cfi_def_cfa_register 7
 658 0006 7860     		str	r0, [r7, #4]
 266:../Dave/Generated/src/USBCDC001/Drivers/USB/Class/Device/CDC.c ****   if ((USB_DeviceState != DEVICE_STATE_Configured) || !(CDCInterfaceInfo->State.LineEncoding.BaudRa
 659              		.loc 1 266 0
 660 0008 40F20003 		movw	r3, #:lower16:USB_DeviceState
 661 000c C0F20003 		movt	r3, #:upper16:USB_DeviceState
 662 0010 1B78     		ldrb	r3, [r3, #0]
 663 0012 DBB2     		uxtb	r3, r3
 664 0014 042B     		cmp	r3, #4
 665 0016 03D1     		bne	.L50
 666              		.loc 1 266 0 is_stmt 0 discriminator 1
 667 0018 7B68     		ldr	r3, [r7, #4]
 668 001a 1B69     		ldr	r3, [r3, #16]	@ unaligned
 669 001c 002B     		cmp	r3, #0
 670 001e 02D1     		bne	.L51
 671              	.L50:
 267:../Dave/Generated/src/USBCDC001/Drivers/USB/Class/Device/CDC.c ****     return ENDPOINT_RWSTREAM_DeviceDisconnected;
 672              		.loc 1 267 0 is_stmt 1
 673 0020 4FF00203 		mov	r3, #2
 674 0024 29E0     		b	.L52
 675              	.L51:
 268:../Dave/Generated/src/USBCDC001/Drivers/USB/Class/Device/CDC.c **** 
 269:../Dave/Generated/src/USBCDC001/Drivers/USB/Class/Device/CDC.c ****   uint8_t ErrorCode;
 270:../Dave/Generated/src/USBCDC001/Drivers/USB/Class/Device/CDC.c **** 
 271:../Dave/Generated/src/USBCDC001/Drivers/USB/Class/Device/CDC.c ****   Endpoint_SelectEndpoint(CDCInterfaceInfo->Config.DataINEndpointNumber, ENDPOINT_DIR_IN);
 676              		.loc 1 271 0
 677 0026 7B68     		ldr	r3, [r7, #4]
 678 0028 5B78     		ldrb	r3, [r3, #1]	@ zero_extendqisi2
 679 002a 1846     		mov	r0, r3
 680 002c 4FF08001 		mov	r1, #128
 681 0030 FFF7FEFF 		bl	Endpoint_SelectEndpoint
 272:../Dave/Generated/src/USBCDC001/Drivers/USB/Class/Device/CDC.c **** 
 273:../Dave/Generated/src/USBCDC001/Drivers/USB/Class/Device/CDC.c ****   if (!(Endpoint_BytesInEndpoint()))
 682              		.loc 1 273 0
 683 0034 FFF7FEFF 		bl	Endpoint_BytesInEndpoint
 684 0038 0346     		mov	r3, r0
 685 003a 002B     		cmp	r3, #0
 686 003c 02D1     		bne	.L53
 274:../Dave/Generated/src/USBCDC001/Drivers/USB/Class/Device/CDC.c ****     return ENDPOINT_READYWAIT_NoError;
 687              		.loc 1 274 0
 688 003e 4FF00003 		mov	r3, #0
 689 0042 1AE0     		b	.L52
 690              	.L53:
 275:../Dave/Generated/src/USBCDC001/Drivers/USB/Class/Device/CDC.c **** 
 276:../Dave/Generated/src/USBCDC001/Drivers/USB/Class/Device/CDC.c ****   bool BankFull = !(Endpoint_IsReadWriteAllowed());
 691              		.loc 1 276 0
 692 0044 FFF7FEFF 		bl	Endpoint_IsReadWriteAllowed
 693 0048 0346     		mov	r3, r0
 694 004a 002B     		cmp	r3, #0
 695 004c 14BF     		ite	ne
 696 004e 0023     		movne	r3, #0
 697 0050 0123     		moveq	r3, #1
 698 0052 DBB2     		uxtb	r3, r3
 699 0054 FB73     		strb	r3, [r7, #15]
 277:../Dave/Generated/src/USBCDC001/Drivers/USB/Class/Device/CDC.c **** 
 278:../Dave/Generated/src/USBCDC001/Drivers/USB/Class/Device/CDC.c ****   Endpoint_ClearIN();
 700              		.loc 1 278 0
 701 0056 FFF7FEFF 		bl	Endpoint_ClearIN
 279:../Dave/Generated/src/USBCDC001/Drivers/USB/Class/Device/CDC.c **** 
 280:../Dave/Generated/src/USBCDC001/Drivers/USB/Class/Device/CDC.c ****   if (BankFull)
 702              		.loc 1 280 0
 703 005a FB7B     		ldrb	r3, [r7, #15]	@ zero_extendqisi2
 704 005c 002B     		cmp	r3, #0
 705 005e 0AD0     		beq	.L54
 281:../Dave/Generated/src/USBCDC001/Drivers/USB/Class/Device/CDC.c ****   {
 282:../Dave/Generated/src/USBCDC001/Drivers/USB/Class/Device/CDC.c ****     if ((ErrorCode = Endpoint_WaitUntilReady()) != ENDPOINT_READYWAIT_NoError)
 706              		.loc 1 282 0
 707 0060 FFF7FEFF 		bl	Endpoint_WaitUntilReady
 708 0064 0346     		mov	r3, r0
 709 0066 BB73     		strb	r3, [r7, #14]
 710 0068 BB7B     		ldrb	r3, [r7, #14]	@ zero_extendqisi2
 711 006a 002B     		cmp	r3, #0
 712 006c 01D0     		beq	.L55
 283:../Dave/Generated/src/USBCDC001/Drivers/USB/Class/Device/CDC.c ****       return ErrorCode;
 713              		.loc 1 283 0
 714 006e BB7B     		ldrb	r3, [r7, #14]	@ zero_extendqisi2
 715 0070 03E0     		b	.L52
 716              	.L55:
 284:../Dave/Generated/src/USBCDC001/Drivers/USB/Class/Device/CDC.c **** 
 285:../Dave/Generated/src/USBCDC001/Drivers/USB/Class/Device/CDC.c ****     Endpoint_ClearIN();
 717              		.loc 1 285 0
 718 0072 FFF7FEFF 		bl	Endpoint_ClearIN
 719              	.L54:
 286:../Dave/Generated/src/USBCDC001/Drivers/USB/Class/Device/CDC.c ****   }
 287:../Dave/Generated/src/USBCDC001/Drivers/USB/Class/Device/CDC.c **** 
 288:../Dave/Generated/src/USBCDC001/Drivers/USB/Class/Device/CDC.c ****   return ENDPOINT_READYWAIT_NoError;
 720              		.loc 1 288 0
 721 0076 4FF00003 		mov	r3, #0
 722              	.L52:
 289:../Dave/Generated/src/USBCDC001/Drivers/USB/Class/Device/CDC.c **** }
 723              		.loc 1 289 0
 724 007a 1846     		mov	r0, r3
 725 007c 07F11007 		add	r7, r7, #16
 726 0080 BD46     		mov	sp, r7
 727 0082 80BD     		pop	{r7, pc}
 728              		.cfi_endproc
 729              	.LFE9:
 731              		.section	.text.CDC_Device_BytesReceived,"ax",%progbits
 732              		.align	2
 733              		.global	CDC_Device_BytesReceived
 734              		.thumb
 735              		.thumb_func
 737              	CDC_Device_BytesReceived:
 738              	.LFB10:
 290:../Dave/Generated/src/USBCDC001/Drivers/USB/Class/Device/CDC.c **** 
 291:../Dave/Generated/src/USBCDC001/Drivers/USB/Class/Device/CDC.c **** uint16_t CDC_Device_BytesReceived(USB_ClassInfo_CDC_Device_t* const CDCInterfaceInfo)
 292:../Dave/Generated/src/USBCDC001/Drivers/USB/Class/Device/CDC.c **** {
 739              		.loc 1 292 0
 740              		.cfi_startproc
 741              		@ args = 0, pretend = 0, frame = 8
 742              		@ frame_needed = 1, uses_anonymous_args = 0
 743 0000 80B5     		push	{r7, lr}
 744              	.LCFI21:
 745              		.cfi_def_cfa_offset 8
 746              		.cfi_offset 7, -8
 747              		.cfi_offset 14, -4
 748 0002 82B0     		sub	sp, sp, #8
 749              	.LCFI22:
 750              		.cfi_def_cfa_offset 16
 751 0004 00AF     		add	r7, sp, #0
 752              	.LCFI23:
 753              		.cfi_def_cfa_register 7
 754 0006 7860     		str	r0, [r7, #4]
 293:../Dave/Generated/src/USBCDC001/Drivers/USB/Class/Device/CDC.c ****   if ((USB_DeviceState != DEVICE_STATE_Configured) || !(CDCInterfaceInfo->State.LineEncoding.BaudRa
 755              		.loc 1 293 0
 756 0008 40F20003 		movw	r3, #:lower16:USB_DeviceState
 757 000c C0F20003 		movt	r3, #:upper16:USB_DeviceState
 758 0010 1B78     		ldrb	r3, [r3, #0]
 759 0012 DBB2     		uxtb	r3, r3
 760 0014 042B     		cmp	r3, #4
 761 0016 03D1     		bne	.L57
 762              		.loc 1 293 0 is_stmt 0 discriminator 1
 763 0018 7B68     		ldr	r3, [r7, #4]
 764 001a 1B69     		ldr	r3, [r3, #16]	@ unaligned
 765 001c 002B     		cmp	r3, #0
 766 001e 02D1     		bne	.L58
 767              	.L57:
 294:../Dave/Generated/src/USBCDC001/Drivers/USB/Class/Device/CDC.c ****     return 0;
 768              		.loc 1 294 0 is_stmt 1
 769 0020 4FF00003 		mov	r3, #0
 770 0024 1BE0     		b	.L59
 771              	.L58:
 295:../Dave/Generated/src/USBCDC001/Drivers/USB/Class/Device/CDC.c **** 
 296:../Dave/Generated/src/USBCDC001/Drivers/USB/Class/Device/CDC.c ****   Endpoint_SelectEndpoint(CDCInterfaceInfo->Config.DataOUTEndpointNumber, ENDPOINT_DIR_OUT);
 772              		.loc 1 296 0
 773 0026 7B68     		ldr	r3, [r7, #4]
 774 0028 5B79     		ldrb	r3, [r3, #5]	@ zero_extendqisi2
 775 002a 1846     		mov	r0, r3
 776 002c 4FF00001 		mov	r1, #0
 777 0030 FFF7FEFF 		bl	Endpoint_SelectEndpoint
 297:../Dave/Generated/src/USBCDC001/Drivers/USB/Class/Device/CDC.c **** 
 298:../Dave/Generated/src/USBCDC001/Drivers/USB/Class/Device/CDC.c ****   if (Endpoint_IsOUTReceived())
 778              		.loc 1 298 0
 779 0034 FFF7FEFF 		bl	Endpoint_IsOUTReceived
 780 0038 0346     		mov	r3, r0
 781 003a 002B     		cmp	r3, #0
 782 003c 0DD0     		beq	.L60
 299:../Dave/Generated/src/USBCDC001/Drivers/USB/Class/Device/CDC.c ****   {
 300:../Dave/Generated/src/USBCDC001/Drivers/USB/Class/Device/CDC.c ****     if (!(Endpoint_BytesInEndpoint()))
 783              		.loc 1 300 0
 784 003e FFF7FEFF 		bl	Endpoint_BytesInEndpoint
 785 0042 0346     		mov	r3, r0
 786 0044 002B     		cmp	r3, #0
 787 0046 04D1     		bne	.L61
 301:../Dave/Generated/src/USBCDC001/Drivers/USB/Class/Device/CDC.c ****     {
 302:../Dave/Generated/src/USBCDC001/Drivers/USB/Class/Device/CDC.c ****       Endpoint_ClearOUT();
 788              		.loc 1 302 0
 789 0048 FFF7FEFF 		bl	Endpoint_ClearOUT
 303:../Dave/Generated/src/USBCDC001/Drivers/USB/Class/Device/CDC.c ****       return 0;
 790              		.loc 1 303 0
 791 004c 4FF00003 		mov	r3, #0
 792 0050 05E0     		b	.L59
 793              	.L61:
 304:../Dave/Generated/src/USBCDC001/Drivers/USB/Class/Device/CDC.c ****     }
 305:../Dave/Generated/src/USBCDC001/Drivers/USB/Class/Device/CDC.c ****     else
 306:../Dave/Generated/src/USBCDC001/Drivers/USB/Class/Device/CDC.c ****     {
 307:../Dave/Generated/src/USBCDC001/Drivers/USB/Class/Device/CDC.c ****       return Endpoint_BytesInEndpoint();
 794              		.loc 1 307 0
 795 0052 FFF7FEFF 		bl	Endpoint_BytesInEndpoint
 796 0056 0346     		mov	r3, r0
 797 0058 01E0     		b	.L59
 798              	.L60:
 308:../Dave/Generated/src/USBCDC001/Drivers/USB/Class/Device/CDC.c ****     }
 309:../Dave/Generated/src/USBCDC001/Drivers/USB/Class/Device/CDC.c ****   }
 310:../Dave/Generated/src/USBCDC001/Drivers/USB/Class/Device/CDC.c ****   else
 311:../Dave/Generated/src/USBCDC001/Drivers/USB/Class/Device/CDC.c ****   {
 312:../Dave/Generated/src/USBCDC001/Drivers/USB/Class/Device/CDC.c ****     return 0;
 799              		.loc 1 312 0
 800 005a 4FF00003 		mov	r3, #0
 801              	.L59:
 313:../Dave/Generated/src/USBCDC001/Drivers/USB/Class/Device/CDC.c ****   }
 314:../Dave/Generated/src/USBCDC001/Drivers/USB/Class/Device/CDC.c **** }
 802              		.loc 1 314 0
 803 005e 1846     		mov	r0, r3
 804 0060 07F10807 		add	r7, r7, #8
 805 0064 BD46     		mov	sp, r7
 806 0066 80BD     		pop	{r7, pc}
 807              		.cfi_endproc
 808              	.LFE10:
 810              		.section	.text.CDC_Device_ReceiveByte,"ax",%progbits
 811              		.align	2
 812              		.global	CDC_Device_ReceiveByte
 813              		.thumb
 814              		.thumb_func
 816              	CDC_Device_ReceiveByte:
 817              	.LFB11:
 315:../Dave/Generated/src/USBCDC001/Drivers/USB/Class/Device/CDC.c **** 
 316:../Dave/Generated/src/USBCDC001/Drivers/USB/Class/Device/CDC.c **** int16_t CDC_Device_ReceiveByte(USB_ClassInfo_CDC_Device_t* const CDCInterfaceInfo)
 317:../Dave/Generated/src/USBCDC001/Drivers/USB/Class/Device/CDC.c **** {
 818              		.loc 1 317 0
 819              		.cfi_startproc
 820              		@ args = 0, pretend = 0, frame = 16
 821              		@ frame_needed = 1, uses_anonymous_args = 0
 822 0000 80B5     		push	{r7, lr}
 823              	.LCFI24:
 824              		.cfi_def_cfa_offset 8
 825              		.cfi_offset 7, -8
 826              		.cfi_offset 14, -4
 827 0002 84B0     		sub	sp, sp, #16
 828              	.LCFI25:
 829              		.cfi_def_cfa_offset 24
 830 0004 00AF     		add	r7, sp, #0
 831              	.LCFI26:
 832              		.cfi_def_cfa_register 7
 833 0006 7860     		str	r0, [r7, #4]
 318:../Dave/Generated/src/USBCDC001/Drivers/USB/Class/Device/CDC.c ****   if ((USB_DeviceState != DEVICE_STATE_Configured) || !(CDCInterfaceInfo->State.LineEncoding.BaudRa
 834              		.loc 1 318 0
 835 0008 40F20003 		movw	r3, #:lower16:USB_DeviceState
 836 000c C0F20003 		movt	r3, #:upper16:USB_DeviceState
 837 0010 1B78     		ldrb	r3, [r3, #0]
 838 0012 DBB2     		uxtb	r3, r3
 839 0014 042B     		cmp	r3, #4
 840 0016 03D1     		bne	.L63
 841              		.loc 1 318 0 is_stmt 0 discriminator 1
 842 0018 7B68     		ldr	r3, [r7, #4]
 843 001a 1B69     		ldr	r3, [r3, #16]	@ unaligned
 844 001c 002B     		cmp	r3, #0
 845 001e 02D1     		bne	.L64
 846              	.L63:
 319:../Dave/Generated/src/USBCDC001/Drivers/USB/Class/Device/CDC.c ****     return -1;
 847              		.loc 1 319 0 is_stmt 1
 848 0020 4FF6FF73 		movw	r3, #65535
 849 0024 1FE0     		b	.L65
 850              	.L64:
 320:../Dave/Generated/src/USBCDC001/Drivers/USB/Class/Device/CDC.c **** 
 321:../Dave/Generated/src/USBCDC001/Drivers/USB/Class/Device/CDC.c ****   int16_t ReceivedByte = -1;
 851              		.loc 1 321 0
 852 0026 4FF6FF73 		movw	r3, #65535
 853 002a FB81     		strh	r3, [r7, #14]	@ movhi
 322:../Dave/Generated/src/USBCDC001/Drivers/USB/Class/Device/CDC.c **** 
 323:../Dave/Generated/src/USBCDC001/Drivers/USB/Class/Device/CDC.c ****   Endpoint_SelectEndpoint(CDCInterfaceInfo->Config.DataOUTEndpointNumber, ENDPOINT_DIR_OUT);
 854              		.loc 1 323 0
 855 002c 7B68     		ldr	r3, [r7, #4]
 856 002e 5B79     		ldrb	r3, [r3, #5]	@ zero_extendqisi2
 857 0030 1846     		mov	r0, r3
 858 0032 4FF00001 		mov	r1, #0
 859 0036 FFF7FEFF 		bl	Endpoint_SelectEndpoint
 324:../Dave/Generated/src/USBCDC001/Drivers/USB/Class/Device/CDC.c **** 
 325:../Dave/Generated/src/USBCDC001/Drivers/USB/Class/Device/CDC.c ****   if (Endpoint_IsOUTReceived())
 860              		.loc 1 325 0
 861 003a FFF7FEFF 		bl	Endpoint_IsOUTReceived
 862 003e 0346     		mov	r3, r0
 863 0040 002B     		cmp	r3, #0
 864 0042 0FD0     		beq	.L66
 326:../Dave/Generated/src/USBCDC001/Drivers/USB/Class/Device/CDC.c ****   {
 327:../Dave/Generated/src/USBCDC001/Drivers/USB/Class/Device/CDC.c ****     if (Endpoint_BytesInEndpoint())
 865              		.loc 1 327 0
 866 0044 FFF7FEFF 		bl	Endpoint_BytesInEndpoint
 867 0048 0346     		mov	r3, r0
 868 004a 002B     		cmp	r3, #0
 869 004c 03D0     		beq	.L67
 328:../Dave/Generated/src/USBCDC001/Drivers/USB/Class/Device/CDC.c ****       ReceivedByte = Endpoint_Read_8();
 870              		.loc 1 328 0
 871 004e FFF7FEFF 		bl	Endpoint_Read_8
 872 0052 0346     		mov	r3, r0
 873 0054 FB81     		strh	r3, [r7, #14]	@ movhi
 874              	.L67:
 329:../Dave/Generated/src/USBCDC001/Drivers/USB/Class/Device/CDC.c **** 
 330:../Dave/Generated/src/USBCDC001/Drivers/USB/Class/Device/CDC.c ****     if (!(Endpoint_BytesInEndpoint()))
 875              		.loc 1 330 0
 876 0056 FFF7FEFF 		bl	Endpoint_BytesInEndpoint
 877 005a 0346     		mov	r3, r0
 878 005c 002B     		cmp	r3, #0
 879 005e 01D1     		bne	.L66
 331:../Dave/Generated/src/USBCDC001/Drivers/USB/Class/Device/CDC.c ****       Endpoint_ClearOUT();
 880              		.loc 1 331 0
 881 0060 FFF7FEFF 		bl	Endpoint_ClearOUT
 882              	.L66:
 332:../Dave/Generated/src/USBCDC001/Drivers/USB/Class/Device/CDC.c ****   }
 333:../Dave/Generated/src/USBCDC001/Drivers/USB/Class/Device/CDC.c **** 
 334:../Dave/Generated/src/USBCDC001/Drivers/USB/Class/Device/CDC.c ****   return ReceivedByte;
 883              		.loc 1 334 0
 884 0064 FB89     		ldrh	r3, [r7, #14]
 885              	.L65:
 886 0066 1BB2     		sxth	r3, r3
 335:../Dave/Generated/src/USBCDC001/Drivers/USB/Class/Device/CDC.c **** }
 887              		.loc 1 335 0
 888 0068 1846     		mov	r0, r3
 889 006a 07F11007 		add	r7, r7, #16
 890 006e BD46     		mov	sp, r7
 891 0070 80BD     		pop	{r7, pc}
 892              		.cfi_endproc
 893              	.LFE11:
 895 0072 00BF     		.section	.rodata
 896              		.align	2
 897              	.LC0:
 898 0000 A1       		.byte	-95
 899 0001 20       		.byte	32
 900 0002 0000     		.short	0
 901 0004 0000     		.short	0
 902 0006 0100     		.short	1
 903              		.section	.text.CDC_Device_SendControlLineStateChange,"ax",%progbits
 904              		.align	2
 905              		.global	CDC_Device_SendControlLineStateChange
 906              		.thumb
 907              		.thumb_func
 909              	CDC_Device_SendControlLineStateChange:
 910              	.LFB12:
 336:../Dave/Generated/src/USBCDC001/Drivers/USB/Class/Device/CDC.c **** 
 337:../Dave/Generated/src/USBCDC001/Drivers/USB/Class/Device/CDC.c **** void CDC_Device_SendControlLineStateChange(USB_ClassInfo_CDC_Device_t* const CDCInterfaceInfo)
 338:../Dave/Generated/src/USBCDC001/Drivers/USB/Class/Device/CDC.c **** {
 911              		.loc 1 338 0
 912              		.cfi_startproc
 913              		@ args = 0, pretend = 0, frame = 16
 914              		@ frame_needed = 1, uses_anonymous_args = 0
 915 0000 80B5     		push	{r7, lr}
 916              	.LCFI27:
 917              		.cfi_def_cfa_offset 8
 918              		.cfi_offset 7, -8
 919              		.cfi_offset 14, -4
 920 0002 84B0     		sub	sp, sp, #16
 921              	.LCFI28:
 922              		.cfi_def_cfa_offset 24
 923 0004 00AF     		add	r7, sp, #0
 924              	.LCFI29:
 925              		.cfi_def_cfa_register 7
 926 0006 7860     		str	r0, [r7, #4]
 339:../Dave/Generated/src/USBCDC001/Drivers/USB/Class/Device/CDC.c ****   if ((USB_DeviceState != DEVICE_STATE_Configured) || !(CDCInterfaceInfo->State.LineEncoding.BaudRa
 927              		.loc 1 339 0
 928 0008 40F20003 		movw	r3, #:lower16:USB_DeviceState
 929 000c C0F20003 		movt	r3, #:upper16:USB_DeviceState
 930 0010 1B78     		ldrb	r3, [r3, #0]
 931 0012 DBB2     		uxtb	r3, r3
 932 0014 042B     		cmp	r3, #4
 933 0016 28D1     		bne	.L68
 934              		.loc 1 339 0 is_stmt 0 discriminator 1
 935 0018 7B68     		ldr	r3, [r7, #4]
 936 001a 1B69     		ldr	r3, [r3, #16]	@ unaligned
 937 001c 002B     		cmp	r3, #0
 938 001e 24D0     		beq	.L68
 340:../Dave/Generated/src/USBCDC001/Drivers/USB/Class/Device/CDC.c ****     return;
 341:../Dave/Generated/src/USBCDC001/Drivers/USB/Class/Device/CDC.c **** 
 342:../Dave/Generated/src/USBCDC001/Drivers/USB/Class/Device/CDC.c ****   Endpoint_SelectEndpoint(CDCInterfaceInfo->Config.NotificationEndpointNumber, ENDPOINT_DIR_IN);
 939              		.loc 1 342 0 is_stmt 1
 940 0020 7B68     		ldr	r3, [r7, #4]
 941 0022 5B7A     		ldrb	r3, [r3, #9]	@ zero_extendqisi2
 942 0024 1846     		mov	r0, r3
 943 0026 4FF08001 		mov	r1, #128
 944 002a FFF7FEFF 		bl	Endpoint_SelectEndpoint
 343:../Dave/Generated/src/USBCDC001/Drivers/USB/Class/Device/CDC.c **** 
 344:../Dave/Generated/src/USBCDC001/Drivers/USB/Class/Device/CDC.c ****   USB_Request_Header_t Notification = (USB_Request_Header_t)
 945              		.loc 1 344 0
 946 002e 40F20002 		movw	r2, #:lower16:.LC0
 947 0032 C0F20002 		movt	r2, #:upper16:.LC0
 948 0036 07F10803 		add	r3, r7, #8
 949 003a 1068     		ldr	r0, [r2, #0]	@ unaligned
 950 003c 5168     		ldr	r1, [r2, #4]	@ unaligned
 951 003e 03C3     		stmia	r3!, {r0, r1}
 345:../Dave/Generated/src/USBCDC001/Drivers/USB/Class/Device/CDC.c ****         {
 346:../Dave/Generated/src/USBCDC001/Drivers/USB/Class/Device/CDC.c ****     .bmRequestType = (REQDIR_DEVICETOHOST | REQTYPE_CLASS | REQREC_INTERFACE),
 347:../Dave/Generated/src/USBCDC001/Drivers/USB/Class/Device/CDC.c ****         .bRequest      = CDC_NOTIF_SerialState,
 348:../Dave/Generated/src/USBCDC001/Drivers/USB/Class/Device/CDC.c ****         .wValue        = 0,
 349:../Dave/Generated/src/USBCDC001/Drivers/USB/Class/Device/CDC.c ****         .wIndex        = 0,
 350:../Dave/Generated/src/USBCDC001/Drivers/USB/Class/Device/CDC.c ****         .wLength       = sizeof(CDCInterfaceInfo->State.ControlLineStates.DeviceToHost),
 351:../Dave/Generated/src/USBCDC001/Drivers/USB/Class/Device/CDC.c ****         };
 352:../Dave/Generated/src/USBCDC001/Drivers/USB/Class/Device/CDC.c **** 
 353:../Dave/Generated/src/USBCDC001/Drivers/USB/Class/Device/CDC.c ****   Endpoint_Write_Stream_LE(&Notification, sizeof(USB_Request_Header_t), NULL);
 952              		.loc 1 353 0
 953 0040 07F10803 		add	r3, r7, #8
 954 0044 1846     		mov	r0, r3
 955 0046 4FF00801 		mov	r1, #8
 956 004a 4FF00002 		mov	r2, #0
 957 004e FFF7FEFF 		bl	Endpoint_Write_Stream_LE
 354:../Dave/Generated/src/USBCDC001/Drivers/USB/Class/Device/CDC.c ****   Endpoint_Write_Stream_LE(&CDCInterfaceInfo->State.ControlLineStates.DeviceToHost,
 958              		.loc 1 354 0
 959 0052 7B68     		ldr	r3, [r7, #4]
 960 0054 03F10F03 		add	r3, r3, #15
 961 0058 1846     		mov	r0, r3
 962 005a 4FF00101 		mov	r1, #1
 963 005e 4FF00002 		mov	r2, #0
 964 0062 FFF7FEFF 		bl	Endpoint_Write_Stream_LE
 355:../Dave/Generated/src/USBCDC001/Drivers/USB/Class/Device/CDC.c ****       sizeof(CDCInterfaceInfo->State.ControlLineStates.DeviceToHost),
 356:../Dave/Generated/src/USBCDC001/Drivers/USB/Class/Device/CDC.c ****       NULL);
 357:../Dave/Generated/src/USBCDC001/Drivers/USB/Class/Device/CDC.c ****   Endpoint_ClearIN();
 965              		.loc 1 357 0
 966 0066 FFF7FEFF 		bl	Endpoint_ClearIN
 967              	.L68:
 358:../Dave/Generated/src/USBCDC001/Drivers/USB/Class/Device/CDC.c **** }
 968              		.loc 1 358 0
 969 006a 07F11007 		add	r7, r7, #16
 970 006e BD46     		mov	sp, r7
 971 0070 80BD     		pop	{r7, pc}
 972              		.cfi_endproc
 973              	.LFE12:
 975 0072 00BF     		.section	.text.CDC_Device_Event_Stub,"ax",%progbits
 976              		.align	2
 977              		.global	CDC_Device_Event_Stub
 978              		.thumb
 979              		.thumb_func
 981              	CDC_Device_Event_Stub:
 982              	.LFB13:
 359:../Dave/Generated/src/USBCDC001/Drivers/USB/Class/Device/CDC.c **** 
 360:../Dave/Generated/src/USBCDC001/Drivers/USB/Class/Device/CDC.c **** #if defined(FDEV_SETUP_STREAM)
 361:../Dave/Generated/src/USBCDC001/Drivers/USB/Class/Device/CDC.c **** void CDC_Device_CreateStream(USB_ClassInfo_CDC_Device_t* const CDCInterfaceInfo,
 362:../Dave/Generated/src/USBCDC001/Drivers/USB/Class/Device/CDC.c ****     FILE* const Stream)
 363:../Dave/Generated/src/USBCDC001/Drivers/USB/Class/Device/CDC.c **** {
 364:../Dave/Generated/src/USBCDC001/Drivers/USB/Class/Device/CDC.c ****   *Stream = (FILE)FDEV_SETUP_STREAM(CDC_Device_putchar, CDC_Device_getchar, _FDEV_SETUP_RW);
 365:../Dave/Generated/src/USBCDC001/Drivers/USB/Class/Device/CDC.c ****   fdev_set_udata(Stream, CDCInterfaceInfo);
 366:../Dave/Generated/src/USBCDC001/Drivers/USB/Class/Device/CDC.c **** }
 367:../Dave/Generated/src/USBCDC001/Drivers/USB/Class/Device/CDC.c **** 
 368:../Dave/Generated/src/USBCDC001/Drivers/USB/Class/Device/CDC.c **** void CDC_Device_CreateBlockingStream(USB_ClassInfo_CDC_Device_t* const CDCInterfaceInfo,
 369:../Dave/Generated/src/USBCDC001/Drivers/USB/Class/Device/CDC.c ****                                      FILE* const Stream)
 370:../Dave/Generated/src/USBCDC001/Drivers/USB/Class/Device/CDC.c **** {
 371:../Dave/Generated/src/USBCDC001/Drivers/USB/Class/Device/CDC.c ****   *Stream = (FILE)FDEV_SETUP_STREAM(CDC_Device_putchar, CDC_Device_getchar_Blocking, _FDEV_SETUP_RW
 372:../Dave/Generated/src/USBCDC001/Drivers/USB/Class/Device/CDC.c ****   fdev_set_udata(Stream, CDCInterfaceInfo);
 373:../Dave/Generated/src/USBCDC001/Drivers/USB/Class/Device/CDC.c **** }
 374:../Dave/Generated/src/USBCDC001/Drivers/USB/Class/Device/CDC.c **** 
 375:../Dave/Generated/src/USBCDC001/Drivers/USB/Class/Device/CDC.c **** static int CDC_Device_putchar(char c,
 376:../Dave/Generated/src/USBCDC001/Drivers/USB/Class/Device/CDC.c ****     FILE* Stream)
 377:../Dave/Generated/src/USBCDC001/Drivers/USB/Class/Device/CDC.c **** {
 378:../Dave/Generated/src/USBCDC001/Drivers/USB/Class/Device/CDC.c ****   return CDC_Device_SendByte((USB_ClassInfo_CDC_Device_t*)fdev_get_udata(Stream), c) ? _FDEV_ERR : 
 379:../Dave/Generated/src/USBCDC001/Drivers/USB/Class/Device/CDC.c **** }
 380:../Dave/Generated/src/USBCDC001/Drivers/USB/Class/Device/CDC.c **** 
 381:../Dave/Generated/src/USBCDC001/Drivers/USB/Class/Device/CDC.c **** static int CDC_Device_getchar(FILE* Stream)
 382:../Dave/Generated/src/USBCDC001/Drivers/USB/Class/Device/CDC.c **** {
 383:../Dave/Generated/src/USBCDC001/Drivers/USB/Class/Device/CDC.c ****   int16_t ReceivedByte = CDC_Device_ReceiveByte((USB_ClassInfo_CDC_Device_t*)fdev_get_udata(Stream)
 384:../Dave/Generated/src/USBCDC001/Drivers/USB/Class/Device/CDC.c **** 
 385:../Dave/Generated/src/USBCDC001/Drivers/USB/Class/Device/CDC.c ****   if (ReceivedByte < 0)
 386:../Dave/Generated/src/USBCDC001/Drivers/USB/Class/Device/CDC.c ****     return _FDEV_EOF;
 387:../Dave/Generated/src/USBCDC001/Drivers/USB/Class/Device/CDC.c **** 
 388:../Dave/Generated/src/USBCDC001/Drivers/USB/Class/Device/CDC.c ****   return ReceivedByte;
 389:../Dave/Generated/src/USBCDC001/Drivers/USB/Class/Device/CDC.c **** }
 390:../Dave/Generated/src/USBCDC001/Drivers/USB/Class/Device/CDC.c **** 
 391:../Dave/Generated/src/USBCDC001/Drivers/USB/Class/Device/CDC.c **** static int CDC_Device_getchar_Blocking(FILE* Stream)
 392:../Dave/Generated/src/USBCDC001/Drivers/USB/Class/Device/CDC.c **** {
 393:../Dave/Generated/src/USBCDC001/Drivers/USB/Class/Device/CDC.c ****   int16_t ReceivedByte;
 394:../Dave/Generated/src/USBCDC001/Drivers/USB/Class/Device/CDC.c **** 
 395:../Dave/Generated/src/USBCDC001/Drivers/USB/Class/Device/CDC.c ****   while ((ReceivedByte = CDC_Device_ReceiveByte((USB_ClassInfo_CDC_Device_t*)fdev_get_udata(Stream)
 396:../Dave/Generated/src/USBCDC001/Drivers/USB/Class/Device/CDC.c ****   {
 397:../Dave/Generated/src/USBCDC001/Drivers/USB/Class/Device/CDC.c ****     if (USB_DeviceState == DEVICE_STATE_Unattached)
 398:../Dave/Generated/src/USBCDC001/Drivers/USB/Class/Device/CDC.c ****       return _FDEV_EOF;
 399:../Dave/Generated/src/USBCDC001/Drivers/USB/Class/Device/CDC.c **** 
 400:../Dave/Generated/src/USBCDC001/Drivers/USB/Class/Device/CDC.c ****     CDC_Device_USBTask((USB_ClassInfo_CDC_Device_t*)fdev_get_udata(Stream));
 401:../Dave/Generated/src/USBCDC001/Drivers/USB/Class/Device/CDC.c ****     USB_USBTask();
 402:../Dave/Generated/src/USBCDC001/Drivers/USB/Class/Device/CDC.c ****   }
 403:../Dave/Generated/src/USBCDC001/Drivers/USB/Class/Device/CDC.c **** 
 404:../Dave/Generated/src/USBCDC001/Drivers/USB/Class/Device/CDC.c ****   return ReceivedByte;
 405:../Dave/Generated/src/USBCDC001/Drivers/USB/Class/Device/CDC.c **** }
 406:../Dave/Generated/src/USBCDC001/Drivers/USB/Class/Device/CDC.c **** #endif
 407:../Dave/Generated/src/USBCDC001/Drivers/USB/Class/Device/CDC.c **** 
 408:../Dave/Generated/src/USBCDC001/Drivers/USB/Class/Device/CDC.c **** void CDC_Device_Event_Stub(void)
 409:../Dave/Generated/src/USBCDC001/Drivers/USB/Class/Device/CDC.c **** {
 983              		.loc 1 409 0
 984              		.cfi_startproc
 985              		@ args = 0, pretend = 0, frame = 0
 986              		@ frame_needed = 1, uses_anonymous_args = 0
 987              		@ link register save eliminated.
 988 0000 80B4     		push	{r7}
 989              	.LCFI30:
 990              		.cfi_def_cfa_offset 4
 991              		.cfi_offset 7, -4
 992 0002 00AF     		add	r7, sp, #0
 993              	.LCFI31:
 994              		.cfi_def_cfa_register 7
 410:../Dave/Generated/src/USBCDC001/Drivers/USB/Class/Device/CDC.c **** 
 411:../Dave/Generated/src/USBCDC001/Drivers/USB/Class/Device/CDC.c **** }
 995              		.loc 1 411 0
 996 0004 BD46     		mov	sp, r7
 997 0006 80BC     		pop	{r7}
 998 0008 7047     		bx	lr
 999              		.cfi_endproc
 1000              	.LFE13:
 1002              		.weak	EVENT_CDC_Device_ControLineStateChanged
 1003              		.thumb_set EVENT_CDC_Device_ControLineStateChanged,CDC_Device_Event_Stub
 1004              		.weak	EVENT_CDC_Device_BreakSent
 1005              		.thumb_set EVENT_CDC_Device_BreakSent,CDC_Device_Event_Stub
 1006              		.weak	EVENT_CDC_Device_LineEncodingChanged
 1007              		.thumb_set EVENT_CDC_Device_LineEncodingChanged,CDC_Device_Event_Stub
 1008 000a 00BF     		.text
 1009              	.Letext0:
 1010              		.file 2 "c:\\dave-3.1.10\\arm-gcc\\bin\\../lib/gcc/arm-none-eabi/4.7.4/../../../../arm-none-eabi/i
 1011              		.file 3 "C:\\DAVE_WorkSpace\\20\\CORE_Larix_V1.0\\Dave\\Generated\\inc\\LIBS/types.h"
 1012              		.file 4 "C:\\DAVE_WorkSpace\\20\\CORE_Larix_V1.0\\Dave\\Generated\\inc\\DAVESupport/../../inc/USBC
 1013              		.file 5 "../Dave/Generated/src/USBCDC001/Drivers/USB/Class/Device/../../Core/StdRequestType.h"
 1014              		.file 6 "../Dave/Generated/src/USBCDC001/Drivers/USB/Class/Device/../../Core/Device.h"
 1015              		.file 7 "../Dave/Generated/src/USBCDC001/Drivers/USB/Class/Device/../Common/CDC.h"
 1016              		.file 8 "../Dave/Generated/src/USBCDC001/Drivers/USB/Class/Device/CDC.h"
 1017              		.file 9 "../Dave/Generated/src/USBCDC001/Drivers/USB/Class/Device/../../Core/USBTask.h"