   1              		.cpu cortex-m0
   2              		.fpu softvfp
   3              		.eabi_attribute 20, 1
   4              		.eabi_attribute 21, 1
   5              		.eabi_attribute 23, 3
   6              		.eabi_attribute 24, 1
   7              		.eabi_attribute 25, 1
   8              		.eabi_attribute 26, 1
   9              		.eabi_attribute 30, 6
  10              		.eabi_attribute 34, 0
  11              		.eabi_attribute 18, 4
  12              		.code	16
  13              		.file	"System_LibcStubs.c"
  14              		.text
  15              	.Ltext0:
  16              		.cfi_sections	.debug_frame
  17              		.section	.text._open,"ax",%progbits
  18              		.align	2
  19              		.weak	_open
  20              		.code	16
  21              		.thumb_func
  23              	_open:
  24              	.LFB0:
  25              		.file 1 "../Lib/System_LibcStubs.c"
   1:../Lib/System_LibcStubs.c **** /****************************************************************************/
   2:../Lib/System_LibcStubs.c **** /**
   3:../Lib/System_LibcStubs.c **** * @file     System_LibcStubs.c
   4:../Lib/System_LibcStubs.c **** *           XMC4000 Device Series
   5:../Lib/System_LibcStubs.c **** * @version  V1.3
   6:../Lib/System_LibcStubs.c **** * @date     Jan 2014
   7:../Lib/System_LibcStubs.c **** *
   8:../Lib/System_LibcStubs.c **** * Copyright (C) 2012-2014 Infineon Technologies AG. All rights reserved.
   9:../Lib/System_LibcStubs.c **** *
  10:../Lib/System_LibcStubs.c **** *
  11:../Lib/System_LibcStubs.c **** * @par
  12:../Lib/System_LibcStubs.c **** * Infineon Technologies AG (Infineon) is supplying this software for use with 
  13:../Lib/System_LibcStubs.c **** * Infineon's microcontrollers.  This file can be freely distributed within
  14:../Lib/System_LibcStubs.c **** * development tools that are supporting such microcontrollers.
  15:../Lib/System_LibcStubs.c **** *
  16:../Lib/System_LibcStubs.c **** * @par
  17:../Lib/System_LibcStubs.c **** * THIS SOFTWARE IS PROVIDED AS IS.  NO WARRANTIES, WHETHER EXPRESS, IMPLIED
  18:../Lib/System_LibcStubs.c **** * OR STATUTORY, INCLUDING, BUT NOT LIMITED TO, IMPLIED WARRANTIES OF
  19:../Lib/System_LibcStubs.c **** * MERCHANTABILITY AND FITNESS FOR A PARTICULAR PURPOSE APPLY TO THIS SOFTWARE.
  20:../Lib/System_LibcStubs.c **** * ARM SHALL NOT, IN ANY CIRCUMSTANCES, BE LIABLE FOR SPECIAL, INCIDENTAL, OR
  21:../Lib/System_LibcStubs.c **** * CONSEQUENTIAL DAMAGES, FOR ANY REASON WHATSOEVER.
  22:../Lib/System_LibcStubs.c **** *
  23:../Lib/System_LibcStubs.c **** ******************************************************************************/
  24:../Lib/System_LibcStubs.c **** 
  25:../Lib/System_LibcStubs.c **** /* ============================ REVISION HISTORY ==============================
  26:../Lib/System_LibcStubs.c ****    1. Prakash Kalanjeri Balasubramanian , V0.1 , Initial draft
  27:../Lib/System_LibcStubs.c ****    2. Prakash Kalanjeri Balasubramanian , V0.2 , Label updates
  28:../Lib/System_LibcStubs.c ****    3. Prakash Kalanjeri Balasubramanian , V1.0 , Made _Sbrk device agnostic
  29:../Lib/System_LibcStubs.c ****    3. Prakash Kalanjeri Balasubramanian , V1.1 , C++ support
  30:../Lib/System_LibcStubs.c ****    3. Prakash Kalanjeri Balasubramanian , V1.2 , Restored compatibilty with old
  31:../Lib/System_LibcStubs.c ****                                                  project files
  32:../Lib/System_LibcStubs.c ****    4. Prakash Kalanjeri Balasubramanian, V1.3 ,  Encapsulating everything in
  33:../Lib/System_LibcStubs.c ****                                                  this file for use only with
  34:../Lib/System_LibcStubs.c ****                                                  GCC
  35:../Lib/System_LibcStubs.c ****    ========================================================================= */
  36:../Lib/System_LibcStubs.c **** 
  37:../Lib/System_LibcStubs.c **** /*
  38:../Lib/System_LibcStubs.c ****  * This file contains stubs for standard C library functionality that must
  39:../Lib/System_LibcStubs.c ****  * typically be provided for the underlying platform.
  40:../Lib/System_LibcStubs.c ****  *
  41:../Lib/System_LibcStubs.c ****  * All routines are WEAKLY defined. This creates an opportunity for application
  42:../Lib/System_LibcStubs.c ****  * developers to override the provided implementation and define a final
  43:../Lib/System_LibcStubs.c ****  * implementation for their platforms.
  44:../Lib/System_LibcStubs.c ****  */
  45:../Lib/System_LibcStubs.c **** #if   defined ( __GNUC__ )
  46:../Lib/System_LibcStubs.c **** 
  47:../Lib/System_LibcStubs.c **** #include <sys/stat.h>
  48:../Lib/System_LibcStubs.c **** #include <sys/times.h>
  49:../Lib/System_LibcStubs.c **** #include <unistd.h>
  50:../Lib/System_LibcStubs.c **** 
  51:../Lib/System_LibcStubs.c **** /* ========================================================================= */
  52:../Lib/System_LibcStubs.c **** /* =========================== File I/O related ============================ */
  53:../Lib/System_LibcStubs.c **** /* ========================================================================= */
  54:../Lib/System_LibcStubs.c **** /*
  55:../Lib/System_LibcStubs.c ****  * File open
  56:../Lib/System_LibcStubs.c ****  */
  57:../Lib/System_LibcStubs.c **** __attribute__((weak)) int _open(const char *name, int flags, int mode)
  58:../Lib/System_LibcStubs.c **** {
  26              		.loc 1 58 0
  27              		.cfi_startproc
  28 0000 80B5     		push	{r7, lr}
  29              	.LCFI0:
  30              		.cfi_def_cfa_offset 8
  31              		.cfi_offset 7, -8
  32              		.cfi_offset 14, -4
  33 0002 84B0     		sub	sp, sp, #16
  34              	.LCFI1:
  35              		.cfi_def_cfa_offset 24
  36 0004 00AF     		add	r7, sp, #0
  37              	.LCFI2:
  38              		.cfi_def_cfa_register 7
  39 0006 F860     		str	r0, [r7, #12]
  40 0008 B960     		str	r1, [r7, #8]
  41 000a 7A60     		str	r2, [r7, #4]
  59:../Lib/System_LibcStubs.c ****  flags = flags;
  60:../Lib/System_LibcStubs.c ****  mode = mode;
  61:../Lib/System_LibcStubs.c ****  return -1;
  42              		.loc 1 61 0
  43 000c 0123     		mov	r3, #1
  44 000e 5B42     		neg	r3, r3
  62:../Lib/System_LibcStubs.c **** }
  45              		.loc 1 62 0
  46 0010 181C     		mov	r0, r3
  47 0012 BD46     		mov	sp, r7
  48 0014 04B0     		add	sp, sp, #16
  49              		@ sp needed for prologue
  50 0016 80BD     		pop	{r7, pc}
  51              		.cfi_endproc
  52              	.LFE0:
  54              		.section	.text._lseek,"ax",%progbits
  55              		.align	2
  56              		.weak	_lseek
  57              		.code	16
  58              		.thumb_func
  60              	_lseek:
  61              	.LFB1:
  63:../Lib/System_LibcStubs.c **** 
  64:../Lib/System_LibcStubs.c **** /*
  65:../Lib/System_LibcStubs.c ****  * File position seek
  66:../Lib/System_LibcStubs.c ****  */
  67:../Lib/System_LibcStubs.c **** __attribute__((weak)) int _lseek(int file, int offset, int whence)
  68:../Lib/System_LibcStubs.c **** {
  62              		.loc 1 68 0
  63              		.cfi_startproc
  64 0000 80B5     		push	{r7, lr}
  65              	.LCFI3:
  66              		.cfi_def_cfa_offset 8
  67              		.cfi_offset 7, -8
  68              		.cfi_offset 14, -4
  69 0002 84B0     		sub	sp, sp, #16
  70              	.LCFI4:
  71              		.cfi_def_cfa_offset 24
  72 0004 00AF     		add	r7, sp, #0
  73              	.LCFI5:
  74              		.cfi_def_cfa_register 7
  75 0006 F860     		str	r0, [r7, #12]
  76 0008 B960     		str	r1, [r7, #8]
  77 000a 7A60     		str	r2, [r7, #4]
  69:../Lib/System_LibcStubs.c ****  file = file;
  70:../Lib/System_LibcStubs.c ****  offset = offset;
  71:../Lib/System_LibcStubs.c ****  whence = whence;
  72:../Lib/System_LibcStubs.c ****  return -1;
  78              		.loc 1 72 0
  79 000c 0123     		mov	r3, #1
  80 000e 5B42     		neg	r3, r3
  73:../Lib/System_LibcStubs.c **** }
  81              		.loc 1 73 0
  82 0010 181C     		mov	r0, r3
  83 0012 BD46     		mov	sp, r7
  84 0014 04B0     		add	sp, sp, #16
  85              		@ sp needed for prologue
  86 0016 80BD     		pop	{r7, pc}
  87              		.cfi_endproc
  88              	.LFE1:
  90              		.section	.text._read,"ax",%progbits
  91              		.align	2
  92              		.weak	_read
  93              		.code	16
  94              		.thumb_func
  96              	_read:
  97              	.LFB2:
  74:../Lib/System_LibcStubs.c **** 
  75:../Lib/System_LibcStubs.c **** /*
  76:../Lib/System_LibcStubs.c ****  * File read
  77:../Lib/System_LibcStubs.c ****  */
  78:../Lib/System_LibcStubs.c **** __attribute__((weak)) int _read(int file, char *ptr, int len)
  79:../Lib/System_LibcStubs.c **** {
  98              		.loc 1 79 0
  99              		.cfi_startproc
 100 0000 80B5     		push	{r7, lr}
 101              	.LCFI6:
 102              		.cfi_def_cfa_offset 8
 103              		.cfi_offset 7, -8
 104              		.cfi_offset 14, -4
 105 0002 84B0     		sub	sp, sp, #16
 106              	.LCFI7:
 107              		.cfi_def_cfa_offset 24
 108 0004 00AF     		add	r7, sp, #0
 109              	.LCFI8:
 110              		.cfi_def_cfa_register 7
 111 0006 F860     		str	r0, [r7, #12]
 112 0008 B960     		str	r1, [r7, #8]
 113 000a 7A60     		str	r2, [r7, #4]
  80:../Lib/System_LibcStubs.c ****  file = file;
  81:../Lib/System_LibcStubs.c ****  len  = len;
  82:../Lib/System_LibcStubs.c ****  return 0;
 114              		.loc 1 82 0
 115 000c 0023     		mov	r3, #0
  83:../Lib/System_LibcStubs.c **** }
 116              		.loc 1 83 0
 117 000e 181C     		mov	r0, r3
 118 0010 BD46     		mov	sp, r7
 119 0012 04B0     		add	sp, sp, #16
 120              		@ sp needed for prologue
 121 0014 80BD     		pop	{r7, pc}
 122              		.cfi_endproc
 123              	.LFE2:
 125 0016 C046     		.section	.text._write,"ax",%progbits
 126              		.align	2
 127              		.weak	_write
 128              		.code	16
 129              		.thumb_func
 131              	_write:
 132              	.LFB3:
  84:../Lib/System_LibcStubs.c **** 
  85:../Lib/System_LibcStubs.c **** /*
  86:../Lib/System_LibcStubs.c ****  * File write
  87:../Lib/System_LibcStubs.c ****  */
  88:../Lib/System_LibcStubs.c **** __attribute__((weak)) int _write(int file, char *buf, int nbytes)
  89:../Lib/System_LibcStubs.c **** {
 133              		.loc 1 89 0
 134              		.cfi_startproc
 135 0000 80B5     		push	{r7, lr}
 136              	.LCFI9:
 137              		.cfi_def_cfa_offset 8
 138              		.cfi_offset 7, -8
 139              		.cfi_offset 14, -4
 140 0002 84B0     		sub	sp, sp, #16
 141              	.LCFI10:
 142              		.cfi_def_cfa_offset 24
 143 0004 00AF     		add	r7, sp, #0
 144              	.LCFI11:
 145              		.cfi_def_cfa_register 7
 146 0006 F860     		str	r0, [r7, #12]
 147 0008 B960     		str	r1, [r7, #8]
 148 000a 7A60     		str	r2, [r7, #4]
  90:../Lib/System_LibcStubs.c ****  return -1;
 149              		.loc 1 90 0
 150 000c 0123     		mov	r3, #1
 151 000e 5B42     		neg	r3, r3
  91:../Lib/System_LibcStubs.c **** }
 152              		.loc 1 91 0
 153 0010 181C     		mov	r0, r3
 154 0012 BD46     		mov	sp, r7
 155 0014 04B0     		add	sp, sp, #16
 156              		@ sp needed for prologue
 157 0016 80BD     		pop	{r7, pc}
 158              		.cfi_endproc
 159              	.LFE3:
 161              		.section	.text._close,"ax",%progbits
 162              		.align	2
 163              		.weak	_close
 164              		.code	16
 165              		.thumb_func
 167              	_close:
 168              	.LFB4:
  92:../Lib/System_LibcStubs.c **** 
  93:../Lib/System_LibcStubs.c **** /*
  94:../Lib/System_LibcStubs.c ****  * File close
  95:../Lib/System_LibcStubs.c ****  */
  96:../Lib/System_LibcStubs.c **** __attribute__((weak)) int _close(void)
  97:../Lib/System_LibcStubs.c **** {
 169              		.loc 1 97 0
 170              		.cfi_startproc
 171 0000 80B5     		push	{r7, lr}
 172              	.LCFI12:
 173              		.cfi_def_cfa_offset 8
 174              		.cfi_offset 7, -8
 175              		.cfi_offset 14, -4
 176 0002 00AF     		add	r7, sp, #0
 177              	.LCFI13:
 178              		.cfi_def_cfa_register 7
  98:../Lib/System_LibcStubs.c ****  return -1;
 179              		.loc 1 98 0
 180 0004 0123     		mov	r3, #1
 181 0006 5B42     		neg	r3, r3
  99:../Lib/System_LibcStubs.c **** }
 182              		.loc 1 99 0
 183 0008 181C     		mov	r0, r3
 184 000a BD46     		mov	sp, r7
 185              		@ sp needed for prologue
 186 000c 80BD     		pop	{r7, pc}
 187              		.cfi_endproc
 188              	.LFE4:
 190 000e C046     		.section	.text._fstat,"ax",%progbits
 191              		.align	2
 192              		.weak	_fstat
 193              		.code	16
 194              		.thumb_func
 196              	_fstat:
 197              	.LFB5:
 100:../Lib/System_LibcStubs.c **** 
 101:../Lib/System_LibcStubs.c **** /*
 102:../Lib/System_LibcStubs.c ****  * File status
 103:../Lib/System_LibcStubs.c ****  */
 104:../Lib/System_LibcStubs.c **** __attribute__((weak)) int _fstat(int file, struct stat *st)
 105:../Lib/System_LibcStubs.c **** {
 198              		.loc 1 105 0
 199              		.cfi_startproc
 200 0000 80B5     		push	{r7, lr}
 201              	.LCFI14:
 202              		.cfi_def_cfa_offset 8
 203              		.cfi_offset 7, -8
 204              		.cfi_offset 14, -4
 205 0002 82B0     		sub	sp, sp, #8
 206              	.LCFI15:
 207              		.cfi_def_cfa_offset 16
 208 0004 00AF     		add	r7, sp, #0
 209              	.LCFI16:
 210              		.cfi_def_cfa_register 7
 211 0006 7860     		str	r0, [r7, #4]
 212 0008 3960     		str	r1, [r7]
 106:../Lib/System_LibcStubs.c ****  file = file;
 107:../Lib/System_LibcStubs.c ****  if(st)
 213              		.loc 1 107 0
 214 000a 3B68     		ldr	r3, [r7]
 215 000c 002B     		cmp	r3, #0
 216 000e 02D0     		beq	.L12
 108:../Lib/System_LibcStubs.c ****   return -1;
 217              		.loc 1 108 0
 218 0010 0123     		mov	r3, #1
 219 0012 5B42     		neg	r3, r3
 220 0014 01E0     		b	.L13
 221              	.L12:
 109:../Lib/System_LibcStubs.c ****  else
 110:../Lib/System_LibcStubs.c ****   return -2;
 222              		.loc 1 110 0
 223 0016 0223     		mov	r3, #2
 224 0018 5B42     		neg	r3, r3
 225              	.L13:
 111:../Lib/System_LibcStubs.c **** }
 226              		.loc 1 111 0
 227 001a 181C     		mov	r0, r3
 228 001c BD46     		mov	sp, r7
 229 001e 02B0     		add	sp, sp, #8
 230              		@ sp needed for prologue
 231 0020 80BD     		pop	{r7, pc}
 232              		.cfi_endproc
 233              	.LFE5:
 235 0022 C046     		.section	.text._link,"ax",%progbits
 236              		.align	2
 237              		.weak	_link
 238              		.code	16
 239              		.thumb_func
 241              	_link:
 242              	.LFB6:
 112:../Lib/System_LibcStubs.c **** /*
 113:../Lib/System_LibcStubs.c ****  * File linking
 114:../Lib/System_LibcStubs.c ****  */
 115:../Lib/System_LibcStubs.c **** __attribute__((weak)) int _link (char *old, char *new)
 116:../Lib/System_LibcStubs.c **** {
 243              		.loc 1 116 0
 244              		.cfi_startproc
 245 0000 80B5     		push	{r7, lr}
 246              	.LCFI17:
 247              		.cfi_def_cfa_offset 8
 248              		.cfi_offset 7, -8
 249              		.cfi_offset 14, -4
 250 0002 82B0     		sub	sp, sp, #8
 251              	.LCFI18:
 252              		.cfi_def_cfa_offset 16
 253 0004 00AF     		add	r7, sp, #0
 254              	.LCFI19:
 255              		.cfi_def_cfa_register 7
 256 0006 7860     		str	r0, [r7, #4]
 257 0008 3960     		str	r1, [r7]
 117:../Lib/System_LibcStubs.c ****  if (old == new)
 258              		.loc 1 117 0
 259 000a 7A68     		ldr	r2, [r7, #4]
 260 000c 3B68     		ldr	r3, [r7]
 261 000e 9A42     		cmp	r2, r3
 262 0010 02D1     		bne	.L15
 118:../Lib/System_LibcStubs.c ****   return -1;
 263              		.loc 1 118 0
 264 0012 0123     		mov	r3, #1
 265 0014 5B42     		neg	r3, r3
 266 0016 01E0     		b	.L16
 267              	.L15:
 119:../Lib/System_LibcStubs.c ****  else
 120:../Lib/System_LibcStubs.c ****   return -2;
 268              		.loc 1 120 0
 269 0018 0223     		mov	r3, #2
 270 001a 5B42     		neg	r3, r3
 271              	.L16:
 121:../Lib/System_LibcStubs.c **** }
 272              		.loc 1 121 0
 273 001c 181C     		mov	r0, r3
 274 001e BD46     		mov	sp, r7
 275 0020 02B0     		add	sp, sp, #8
 276              		@ sp needed for prologue
 277 0022 80BD     		pop	{r7, pc}
 278              		.cfi_endproc
 279              	.LFE6:
 281              		.section	.text._unlink,"ax",%progbits
 282              		.align	2
 283              		.weak	_unlink
 284              		.code	16
 285              		.thumb_func
 287              	_unlink:
 288              	.LFB7:
 122:../Lib/System_LibcStubs.c **** 
 123:../Lib/System_LibcStubs.c **** /*
 124:../Lib/System_LibcStubs.c ****  * Unlinking directory entry
 125:../Lib/System_LibcStubs.c ****  */
 126:../Lib/System_LibcStubs.c **** __attribute__((weak)) int _unlink(char *name)
 127:../Lib/System_LibcStubs.c **** {
 289              		.loc 1 127 0
 290              		.cfi_startproc
 291 0000 80B5     		push	{r7, lr}
 292              	.LCFI20:
 293              		.cfi_def_cfa_offset 8
 294              		.cfi_offset 7, -8
 295              		.cfi_offset 14, -4
 296 0002 82B0     		sub	sp, sp, #8
 297              	.LCFI21:
 298              		.cfi_def_cfa_offset 16
 299 0004 00AF     		add	r7, sp, #0
 300              	.LCFI22:
 301              		.cfi_def_cfa_register 7
 302 0006 7860     		str	r0, [r7, #4]
 128:../Lib/System_LibcStubs.c ****  return -1;
 303              		.loc 1 128 0
 304 0008 0123     		mov	r3, #1
 305 000a 5B42     		neg	r3, r3
 129:../Lib/System_LibcStubs.c **** }
 306              		.loc 1 129 0
 307 000c 181C     		mov	r0, r3
 308 000e BD46     		mov	sp, r7
 309 0010 02B0     		add	sp, sp, #8
 310              		@ sp needed for prologue
 311 0012 80BD     		pop	{r7, pc}
 312              		.cfi_endproc
 313              	.LFE7:
 315              		.section	.text._sbrk,"ax",%progbits
 316              		.align	2
 317              		.weak	_sbrk
 318              		.code	16
 319              		.thumb_func
 321              	_sbrk:
 322              	.LFB8:
 130:../Lib/System_LibcStubs.c **** /* ========================================================================= */
 131:../Lib/System_LibcStubs.c **** /* =================== Dynamic memory management related =================== */
 132:../Lib/System_LibcStubs.c **** /* ========================================================================= */
 133:../Lib/System_LibcStubs.c **** /*
 134:../Lib/System_LibcStubs.c ****  * Heap break (position)
 135:../Lib/System_LibcStubs.c ****  */
 136:../Lib/System_LibcStubs.c **** __attribute__((weak)) void *_sbrk(int RequestedSize)
 137:../Lib/System_LibcStubs.c **** {
 323              		.loc 1 137 0
 324              		.cfi_startproc
 325 0000 80B5     		push	{r7, lr}
 326              	.LCFI23:
 327              		.cfi_def_cfa_offset 8
 328              		.cfi_offset 7, -8
 329              		.cfi_offset 14, -4
 330 0002 86B0     		sub	sp, sp, #24
 331              	.LCFI24:
 332              		.cfi_def_cfa_offset 32
 333 0004 00AF     		add	r7, sp, #0
 334              	.LCFI25:
 335              		.cfi_def_cfa_register 7
 336 0006 7860     		str	r0, [r7, #4]
 138:../Lib/System_LibcStubs.c ****  /* Heap limits from linker script file */
 139:../Lib/System_LibcStubs.c ****  extern unsigned int Heap_Bank1_Start;
 140:../Lib/System_LibcStubs.c ****  extern unsigned int Heap_Bank1_Size;
 141:../Lib/System_LibcStubs.c **** 
 142:../Lib/System_LibcStubs.c ****  unsigned char *CurrBreak, *NextBreak; 
 143:../Lib/System_LibcStubs.c ****  unsigned int  HeapSize;
 144:../Lib/System_LibcStubs.c ****  static unsigned char *HeapBound;
 145:../Lib/System_LibcStubs.c ****  static unsigned char * heap= (unsigned char *)NULL;
 146:../Lib/System_LibcStubs.c **** 
 147:../Lib/System_LibcStubs.c **** 
 148:../Lib/System_LibcStubs.c ****  HeapSize   = (unsigned int)(&Heap_Bank1_Size);
 337              		.loc 1 148 0
 338 0008 144B     		ldr	r3, .L23
 339 000a 7B61     		str	r3, [r7, #20]
 149:../Lib/System_LibcStubs.c **** 
 150:../Lib/System_LibcStubs.c ****  /*
 151:../Lib/System_LibcStubs.c ****   * If this is the first time malloc() was invoked, we start with the
 152:../Lib/System_LibcStubs.c ****   * begining of the heap.
 153:../Lib/System_LibcStubs.c ****   */
 154:../Lib/System_LibcStubs.c ****  if(heap == (unsigned char *)NULL)
 340              		.loc 1 154 0
 341 000c 144B     		ldr	r3, .L23+4
 342 000e 1B68     		ldr	r3, [r3]
 343 0010 002B     		cmp	r3, #0
 344 0012 08D1     		bne	.L20
 155:../Lib/System_LibcStubs.c ****   {
 156:../Lib/System_LibcStubs.c ****    heap = (unsigned char *)&Heap_Bank1_Start;
 345              		.loc 1 156 0
 346 0014 124B     		ldr	r3, .L23+4
 347 0016 134A     		ldr	r2, .L23+8
 348 0018 1A60     		str	r2, [r3]
 157:../Lib/System_LibcStubs.c ****    HeapBound  = (unsigned char *) (heap + HeapSize);
 349              		.loc 1 157 0
 350 001a 114B     		ldr	r3, .L23+4
 351 001c 1A68     		ldr	r2, [r3]
 352 001e 7B69     		ldr	r3, [r7, #20]
 353 0020 D218     		add	r2, r2, r3
 354 0022 114B     		ldr	r3, .L23+12
 355 0024 1A60     		str	r2, [r3]
 356              	.L20:
 158:../Lib/System_LibcStubs.c ****   }
 159:../Lib/System_LibcStubs.c **** 
 160:../Lib/System_LibcStubs.c ****  /* Super duper algo to find out if we have memory for the latest request */
 161:../Lib/System_LibcStubs.c ****  /* Given conditions are: */
 162:../Lib/System_LibcStubs.c ****  /* 1. Latest break */
 163:../Lib/System_LibcStubs.c ****  CurrBreak = heap;
 357              		.loc 1 163 0
 358 0026 0E4B     		ldr	r3, .L23+4
 359 0028 1B68     		ldr	r3, [r3]
 360 002a 3B61     		str	r3, [r7, #16]
 164:../Lib/System_LibcStubs.c **** 
 165:../Lib/System_LibcStubs.c ****  /* And 2. Potential break based on requested size */
 166:../Lib/System_LibcStubs.c ****  NextBreak = (unsigned char *)( (((unsigned int)(heap)) + RequestedSize + 7)
 361              		.loc 1 166 0
 362 002c 0C4B     		ldr	r3, .L23+4
 363 002e 1B68     		ldr	r3, [r3]
 364 0030 1A1C     		mov	r2, r3
 365 0032 7B68     		ldr	r3, [r7, #4]
 366 0034 D318     		add	r3, r2, r3
 367 0036 0733     		add	r3, r3, #7
 167:../Lib/System_LibcStubs.c ****                                           & 0xFFFFFFF8);
 368              		.loc 1 167 0
 369 0038 0722     		mov	r2, #7
 370 003a 9343     		bic	r3, r2
 166:../Lib/System_LibcStubs.c ****  NextBreak = (unsigned char *)( (((unsigned int)(heap)) + RequestedSize + 7)
 371              		.loc 1 166 0
 372 003c FB60     		str	r3, [r7, #12]
 168:../Lib/System_LibcStubs.c **** 
 169:../Lib/System_LibcStubs.c ****  /* Return no memory condition if we sense we are crossing the limit */
 170:../Lib/System_LibcStubs.c ****  if (NextBreak >=  HeapBound )
 373              		.loc 1 170 0
 374 003e 0A4B     		ldr	r3, .L23+12
 375 0040 1B68     		ldr	r3, [r3]
 376 0042 FA68     		ldr	r2, [r7, #12]
 377 0044 9A42     		cmp	r2, r3
 378 0046 01D3     		bcc	.L21
 171:../Lib/System_LibcStubs.c ****   return ((unsigned char *)NULL);
 379              		.loc 1 171 0
 380 0048 0023     		mov	r3, #0
 381 004a 03E0     		b	.L22
 382              	.L21:
 172:../Lib/System_LibcStubs.c ****  else
 173:../Lib/System_LibcStubs.c ****  {
 174:../Lib/System_LibcStubs.c ****   heap = NextBreak;
 383              		.loc 1 174 0
 384 004c 044B     		ldr	r3, .L23+4
 385 004e FA68     		ldr	r2, [r7, #12]
 386 0050 1A60     		str	r2, [r3]
 175:../Lib/System_LibcStubs.c ****   return CurrBreak;
 387              		.loc 1 175 0
 388 0052 3B69     		ldr	r3, [r7, #16]
 389              	.L22:
 176:../Lib/System_LibcStubs.c ****  }
 177:../Lib/System_LibcStubs.c **** }
 390              		.loc 1 177 0
 391 0054 181C     		mov	r0, r3
 392 0056 BD46     		mov	sp, r7
 393 0058 06B0     		add	sp, sp, #24
 394              		@ sp needed for prologue
 395 005a 80BD     		pop	{r7, pc}
 396              	.L24:
 397              		.align	2
 398              	.L23:
 399 005c 00000000 		.word	Heap_Bank1_Size
 400 0060 04000000 		.word	heap.4604
 401 0064 00000000 		.word	Heap_Bank1_Start
 402 0068 08000000 		.word	HeapBound.4603
 403              		.cfi_endproc
 404              	.LFE8:
 406              		.section	.text._times,"ax",%progbits
 407              		.align	2
 408              		.weak	_times
 409              		.code	16
 410              		.thumb_func
 412              	_times:
 413              	.LFB9:
 178:../Lib/System_LibcStubs.c **** 
 179:../Lib/System_LibcStubs.c **** /* ========================================================================= */
 180:../Lib/System_LibcStubs.c **** /* ====================== Process related ================================== */
 181:../Lib/System_LibcStubs.c **** /* ========================================================================= */
 182:../Lib/System_LibcStubs.c **** /*
 183:../Lib/System_LibcStubs.c ****  * Process timing information
 184:../Lib/System_LibcStubs.c ****  */
 185:../Lib/System_LibcStubs.c **** __attribute__((weak)) int _times(struct tms *buf)
 186:../Lib/System_LibcStubs.c **** {
 414              		.loc 1 186 0
 415              		.cfi_startproc
 416 0000 80B5     		push	{r7, lr}
 417              	.LCFI26:
 418              		.cfi_def_cfa_offset 8
 419              		.cfi_offset 7, -8
 420              		.cfi_offset 14, -4
 421 0002 82B0     		sub	sp, sp, #8
 422              	.LCFI27:
 423              		.cfi_def_cfa_offset 16
 424 0004 00AF     		add	r7, sp, #0
 425              	.LCFI28:
 426              		.cfi_def_cfa_register 7
 427 0006 7860     		str	r0, [r7, #4]
 187:../Lib/System_LibcStubs.c ****  return -1;
 428              		.loc 1 187 0
 429 0008 0123     		mov	r3, #1
 430 000a 5B42     		neg	r3, r3
 188:../Lib/System_LibcStubs.c **** }
 431              		.loc 1 188 0
 432 000c 181C     		mov	r0, r3
 433 000e BD46     		mov	sp, r7
 434 0010 02B0     		add	sp, sp, #8
 435              		@ sp needed for prologue
 436 0012 80BD     		pop	{r7, pc}
 437              		.cfi_endproc
 438              	.LFE9:
 440              		.section	.text._wait,"ax",%progbits
 441              		.align	2
 442              		.weak	_wait
 443              		.code	16
 444              		.thumb_func
 446              	_wait:
 447              	.LFB10:
 189:../Lib/System_LibcStubs.c **** /*
 190:../Lib/System_LibcStubs.c ****  * Waiting for a child process to complete
 191:../Lib/System_LibcStubs.c ****  */
 192:../Lib/System_LibcStubs.c **** __attribute__((weak)) int _wait(int *status)
 193:../Lib/System_LibcStubs.c **** {
 448              		.loc 1 193 0
 449              		.cfi_startproc
 450 0000 80B5     		push	{r7, lr}
 451              	.LCFI29:
 452              		.cfi_def_cfa_offset 8
 453              		.cfi_offset 7, -8
 454              		.cfi_offset 14, -4
 455 0002 82B0     		sub	sp, sp, #8
 456              	.LCFI30:
 457              		.cfi_def_cfa_offset 16
 458 0004 00AF     		add	r7, sp, #0
 459              	.LCFI31:
 460              		.cfi_def_cfa_register 7
 461 0006 7860     		str	r0, [r7, #4]
 194:../Lib/System_LibcStubs.c ****  return -1;
 462              		.loc 1 194 0
 463 0008 0123     		mov	r3, #1
 464 000a 5B42     		neg	r3, r3
 195:../Lib/System_LibcStubs.c **** }
 465              		.loc 1 195 0
 466 000c 181C     		mov	r0, r3
 467 000e BD46     		mov	sp, r7
 468 0010 02B0     		add	sp, sp, #8
 469              		@ sp needed for prologue
 470 0012 80BD     		pop	{r7, pc}
 471              		.cfi_endproc
 472              	.LFE10:
 474              		.section	.text._kill,"ax",%progbits
 475              		.align	2
 476              		.weak	_kill
 477              		.code	16
 478              		.thumb_func
 480              	_kill:
 481              	.LFB11:
 196:../Lib/System_LibcStubs.c **** 
 197:../Lib/System_LibcStubs.c **** /*
 198:../Lib/System_LibcStubs.c ****  * Kill a process
 199:../Lib/System_LibcStubs.c ****  */
 200:../Lib/System_LibcStubs.c **** __attribute__((weak)) int _kill(int pid,int sig)
 201:../Lib/System_LibcStubs.c **** {
 482              		.loc 1 201 0
 483              		.cfi_startproc
 484 0000 80B5     		push	{r7, lr}
 485              	.LCFI32:
 486              		.cfi_def_cfa_offset 8
 487              		.cfi_offset 7, -8
 488              		.cfi_offset 14, -4
 489 0002 82B0     		sub	sp, sp, #8
 490              	.LCFI33:
 491              		.cfi_def_cfa_offset 16
 492 0004 00AF     		add	r7, sp, #0
 493              	.LCFI34:
 494              		.cfi_def_cfa_register 7
 495 0006 7860     		str	r0, [r7, #4]
 496 0008 3960     		str	r1, [r7]
 202:../Lib/System_LibcStubs.c ****  pid = pid;
 203:../Lib/System_LibcStubs.c ****  sig = sig;
 204:../Lib/System_LibcStubs.c ****  return -1;
 497              		.loc 1 204 0
 498 000a 0123     		mov	r3, #1
 499 000c 5B42     		neg	r3, r3
 205:../Lib/System_LibcStubs.c **** }
 500              		.loc 1 205 0
 501 000e 181C     		mov	r0, r3
 502 0010 BD46     		mov	sp, r7
 503 0012 02B0     		add	sp, sp, #8
 504              		@ sp needed for prologue
 505 0014 80BD     		pop	{r7, pc}
 506              		.cfi_endproc
 507              	.LFE11:
 509 0016 C046     		.section	.text._fork,"ax",%progbits
 510              		.align	2
 511              		.weak	_fork
 512              		.code	16
 513              		.thumb_func
 515              	_fork:
 516              	.LFB12:
 206:../Lib/System_LibcStubs.c **** 
 207:../Lib/System_LibcStubs.c **** /*
 208:../Lib/System_LibcStubs.c ****  * Forking a child process
 209:../Lib/System_LibcStubs.c ****  */
 210:../Lib/System_LibcStubs.c **** __attribute__((weak)) int _fork(void)
 211:../Lib/System_LibcStubs.c **** {
 517              		.loc 1 211 0
 518              		.cfi_startproc
 519 0000 80B5     		push	{r7, lr}
 520              	.LCFI35:
 521              		.cfi_def_cfa_offset 8
 522              		.cfi_offset 7, -8
 523              		.cfi_offset 14, -4
 524 0002 00AF     		add	r7, sp, #0
 525              	.LCFI36:
 526              		.cfi_def_cfa_register 7
 212:../Lib/System_LibcStubs.c ****  return -1;
 527              		.loc 1 212 0
 528 0004 0123     		mov	r3, #1
 529 0006 5B42     		neg	r3, r3
 213:../Lib/System_LibcStubs.c **** }
 530              		.loc 1 213 0
 531 0008 181C     		mov	r0, r3
 532 000a BD46     		mov	sp, r7
 533              		@ sp needed for prologue
 534 000c 80BD     		pop	{r7, pc}
 535              		.cfi_endproc
 536              	.LFE12:
 538 000e C046     		.section	.text._getpid,"ax",%progbits
 539              		.align	2
 540              		.weak	_getpid
 541              		.code	16
 542              		.thumb_func
 544              	_getpid:
 545              	.LFB13:
 214:../Lib/System_LibcStubs.c **** 
 215:../Lib/System_LibcStubs.c **** /*
 216:../Lib/System_LibcStubs.c ****  * Process ID
 217:../Lib/System_LibcStubs.c ****  */
 218:../Lib/System_LibcStubs.c **** __attribute__((weak)) int _getpid(void)
 219:../Lib/System_LibcStubs.c **** {
 546              		.loc 1 219 0
 547              		.cfi_startproc
 548 0000 80B5     		push	{r7, lr}
 549              	.LCFI37:
 550              		.cfi_def_cfa_offset 8
 551              		.cfi_offset 7, -8
 552              		.cfi_offset 14, -4
 553 0002 00AF     		add	r7, sp, #0
 554              	.LCFI38:
 555              		.cfi_def_cfa_register 7
 220:../Lib/System_LibcStubs.c ****  return -1;
 556              		.loc 1 220 0
 557 0004 0123     		mov	r3, #1
 558 0006 5B42     		neg	r3, r3
 221:../Lib/System_LibcStubs.c **** }
 559              		.loc 1 221 0
 560 0008 181C     		mov	r0, r3
 561 000a BD46     		mov	sp, r7
 562              		@ sp needed for prologue
 563 000c 80BD     		pop	{r7, pc}
 564              		.cfi_endproc
 565              	.LFE13:
 567 000e C046     		.section	.text._exit,"ax",%progbits
 568              		.align	2
 569              		.weak	_exit
 570              		.code	16
 571              		.thumb_func
 573              	_exit:
 574              	.LFB14:
 222:../Lib/System_LibcStubs.c **** 
 223:../Lib/System_LibcStubs.c **** /*
 224:../Lib/System_LibcStubs.c ****  * Program/process exit
 225:../Lib/System_LibcStubs.c ****  */
 226:../Lib/System_LibcStubs.c **** __attribute__((weak)) void _exit(int rc)
 227:../Lib/System_LibcStubs.c **** {
 575              		.loc 1 227 0
 576              		.cfi_startproc
 577 0000 80B5     		push	{r7, lr}
 578              	.LCFI39:
 579              		.cfi_def_cfa_offset 8
 580              		.cfi_offset 7, -8
 581              		.cfi_offset 14, -4
 582 0002 82B0     		sub	sp, sp, #8
 583              	.LCFI40:
 584              		.cfi_def_cfa_offset 16
 585 0004 00AF     		add	r7, sp, #0
 586              	.LCFI41:
 587              		.cfi_def_cfa_register 7
 588 0006 7860     		str	r0, [r7, #4]
 589              	.L36:
 228:../Lib/System_LibcStubs.c ****  rc = rc;
 229:../Lib/System_LibcStubs.c ****  while(1){}
 590              		.loc 1 229 0 discriminator 1
 591 0008 FEE7     		b	.L36
 592              		.cfi_endproc
 593              	.LFE14:
 595 000a C046     		.section	.text._init,"ax",%progbits
 596              		.align	2
 597              		.weak	_init
 598              		.code	16
 599              		.thumb_func
 601              	_init:
 602              	.LFB15:
 230:../Lib/System_LibcStubs.c **** }
 231:../Lib/System_LibcStubs.c **** 
 232:../Lib/System_LibcStubs.c **** /* Init */
 233:../Lib/System_LibcStubs.c **** __attribute__((weak)) void _init(void)
 234:../Lib/System_LibcStubs.c **** {}
 603              		.loc 1 234 0
 604              		.cfi_startproc
 605 0000 80B5     		push	{r7, lr}
 606              	.LCFI42:
 607              		.cfi_def_cfa_offset 8
 608              		.cfi_offset 7, -8
 609              		.cfi_offset 14, -4
 610 0002 00AF     		add	r7, sp, #0
 611              	.LCFI43:
 612              		.cfi_def_cfa_register 7
 613              		.loc 1 234 0
 614 0004 BD46     		mov	sp, r7
 615              		@ sp needed for prologue
 616 0006 80BD     		pop	{r7, pc}
 617              		.cfi_endproc
 618              	.LFE15:
 620              		.section	.text._isatty,"ax",%progbits
 621              		.align	2
 622              		.weak	_isatty
 623              		.code	16
 624              		.thumb_func
 626              	_isatty:
 627              	.LFB16:
 235:../Lib/System_LibcStubs.c **** 
 236:../Lib/System_LibcStubs.c **** /* ========================================================================= */
 237:../Lib/System_LibcStubs.c **** /* ======================= TERMIO related ================================== */
 238:../Lib/System_LibcStubs.c **** /* ========================================================================= */
 239:../Lib/System_LibcStubs.c **** 
 240:../Lib/System_LibcStubs.c **** /*
 241:../Lib/System_LibcStubs.c ****  * Terminal type evaluation
 242:../Lib/System_LibcStubs.c ****  */
 243:../Lib/System_LibcStubs.c **** __attribute__((weak)) int _isatty(int file)
 244:../Lib/System_LibcStubs.c **** {
 628              		.loc 1 244 0
 629              		.cfi_startproc
 630 0000 80B5     		push	{r7, lr}
 631              	.LCFI44:
 632              		.cfi_def_cfa_offset 8
 633              		.cfi_offset 7, -8
 634              		.cfi_offset 14, -4
 635 0002 82B0     		sub	sp, sp, #8
 636              	.LCFI45:
 637              		.cfi_def_cfa_offset 16
 638 0004 00AF     		add	r7, sp, #0
 639              	.LCFI46:
 640              		.cfi_def_cfa_register 7
 641 0006 7860     		str	r0, [r7, #4]
 245:../Lib/System_LibcStubs.c ****  file = file;
 246:../Lib/System_LibcStubs.c ****  return -1;
 642              		.loc 1 246 0
 643 0008 0123     		mov	r3, #1
 644 000a 5B42     		neg	r3, r3
 247:../Lib/System_LibcStubs.c **** }
 645              		.loc 1 247 0
 646 000c 181C     		mov	r0, r3
 647 000e BD46     		mov	sp, r7
 648 0010 02B0     		add	sp, sp, #8
 649              		@ sp needed for prologue
 650 0012 80BD     		pop	{r7, pc}
 651              		.cfi_endproc
 652              	.LFE16:
 654              		.global	__dso_handle
 655              		.bss
 656              		.align	2
 659              	__dso_handle:
 660 0000 00000000 		.space	4
 661              		.align	2
 662              	heap.4604:
 663 0004 00000000 		.space	4
 664              		.align	2
 665              	HeapBound.4603:
 666 0008 00000000 		.space	4
 667              		.text
 668              	.Letext0:
 669              		.file 2 "c:\\dave-3.1.10\\arm-gcc\\bin\\../lib/gcc/arm-none-eabi/4.7.4/../../../../arm-none-eabi/i
 670              		.file 3 "c:\\dave-3.1.10\\arm-gcc\\bin\\../lib/gcc/arm-none-eabi/4.7.4/../../../../arm-none-eabi/i
 671              		.file 4 "c:\\dave-3.1.10\\arm-gcc\\bin\\../lib/gcc/arm-none-eabi/4.7.4/../../../../arm-none-eabi/i
 672              		.file 5 "c:\\dave-3.1.10\\arm-gcc\\bin\\../lib/gcc/arm-none-eabi/4.7.4/../../../../arm-none-eabi/i
 673              		.file 6 "c:\\dave-3.1.10\\arm-gcc\\bin\\../lib/gcc/arm-none-eabi/4.7.4/../../../../arm-none-eabi/i