   1              		.syntax unified
   2              		.cpu cortex-m4
   3              		.eabi_attribute 27, 3
   4              		.fpu fpv4-sp-d16
   5              		.eabi_attribute 20, 1
   6              		.eabi_attribute 21, 1
   7              		.eabi_attribute 23, 3
   8              		.eabi_attribute 24, 1
   9              		.eabi_attribute 25, 1
  10              		.eabi_attribute 26, 1
  11              		.eabi_attribute 30, 6
  12              		.eabi_attribute 34, 1
  13              		.eabi_attribute 18, 4
  14              		.thumb
  15              		.file	"usbcore001_device.c"
  16              		.text
  17              	.Ltext0:
  18              		.cfi_sections	.debug_frame
  19              		.global	USBCORE001_Waitval
  20              		.bss
  21              		.align	1
  24              	USBCORE001_Waitval:
  25 0000 0000     		.space	2
  26              		.global	ConfigNumber
  29              	ConfigNumber:
  30 0002 00       		.space	1
  31              		.global	zlp_flag
  34              	zlp_flag:
  35 0003 00       		.space	1
  36              		.global	InterfaceNumber
  39              	InterfaceNumber:
  40 0004 00       		.space	1
  41 0005 00       		.section	.rodata
  42              		.align	2
  45              	USBCORE001_DevicePCDfops:
  46 0000 00000000 		.word	USBCORE001_DevicePCDConnect
  47 0004 00000000 		.word	USBCORE001_DevicePCDDisconnect
  48 0008 00000000 		.word	USBCORE001_DevicePCDSetup
  49 000c 00000000 		.word	USBCORE001_DevicePCDComplete
  50 0010 00000000 		.word	0
  51 0014 00000000 		.word	USBCORE001_DevicePCDSuspend
  52 0018 00000000 		.word	0
  53 001c 00000000 		.word	USBCORE001_DevicePCDResume
  54 0020 00000000 		.word	USBCORE001_DevicePCDReset
  55 0024 00000000 		.word	USBCORE001_DevicePCDHnpChangedcb
  56 0028 00000000 		.word	0
  57              		.comm	USBCORE001_DevicePCD,724,4
  58              		.comm	USBCORE001_DeviceCurrentControlRequest,8,4
  59              		.comm	USBCORE001_DeviceCurrentState,1,1
  60              		.section	.text.USBCORE001_DevicePCDConnect,"ax",%progbits
  61              		.align	2
  62              		.thumb
  63              		.thumb_func
  65              	USBCORE001_DevicePCDConnect:
  66              	.LFB140:
  67              		.file 1 "../Dave/Generated/src/USBCORE001/usbcore001_device.c"
   1:../Dave/Generated/src/USBCORE001/usbcore001_device.c **** /* CODE_BLOCK_BEGIN[USBCORE001_device.c] */
   2:../Dave/Generated/src/USBCORE001/usbcore001_device.c **** /*******************************************************************************
   3:../Dave/Generated/src/USBCORE001/usbcore001_device.c ****  Copyright (c) 2011, Infineon Technologies AG                                 **
   4:../Dave/Generated/src/USBCORE001/usbcore001_device.c ****  All rights reserved.                                                         **
   5:../Dave/Generated/src/USBCORE001/usbcore001_device.c ****                                                                               **
   6:../Dave/Generated/src/USBCORE001/usbcore001_device.c ****  Redistribution and use in source and binary forms, with or without           **
   7:../Dave/Generated/src/USBCORE001/usbcore001_device.c ****  modification,are permitted provided that the following conditions are met:   **
   8:../Dave/Generated/src/USBCORE001/usbcore001_device.c ****                                                                               **
   9:../Dave/Generated/src/USBCORE001/usbcore001_device.c ****  *Redistributions of source code must retain the above copyright notice,      **
  10:../Dave/Generated/src/USBCORE001/usbcore001_device.c ****  this list of conditions and the following disclaimer.                        **
  11:../Dave/Generated/src/USBCORE001/usbcore001_device.c ****  *Redistributions in binary form must reproduce the above copyright notice,   **
  12:../Dave/Generated/src/USBCORE001/usbcore001_device.c ****  this list of conditions and the following disclaimer in the documentation    **
  13:../Dave/Generated/src/USBCORE001/usbcore001_device.c ****  and/or other materials provided with the distribution.                       **
  14:../Dave/Generated/src/USBCORE001/usbcore001_device.c ****  *Neither the name of the copyright holders nor the names of its contributors **
  15:../Dave/Generated/src/USBCORE001/usbcore001_device.c ****  may be used to endorse or promote products derived from this software without** 
  16:../Dave/Generated/src/USBCORE001/usbcore001_device.c ****  specific prior written permission.                                           **
  17:../Dave/Generated/src/USBCORE001/usbcore001_device.c ****                                                                               **
  18:../Dave/Generated/src/USBCORE001/usbcore001_device.c ****  THIS SOFTWARE IS PROVIDED BY THE COPYRIGHT HOLDERS AND CONTRIBUTORS "AS IS"  **
  19:../Dave/Generated/src/USBCORE001/usbcore001_device.c ****  AND ANY EXPRESS OR IMPLIED WARRANTIES, INCLUDING, BUT NOT LIMITED TO, THE    **
  20:../Dave/Generated/src/USBCORE001/usbcore001_device.c ****  IMPLIED WARRANTIES OF MERCHANTABILITY AND FITNESS FOR A PARTICULAR PURPOSE   **
  21:../Dave/Generated/src/USBCORE001/usbcore001_device.c ****  ARE  DISCLAIMED. IN NO EVENT SHALL THE COPYRIGHT HOLDER OR CONTRIBUTORS BE   **
  22:../Dave/Generated/src/USBCORE001/usbcore001_device.c ****  LIABLE  FOR ANY DIRECT, INDIRECT, INCIDENTAL, SPECIAL, EXEMPLARY, OR         **
  23:../Dave/Generated/src/USBCORE001/usbcore001_device.c ****  CONSEQUENTIAL DAMAGES (INCLUDING, BUT NOT LIMITED TO, PROCUREMENT OF         **
  24:../Dave/Generated/src/USBCORE001/usbcore001_device.c ****  SUBSTITUTE GOODS OR  SERVICES; LOSS OF USE, DATA, OR PROFITS; OR BUSINESS    **
  25:../Dave/Generated/src/USBCORE001/usbcore001_device.c ****  INTERRUPTION) HOWEVER CAUSED AND ON ANY THEORY OF LIABILITY, WHETHER IN      **
  26:../Dave/Generated/src/USBCORE001/usbcore001_device.c ****  CONTRACT, STRICT LIABILITY,OR TORT (INCLUDING NEGLIGENCE OR OTHERWISE)       **
  27:../Dave/Generated/src/USBCORE001/usbcore001_device.c ****  ARISING IN ANY WAY OUT OF THE USE OF THIS SOFTWARE, EVEN IF ADVISED OF THE   **
  28:../Dave/Generated/src/USBCORE001/usbcore001_device.c ****  POSSIBILITY OF SUCH DAMAGE.                                                  **
  29:../Dave/Generated/src/USBCORE001/usbcore001_device.c ****                                                                               **
  30:../Dave/Generated/src/USBCORE001/usbcore001_device.c ****  To improve the quality of the software, users are encouraged to share        **
  31:../Dave/Generated/src/USBCORE001/usbcore001_device.c ****  modifications, enhancements or bug fixes with Infineon Technologies AG       **
  32:../Dave/Generated/src/USBCORE001/usbcore001_device.c ****  dave@infineon.com).                                                          **
  33:../Dave/Generated/src/USBCORE001/usbcore001_device.c ****                                                                               **
  34:../Dave/Generated/src/USBCORE001/usbcore001_device.c **** ********************************************************************************
  35:../Dave/Generated/src/USBCORE001/usbcore001_device.c **** **                                                                            **
  36:../Dave/Generated/src/USBCORE001/usbcore001_device.c **** **                                                                            **
  37:../Dave/Generated/src/USBCORE001/usbcore001_device.c **** ** PLATFORM : Infineon XMC4000 Series                                         **
  38:../Dave/Generated/src/USBCORE001/usbcore001_device.c **** **                                                                            **
  39:../Dave/Generated/src/USBCORE001/usbcore001_device.c **** ** COMPILER : Compiler Independent                                            **
  40:../Dave/Generated/src/USBCORE001/usbcore001_device.c **** **                                                                            **
  41:../Dave/Generated/src/USBCORE001/usbcore001_device.c **** ** AUTHOR : App Developer                                                     **
  42:../Dave/Generated/src/USBCORE001/usbcore001_device.c **** **                                                                            **
  43:../Dave/Generated/src/USBCORE001/usbcore001_device.c **** ** MAY BE CHANGED BY USER [yes/no]: Yes                                       **
  44:../Dave/Generated/src/USBCORE001/usbcore001_device.c **** **                                                                            **
  45:../Dave/Generated/src/USBCORE001/usbcore001_device.c **** ** MODIFICATION DATE : Aug 20, 2013                                           **
  46:../Dave/Generated/src/USBCORE001/usbcore001_device.c **** **                                                                            **
  47:../Dave/Generated/src/USBCORE001/usbcore001_device.c **** *******************************************************************************/
  48:../Dave/Generated/src/USBCORE001/usbcore001_device.c **** 
  49:../Dave/Generated/src/USBCORE001/usbcore001_device.c **** /*******************************************************************************
  50:../Dave/Generated/src/USBCORE001/usbcore001_device.c **** **                       Author(s) Identity                                   **
  51:../Dave/Generated/src/USBCORE001/usbcore001_device.c **** ********************************************************************************
  52:../Dave/Generated/src/USBCORE001/usbcore001_device.c **** **                                                                            **
  53:../Dave/Generated/src/USBCORE001/usbcore001_device.c **** ** Initials    Name                                                           **
  54:../Dave/Generated/src/USBCORE001/usbcore001_device.c **** ** ---------------------------------------------------------------------------**
  55:../Dave/Generated/src/USBCORE001/usbcore001_device.c **** ** CM          App Developer                                                  **
  56:../Dave/Generated/src/USBCORE001/usbcore001_device.c **** ** NSND                                                                       **
  57:../Dave/Generated/src/USBCORE001/usbcore001_device.c **** *******************************************************************************/
  58:../Dave/Generated/src/USBCORE001/usbcore001_device.c **** 
  59:../Dave/Generated/src/USBCORE001/usbcore001_device.c **** /* ==========================================================================
  60:../Dave/Generated/src/USBCORE001/usbcore001_device.c ****  *
  61:../Dave/Generated/src/USBCORE001/usbcore001_device.c ****  * Synopsys HS OTG Linux Software Driver and documentation (hereinafter,
  62:../Dave/Generated/src/USBCORE001/usbcore001_device.c ****  * "Software") is an Unsupported proprietary work of Synopsys, Inc. unless
  63:../Dave/Generated/src/USBCORE001/usbcore001_device.c ****  * otherwise expressly agreed to in writing between Synopsys and you.
  64:../Dave/Generated/src/USBCORE001/usbcore001_device.c ****  *
  65:../Dave/Generated/src/USBCORE001/usbcore001_device.c ****  * The Software IS NOT an item of Licensed Software or Licensed Product under
  66:../Dave/Generated/src/USBCORE001/usbcore001_device.c ****  * any End User Software License Agreement or Agreement for Licensed Product
  67:../Dave/Generated/src/USBCORE001/usbcore001_device.c ****  * with Synopsys or any supplement thereto. You are permitted to use and
  68:../Dave/Generated/src/USBCORE001/usbcore001_device.c ****  * redistribute this Software in source and binary forms, with or without
  69:../Dave/Generated/src/USBCORE001/usbcore001_device.c ****  * modification, provided that redistributions of source code must retain this
  70:../Dave/Generated/src/USBCORE001/usbcore001_device.c ****  * notice. You may not view, use, disclose, copy or distribute this file or
  71:../Dave/Generated/src/USBCORE001/usbcore001_device.c ****  * any information contained herein except pursuant to this license grant from
  72:../Dave/Generated/src/USBCORE001/usbcore001_device.c ****  * Synopsys. If you do not agree with this notice, including the disclaimer
  73:../Dave/Generated/src/USBCORE001/usbcore001_device.c ****  * below, then you are not authorized to use the Software.
  74:../Dave/Generated/src/USBCORE001/usbcore001_device.c ****  *
  75:../Dave/Generated/src/USBCORE001/usbcore001_device.c ****  * THIS SOFTWARE IS BEING DISTRIBUTED BY SYNOPSYS SOLELY ON AN "AS IS" BASIS
  76:../Dave/Generated/src/USBCORE001/usbcore001_device.c ****  * AND ANY EXPRESS OR IMPLIED WARRANTIES, INCLUDING, BUT NOT LIMITED TO, THE
  77:../Dave/Generated/src/USBCORE001/usbcore001_device.c ****  * IMPLIED WARRANTIES OF MERCHANTABILITY AND FITNESS FOR A PARTICULAR PURPOSE
  78:../Dave/Generated/src/USBCORE001/usbcore001_device.c ****  * ARE HEREBY DISCLAIMED. IN NO EVENT SHALL SYNOPSYS BE LIABLE FOR ANY DIRECT,
  79:../Dave/Generated/src/USBCORE001/usbcore001_device.c ****  * INDIRECT, INCIDENTAL, SPECIAL, EXEMPLARY, OR CONSEQUENTIAL DAMAGES
  80:../Dave/Generated/src/USBCORE001/usbcore001_device.c ****  * (INCLUDING, BUT NOT LIMITED TO, PROCUREMENT OF SUBSTITUTE GOODS OR
  81:../Dave/Generated/src/USBCORE001/usbcore001_device.c ****  * SERVICES; LOSS OF USE, DATA, OR PROFITS; OR BUSINESS INTERRUPTION) HOWEVER
  82:../Dave/Generated/src/USBCORE001/usbcore001_device.c ****  * CAUSED AND ON ANY THEORY OF LIABILITY, WHETHER IN CONTRACT, STRICT
  83:../Dave/Generated/src/USBCORE001/usbcore001_device.c ****  * LIABILITY, OR TORT (INCLUDING NEGLIGENCE OR OTHERWISE) ARISING IN ANY WAY
  84:../Dave/Generated/src/USBCORE001/usbcore001_device.c ****  * OUT OF THE USE OF THIS SOFTWARE, EVEN IF ADVISED OF THE POSSIBILITY OF SUCH
  85:../Dave/Generated/src/USBCORE001/usbcore001_device.c ****  * DAMAGE.
  86:../Dave/Generated/src/USBCORE001/usbcore001_device.c ****  * ========================================================================== */
  87:../Dave/Generated/src/USBCORE001/usbcore001_device.c **** 
  88:../Dave/Generated/src/USBCORE001/usbcore001_device.c **** /*
  89:../Dave/Generated/src/USBCORE001/usbcore001_device.c ****   Copyright 2011  Dean Camera (dean [at] fourwalledcubicle [dot] com)
  90:../Dave/Generated/src/USBCORE001/usbcore001_device.c **** 
  91:../Dave/Generated/src/USBCORE001/usbcore001_device.c ****   Permission to use, copy, modify, distribute, and sell this
  92:../Dave/Generated/src/USBCORE001/usbcore001_device.c ****   software and its documentation for any purpose is hereby granted
  93:../Dave/Generated/src/USBCORE001/usbcore001_device.c ****   without fee, provided that the above copyright notice appear in
  94:../Dave/Generated/src/USBCORE001/usbcore001_device.c ****   all copies and that both that the copyright notice and this
  95:../Dave/Generated/src/USBCORE001/usbcore001_device.c ****   permission notice and warranty disclaimer appear in supporting
  96:../Dave/Generated/src/USBCORE001/usbcore001_device.c ****   documentation, and that the name of the author not be used in
  97:../Dave/Generated/src/USBCORE001/usbcore001_device.c ****   advertising or publicity pertaining to distribution of the
  98:../Dave/Generated/src/USBCORE001/usbcore001_device.c ****   software without specific, written prior permission.
  99:../Dave/Generated/src/USBCORE001/usbcore001_device.c **** 
 100:../Dave/Generated/src/USBCORE001/usbcore001_device.c ****   The author disclaim all warranties with regard to this
 101:../Dave/Generated/src/USBCORE001/usbcore001_device.c ****   software, including all implied warranties of merchantability
 102:../Dave/Generated/src/USBCORE001/usbcore001_device.c ****   and fitness.  In no event shall the author be liable for any
 103:../Dave/Generated/src/USBCORE001/usbcore001_device.c ****   special, indirect or consequential damages or any damages
 104:../Dave/Generated/src/USBCORE001/usbcore001_device.c ****   whatsoever resulting from loss of use, data or profits, whether
 105:../Dave/Generated/src/USBCORE001/usbcore001_device.c ****   in an action of contract, negligence or other tortious action,
 106:../Dave/Generated/src/USBCORE001/usbcore001_device.c ****   arising out of or in connection with the use or performance of
 107:../Dave/Generated/src/USBCORE001/usbcore001_device.c ****   this software.
 108:../Dave/Generated/src/USBCORE001/usbcore001_device.c **** */
 109:../Dave/Generated/src/USBCORE001/usbcore001_device.c **** 
 110:../Dave/Generated/src/USBCORE001/usbcore001_device.c **** /**
 111:../Dave/Generated/src/USBCORE001/usbcore001_device.c ****  * @file  usbcore001_device.c
 112:../Dave/Generated/src/USBCORE001/usbcore001_device.c ****  *
 113:../Dave/Generated/src/USBCORE001/usbcore001_device.c ****  * @brief This file contains implementations of all Public and Private functions
 114:../Dave/Generated/src/USBCORE001/usbcore001_device.c ****  *        of USB device glue logic.
 115:../Dave/Generated/src/USBCORE001/usbcore001_device.c ****  *
 116:../Dave/Generated/src/USBCORE001/usbcore001_device.c ****  */
 117:../Dave/Generated/src/USBCORE001/usbcore001_device.c **** 
 118:../Dave/Generated/src/USBCORE001/usbcore001_device.c **** /*******************************************************************************
 119:../Dave/Generated/src/USBCORE001/usbcore001_device.c **** **                      Include Files                                         **
 120:../Dave/Generated/src/USBCORE001/usbcore001_device.c **** *******************************************************************************/
 121:../Dave/Generated/src/USBCORE001/usbcore001_device.c **** #include <DAVE3.h>
 122:../Dave/Generated/src/USBCORE001/usbcore001_device.c **** #ifndef DWC_HOST_ONLY
 123:../Dave/Generated/src/USBCORE001/usbcore001_device.c **** #define __INCLUDE_FROM_USB_DRIVER
 124:../Dave/Generated/src/USBCORE001/usbcore001_device.c **** #include "../../src/USBLD001/driver/dwc_otg_os_dep.h"
 125:../Dave/Generated/src/USBCORE001/usbcore001_device.c **** #include "../../src/USBLD001/driver/dwc_otg_pcd_if.h"
 126:../Dave/Generated/src/USBCORE001/usbcore001_device.c **** #include "../../src/USBLD001/driver/dwc_otg_pcd.h"
 127:../Dave/Generated/src/USBCORE001/usbcore001_device.c **** #include "../../src/USBLD001/driver/dwc_otg_dbg.h"
 128:../Dave/Generated/src/USBCORE001/usbcore001_device.c **** 
 129:../Dave/Generated/src/USBCORE001/usbcore001_device.c **** 
 130:../Dave/Generated/src/USBCORE001/usbcore001_device.c **** /**
 131:../Dave/Generated/src/USBCORE001/usbcore001_device.c ****  * @cond INTERNAL_DOCS
 132:../Dave/Generated/src/USBCORE001/usbcore001_device.c ****  */
 133:../Dave/Generated/src/USBCORE001/usbcore001_device.c **** /*******************************************************************************
 134:../Dave/Generated/src/USBCORE001/usbcore001_device.c **** **                      Global Variable Definitions                           **
 135:../Dave/Generated/src/USBCORE001/usbcore001_device.c **** *******************************************************************************/
 136:../Dave/Generated/src/USBCORE001/usbcore001_device.c **** /**
 137:../Dave/Generated/src/USBCORE001/usbcore001_device.c ****  * @ingroup USBCORE001_device_privateparam
 138:../Dave/Generated/src/USBCORE001/usbcore001_device.c ****  * @{
 139:../Dave/Generated/src/USBCORE001/usbcore001_device.c ****  */
 140:../Dave/Generated/src/USBCORE001/usbcore001_device.c **** 
 141:../Dave/Generated/src/USBCORE001/usbcore001_device.c **** #define   DEVICE_STATE_Unattached     0
 142:../Dave/Generated/src/USBCORE001/usbcore001_device.c **** #define   DEVICE_STATE_Powered        1
 143:../Dave/Generated/src/USBCORE001/usbcore001_device.c **** #define   DEVICE_STATE_Default        2
 144:../Dave/Generated/src/USBCORE001/usbcore001_device.c **** #define   DEVICE_STATE_Addressed      3
 145:../Dave/Generated/src/USBCORE001/usbcore001_device.c **** #define   DEVICE_STATE_Configured     4
 146:../Dave/Generated/src/USBCORE001/usbcore001_device.c **** #define   DEVICE_STATE_Suspended      5
 147:../Dave/Generated/src/USBCORE001/usbcore001_device.c **** 
 148:../Dave/Generated/src/USBCORE001/usbcore001_device.c **** /*
 149:../Dave/Generated/src/USBCORE001/usbcore001_device.c ****  *@struct USBCORE001_DeivceEndpoint
 150:../Dave/Generated/src/USBCORE001/usbcore001_device.c ****  *@brief Defines a USB Device Endpoint
 151:../Dave/Generated/src/USBCORE001/usbcore001_device.c ****  */
 152:../Dave/Generated/src/USBCORE001/usbcore001_device.c **** typedef struct USBCORE001_DeivceEndpoint
 153:../Dave/Generated/src/USBCORE001/usbcore001_device.c **** {
 154:../Dave/Generated/src/USBCORE001/usbcore001_device.c ****   /*Ep Number*/
 155:../Dave/Generated/src/USBCORE001/usbcore001_device.c ****   uint8_t          EpNum;
 156:../Dave/Generated/src/USBCORE001/usbcore001_device.c ****   /*Ep Direction*/
 157:../Dave/Generated/src/USBCORE001/usbcore001_device.c ****   bool             InEp;
 158:../Dave/Generated/src/USBCORE001/usbcore001_device.c ****   /*Data buffer IN for the EP*/
 159:../Dave/Generated/src/USBCORE001/usbcore001_device.c ****   uint8_t          *InBuffer;
 160:../Dave/Generated/src/USBCORE001/usbcore001_device.c ****   /*In Buffer in use*/
 161:../Dave/Generated/src/USBCORE001/usbcore001_device.c ****   volatile bool             InBufferInUse;
 162:../Dave/Generated/src/USBCORE001/usbcore001_device.c ****   /*Data buffer OUT for the EP*/
 163:../Dave/Generated/src/USBCORE001/usbcore001_device.c ****   uint8_t          *OutBuffer;
 164:../Dave/Generated/src/USBCORE001/usbcore001_device.c ****   /*Out Buffer in use*/
 165:../Dave/Generated/src/USBCORE001/usbcore001_device.c ****   volatile bool             OutBufferInUse;
 166:../Dave/Generated/src/USBCORE001/usbcore001_device.c ****   /*Actual Bytes*/
 167:../Dave/Generated/src/USBCORE001/usbcore001_device.c ****   volatile uint16_t          BytesAvailableOut;
 168:../Dave/Generated/src/USBCORE001/usbcore001_device.c ****   /*Current Recv Buffer*/
 169:../Dave/Generated/src/USBCORE001/usbcore001_device.c ****   uint8_t           *CurrentBuffer;
 170:../Dave/Generated/src/USBCORE001/usbcore001_device.c ****   /*Current IN Index*/
 171:../Dave/Generated/src/USBCORE001/usbcore001_device.c ****   uint16_t          CurrentInIndex;
 172:../Dave/Generated/src/USBCORE001/usbcore001_device.c ****   /*Current OUT Index*/
 173:../Dave/Generated/src/USBCORE001/usbcore001_device.c ****   uint16_t          CurrentOutIndex;
 174:../Dave/Generated/src/USBCORE001/usbcore001_device.c ****   /*Bytes available for IN Transfer*/
 175:../Dave/Generated/src/USBCORE001/usbcore001_device.c ****   volatile uint16_t          BytesAvailableIn;
 176:../Dave/Generated/src/USBCORE001/usbcore001_device.c ****   /*In Flush In progress*/
 177:../Dave/Generated/src/USBCORE001/usbcore001_device.c ****   volatile bool              InFlush;
 178:../Dave/Generated/src/USBCORE001/usbcore001_device.c ****   /*Max Packet size*/
 179:../Dave/Generated/src/USBCORE001/usbcore001_device.c ****   uint16_t          MaxPktSz;
 180:../Dave/Generated/src/USBCORE001/usbcore001_device.c ****   /*EP Enabled flag*/
 181:../Dave/Generated/src/USBCORE001/usbcore001_device.c ****   bool              EpEnabled;
 182:../Dave/Generated/src/USBCORE001/usbcore001_device.c **** }USBCORE001_DeivceEndpoint;
 183:../Dave/Generated/src/USBCORE001/usbcore001_device.c **** 
 184:../Dave/Generated/src/USBCORE001/usbcore001_device.c **** /*
 185:../Dave/Generated/src/USBCORE001/usbcore001_device.c ****  * @struct USBCORE001_PeripheralControllerDriver
 186:../Dave/Generated/src/USBCORE001/usbcore001_device.c ****  * @brief Defines the USB PCD device
 187:../Dave/Generated/src/USBCORE001/usbcore001_device.c ****  */
 188:../Dave/Generated/src/USBCORE001/usbcore001_device.c **** typedef struct USBCORE001_PeripheralControllerDriver
 189:../Dave/Generated/src/USBCORE001/usbcore001_device.c **** {
 190:../Dave/Generated/src/USBCORE001/usbcore001_device.c ****   /*Represents Endpoint 0*/
 191:../Dave/Generated/src/USBCORE001/usbcore001_device.c ****   USBCORE001_DeivceEndpoint           EndPoint0;
 192:../Dave/Generated/src/USBCORE001/usbcore001_device.c ****   /*Represents IN Endpoints*/
 193:../Dave/Generated/src/USBCORE001/usbcore001_device.c ****   USBCORE001_DeivceEndpoint           OutEps[ENDPOINT_TOTAL_ENDPOINTS+1];
 194:../Dave/Generated/src/USBCORE001/usbcore001_device.c ****   /*Represents OUT Endpoints*/
 195:../Dave/Generated/src/USBCORE001/usbcore001_device.c ****   USBCORE001_DeivceEndpoint           InEps[ENDPOINT_TOTAL_ENDPOINTS+1];
 196:../Dave/Generated/src/USBCORE001/usbcore001_device.c ****   /*Holds the User callback pointers*/
 197:../Dave/Generated/src/USBCORE001/usbcore001_device.c ****   USBCORE001_DeviceCallBack    USB_DeviceEvents;
 198:../Dave/Generated/src/USBCORE001/usbcore001_device.c ****   /*Holds setup packet recieved status*/
 199:../Dave/Generated/src/USBCORE001/usbcore001_device.c ****   bool                   USB_SetupReceived;
 200:../Dave/Generated/src/USBCORE001/usbcore001_device.c ****   /*Points the pcd pointers*/
 201:../Dave/Generated/src/USBCORE001/usbcore001_device.c ****   dwc_otg_pcd_t          *GPCD;
 202:../Dave/Generated/src/USBCORE001/usbcore001_device.c ****   /*Current EP*/
 203:../Dave/Generated/src/USBCORE001/usbcore001_device.c ****   USBCORE001_DeivceEndpoint           *CurrentEp;
 204:../Dave/Generated/src/USBCORE001/usbcore001_device.c ****   /*Current EP Number*/
 205:../Dave/Generated/src/USBCORE001/usbcore001_device.c ****   uint8_t                CurEpNum;
 206:../Dave/Generated/src/USBCORE001/usbcore001_device.c ****   /*Current EP direction*/
 207:../Dave/Generated/src/USBCORE001/usbcore001_device.c ****   uint8_t                CurEpDir;
 208:../Dave/Generated/src/USBCORE001/usbcore001_device.c **** }USBCORE001_PeripheralControllerDriver;
 209:../Dave/Generated/src/USBCORE001/usbcore001_device.c **** 
 210:../Dave/Generated/src/USBCORE001/usbcore001_device.c **** uint16_t USBCORE001_Waitval = 0;
 211:../Dave/Generated/src/USBCORE001/usbcore001_device.c **** 
 212:../Dave/Generated/src/USBCORE001/usbcore001_device.c **** /* Device active configuration number */
 213:../Dave/Generated/src/USBCORE001/usbcore001_device.c **** uint8_t ConfigNumber = 0;
 214:../Dave/Generated/src/USBCORE001/usbcore001_device.c **** 
 215:../Dave/Generated/src/USBCORE001/usbcore001_device.c **** /*Flag to indicate the zlp to be sent or not*/
 216:../Dave/Generated/src/USBCORE001/usbcore001_device.c **** volatile uint8_t zlp_flag = 0;
 217:../Dave/Generated/src/USBCORE001/usbcore001_device.c **** 
 218:../Dave/Generated/src/USBCORE001/usbcore001_device.c **** /* Device active interface number */
 219:../Dave/Generated/src/USBCORE001/usbcore001_device.c **** uint8_t InterfaceNumber = 0;
 220:../Dave/Generated/src/USBCORE001/usbcore001_device.c **** /**
 221:../Dave/Generated/src/USBCORE001/usbcore001_device.c ****  * @}
 222:../Dave/Generated/src/USBCORE001/usbcore001_device.c ****  */
 223:../Dave/Generated/src/USBCORE001/usbcore001_device.c **** 
 224:../Dave/Generated/src/USBCORE001/usbcore001_device.c **** 
 225:../Dave/Generated/src/USBCORE001/usbcore001_device.c **** /**
 226:../Dave/Generated/src/USBCORE001/usbcore001_device.c ****  * @ingroup USBCORE001_privatefunc
 227:../Dave/Generated/src/USBCORE001/usbcore001_device.c ****  * @{
 228:../Dave/Generated/src/USBCORE001/usbcore001_device.c ****  */
 229:../Dave/Generated/src/USBCORE001/usbcore001_device.c **** 
 230:../Dave/Generated/src/USBCORE001/usbcore001_device.c **** /*******************************************************************************
 231:../Dave/Generated/src/USBCORE001/usbcore001_device.c **** **                 Private Function declarations                              **
 232:../Dave/Generated/src/USBCORE001/usbcore001_device.c **** *******************************************************************************/
 233:../Dave/Generated/src/USBCORE001/usbcore001_device.c **** 
 234:../Dave/Generated/src/USBCORE001/usbcore001_device.c **** /**
 235:../Dave/Generated/src/USBCORE001/usbcore001_device.c ****  * @brief This callback will notify device connected from synopsys driver and
 236:../Dave/Generated/src/USBCORE001/usbcore001_device.c ****  * will notify same to the LUFA.
 237:../Dave/Generated/src/USBCORE001/usbcore001_device.c ****  * @param [IN] pcd     Pointer to the PCD data structure
 238:../Dave/Generated/src/USBCORE001/usbcore001_device.c ****  * @param [IN] speed   Connect speed
 239:../Dave/Generated/src/USBCORE001/usbcore001_device.c ****  * @return int 0 on success
 240:../Dave/Generated/src/USBCORE001/usbcore001_device.c ****  */
 241:../Dave/Generated/src/USBCORE001/usbcore001_device.c **** static int USBCORE001_DevicePCDConnect(dwc_otg_pcd_t * PCDPtr, int Speed);
 242:../Dave/Generated/src/USBCORE001/usbcore001_device.c **** 
 243:../Dave/Generated/src/USBCORE001/usbcore001_device.c **** 
 244:../Dave/Generated/src/USBCORE001/usbcore001_device.c **** /**
 245:../Dave/Generated/src/USBCORE001/usbcore001_device.c ****  * @brief This call back will be called on completion of queued URB.
 246:../Dave/Generated/src/USBCORE001/usbcore001_device.c ****  * @param [IN] PCDPtr       Pointer to the PCD data structure
 247:../Dave/Generated/src/USBCORE001/usbcore001_device.c ****  * @param [IN] EpHandle   Handle to the corresponding EP
 248:../Dave/Generated/src/USBCORE001/usbcore001_device.c ****  * @param [IN] ReqHandle  Handle to the corresponding Request
 249:../Dave/Generated/src/USBCORE001/usbcore001_device.c ****  * @param [IN] Status       Completion status
 250:../Dave/Generated/src/USBCORE001/usbcore001_device.c ****  * @param [IN] Actual       Actual number of bytes
 251:../Dave/Generated/src/USBCORE001/usbcore001_device.c ****  * @return int 0 on success
 252:../Dave/Generated/src/USBCORE001/usbcore001_device.c ****  */
 253:../Dave/Generated/src/USBCORE001/usbcore001_device.c **** static int USBCORE001_DevicePCDComplete(dwc_otg_pcd_t * PCDPtr, void *EpHandle,
 254:../Dave/Generated/src/USBCORE001/usbcore001_device.c ****          void *ReqHandle, int32_t Status, uint32_t Actual);
 255:../Dave/Generated/src/USBCORE001/usbcore001_device.c **** 
 256:../Dave/Generated/src/USBCORE001/usbcore001_device.c **** /**
 257:../Dave/Generated/src/USBCORE001/usbcore001_device.c ****  * @brief DWC OTG PCD Setup packet Callback
 258:../Dave/Generated/src/USBCORE001/usbcore001_device.c ****  * @param [IN] PCDPtr        Pointer to the PCD data structure
 259:../Dave/Generated/src/USBCORE001/usbcore001_device.c ****  * @param [IN] Bytes      Setup data
 260:../Dave/Generated/src/USBCORE001/usbcore001_device.c ****  * @return int 0 on success
 261:../Dave/Generated/src/USBCORE001/usbcore001_device.c ****  */
 262:../Dave/Generated/src/USBCORE001/usbcore001_device.c **** static int USBCORE001_DevicePCDSetup(dwc_otg_pcd_t * PCDPtr, uint8_t * Bytes);
 263:../Dave/Generated/src/USBCORE001/usbcore001_device.c **** 
 264:../Dave/Generated/src/USBCORE001/usbcore001_device.c **** /**
 265:../Dave/Generated/src/USBCORE001/usbcore001_device.c ****  *@brief DW OTG PCD disconnect call back
 266:../Dave/Generated/src/USBCORE001/usbcore001_device.c ****  *@param [@ref IN] PCDPtr        Pointer to the PCD data structure
 267:../Dave/Generated/src/USBCORE001/usbcore001_device.c ****  *@return int 0 on success
 268:../Dave/Generated/src/USBCORE001/usbcore001_device.c ****  */
 269:../Dave/Generated/src/USBCORE001/usbcore001_device.c **** 
 270:../Dave/Generated/src/USBCORE001/usbcore001_device.c **** static int USBCORE001_DevicePCDDisconnect(dwc_otg_pcd_t * PCDPtr);
 271:../Dave/Generated/src/USBCORE001/usbcore001_device.c **** 
 272:../Dave/Generated/src/USBCORE001/usbcore001_device.c **** /**
 273:../Dave/Generated/src/USBCORE001/usbcore001_device.c ****  * @brief DW OTG PCD resume callback
 274:../Dave/Generated/src/USBCORE001/usbcore001_device.c ****  * @param [IN] PCDPtr        Pointer to the PCD data structure
 275:../Dave/Generated/src/USBCORE001/usbcore001_device.c ****  * @return int 0 on success
 276:../Dave/Generated/src/USBCORE001/usbcore001_device.c ****  */
 277:../Dave/Generated/src/USBCORE001/usbcore001_device.c **** static int USBCORE001_DevicePCDResume(dwc_otg_pcd_t * PCDPtr);
 278:../Dave/Generated/src/USBCORE001/usbcore001_device.c **** 
 279:../Dave/Generated/src/USBCORE001/usbcore001_device.c **** /**
 280:../Dave/Generated/src/USBCORE001/usbcore001_device.c ****  *@brief DW OTG PCD suspend call back
 281:../Dave/Generated/src/USBCORE001/usbcore001_device.c ****  *@param [IN] PCDPtr        Pointer to the PCD data structure
 282:../Dave/Generated/src/USBCORE001/usbcore001_device.c ****  *@return int 0 on success
 283:../Dave/Generated/src/USBCORE001/usbcore001_device.c ****  */
 284:../Dave/Generated/src/USBCORE001/usbcore001_device.c **** static int USBCORE001_DevicePCDSuspend(dwc_otg_pcd_t * PCDPtr);
 285:../Dave/Generated/src/USBCORE001/usbcore001_device.c **** 
 286:../Dave/Generated/src/USBCORE001/usbcore001_device.c **** /**
 287:../Dave/Generated/src/USBCORE001/usbcore001_device.c ****  * @brief DW OTG PCD HNP status changed call back
 288:../Dave/Generated/src/USBCORE001/usbcore001_device.c ****  * @param [IN] PCDPtr        Pointer to the PCD data structure
 289:../Dave/Generated/src/USBCORE001/usbcore001_device.c ****  * @return int 0 on success
 290:../Dave/Generated/src/USBCORE001/usbcore001_device.c ****  */
 291:../Dave/Generated/src/USBCORE001/usbcore001_device.c **** static int USBCORE001_DevicePCDHnpChangedcb(dwc_otg_pcd_t * PCDPtr);
 292:../Dave/Generated/src/USBCORE001/usbcore001_device.c **** 
 293:../Dave/Generated/src/USBCORE001/usbcore001_device.c **** 
 294:../Dave/Generated/src/USBCORE001/usbcore001_device.c **** /**
 295:../Dave/Generated/src/USBCORE001/usbcore001_device.c ****  * @brief DW OTG PCD reset call back
 296:../Dave/Generated/src/USBCORE001/usbcore001_device.c ****  * @param [IN] PCDPtr       Pointer to the PCD data structure
 297:../Dave/Generated/src/USBCORE001/usbcore001_device.c ****  * @return int 0 on success
 298:../Dave/Generated/src/USBCORE001/usbcore001_device.c ****  */
 299:../Dave/Generated/src/USBCORE001/usbcore001_device.c **** static int USBCORE001_DevicePCDReset(dwc_otg_pcd_t * PCDPtr);
 300:../Dave/Generated/src/USBCORE001/usbcore001_device.c **** 
 301:../Dave/Generated/src/USBCORE001/usbcore001_device.c **** 
 302:../Dave/Generated/src/USBCORE001/usbcore001_device.c **** /*Routine to put 1 ms delay*/
 303:../Dave/Generated/src/USBCORE001/usbcore001_device.c **** void USB_1msDelay(uint32_t delay_count);
 304:../Dave/Generated/src/USBCORE001/usbcore001_device.c **** 
 305:../Dave/Generated/src/USBCORE001/usbcore001_device.c **** /**
 306:../Dave/Generated/src/USBCORE001/usbcore001_device.c ****  * @}
 307:../Dave/Generated/src/USBCORE001/usbcore001_device.c ****  */
 308:../Dave/Generated/src/USBCORE001/usbcore001_device.c **** 
 309:../Dave/Generated/src/USBCORE001/usbcore001_device.c **** static const struct dwc_otg_pcd_function_ops USBCORE001_DevicePCDfops = {
 310:../Dave/Generated/src/USBCORE001/usbcore001_device.c ****   USBCORE001_DevicePCDConnect,        /* Connect handler */
 311:../Dave/Generated/src/USBCORE001/usbcore001_device.c ****   USBCORE001_DevicePCDDisconnect,     /* Disconnect handler */
 312:../Dave/Generated/src/USBCORE001/usbcore001_device.c ****   USBCORE001_DevicePCDSetup,          /* Complete handler */
 313:../Dave/Generated/src/USBCORE001/usbcore001_device.c ****   USBCORE001_DevicePCDComplete,       /* Complete handler */
 314:../Dave/Generated/src/USBCORE001/usbcore001_device.c ****   NULL,             /* ISO Complete handler, not currently supported */
 315:../Dave/Generated/src/USBCORE001/usbcore001_device.c ****   USBCORE001_DevicePCDSuspend,        /* Suspend handler */
 316:../Dave/Generated/src/USBCORE001/usbcore001_device.c ****   NULL,             /* Sleep, currently not supported*/
 317:../Dave/Generated/src/USBCORE001/usbcore001_device.c ****   USBCORE001_DevicePCDResume,         /* Resume handler */
 318:../Dave/Generated/src/USBCORE001/usbcore001_device.c ****   USBCORE001_DevicePCDReset,          /* Reset handler */
 319:../Dave/Generated/src/USBCORE001/usbcore001_device.c ****   USBCORE001_DevicePCDHnpChangedcb,   /* HNP Changed handler */
 320:../Dave/Generated/src/USBCORE001/usbcore001_device.c ****   NULL,             /* CFI Setup handler, not currently supported */
 321:../Dave/Generated/src/USBCORE001/usbcore001_device.c **** #ifdef DWC_UTE_PER_IO
 322:../Dave/Generated/src/USBCORE001/usbcore001_device.c ****   NULL, /* ISO Complete handler, not currently supported */
 323:../Dave/Generated/src/USBCORE001/usbcore001_device.c **** #endif
 324:../Dave/Generated/src/USBCORE001/usbcore001_device.c **** };
 325:../Dave/Generated/src/USBCORE001/usbcore001_device.c **** 
 326:../Dave/Generated/src/USBCORE001/usbcore001_device.c **** USBCORE001_PeripheralControllerDriver    USBCORE001_DevicePCD;
 327:../Dave/Generated/src/USBCORE001/usbcore001_device.c **** 
 328:../Dave/Generated/src/USBCORE001/usbcore001_device.c **** /*Holds the last received control request*/
 329:../Dave/Generated/src/USBCORE001/usbcore001_device.c **** USB_Setup_Packet_t   USBCORE001_DeviceCurrentControlRequest;
 330:../Dave/Generated/src/USBCORE001/usbcore001_device.c **** /*Holds the current device state*/
 331:../Dave/Generated/src/USBCORE001/usbcore001_device.c **** uint8_t                USBCORE001_DeviceCurrentState;
 332:../Dave/Generated/src/USBCORE001/usbcore001_device.c **** 
 333:../Dave/Generated/src/USBCORE001/usbcore001_device.c **** 
 334:../Dave/Generated/src/USBCORE001/usbcore001_device.c **** /*******************************************************************************
 335:../Dave/Generated/src/USBCORE001/usbcore001_device.c **** **                     Private Function Definitions                           **
 336:../Dave/Generated/src/USBCORE001/usbcore001_device.c **** *******************************************************************************/
 337:../Dave/Generated/src/USBCORE001/usbcore001_device.c **** 
 338:../Dave/Generated/src/USBCORE001/usbcore001_device.c **** static int USBCORE001_DevicePCDConnect(dwc_otg_pcd_t * PCDPtr, int Speed)
 339:../Dave/Generated/src/USBCORE001/usbcore001_device.c **** {
  68              		.loc 1 339 0
  69              		.cfi_startproc
  70              		@ args = 0, pretend = 0, frame = 8
  71              		@ frame_needed = 1, uses_anonymous_args = 0
  72 0000 80B5     		push	{r7, lr}
  73              	.LCFI0:
  74              		.cfi_def_cfa_offset 8
  75              		.cfi_offset 7, -8
  76              		.cfi_offset 14, -4
  77 0002 82B0     		sub	sp, sp, #8
  78              	.LCFI1:
  79              		.cfi_def_cfa_offset 16
  80 0004 00AF     		add	r7, sp, #0
  81              	.LCFI2:
  82              		.cfi_def_cfa_register 7
  83 0006 7860     		str	r0, [r7, #4]
  84 0008 3960     		str	r1, [r7, #0]
 340:../Dave/Generated/src/USBCORE001/usbcore001_device.c ****   if(NULL != USBCORE001_DevicePCD.USB_DeviceEvents.Connect)
  85              		.loc 1 340 0
  86 000a 40F20003 		movw	r3, #:lower16:USBCORE001_DevicePCD
  87 000e C0F20003 		movt	r3, #:upper16:USBCORE001_DevicePCD
  88 0012 D3F8AC32 		ldr	r3, [r3, #684]
  89 0016 002B     		cmp	r3, #0
  90 0018 06D0     		beq	.L2
 341:../Dave/Generated/src/USBCORE001/usbcore001_device.c ****   {
 342:../Dave/Generated/src/USBCORE001/usbcore001_device.c ****     USBCORE001_DevicePCD.USB_DeviceEvents.Connect();
  91              		.loc 1 342 0
  92 001a 40F20003 		movw	r3, #:lower16:USBCORE001_DevicePCD
  93 001e C0F20003 		movt	r3, #:upper16:USBCORE001_DevicePCD
  94 0022 D3F8AC32 		ldr	r3, [r3, #684]
  95 0026 9847     		blx	r3
  96              	.L2:
 343:../Dave/Generated/src/USBCORE001/usbcore001_device.c ****   }
 344:../Dave/Generated/src/USBCORE001/usbcore001_device.c ****   USBCORE001_DeviceCurrentState = DEVICE_STATE_Default;
  97              		.loc 1 344 0
  98 0028 40F20003 		movw	r3, #:lower16:USBCORE001_DeviceCurrentState
  99 002c C0F20003 		movt	r3, #:upper16:USBCORE001_DeviceCurrentState
 100 0030 4FF00202 		mov	r2, #2
 101 0034 1A70     		strb	r2, [r3, #0]
 345:../Dave/Generated/src/USBCORE001/usbcore001_device.c ****   return 0;
 102              		.loc 1 345 0
 103 0036 4FF00003 		mov	r3, #0
 346:../Dave/Generated/src/USBCORE001/usbcore001_device.c **** }
 104              		.loc 1 346 0
 105 003a 1846     		mov	r0, r3
 106 003c 07F10807 		add	r7, r7, #8
 107 0040 BD46     		mov	sp, r7
 108 0042 80BD     		pop	{r7, pc}
 109              		.cfi_endproc
 110              	.LFE140:
 112              		.section	.text.USBCORE001_DevicePCDComplete,"ax",%progbits
 113              		.align	2
 114              		.thumb
 115              		.thumb_func
 117              	USBCORE001_DevicePCDComplete:
 118              	.LFB141:
 347:../Dave/Generated/src/USBCORE001/usbcore001_device.c **** 
 348:../Dave/Generated/src/USBCORE001/usbcore001_device.c **** 
 349:../Dave/Generated/src/USBCORE001/usbcore001_device.c **** static int USBCORE001_DevicePCDComplete(dwc_otg_pcd_t * PCDPtr, void *EpHandle,
 350:../Dave/Generated/src/USBCORE001/usbcore001_device.c ****          void *ReqHandle, int32_t Status, uint32_t Actual)
 351:../Dave/Generated/src/USBCORE001/usbcore001_device.c **** {
 119              		.loc 1 351 0
 120              		.cfi_startproc
 121              		@ args = 4, pretend = 0, frame = 24
 122              		@ frame_needed = 1, uses_anonymous_args = 0
 123 0000 90B5     		push	{r4, r7, lr}
 124              	.LCFI3:
 125              		.cfi_def_cfa_offset 12
 126              		.cfi_offset 4, -12
 127              		.cfi_offset 7, -8
 128              		.cfi_offset 14, -4
 129 0002 8BB0     		sub	sp, sp, #44
 130              	.LCFI4:
 131              		.cfi_def_cfa_offset 56
 132 0004 04AF     		add	r7, sp, #16
 133              	.LCFI5:
 134              		.cfi_def_cfa 7, 40
 135 0006 F860     		str	r0, [r7, #12]
 136 0008 B960     		str	r1, [r7, #8]
 137 000a 7A60     		str	r2, [r7, #4]
 138 000c 3B60     		str	r3, [r7, #0]
 352:../Dave/Generated/src/USBCORE001/usbcore001_device.c **** 
 353:../Dave/Generated/src/USBCORE001/usbcore001_device.c ****   USBCORE001_DeivceEndpoint   *EpPtr = (USBCORE001_DeivceEndpoint *)EpHandle;
 139              		.loc 1 353 0
 140 000e BB68     		ldr	r3, [r7, #8]
 141 0010 7B61     		str	r3, [r7, #20]
 354:../Dave/Generated/src/USBCORE001/usbcore001_device.c **** 
 355:../Dave/Generated/src/USBCORE001/usbcore001_device.c ****   if(ReqHandle == EpPtr->InBuffer)
 142              		.loc 1 355 0
 143 0012 7B69     		ldr	r3, [r7, #20]
 144 0014 5A68     		ldr	r2, [r3, #4]
 145 0016 7B68     		ldr	r3, [r7, #4]
 146 0018 9A42     		cmp	r2, r3
 147 001a 19D1     		bne	.L5
 356:../Dave/Generated/src/USBCORE001/usbcore001_device.c ****   {
 357:../Dave/Generated/src/USBCORE001/usbcore001_device.c ****     EpPtr->BytesAvailableIn -= Actual;
 148              		.loc 1 357 0
 149 001c 7B69     		ldr	r3, [r7, #20]
 150 001e 9B8B     		ldrh	r3, [r3, #28]	@ movhi
 151 0020 9AB2     		uxth	r2, r3
 152 0022 BB6A     		ldr	r3, [r7, #40]
 153 0024 9BB2     		uxth	r3, r3
 154 0026 D31A     		subs	r3, r2, r3
 155 0028 9AB2     		uxth	r2, r3
 156 002a 7B69     		ldr	r3, [r7, #20]
 157 002c 9A83     		strh	r2, [r3, #28]	@ movhi
 358:../Dave/Generated/src/USBCORE001/usbcore001_device.c ****     EpPtr->CurrentInIndex -= Actual;
 158              		.loc 1 358 0
 159 002e 7B69     		ldr	r3, [r7, #20]
 160 0030 1A8B     		ldrh	r2, [r3, #24]
 161 0032 BB6A     		ldr	r3, [r7, #40]
 162 0034 9BB2     		uxth	r3, r3
 163 0036 D31A     		subs	r3, r2, r3
 164 0038 9AB2     		uxth	r2, r3
 165 003a 7B69     		ldr	r3, [r7, #20]
 166 003c 1A83     		strh	r2, [r3, #24]	@ movhi
 359:../Dave/Generated/src/USBCORE001/usbcore001_device.c **** 
 360:../Dave/Generated/src/USBCORE001/usbcore001_device.c ****     {
 361:../Dave/Generated/src/USBCORE001/usbcore001_device.c ****       EpPtr->InBufferInUse = false;
 167              		.loc 1 361 0
 168 003e 7B69     		ldr	r3, [r7, #20]
 169 0040 4FF00002 		mov	r2, #0
 170 0044 1A72     		strb	r2, [r3, #8]
 362:../Dave/Generated/src/USBCORE001/usbcore001_device.c ****       EpPtr->InFlush = false;
 171              		.loc 1 362 0
 172 0046 7B69     		ldr	r3, [r7, #20]
 173 0048 4FF00002 		mov	r2, #0
 174 004c 9A77     		strb	r2, [r3, #30]
 175 004e 39E0     		b	.L6
 176              	.L5:
 363:../Dave/Generated/src/USBCORE001/usbcore001_device.c ****     }
 364:../Dave/Generated/src/USBCORE001/usbcore001_device.c ****   }
 365:../Dave/Generated/src/USBCORE001/usbcore001_device.c ****   else if (ReqHandle == EpPtr->OutBuffer)
 177              		.loc 1 365 0
 178 0050 7B69     		ldr	r3, [r7, #20]
 179 0052 DA68     		ldr	r2, [r3, #12]
 180 0054 7B68     		ldr	r3, [r7, #4]
 181 0056 9A42     		cmp	r2, r3
 182 0058 2FD1     		bne	.L7
 366:../Dave/Generated/src/USBCORE001/usbcore001_device.c ****   {
 367:../Dave/Generated/src/USBCORE001/usbcore001_device.c ****     if(Actual)
 183              		.loc 1 367 0
 184 005a BB6A     		ldr	r3, [r7, #40]
 185 005c 002B     		cmp	r3, #0
 186 005e 0DD0     		beq	.L8
 368:../Dave/Generated/src/USBCORE001/usbcore001_device.c ****     {
 369:../Dave/Generated/src/USBCORE001/usbcore001_device.c ****       EpPtr->BytesAvailableOut += Actual;
 187              		.loc 1 369 0
 188 0060 7B69     		ldr	r3, [r7, #20]
 189 0062 5B8A     		ldrh	r3, [r3, #18]	@ movhi
 190 0064 9AB2     		uxth	r2, r3
 191 0066 BB6A     		ldr	r3, [r7, #40]
 192 0068 9BB2     		uxth	r3, r3
 193 006a D318     		adds	r3, r2, r3
 194 006c 9AB2     		uxth	r2, r3
 195 006e 7B69     		ldr	r3, [r7, #20]
 196 0070 5A82     		strh	r2, [r3, #18]	@ movhi
 370:../Dave/Generated/src/USBCORE001/usbcore001_device.c ****       EpPtr->OutBufferInUse = false;
 197              		.loc 1 370 0
 198 0072 7B69     		ldr	r3, [r7, #20]
 199 0074 4FF00002 		mov	r2, #0
 200 0078 1A74     		strb	r2, [r3, #16]
 201 007a 23E0     		b	.L6
 202              	.L8:
 371:../Dave/Generated/src/USBCORE001/usbcore001_device.c ****     }
 372:../Dave/Generated/src/USBCORE001/usbcore001_device.c ****     else if(0 == Status)
 203              		.loc 1 372 0
 204 007c 3B68     		ldr	r3, [r7, #0]
 205 007e 002B     		cmp	r3, #0
 206 0080 20D1     		bne	.L6
 373:../Dave/Generated/src/USBCORE001/usbcore001_device.c ****     {
 374:../Dave/Generated/src/USBCORE001/usbcore001_device.c ****       /*Zero length packet, put the request back*/
 375:../Dave/Generated/src/USBCORE001/usbcore001_device.c ****       dwc_otg_pcd_ep_queue(USBCORE001_DevicePCD.GPCD,EpPtr,
 207              		.loc 1 375 0
 208 0082 40F20003 		movw	r3, #:lower16:USBCORE001_DevicePCD
 209 0086 C0F20003 		movt	r3, #:upper16:USBCORE001_DevicePCD
 210 008a D3F8C812 		ldr	r1, [r3, #712]
 376:../Dave/Generated/src/USBCORE001/usbcore001_device.c ****         (uint8_t *)EpPtr->OutBuffer, (int)EpPtr->OutBuffer,
 211              		.loc 1 376 0
 212 008e 7B69     		ldr	r3, [r7, #20]
 375:../Dave/Generated/src/USBCORE001/usbcore001_device.c ****       dwc_otg_pcd_ep_queue(USBCORE001_DevicePCD.GPCD,EpPtr,
 213              		.loc 1 375 0
 214 0090 DA68     		ldr	r2, [r3, #12]
 215              		.loc 1 376 0
 216 0092 7B69     		ldr	r3, [r7, #20]
 217 0094 DB68     		ldr	r3, [r3, #12]
 377:../Dave/Generated/src/USBCORE001/usbcore001_device.c ****         EpPtr->MaxPktSz, 0, EpPtr->OutBuffer, 0);
 218              		.loc 1 377 0
 219 0096 7869     		ldr	r0, [r7, #20]
 220 0098 008C     		ldrh	r0, [r0, #32]
 375:../Dave/Generated/src/USBCORE001/usbcore001_device.c ****       dwc_otg_pcd_ep_queue(USBCORE001_DevicePCD.GPCD,EpPtr,
 221              		.loc 1 375 0
 222 009a 0446     		mov	r4, r0
 223              		.loc 1 377 0
 224 009c 7869     		ldr	r0, [r7, #20]
 225 009e C068     		ldr	r0, [r0, #12]
 375:../Dave/Generated/src/USBCORE001/usbcore001_device.c ****       dwc_otg_pcd_ep_queue(USBCORE001_DevicePCD.GPCD,EpPtr,
 226              		.loc 1 375 0
 227 00a0 0094     		str	r4, [sp, #0]
 228 00a2 4FF00004 		mov	r4, #0
 229 00a6 0194     		str	r4, [sp, #4]
 230 00a8 0290     		str	r0, [sp, #8]
 231 00aa 4FF00000 		mov	r0, #0
 232 00ae 0390     		str	r0, [sp, #12]
 233 00b0 0846     		mov	r0, r1
 234 00b2 7969     		ldr	r1, [r7, #20]
 235 00b4 FFF7FEFF 		bl	dwc_otg_pcd_ep_queue
 236 00b8 04E0     		b	.L6
 237              	.L7:
 378:../Dave/Generated/src/USBCORE001/usbcore001_device.c ****     }
 379:../Dave/Generated/src/USBCORE001/usbcore001_device.c **** 
 380:../Dave/Generated/src/USBCORE001/usbcore001_device.c ****     
 381:../Dave/Generated/src/USBCORE001/usbcore001_device.c ****   }
 382:../Dave/Generated/src/USBCORE001/usbcore001_device.c ****   else
 383:../Dave/Generated/src/USBCORE001/usbcore001_device.c ****   {
 384:../Dave/Generated/src/USBCORE001/usbcore001_device.c ****     /*
 385:../Dave/Generated/src/USBCORE001/usbcore001_device.c ****      * Get Descriptor completion. Need to free the memory here
 386:../Dave/Generated/src/USBCORE001/usbcore001_device.c ****      */
 387:../Dave/Generated/src/USBCORE001/usbcore001_device.c ****     DWC_FREE(ReqHandle);
 238              		.loc 1 387 0
 239 00ba 4FF00000 		mov	r0, #0
 240 00be 7968     		ldr	r1, [r7, #4]
 241 00c0 FFF7FEFF 		bl	__DWC_FREE
 242              	.L6:
 388:../Dave/Generated/src/USBCORE001/usbcore001_device.c **** 
 389:../Dave/Generated/src/USBCORE001/usbcore001_device.c ****   }
 390:../Dave/Generated/src/USBCORE001/usbcore001_device.c **** 
 391:../Dave/Generated/src/USBCORE001/usbcore001_device.c ****   return 0;
 243              		.loc 1 391 0
 244 00c4 4FF00003 		mov	r3, #0
 392:../Dave/Generated/src/USBCORE001/usbcore001_device.c **** }
 245              		.loc 1 392 0
 246 00c8 1846     		mov	r0, r3
 247 00ca 07F11C07 		add	r7, r7, #28
 248 00ce BD46     		mov	sp, r7
 249 00d0 90BD     		pop	{r4, r7, pc}
 250              		.cfi_endproc
 251              	.LFE141:
 253 00d2 00BF     		.section	.text.USBCORE001_DevicePCDSetup,"ax",%progbits
 254              		.align	2
 255              		.thumb
 256              		.thumb_func
 258              	USBCORE001_DevicePCDSetup:
 259              	.LFB142:
 393:../Dave/Generated/src/USBCORE001/usbcore001_device.c **** 
 394:../Dave/Generated/src/USBCORE001/usbcore001_device.c **** static int USBCORE001_DevicePCDSetup(dwc_otg_pcd_t * PCDPtr, uint8_t * Bytes)
 395:../Dave/Generated/src/USBCORE001/usbcore001_device.c **** {
 260              		.loc 1 395 0
 261              		.cfi_startproc
 262              		@ args = 0, pretend = 0, frame = 32
 263              		@ frame_needed = 1, uses_anonymous_args = 0
 264 0000 90B5     		push	{r4, r7, lr}
 265              	.LCFI6:
 266              		.cfi_def_cfa_offset 12
 267              		.cfi_offset 4, -12
 268              		.cfi_offset 7, -8
 269              		.cfi_offset 14, -4
 270 0002 8DB0     		sub	sp, sp, #52
 271              	.LCFI7:
 272              		.cfi_def_cfa_offset 64
 273 0004 04AF     		add	r7, sp, #16
 274              	.LCFI8:
 275              		.cfi_def_cfa 7, 48
 276 0006 7860     		str	r0, [r7, #4]
 277 0008 3960     		str	r1, [r7, #0]
 396:../Dave/Generated/src/USBCORE001/usbcore001_device.c ****   USB_Setup_Packet_t *RequestHeaderPtr;
 397:../Dave/Generated/src/USBCORE001/usbcore001_device.c ****   void*   DescriptorAddress;
 398:../Dave/Generated/src/USBCORE001/usbcore001_device.c ****   uint16_t ActualSize = 0;
 278              		.loc 1 398 0
 279 000a 4FF00003 		mov	r3, #0
 280 000e FB83     		strh	r3, [r7, #30]	@ movhi
 399:../Dave/Generated/src/USBCORE001/usbcore001_device.c ****   uint16_t ReqSize = 0;
 281              		.loc 1 399 0
 282 0010 4FF00003 		mov	r3, #0
 283 0014 BB83     		strh	r3, [r7, #28]	@ movhi
 400:../Dave/Generated/src/USBCORE001/usbcore001_device.c ****   uint8_t *TempBufferPtr = NULL;
 284              		.loc 1 400 0
 285 0016 4FF00003 		mov	r3, #0
 286 001a BB61     		str	r3, [r7, #24]
 401:../Dave/Generated/src/USBCORE001/usbcore001_device.c ****   /*
 402:../Dave/Generated/src/USBCORE001/usbcore001_device.c ****    * The PCD driver calls back for the following cases
 403:../Dave/Generated/src/USBCORE001/usbcore001_device.c ****    * (a) All non standard control transfers (Class/Vendor etc)
 404:../Dave/Generated/src/USBCORE001/usbcore001_device.c ****    * (b) Set Config / Set Interface and Get Descriptor Synch Frame calls
 405:../Dave/Generated/src/USBCORE001/usbcore001_device.c ****    */
 406:../Dave/Generated/src/USBCORE001/usbcore001_device.c ****   RequestHeaderPtr = (USB_Setup_Packet_t*)Bytes;
 287              		.loc 1 406 0
 288 001c 3B68     		ldr	r3, [r7, #0]
 289 001e 7B61     		str	r3, [r7, #20]
 407:../Dave/Generated/src/USBCORE001/usbcore001_device.c **** 
 408:../Dave/Generated/src/USBCORE001/usbcore001_device.c **** 
 409:../Dave/Generated/src/USBCORE001/usbcore001_device.c ****   switch(RequestHeaderPtr->bRequest)
 290              		.loc 1 409 0
 291 0020 7B69     		ldr	r3, [r7, #20]
 292 0022 5B78     		ldrb	r3, [r3, #1]	@ zero_extendqisi2
 293 0024 A3F10503 		sub	r3, r3, #5
 294 0028 062B     		cmp	r3, #6
 295 002a 00F23081 		bhi	.L11
 296 002e 01A2     		adr	r2, .L18
 297 0030 52F823F0 		ldr	pc, [r2, r3, lsl #2]
 298              		.align	2
 299              	.L18:
 300 0034 61020000 		.word	.L12+1
 301 0038 51000000 		.word	.L13+1
 302 003c 8F020000 		.word	.L11+1
 303 0040 05010000 		.word	.L14+1
 304 0044 FD010000 		.word	.L15+1
 305 0048 81010000 		.word	.L16+1
 306 004c 2F020000 		.word	.L17+1
 307              	.L13:
 410:../Dave/Generated/src/USBCORE001/usbcore001_device.c ****   {
 411:../Dave/Generated/src/USBCORE001/usbcore001_device.c ****   case REQ_TYPE_GetDescriptor:
 412:../Dave/Generated/src/USBCORE001/usbcore001_device.c ****   /*
 413:../Dave/Generated/src/USBCORE001/usbcore001_device.c ****    * Get the descriptor address by making use of the callback and queue the
 414:../Dave/Generated/src/USBCORE001/usbcore001_device.c ****    * the same on the control EP
 415:../Dave/Generated/src/USBCORE001/usbcore001_device.c ****    */
 416:../Dave/Generated/src/USBCORE001/usbcore001_device.c ****   if(NULL != USBCORE001_DevicePCD.USB_DeviceEvents.GetDescriptor)
 308              		.loc 1 416 0
 309 0050 40F20003 		movw	r3, #:lower16:USBCORE001_DevicePCD
 310 0054 C0F20003 		movt	r3, #:upper16:USBCORE001_DevicePCD
 311 0058 D3F8C032 		ldr	r3, [r3, #704]
 312 005c 002B     		cmp	r3, #0
 313 005e 00F0B081 		beq	.L35
 417:../Dave/Generated/src/USBCORE001/usbcore001_device.c ****   {
 418:../Dave/Generated/src/USBCORE001/usbcore001_device.c ****     ActualSize = USBCORE001_DevicePCD.USB_DeviceEvents.GetDescriptor(RequestHeaderPtr->wValue,
 314              		.loc 1 418 0
 315 0062 40F20003 		movw	r3, #:lower16:USBCORE001_DevicePCD
 316 0066 C0F20003 		movt	r3, #:upper16:USBCORE001_DevicePCD
 317 006a D3F8C032 		ldr	r3, [r3, #704]
 318 006e 7A69     		ldr	r2, [r7, #20]
 319 0070 5288     		ldrh	r2, [r2, #2]	@ unaligned
 320 0072 90B2     		uxth	r0, r2
 419:../Dave/Generated/src/USBCORE001/usbcore001_device.c ****                       RequestHeaderPtr->wIndex, (void *)&DescriptorAddress);
 321              		.loc 1 419 0
 322 0074 7A69     		ldr	r2, [r7, #20]
 323 0076 9288     		ldrh	r2, [r2, #4]	@ unaligned
 324 0078 92B2     		uxth	r2, r2
 418:../Dave/Generated/src/USBCORE001/usbcore001_device.c ****     ActualSize = USBCORE001_DevicePCD.USB_DeviceEvents.GetDescriptor(RequestHeaderPtr->wValue,
 325              		.loc 1 418 0
 326 007a D1B2     		uxtb	r1, r2
 327 007c 07F10802 		add	r2, r7, #8
 328 0080 9847     		blx	r3
 329 0082 0346     		mov	r3, r0
 330 0084 FB83     		strh	r3, [r7, #30]	@ movhi
 420:../Dave/Generated/src/USBCORE001/usbcore001_device.c ****     ReqSize = (ActualSize < RequestHeaderPtr->wLength) 
 331              		.loc 1 420 0
 332 0086 7B69     		ldr	r3, [r7, #20]
 333 0088 DB88     		ldrh	r3, [r3, #6]	@ unaligned
 334 008a 9AB2     		uxth	r2, r3
 335 008c FB8B     		ldrh	r3, [r7, #30]
 336 008e 9A42     		cmp	r2, r3
 337 0090 38BF     		it	cc
 338 0092 1346     		movcc	r3, r2
 339 0094 BB83     		strh	r3, [r7, #28]	@ movhi
 421:../Dave/Generated/src/USBCORE001/usbcore001_device.c ****                                     ? ActualSize : RequestHeaderPtr->wLength;
 422:../Dave/Generated/src/USBCORE001/usbcore001_device.c ****     /*
 423:../Dave/Generated/src/USBCORE001/usbcore001_device.c ****      * To avoid alignment and buffer overruns, allocate a buffer that would 
 424:../Dave/Generated/src/USBCORE001/usbcore001_device.c ****      * contain as many DWORDS and copy the descriptor to that new buffer.
 425:../Dave/Generated/src/USBCORE001/usbcore001_device.c ****      */
 426:../Dave/Generated/src/USBCORE001/usbcore001_device.c ****     TempBufferPtr = DWC_ALLOC(ReqSize + 3);
 340              		.loc 1 426 0
 341 0096 BB8B     		ldrh	r3, [r7, #28]
 342 0098 03F10303 		add	r3, r3, #3
 343 009c 4FF00000 		mov	r0, #0
 344 00a0 1946     		mov	r1, r3
 345 00a2 FFF7FEFF 		bl	__DWC_ALLOC
 346 00a6 B861     		str	r0, [r7, #24]
 427:../Dave/Generated/src/USBCORE001/usbcore001_device.c **** 
 428:../Dave/Generated/src/USBCORE001/usbcore001_device.c ****     if(NULL == TempBufferPtr)
 347              		.loc 1 428 0
 348 00a8 BB69     		ldr	r3, [r7, #24]
 349 00aa 002B     		cmp	r3, #0
 350 00ac 02D1     		bne	.L20
 429:../Dave/Generated/src/USBCORE001/usbcore001_device.c ****     {
 430:../Dave/Generated/src/USBCORE001/usbcore001_device.c ****       return -1;
 351              		.loc 1 430 0
 352 00ae 4FF0FF33 		mov	r3, #-1
 353 00b2 8BE1     		b	.L34
 354              	.L20:
 431:../Dave/Generated/src/USBCORE001/usbcore001_device.c ****     }
 432:../Dave/Generated/src/USBCORE001/usbcore001_device.c **** 
 433:../Dave/Generated/src/USBCORE001/usbcore001_device.c ****     memset(TempBufferPtr, 0, ReqSize);
 355              		.loc 1 433 0
 356 00b4 BB8B     		ldrh	r3, [r7, #28]
 357 00b6 B869     		ldr	r0, [r7, #24]
 358 00b8 4FF00001 		mov	r1, #0
 359 00bc 1A46     		mov	r2, r3
 360 00be FFF7FEFF 		bl	memset
 434:../Dave/Generated/src/USBCORE001/usbcore001_device.c ****     memcpy(TempBufferPtr, DescriptorAddress, ReqSize);
 361              		.loc 1 434 0
 362 00c2 BA68     		ldr	r2, [r7, #8]
 363 00c4 BB8B     		ldrh	r3, [r7, #28]
 364 00c6 B869     		ldr	r0, [r7, #24]
 365 00c8 1146     		mov	r1, r2
 366 00ca 1A46     		mov	r2, r3
 367 00cc FFF7FEFF 		bl	memcpy
 435:../Dave/Generated/src/USBCORE001/usbcore001_device.c **** 
 436:../Dave/Generated/src/USBCORE001/usbcore001_device.c ****     /*Queue the data to EndPoint0*/
 437:../Dave/Generated/src/USBCORE001/usbcore001_device.c ****     dwc_otg_pcd_ep_queue(
 368              		.loc 1 437 0
 369 00d0 40F20003 		movw	r3, #:lower16:USBCORE001_DevicePCD
 370 00d4 C0F20003 		movt	r3, #:upper16:USBCORE001_DevicePCD
 371 00d8 D3F8C822 		ldr	r2, [r3, #712]
 372 00dc BB69     		ldr	r3, [r7, #24]
 373 00de B98B     		ldrh	r1, [r7, #28]
 374 00e0 0091     		str	r1, [sp, #0]
 375 00e2 4FF00001 		mov	r1, #0
 376 00e6 0191     		str	r1, [sp, #4]
 377 00e8 B969     		ldr	r1, [r7, #24]
 378 00ea 0291     		str	r1, [sp, #8]
 379 00ec 4FF00001 		mov	r1, #0
 380 00f0 0391     		str	r1, [sp, #12]
 381 00f2 1046     		mov	r0, r2
 382 00f4 40F20001 		movw	r1, #:lower16:USBCORE001_DevicePCD
 383 00f8 C0F20001 		movt	r1, #:upper16:USBCORE001_DevicePCD
 384 00fc BA69     		ldr	r2, [r7, #24]
 385 00fe FFF7FEFF 		bl	dwc_otg_pcd_ep_queue
 438:../Dave/Generated/src/USBCORE001/usbcore001_device.c ****     USBCORE001_DevicePCD.GPCD,
 439:../Dave/Generated/src/USBCORE001/usbcore001_device.c ****     &USBCORE001_DevicePCD.EndPoint0,
 440:../Dave/Generated/src/USBCORE001/usbcore001_device.c ****     TempBufferPtr,
 441:../Dave/Generated/src/USBCORE001/usbcore001_device.c ****     (int)TempBufferPtr,
 442:../Dave/Generated/src/USBCORE001/usbcore001_device.c ****     /*pRequestHeader->wLength,*/
 443:../Dave/Generated/src/USBCORE001/usbcore001_device.c ****     ReqSize,
 444:../Dave/Generated/src/USBCORE001/usbcore001_device.c ****     0,
 445:../Dave/Generated/src/USBCORE001/usbcore001_device.c ****     TempBufferPtr,
 446:../Dave/Generated/src/USBCORE001/usbcore001_device.c ****     0
 447:../Dave/Generated/src/USBCORE001/usbcore001_device.c ****     );
 448:../Dave/Generated/src/USBCORE001/usbcore001_device.c ****   }
 449:../Dave/Generated/src/USBCORE001/usbcore001_device.c ****   break;
 386              		.loc 1 449 0
 387 0102 5EE1     		b	.L35
 388              	.L14:
 450:../Dave/Generated/src/USBCORE001/usbcore001_device.c **** 
 451:../Dave/Generated/src/USBCORE001/usbcore001_device.c ****   case REQ_TYPE_GetConfiguration:
 452:../Dave/Generated/src/USBCORE001/usbcore001_device.c ****   /*
 453:../Dave/Generated/src/USBCORE001/usbcore001_device.c ****   * Get the device active configuration and queue the
 454:../Dave/Generated/src/USBCORE001/usbcore001_device.c ****   * the same on the control EP
 455:../Dave/Generated/src/USBCORE001/usbcore001_device.c ****   */
 456:../Dave/Generated/src/USBCORE001/usbcore001_device.c **** 
 457:../Dave/Generated/src/USBCORE001/usbcore001_device.c **** 
 458:../Dave/Generated/src/USBCORE001/usbcore001_device.c ****     ReqSize = RequestHeaderPtr->wLength;
 389              		.loc 1 458 0
 390 0104 7B69     		ldr	r3, [r7, #20]
 391 0106 9A79     		ldrb	r2, [r3, #6]	@ zero_extendqisi2
 392 0108 DB79     		ldrb	r3, [r3, #7]	@ zero_extendqisi2
 393 010a 4FEA0323 		lsl	r3, r3, #8
 394 010e 1343     		orrs	r3, r3, r2
 395 0110 BB83     		strh	r3, [r7, #28]	@ movhi
 459:../Dave/Generated/src/USBCORE001/usbcore001_device.c ****     /*
 460:../Dave/Generated/src/USBCORE001/usbcore001_device.c ****      * To avoid alignment and buffer overruns, allocate a buffer that would
 461:../Dave/Generated/src/USBCORE001/usbcore001_device.c ****      * contain as many DWORDS and copy the descriptor to that new buffer.
 462:../Dave/Generated/src/USBCORE001/usbcore001_device.c ****      */
 463:../Dave/Generated/src/USBCORE001/usbcore001_device.c ****     TempBufferPtr = DWC_ALLOC(ReqSize + 3);
 396              		.loc 1 463 0
 397 0112 BB8B     		ldrh	r3, [r7, #28]
 398 0114 03F10303 		add	r3, r3, #3
 399 0118 4FF00000 		mov	r0, #0
 400 011c 1946     		mov	r1, r3
 401 011e FFF7FEFF 		bl	__DWC_ALLOC
 402 0122 B861     		str	r0, [r7, #24]
 464:../Dave/Generated/src/USBCORE001/usbcore001_device.c **** 
 465:../Dave/Generated/src/USBCORE001/usbcore001_device.c ****     if(NULL == TempBufferPtr)
 403              		.loc 1 465 0
 404 0124 BB69     		ldr	r3, [r7, #24]
 405 0126 002B     		cmp	r3, #0
 406 0128 02D1     		bne	.L23
 466:../Dave/Generated/src/USBCORE001/usbcore001_device.c ****     {
 467:../Dave/Generated/src/USBCORE001/usbcore001_device.c ****       return -1;
 407              		.loc 1 467 0
 408 012a 4FF0FF33 		mov	r3, #-1
 409 012e 4DE1     		b	.L34
 410              	.L23:
 468:../Dave/Generated/src/USBCORE001/usbcore001_device.c ****     }
 469:../Dave/Generated/src/USBCORE001/usbcore001_device.c **** 
 470:../Dave/Generated/src/USBCORE001/usbcore001_device.c ****     memset(TempBufferPtr, 0, ReqSize);
 411              		.loc 1 470 0
 412 0130 BB8B     		ldrh	r3, [r7, #28]
 413 0132 B869     		ldr	r0, [r7, #24]
 414 0134 4FF00001 		mov	r1, #0
 415 0138 1A46     		mov	r2, r3
 416 013a FFF7FEFF 		bl	memset
 471:../Dave/Generated/src/USBCORE001/usbcore001_device.c ****     memcpy(TempBufferPtr, &ConfigNumber, 1);
 417              		.loc 1 471 0
 418 013e 40F20003 		movw	r3, #:lower16:ConfigNumber
 419 0142 C0F20003 		movt	r3, #:upper16:ConfigNumber
 420 0146 1A78     		ldrb	r2, [r3, #0]	@ zero_extendqisi2
 421 0148 BB69     		ldr	r3, [r7, #24]
 422 014a 1A70     		strb	r2, [r3, #0]
 472:../Dave/Generated/src/USBCORE001/usbcore001_device.c **** 
 473:../Dave/Generated/src/USBCORE001/usbcore001_device.c ****     /*Queue the data to EndPoint0*/
 474:../Dave/Generated/src/USBCORE001/usbcore001_device.c ****     dwc_otg_pcd_ep_queue(
 423              		.loc 1 474 0
 424 014c 40F20003 		movw	r3, #:lower16:USBCORE001_DevicePCD
 425 0150 C0F20003 		movt	r3, #:upper16:USBCORE001_DevicePCD
 426 0154 D3F8C822 		ldr	r2, [r3, #712]
 427 0158 BB69     		ldr	r3, [r7, #24]
 428 015a B98B     		ldrh	r1, [r7, #28]
 429 015c 0091     		str	r1, [sp, #0]
 430 015e 4FF00001 		mov	r1, #0
 431 0162 0191     		str	r1, [sp, #4]
 432 0164 B969     		ldr	r1, [r7, #24]
 433 0166 0291     		str	r1, [sp, #8]
 434 0168 4FF00001 		mov	r1, #0
 435 016c 0391     		str	r1, [sp, #12]
 436 016e 1046     		mov	r0, r2
 437 0170 40F20001 		movw	r1, #:lower16:USBCORE001_DevicePCD
 438 0174 C0F20001 		movt	r1, #:upper16:USBCORE001_DevicePCD
 439 0178 BA69     		ldr	r2, [r7, #24]
 440 017a FFF7FEFF 		bl	dwc_otg_pcd_ep_queue
 475:../Dave/Generated/src/USBCORE001/usbcore001_device.c ****       USBCORE001_DevicePCD.GPCD,
 476:../Dave/Generated/src/USBCORE001/usbcore001_device.c ****       &USBCORE001_DevicePCD.EndPoint0,
 477:../Dave/Generated/src/USBCORE001/usbcore001_device.c ****       TempBufferPtr,
 478:../Dave/Generated/src/USBCORE001/usbcore001_device.c ****       (int)TempBufferPtr,
 479:../Dave/Generated/src/USBCORE001/usbcore001_device.c ****       /*pRequestHeader->wLength,*/
 480:../Dave/Generated/src/USBCORE001/usbcore001_device.c ****       ReqSize,
 481:../Dave/Generated/src/USBCORE001/usbcore001_device.c ****       0,
 482:../Dave/Generated/src/USBCORE001/usbcore001_device.c ****       TempBufferPtr,
 483:../Dave/Generated/src/USBCORE001/usbcore001_device.c ****       0
 484:../Dave/Generated/src/USBCORE001/usbcore001_device.c ****       );
 485:../Dave/Generated/src/USBCORE001/usbcore001_device.c ****  
 486:../Dave/Generated/src/USBCORE001/usbcore001_device.c ****   break;
 441              		.loc 1 486 0
 442 017e 23E1     		b	.L22
 443              	.L16:
 487:../Dave/Generated/src/USBCORE001/usbcore001_device.c **** 
 488:../Dave/Generated/src/USBCORE001/usbcore001_device.c ****   case REQ_TYPE_GetInterface:
 489:../Dave/Generated/src/USBCORE001/usbcore001_device.c ****   /*
 490:../Dave/Generated/src/USBCORE001/usbcore001_device.c ****    * Get the active interface number and queue the
 491:../Dave/Generated/src/USBCORE001/usbcore001_device.c ****    * the same on the control EP
 492:../Dave/Generated/src/USBCORE001/usbcore001_device.c ****    */
 493:../Dave/Generated/src/USBCORE001/usbcore001_device.c ****   
 494:../Dave/Generated/src/USBCORE001/usbcore001_device.c ****     ReqSize = RequestHeaderPtr->wLength;
 444              		.loc 1 494 0
 445 0180 7B69     		ldr	r3, [r7, #20]
 446 0182 9A79     		ldrb	r2, [r3, #6]	@ zero_extendqisi2
 447 0184 DB79     		ldrb	r3, [r3, #7]	@ zero_extendqisi2
 448 0186 4FEA0323 		lsl	r3, r3, #8
 449 018a 1343     		orrs	r3, r3, r2
 450 018c BB83     		strh	r3, [r7, #28]	@ movhi
 495:../Dave/Generated/src/USBCORE001/usbcore001_device.c ****     /*
 496:../Dave/Generated/src/USBCORE001/usbcore001_device.c ****      * To avoid alignment and buffer overruns, allocate a buffer that would
 497:../Dave/Generated/src/USBCORE001/usbcore001_device.c ****      * contain as many DWORDS and copy the descriptor to that new buffer.
 498:../Dave/Generated/src/USBCORE001/usbcore001_device.c ****      */
 499:../Dave/Generated/src/USBCORE001/usbcore001_device.c ****     TempBufferPtr = DWC_ALLOC(ReqSize + 3);
 451              		.loc 1 499 0
 452 018e BB8B     		ldrh	r3, [r7, #28]
 453 0190 03F10303 		add	r3, r3, #3
 454 0194 4FF00000 		mov	r0, #0
 455 0198 1946     		mov	r1, r3
 456 019a FFF7FEFF 		bl	__DWC_ALLOC
 457 019e B861     		str	r0, [r7, #24]
 500:../Dave/Generated/src/USBCORE001/usbcore001_device.c **** 
 501:../Dave/Generated/src/USBCORE001/usbcore001_device.c ****     if(NULL == TempBufferPtr)
 458              		.loc 1 501 0
 459 01a0 BB69     		ldr	r3, [r7, #24]
 460 01a2 002B     		cmp	r3, #0
 461 01a4 02D1     		bne	.L24
 502:../Dave/Generated/src/USBCORE001/usbcore001_device.c ****     {
 503:../Dave/Generated/src/USBCORE001/usbcore001_device.c ****       return -1;
 462              		.loc 1 503 0
 463 01a6 4FF0FF33 		mov	r3, #-1
 464 01aa 0FE1     		b	.L34
 465              	.L24:
 504:../Dave/Generated/src/USBCORE001/usbcore001_device.c ****     }
 505:../Dave/Generated/src/USBCORE001/usbcore001_device.c **** 
 506:../Dave/Generated/src/USBCORE001/usbcore001_device.c ****     memset(TempBufferPtr, 0, ReqSize);
 466              		.loc 1 506 0
 467 01ac BB8B     		ldrh	r3, [r7, #28]
 468 01ae B869     		ldr	r0, [r7, #24]
 469 01b0 4FF00001 		mov	r1, #0
 470 01b4 1A46     		mov	r2, r3
 471 01b6 FFF7FEFF 		bl	memset
 507:../Dave/Generated/src/USBCORE001/usbcore001_device.c ****     memcpy(TempBufferPtr, &InterfaceNumber, 1);
 472              		.loc 1 507 0
 473 01ba 40F20003 		movw	r3, #:lower16:InterfaceNumber
 474 01be C0F20003 		movt	r3, #:upper16:InterfaceNumber
 475 01c2 1A78     		ldrb	r2, [r3, #0]	@ zero_extendqisi2
 476 01c4 BB69     		ldr	r3, [r7, #24]
 477 01c6 1A70     		strb	r2, [r3, #0]
 508:../Dave/Generated/src/USBCORE001/usbcore001_device.c **** 
 509:../Dave/Generated/src/USBCORE001/usbcore001_device.c ****     /*Queue the data to EndPoint0*/
 510:../Dave/Generated/src/USBCORE001/usbcore001_device.c ****     dwc_otg_pcd_ep_queue(
 478              		.loc 1 510 0
 479 01c8 40F20003 		movw	r3, #:lower16:USBCORE001_DevicePCD
 480 01cc C0F20003 		movt	r3, #:upper16:USBCORE001_DevicePCD
 481 01d0 D3F8C822 		ldr	r2, [r3, #712]
 482 01d4 BB69     		ldr	r3, [r7, #24]
 483 01d6 B98B     		ldrh	r1, [r7, #28]
 484 01d8 0091     		str	r1, [sp, #0]
 485 01da 4FF00001 		mov	r1, #0
 486 01de 0191     		str	r1, [sp, #4]
 487 01e0 B969     		ldr	r1, [r7, #24]
 488 01e2 0291     		str	r1, [sp, #8]
 489 01e4 4FF00001 		mov	r1, #0
 490 01e8 0391     		str	r1, [sp, #12]
 491 01ea 1046     		mov	r0, r2
 492 01ec 40F20001 		movw	r1, #:lower16:USBCORE001_DevicePCD
 493 01f0 C0F20001 		movt	r1, #:upper16:USBCORE001_DevicePCD
 494 01f4 BA69     		ldr	r2, [r7, #24]
 495 01f6 FFF7FEFF 		bl	dwc_otg_pcd_ep_queue
 511:../Dave/Generated/src/USBCORE001/usbcore001_device.c ****       USBCORE001_DevicePCD.GPCD,
 512:../Dave/Generated/src/USBCORE001/usbcore001_device.c ****       &USBCORE001_DevicePCD.EndPoint0,
 513:../Dave/Generated/src/USBCORE001/usbcore001_device.c ****       TempBufferPtr,
 514:../Dave/Generated/src/USBCORE001/usbcore001_device.c ****       (int)TempBufferPtr,
 515:../Dave/Generated/src/USBCORE001/usbcore001_device.c ****       /*pRequestHeader->wLength,*/
 516:../Dave/Generated/src/USBCORE001/usbcore001_device.c ****       ReqSize,
 517:../Dave/Generated/src/USBCORE001/usbcore001_device.c ****       0,
 518:../Dave/Generated/src/USBCORE001/usbcore001_device.c ****       TempBufferPtr,
 519:../Dave/Generated/src/USBCORE001/usbcore001_device.c ****       0
 520:../Dave/Generated/src/USBCORE001/usbcore001_device.c ****       );
 521:../Dave/Generated/src/USBCORE001/usbcore001_device.c **** 
 522:../Dave/Generated/src/USBCORE001/usbcore001_device.c ****   break;
 496              		.loc 1 522 0
 497 01fa E5E0     		b	.L22
 498              	.L15:
 523:../Dave/Generated/src/USBCORE001/usbcore001_device.c **** 
 524:../Dave/Generated/src/USBCORE001/usbcore001_device.c ****   case REQ_TYPE_SetConfiguration:
 525:../Dave/Generated/src/USBCORE001/usbcore001_device.c ****   /* Set active configuration */
 526:../Dave/Generated/src/USBCORE001/usbcore001_device.c ****   if(NULL != USBCORE001_DevicePCD.USB_DeviceEvents.ConfigChanged)
 499              		.loc 1 526 0
 500 01fc 40F20003 		movw	r3, #:lower16:USBCORE001_DevicePCD
 501 0200 C0F20003 		movt	r3, #:upper16:USBCORE001_DevicePCD
 502 0204 D3F8B432 		ldr	r3, [r3, #692]
 503 0208 002B     		cmp	r3, #0
 504 020a 06D0     		beq	.L25
 527:../Dave/Generated/src/USBCORE001/usbcore001_device.c ****   {
 528:../Dave/Generated/src/USBCORE001/usbcore001_device.c ****     USBCORE001_DevicePCD.USB_DeviceEvents.ConfigChanged();
 505              		.loc 1 528 0
 506 020c 40F20003 		movw	r3, #:lower16:USBCORE001_DevicePCD
 507 0210 C0F20003 		movt	r3, #:upper16:USBCORE001_DevicePCD
 508 0214 D3F8B432 		ldr	r3, [r3, #692]
 509 0218 9847     		blx	r3
 510              	.L25:
 529:../Dave/Generated/src/USBCORE001/usbcore001_device.c ****   }
 530:../Dave/Generated/src/USBCORE001/usbcore001_device.c ****   ConfigNumber = (uint8_t)RequestHeaderPtr->wValue;
 511              		.loc 1 530 0
 512 021a 7B69     		ldr	r3, [r7, #20]
 513 021c 5B88     		ldrh	r3, [r3, #2]	@ unaligned
 514 021e 9BB2     		uxth	r3, r3
 515 0220 DAB2     		uxtb	r2, r3
 516 0222 40F20003 		movw	r3, #:lower16:ConfigNumber
 517 0226 C0F20003 		movt	r3, #:upper16:ConfigNumber
 518 022a 1A70     		strb	r2, [r3, #0]
 531:../Dave/Generated/src/USBCORE001/usbcore001_device.c ****    break;
 519              		.loc 1 531 0
 520 022c CCE0     		b	.L22
 521              	.L17:
 532:../Dave/Generated/src/USBCORE001/usbcore001_device.c **** 
 533:../Dave/Generated/src/USBCORE001/usbcore001_device.c ****   case REQ_TYPE_SetInterface:
 534:../Dave/Generated/src/USBCORE001/usbcore001_device.c ****   /* Set active interface */
 535:../Dave/Generated/src/USBCORE001/usbcore001_device.c ****   if(NULL != USBCORE001_DevicePCD.USB_DeviceEvents.ConfigChanged)
 522              		.loc 1 535 0
 523 022e 40F20003 		movw	r3, #:lower16:USBCORE001_DevicePCD
 524 0232 C0F20003 		movt	r3, #:upper16:USBCORE001_DevicePCD
 525 0236 D3F8B432 		ldr	r3, [r3, #692]
 526 023a 002B     		cmp	r3, #0
 527 023c 06D0     		beq	.L26
 536:../Dave/Generated/src/USBCORE001/usbcore001_device.c ****   {
 537:../Dave/Generated/src/USBCORE001/usbcore001_device.c ****     USBCORE001_DevicePCD.USB_DeviceEvents.ConfigChanged();
 528              		.loc 1 537 0
 529 023e 40F20003 		movw	r3, #:lower16:USBCORE001_DevicePCD
 530 0242 C0F20003 		movt	r3, #:upper16:USBCORE001_DevicePCD
 531 0246 D3F8B432 		ldr	r3, [r3, #692]
 532 024a 9847     		blx	r3
 533              	.L26:
 538:../Dave/Generated/src/USBCORE001/usbcore001_device.c ****   }
 539:../Dave/Generated/src/USBCORE001/usbcore001_device.c ****   InterfaceNumber = (uint8_t)RequestHeaderPtr->wValue;
 534              		.loc 1 539 0
 535 024c 7B69     		ldr	r3, [r7, #20]
 536 024e 5B88     		ldrh	r3, [r3, #2]	@ unaligned
 537 0250 9BB2     		uxth	r3, r3
 538 0252 DAB2     		uxtb	r2, r3
 539 0254 40F20003 		movw	r3, #:lower16:InterfaceNumber
 540 0258 C0F20003 		movt	r3, #:upper16:InterfaceNumber
 541 025c 1A70     		strb	r2, [r3, #0]
 540:../Dave/Generated/src/USBCORE001/usbcore001_device.c ****   
 541:../Dave/Generated/src/USBCORE001/usbcore001_device.c ****   break;
 542              		.loc 1 541 0
 543 025e B3E0     		b	.L22
 544              	.L12:
 542:../Dave/Generated/src/USBCORE001/usbcore001_device.c **** 
 543:../Dave/Generated/src/USBCORE001/usbcore001_device.c ****   case REQ_TYPE_SetAddress:
 544:../Dave/Generated/src/USBCORE001/usbcore001_device.c ****   /* Set device address */
 545:../Dave/Generated/src/USBCORE001/usbcore001_device.c ****   if(NULL != USBCORE001_DevicePCD.USB_DeviceEvents.AddressSet)
 545              		.loc 1 545 0
 546 0260 40F20003 		movw	r3, #:lower16:USBCORE001_DevicePCD
 547 0264 C0F20003 		movt	r3, #:upper16:USBCORE001_DevicePCD
 548 0268 D3F8BC32 		ldr	r3, [r3, #700]
 549 026c 002B     		cmp	r3, #0
 550 026e 06D0     		beq	.L27
 546:../Dave/Generated/src/USBCORE001/usbcore001_device.c ****   {
 547:../Dave/Generated/src/USBCORE001/usbcore001_device.c ****     USBCORE001_DevicePCD.USB_DeviceEvents.AddressSet();
 551              		.loc 1 547 0
 552 0270 40F20003 		movw	r3, #:lower16:USBCORE001_DevicePCD
 553 0274 C0F20003 		movt	r3, #:upper16:USBCORE001_DevicePCD
 554 0278 D3F8BC32 		ldr	r3, [r3, #700]
 555 027c 9847     		blx	r3
 556              	.L27:
 548:../Dave/Generated/src/USBCORE001/usbcore001_device.c ****   }
 549:../Dave/Generated/src/USBCORE001/usbcore001_device.c ****   USBCORE001_DeviceCurrentState = DEVICE_STATE_Addressed;
 557              		.loc 1 549 0
 558 027e 40F20003 		movw	r3, #:lower16:USBCORE001_DeviceCurrentState
 559 0282 C0F20003 		movt	r3, #:upper16:USBCORE001_DeviceCurrentState
 560 0286 4FF00302 		mov	r2, #3
 561 028a 1A70     		strb	r2, [r3, #0]
 550:../Dave/Generated/src/USBCORE001/usbcore001_device.c ****   break;
 562              		.loc 1 550 0
 563 028c 9CE0     		b	.L22
 564              	.L11:
 551:../Dave/Generated/src/USBCORE001/usbcore001_device.c **** 
 552:../Dave/Generated/src/USBCORE001/usbcore001_device.c ****   default:
 553:../Dave/Generated/src/USBCORE001/usbcore001_device.c ****   if(NULL != USBCORE001_DevicePCD.USB_DeviceEvents.ControlRequest)
 565              		.loc 1 553 0
 566 028e 40F20003 		movw	r3, #:lower16:USBCORE001_DevicePCD
 567 0292 C0F20003 		movt	r3, #:upper16:USBCORE001_DevicePCD
 568 0296 D3F8B832 		ldr	r3, [r3, #696]
 569 029a 002B     		cmp	r3, #0
 570 029c 00F09380 		beq	.L36
 571              	.LBB10:
 554:../Dave/Generated/src/USBCORE001/usbcore001_device.c ****   {
 555:../Dave/Generated/src/USBCORE001/usbcore001_device.c ****     USBCORE001_DeivceEndpoint *EndpointPtr = &USBCORE001_DevicePCD.EndPoint0;
 572              		.loc 1 555 0
 573 02a0 40F20003 		movw	r3, #:lower16:USBCORE001_DevicePCD
 574 02a4 C0F20003 		movt	r3, #:upper16:USBCORE001_DevicePCD
 575 02a8 3B61     		str	r3, [r7, #16]
 556:../Dave/Generated/src/USBCORE001/usbcore001_device.c **** 
 557:../Dave/Generated/src/USBCORE001/usbcore001_device.c ****     /*
 558:../Dave/Generated/src/USBCORE001/usbcore001_device.c ****      * If an OUT transaction follows, keep Buffer2 ready
 559:../Dave/Generated/src/USBCORE001/usbcore001_device.c ****      */
 560:../Dave/Generated/src/USBCORE001/usbcore001_device.c ****     if (!(RequestHeaderPtr->bmRequestType & CONTROL_REQ_DIR_DEVICETOHOST))
 576              		.loc 1 560 0
 577 02aa 7B69     		ldr	r3, [r7, #20]
 578 02ac 1B78     		ldrb	r3, [r3, #0]	@ zero_extendqisi2
 579 02ae DBB2     		uxtb	r3, r3
 580 02b0 5BB2     		sxtb	r3, r3
 581 02b2 002B     		cmp	r3, #0
 582 02b4 74DB     		blt	.L29
 561:../Dave/Generated/src/USBCORE001/usbcore001_device.c ****     {
 562:../Dave/Generated/src/USBCORE001/usbcore001_device.c ****       if(RequestHeaderPtr->wLength)
 583              		.loc 1 562 0
 584 02b6 7B69     		ldr	r3, [r7, #20]
 585 02b8 DB88     		ldrh	r3, [r3, #6]	@ unaligned
 586 02ba 9BB2     		uxth	r3, r3
 587 02bc 002B     		cmp	r3, #0
 588 02be 44D0     		beq	.L30
 563:../Dave/Generated/src/USBCORE001/usbcore001_device.c ****       {
 564:../Dave/Generated/src/USBCORE001/usbcore001_device.c ****         if(EndpointPtr->MaxPktSz <= RequestHeaderPtr->wLength)
 589              		.loc 1 564 0
 590 02c0 3B69     		ldr	r3, [r7, #16]
 591 02c2 1A8C     		ldrh	r2, [r3, #32]
 592 02c4 7B69     		ldr	r3, [r7, #20]
 593 02c6 DB88     		ldrh	r3, [r3, #6]	@ unaligned
 594 02c8 9BB2     		uxth	r3, r3
 595 02ca 9A42     		cmp	r2, r3
 596 02cc 20D8     		bhi	.L31
 597              	.LBB11:
 565:../Dave/Generated/src/USBCORE001/usbcore001_device.c ****         {
 566:../Dave/Generated/src/USBCORE001/usbcore001_device.c ****           /*Re-adjust the size*/
 567:../Dave/Generated/src/USBCORE001/usbcore001_device.c ****           void *temp = EndpointPtr->OutBuffer;
 598              		.loc 1 567 0
 599 02ce 3B69     		ldr	r3, [r7, #16]
 600 02d0 DB68     		ldr	r3, [r3, #12]
 601 02d2 FB60     		str	r3, [r7, #12]
 568:../Dave/Generated/src/USBCORE001/usbcore001_device.c ****           EndpointPtr->OutBuffer = DWC_ALLOC(RequestHeaderPtr->wLength+3);
 602              		.loc 1 568 0
 603 02d4 7B69     		ldr	r3, [r7, #20]
 604 02d6 DB88     		ldrh	r3, [r3, #6]	@ unaligned
 605 02d8 9BB2     		uxth	r3, r3
 606 02da 03F10303 		add	r3, r3, #3
 607 02de 4FF00000 		mov	r0, #0
 608 02e2 1946     		mov	r1, r3
 609 02e4 FFF7FEFF 		bl	__DWC_ALLOC
 610 02e8 0246     		mov	r2, r0
 611 02ea 3B69     		ldr	r3, [r7, #16]
 612 02ec DA60     		str	r2, [r3, #12]
 569:../Dave/Generated/src/USBCORE001/usbcore001_device.c ****   
 570:../Dave/Generated/src/USBCORE001/usbcore001_device.c ****           if(!EndpointPtr->OutBuffer)
 613              		.loc 1 570 0
 614 02ee 3B69     		ldr	r3, [r7, #16]
 615 02f0 DB68     		ldr	r3, [r3, #12]
 616 02f2 002B     		cmp	r3, #0
 617 02f4 07D1     		bne	.L32
 571:../Dave/Generated/src/USBCORE001/usbcore001_device.c ****           {
 572:../Dave/Generated/src/USBCORE001/usbcore001_device.c ****             EndpointPtr->OutBuffer = temp;
 618              		.loc 1 572 0
 619 02f6 3B69     		ldr	r3, [r7, #16]
 620 02f8 FA68     		ldr	r2, [r7, #12]
 621 02fa DA60     		str	r2, [r3, #12]
 573:../Dave/Generated/src/USBCORE001/usbcore001_device.c ****             return -DWC_E_NO_MEMORY;
 622              		.loc 1 573 0
 623 02fc 4FF61643 		movw	r3, #64534
 624 0300 CFF6FF73 		movt	r3, 65535
 625 0304 62E0     		b	.L34
 626              	.L32:
 574:../Dave/Generated/src/USBCORE001/usbcore001_device.c ****           }
 575:../Dave/Generated/src/USBCORE001/usbcore001_device.c ****           else
 576:../Dave/Generated/src/USBCORE001/usbcore001_device.c ****           {
 577:../Dave/Generated/src/USBCORE001/usbcore001_device.c ****             EndpointPtr->MaxPktSz = RequestHeaderPtr->wLength;
 627              		.loc 1 577 0
 628 0306 7B69     		ldr	r3, [r7, #20]
 629 0308 DB88     		ldrh	r3, [r3, #6]	@ unaligned
 630 030a 9AB2     		uxth	r2, r3
 631 030c 3B69     		ldr	r3, [r7, #16]
 632 030e 1A84     		strh	r2, [r3, #32]	@ movhi
 633              	.L31:
 634              	.LBE11:
 578:../Dave/Generated/src/USBCORE001/usbcore001_device.c ****           }
 579:../Dave/Generated/src/USBCORE001/usbcore001_device.c ****         }
 580:../Dave/Generated/src/USBCORE001/usbcore001_device.c ****         dwc_otg_pcd_ep_queue(USBCORE001_DevicePCD.GPCD, EndpointPtr,
 635              		.loc 1 580 0
 636 0310 40F20003 		movw	r3, #:lower16:USBCORE001_DevicePCD
 637 0314 C0F20003 		movt	r3, #:upper16:USBCORE001_DevicePCD
 638 0318 D3F8C812 		ldr	r1, [r3, #712]
 581:../Dave/Generated/src/USBCORE001/usbcore001_device.c ****         (uint8_t *)EndpointPtr->OutBuffer, (int)EndpointPtr->OutBuffer, 
 639              		.loc 1 581 0
 640 031c 3B69     		ldr	r3, [r7, #16]
 580:../Dave/Generated/src/USBCORE001/usbcore001_device.c ****         dwc_otg_pcd_ep_queue(USBCORE001_DevicePCD.GPCD, EndpointPtr,
 641              		.loc 1 580 0
 642 031e DA68     		ldr	r2, [r3, #12]
 643              		.loc 1 581 0
 644 0320 3B69     		ldr	r3, [r7, #16]
 645 0322 DB68     		ldr	r3, [r3, #12]
 582:../Dave/Generated/src/USBCORE001/usbcore001_device.c ****         RequestHeaderPtr->wLength, 0, EndpointPtr->OutBuffer, 0);
 646              		.loc 1 582 0
 647 0324 7869     		ldr	r0, [r7, #20]
 648 0326 C088     		ldrh	r0, [r0, #6]	@ unaligned
 649 0328 80B2     		uxth	r0, r0
 580:../Dave/Generated/src/USBCORE001/usbcore001_device.c ****         dwc_otg_pcd_ep_queue(USBCORE001_DevicePCD.GPCD, EndpointPtr,
 650              		.loc 1 580 0
 651 032a 0446     		mov	r4, r0
 652              		.loc 1 582 0
 653 032c 3869     		ldr	r0, [r7, #16]
 654 032e C068     		ldr	r0, [r0, #12]
 580:../Dave/Generated/src/USBCORE001/usbcore001_device.c ****         dwc_otg_pcd_ep_queue(USBCORE001_DevicePCD.GPCD, EndpointPtr,
 655              		.loc 1 580 0
 656 0330 0094     		str	r4, [sp, #0]
 657 0332 4FF00004 		mov	r4, #0
 658 0336 0194     		str	r4, [sp, #4]
 659 0338 0290     		str	r0, [sp, #8]
 660 033a 4FF00000 		mov	r0, #0
 661 033e 0390     		str	r0, [sp, #12]
 662 0340 0846     		mov	r0, r1
 663 0342 3969     		ldr	r1, [r7, #16]
 664 0344 FFF7FEFF 		bl	dwc_otg_pcd_ep_queue
 665 0348 19E0     		b	.L33
 666              	.L30:
 583:../Dave/Generated/src/USBCORE001/usbcore001_device.c ****       }
 584:../Dave/Generated/src/USBCORE001/usbcore001_device.c ****       else
 585:../Dave/Generated/src/USBCORE001/usbcore001_device.c ****       {
 586:../Dave/Generated/src/USBCORE001/usbcore001_device.c ****         /*Send a ZLP in response to the status phase*/
 587:../Dave/Generated/src/USBCORE001/usbcore001_device.c ****         dwc_otg_pcd_ep_queue(USBCORE001_DevicePCD.GPCD, EndpointPtr, 
 667              		.loc 1 587 0
 668 034a 40F20003 		movw	r3, #:lower16:USBCORE001_DevicePCD
 669 034e C0F20003 		movt	r3, #:upper16:USBCORE001_DevicePCD
 670 0352 D3F8C832 		ldr	r3, [r3, #712]
 588:../Dave/Generated/src/USBCORE001/usbcore001_device.c ****                             NULL, 0, 0, 1, EndpointPtr->InBuffer, 0);
 671              		.loc 1 588 0
 672 0356 3A69     		ldr	r2, [r7, #16]
 673 0358 5268     		ldr	r2, [r2, #4]
 587:../Dave/Generated/src/USBCORE001/usbcore001_device.c ****         dwc_otg_pcd_ep_queue(USBCORE001_DevicePCD.GPCD, EndpointPtr, 
 674              		.loc 1 587 0
 675 035a 4FF00001 		mov	r1, #0
 676 035e 0091     		str	r1, [sp, #0]
 677 0360 4FF00101 		mov	r1, #1
 678 0364 0191     		str	r1, [sp, #4]
 679 0366 0292     		str	r2, [sp, #8]
 680 0368 4FF00002 		mov	r2, #0
 681 036c 0392     		str	r2, [sp, #12]
 682 036e 1846     		mov	r0, r3
 683 0370 3969     		ldr	r1, [r7, #16]
 684 0372 4FF00002 		mov	r2, #0
 685 0376 4FF00003 		mov	r3, #0
 686 037a FFF7FEFF 		bl	dwc_otg_pcd_ep_queue
 687              	.L33:
 589:../Dave/Generated/src/USBCORE001/usbcore001_device.c ****       }
 590:../Dave/Generated/src/USBCORE001/usbcore001_device.c ****       USBCORE001_DevicePCD.USB_SetupReceived = true;
 688              		.loc 1 590 0
 689 037e 40F20003 		movw	r3, #:lower16:USBCORE001_DevicePCD
 690 0382 C0F20003 		movt	r3, #:upper16:USBCORE001_DevicePCD
 691 0386 4FF00102 		mov	r2, #1
 692 038a 83F8C422 		strb	r2, [r3, #708]
 591:../Dave/Generated/src/USBCORE001/usbcore001_device.c ****       memcpy(&USBCORE001_DeviceCurrentControlRequest, RequestHeaderPtr, 
 693              		.loc 1 591 0
 694 038e 40F20003 		movw	r3, #:lower16:USBCORE001_DeviceCurrentControlRequest
 695 0392 C0F20003 		movt	r3, #:upper16:USBCORE001_DeviceCurrentControlRequest
 696 0396 7A69     		ldr	r2, [r7, #20]
 697 0398 1068     		ldr	r0, [r2, #0]	@ unaligned
 698 039a 5168     		ldr	r1, [r2, #4]	@ unaligned
 699 039c 03C3     		stmia	r3!, {r0, r1}
 700              	.LBE10:
 592:../Dave/Generated/src/USBCORE001/usbcore001_device.c ****                                             sizeof(USB_Setup_Packet_t));
 593:../Dave/Generated/src/USBCORE001/usbcore001_device.c ****     }
 594:../Dave/Generated/src/USBCORE001/usbcore001_device.c ****     else
 595:../Dave/Generated/src/USBCORE001/usbcore001_device.c ****     {
 596:../Dave/Generated/src/USBCORE001/usbcore001_device.c ****       USBCORE001_DevicePCD.USB_SetupReceived = true;
 597:../Dave/Generated/src/USBCORE001/usbcore001_device.c ****       memcpy(&USBCORE001_DeviceCurrentControlRequest,
 598:../Dave/Generated/src/USBCORE001/usbcore001_device.c ****             RequestHeaderPtr, sizeof(USB_Setup_Packet_t));
 599:../Dave/Generated/src/USBCORE001/usbcore001_device.c ****     }
 600:../Dave/Generated/src/USBCORE001/usbcore001_device.c ****   } break;
 701              		.loc 1 600 0
 702 039e 12E0     		b	.L36
 703              	.L29:
 704              	.LBB12:
 596:../Dave/Generated/src/USBCORE001/usbcore001_device.c ****       USBCORE001_DevicePCD.USB_SetupReceived = true;
 705              		.loc 1 596 0
 706 03a0 40F20003 		movw	r3, #:lower16:USBCORE001_DevicePCD
 707 03a4 C0F20003 		movt	r3, #:upper16:USBCORE001_DevicePCD
 708 03a8 4FF00102 		mov	r2, #1
 709 03ac 83F8C422 		strb	r2, [r3, #708]
 597:../Dave/Generated/src/USBCORE001/usbcore001_device.c ****       memcpy(&USBCORE001_DeviceCurrentControlRequest,
 710              		.loc 1 597 0
 711 03b0 40F20003 		movw	r3, #:lower16:USBCORE001_DeviceCurrentControlRequest
 712 03b4 C0F20003 		movt	r3, #:upper16:USBCORE001_DeviceCurrentControlRequest
 713 03b8 7A69     		ldr	r2, [r7, #20]
 714 03ba 1068     		ldr	r0, [r2, #0]	@ unaligned
 715 03bc 5168     		ldr	r1, [r2, #4]	@ unaligned
 716 03be 03C3     		stmia	r3!, {r0, r1}
 717              	.LBE12:
 718              		.loc 1 600 0
 719 03c0 01E0     		b	.L36
 720              	.L35:
 449:../Dave/Generated/src/USBCORE001/usbcore001_device.c ****   break;
 721              		.loc 1 449 0
 722 03c2 00BF     		nop
 723 03c4 00E0     		b	.L22
 724              	.L36:
 725              		.loc 1 600 0
 726 03c6 00BF     		nop
 727              	.L22:
 601:../Dave/Generated/src/USBCORE001/usbcore001_device.c ****   }
 602:../Dave/Generated/src/USBCORE001/usbcore001_device.c **** 
 603:../Dave/Generated/src/USBCORE001/usbcore001_device.c ****   return 0;
 728              		.loc 1 603 0
 729 03c8 4FF00003 		mov	r3, #0
 730              	.L34:
 604:../Dave/Generated/src/USBCORE001/usbcore001_device.c **** }
 731              		.loc 1 604 0
 732 03cc 1846     		mov	r0, r3
 733 03ce 07F12407 		add	r7, r7, #36
 734 03d2 BD46     		mov	sp, r7
 735 03d4 90BD     		pop	{r4, r7, pc}
 736              		.cfi_endproc
 737              	.LFE142:
 739 03d6 00BF     		.section	.text.USBCORE001_DevicePCDDisconnect,"ax",%progbits
 740              		.align	2
 741              		.thumb
 742              		.thumb_func
 744              	USBCORE001_DevicePCDDisconnect:
 745              	.LFB143:
 605:../Dave/Generated/src/USBCORE001/usbcore001_device.c **** 
 606:../Dave/Generated/src/USBCORE001/usbcore001_device.c **** static int USBCORE001_DevicePCDDisconnect(dwc_otg_pcd_t * PCDPtr)
 607:../Dave/Generated/src/USBCORE001/usbcore001_device.c **** {
 746              		.loc 1 607 0
 747              		.cfi_startproc
 748              		@ args = 0, pretend = 0, frame = 8
 749              		@ frame_needed = 1, uses_anonymous_args = 0
 750 0000 80B5     		push	{r7, lr}
 751              	.LCFI9:
 752              		.cfi_def_cfa_offset 8
 753              		.cfi_offset 7, -8
 754              		.cfi_offset 14, -4
 755 0002 82B0     		sub	sp, sp, #8
 756              	.LCFI10:
 757              		.cfi_def_cfa_offset 16
 758 0004 00AF     		add	r7, sp, #0
 759              	.LCFI11:
 760              		.cfi_def_cfa_register 7
 761 0006 7860     		str	r0, [r7, #4]
 608:../Dave/Generated/src/USBCORE001/usbcore001_device.c ****   USBCORE001_DeviceCurrentState = DEVICE_STATE_Unattached;
 762              		.loc 1 608 0
 763 0008 40F20003 		movw	r3, #:lower16:USBCORE001_DeviceCurrentState
 764 000c C0F20003 		movt	r3, #:upper16:USBCORE001_DeviceCurrentState
 765 0010 4FF00002 		mov	r2, #0
 766 0014 1A70     		strb	r2, [r3, #0]
 609:../Dave/Generated/src/USBCORE001/usbcore001_device.c **** 
 610:../Dave/Generated/src/USBCORE001/usbcore001_device.c ****   if(NULL != USBCORE001_DevicePCD.USB_DeviceEvents.Disconnect)
 767              		.loc 1 610 0
 768 0016 40F20003 		movw	r3, #:lower16:USBCORE001_DevicePCD
 769 001a C0F20003 		movt	r3, #:upper16:USBCORE001_DevicePCD
 770 001e D3F8B032 		ldr	r3, [r3, #688]
 771 0022 002B     		cmp	r3, #0
 772 0024 06D0     		beq	.L38
 611:../Dave/Generated/src/USBCORE001/usbcore001_device.c ****   {
 612:../Dave/Generated/src/USBCORE001/usbcore001_device.c ****     USBCORE001_DevicePCD.USB_DeviceEvents.Disconnect();
 773              		.loc 1 612 0
 774 0026 40F20003 		movw	r3, #:lower16:USBCORE001_DevicePCD
 775 002a C0F20003 		movt	r3, #:upper16:USBCORE001_DevicePCD
 776 002e D3F8B032 		ldr	r3, [r3, #688]
 777 0032 9847     		blx	r3
 778              	.L38:
 613:../Dave/Generated/src/USBCORE001/usbcore001_device.c ****   }
 614:../Dave/Generated/src/USBCORE001/usbcore001_device.c ****   return 0;
 779              		.loc 1 614 0
 780 0034 4FF00003 		mov	r3, #0
 615:../Dave/Generated/src/USBCORE001/usbcore001_device.c **** }
 781              		.loc 1 615 0
 782 0038 1846     		mov	r0, r3
 783 003a 07F10807 		add	r7, r7, #8
 784 003e BD46     		mov	sp, r7
 785 0040 80BD     		pop	{r7, pc}
 786              		.cfi_endproc
 787              	.LFE143:
 789 0042 00BF     		.section	.text.USBCORE001_DevicePCDResume,"ax",%progbits
 790              		.align	2
 791              		.thumb
 792              		.thumb_func
 794              	USBCORE001_DevicePCDResume:
 795              	.LFB144:
 616:../Dave/Generated/src/USBCORE001/usbcore001_device.c **** 
 617:../Dave/Generated/src/USBCORE001/usbcore001_device.c **** 
 618:../Dave/Generated/src/USBCORE001/usbcore001_device.c **** static int USBCORE001_DevicePCDResume(dwc_otg_pcd_t * PCDPtr)
 619:../Dave/Generated/src/USBCORE001/usbcore001_device.c **** {
 796              		.loc 1 619 0
 797              		.cfi_startproc
 798              		@ args = 0, pretend = 0, frame = 8
 799              		@ frame_needed = 1, uses_anonymous_args = 0
 800              		@ link register save eliminated.
 801 0000 80B4     		push	{r7}
 802              	.LCFI12:
 803              		.cfi_def_cfa_offset 4
 804              		.cfi_offset 7, -4
 805 0002 83B0     		sub	sp, sp, #12
 806              	.LCFI13:
 807              		.cfi_def_cfa_offset 16
 808 0004 00AF     		add	r7, sp, #0
 809              	.LCFI14:
 810              		.cfi_def_cfa_register 7
 811 0006 7860     		str	r0, [r7, #4]
 620:../Dave/Generated/src/USBCORE001/usbcore001_device.c ****   return 0;
 812              		.loc 1 620 0
 813 0008 4FF00003 		mov	r3, #0
 621:../Dave/Generated/src/USBCORE001/usbcore001_device.c **** }
 814              		.loc 1 621 0
 815 000c 1846     		mov	r0, r3
 816 000e 07F10C07 		add	r7, r7, #12
 817 0012 BD46     		mov	sp, r7
 818 0014 80BC     		pop	{r7}
 819 0016 7047     		bx	lr
 820              		.cfi_endproc
 821              	.LFE144:
 823              		.section	.text.USBCORE001_DevicePCDSuspend,"ax",%progbits
 824              		.align	2
 825              		.thumb
 826              		.thumb_func
 828              	USBCORE001_DevicePCDSuspend:
 829              	.LFB145:
 622:../Dave/Generated/src/USBCORE001/usbcore001_device.c **** 
 623:../Dave/Generated/src/USBCORE001/usbcore001_device.c **** 
 624:../Dave/Generated/src/USBCORE001/usbcore001_device.c **** static int USBCORE001_DevicePCDSuspend(dwc_otg_pcd_t * PCDPtr)
 625:../Dave/Generated/src/USBCORE001/usbcore001_device.c **** {
 830              		.loc 1 625 0
 831              		.cfi_startproc
 832              		@ args = 0, pretend = 0, frame = 8
 833              		@ frame_needed = 1, uses_anonymous_args = 0
 834              		@ link register save eliminated.
 835 0000 80B4     		push	{r7}
 836              	.LCFI15:
 837              		.cfi_def_cfa_offset 4
 838              		.cfi_offset 7, -4
 839 0002 83B0     		sub	sp, sp, #12
 840              	.LCFI16:
 841              		.cfi_def_cfa_offset 16
 842 0004 00AF     		add	r7, sp, #0
 843              	.LCFI17:
 844              		.cfi_def_cfa_register 7
 845 0006 7860     		str	r0, [r7, #4]
 626:../Dave/Generated/src/USBCORE001/usbcore001_device.c ****   return 0;
 846              		.loc 1 626 0
 847 0008 4FF00003 		mov	r3, #0
 627:../Dave/Generated/src/USBCORE001/usbcore001_device.c **** }
 848              		.loc 1 627 0
 849 000c 1846     		mov	r0, r3
 850 000e 07F10C07 		add	r7, r7, #12
 851 0012 BD46     		mov	sp, r7
 852 0014 80BC     		pop	{r7}
 853 0016 7047     		bx	lr
 854              		.cfi_endproc
 855              	.LFE145:
 857              		.section	.text.USBCORE001_DevicePCDHnpChangedcb,"ax",%progbits
 858              		.align	2
 859              		.thumb
 860              		.thumb_func
 862              	USBCORE001_DevicePCDHnpChangedcb:
 863              	.LFB146:
 628:../Dave/Generated/src/USBCORE001/usbcore001_device.c **** 
 629:../Dave/Generated/src/USBCORE001/usbcore001_device.c **** 
 630:../Dave/Generated/src/USBCORE001/usbcore001_device.c **** static int USBCORE001_DevicePCDHnpChangedcb(dwc_otg_pcd_t * PCDPtr)
 631:../Dave/Generated/src/USBCORE001/usbcore001_device.c **** {
 864              		.loc 1 631 0
 865              		.cfi_startproc
 866              		@ args = 0, pretend = 0, frame = 8
 867              		@ frame_needed = 1, uses_anonymous_args = 0
 868              		@ link register save eliminated.
 869 0000 80B4     		push	{r7}
 870              	.LCFI18:
 871              		.cfi_def_cfa_offset 4
 872              		.cfi_offset 7, -4
 873 0002 83B0     		sub	sp, sp, #12
 874              	.LCFI19:
 875              		.cfi_def_cfa_offset 16
 876 0004 00AF     		add	r7, sp, #0
 877              	.LCFI20:
 878              		.cfi_def_cfa_register 7
 879 0006 7860     		str	r0, [r7, #4]
 632:../Dave/Generated/src/USBCORE001/usbcore001_device.c ****   return 0;
 880              		.loc 1 632 0
 881 0008 4FF00003 		mov	r3, #0
 633:../Dave/Generated/src/USBCORE001/usbcore001_device.c **** }
 882              		.loc 1 633 0
 883 000c 1846     		mov	r0, r3
 884 000e 07F10C07 		add	r7, r7, #12
 885 0012 BD46     		mov	sp, r7
 886 0014 80BC     		pop	{r7}
 887 0016 7047     		bx	lr
 888              		.cfi_endproc
 889              	.LFE146:
 891              		.section	.text.USBCORE001_DevicePCDReset,"ax",%progbits
 892              		.align	2
 893              		.thumb
 894              		.thumb_func
 896              	USBCORE001_DevicePCDReset:
 897              	.LFB147:
 634:../Dave/Generated/src/USBCORE001/usbcore001_device.c **** 
 635:../Dave/Generated/src/USBCORE001/usbcore001_device.c **** 
 636:../Dave/Generated/src/USBCORE001/usbcore001_device.c **** static int USBCORE001_DevicePCDReset(dwc_otg_pcd_t * PCDPtr)
 637:../Dave/Generated/src/USBCORE001/usbcore001_device.c **** {
 898              		.loc 1 637 0
 899              		.cfi_startproc
 900              		@ args = 0, pretend = 0, frame = 8
 901              		@ frame_needed = 1, uses_anonymous_args = 0
 902              		@ link register save eliminated.
 903 0000 80B4     		push	{r7}
 904              	.LCFI21:
 905              		.cfi_def_cfa_offset 4
 906              		.cfi_offset 7, -4
 907 0002 83B0     		sub	sp, sp, #12
 908              	.LCFI22:
 909              		.cfi_def_cfa_offset 16
 910 0004 00AF     		add	r7, sp, #0
 911              	.LCFI23:
 912              		.cfi_def_cfa_register 7
 913 0006 7860     		str	r0, [r7, #4]
 638:../Dave/Generated/src/USBCORE001/usbcore001_device.c ****   return 0;
 914              		.loc 1 638 0
 915 0008 4FF00003 		mov	r3, #0
 639:../Dave/Generated/src/USBCORE001/usbcore001_device.c **** }
 916              		.loc 1 639 0
 917 000c 1846     		mov	r0, r3
 918 000e 07F10C07 		add	r7, r7, #12
 919 0012 BD46     		mov	sp, r7
 920 0014 80BC     		pop	{r7}
 921 0016 7047     		bx	lr
 922              		.cfi_endproc
 923              	.LFE147:
 925              		.section	.text.USBCore001_DeviceStart,"ax",%progbits
 926              		.align	2
 927              		.global	USBCore001_DeviceStart
 928              		.thumb
 929              		.thumb_func
 931              	USBCore001_DeviceStart:
 932              	.LFB148:
 640:../Dave/Generated/src/USBCORE001/usbcore001_device.c **** 
 641:../Dave/Generated/src/USBCORE001/usbcore001_device.c **** /**
 642:../Dave/Generated/src/USBCORE001/usbcore001_device.c ****  * @endcond
 643:../Dave/Generated/src/USBCORE001/usbcore001_device.c ****  */
 644:../Dave/Generated/src/USBCORE001/usbcore001_device.c **** 
 645:../Dave/Generated/src/USBCORE001/usbcore001_device.c **** 
 646:../Dave/Generated/src/USBCORE001/usbcore001_device.c **** /*******************************************************************************
 647:../Dave/Generated/src/USBCORE001/usbcore001_device.c **** **                     Public Function Definitions                            **
 648:../Dave/Generated/src/USBCORE001/usbcore001_device.c **** *******************************************************************************/
 649:../Dave/Generated/src/USBCORE001/usbcore001_device.c **** 
 650:../Dave/Generated/src/USBCORE001/usbcore001_device.c **** /* This function initializes the synopsys device controller driver. */
 651:../Dave/Generated/src/USBCORE001/usbcore001_device.c **** int USBCore001_DeviceStart(USBCORE001_OtgDevice *OtgDevPtr, 
 652:../Dave/Generated/src/USBCORE001/usbcore001_device.c ****                                        USBCORE001_DeviceCallBack *USBDEventsPtr)
 653:../Dave/Generated/src/USBCORE001/usbcore001_device.c **** {
 933              		.loc 1 653 0
 934              		.cfi_startproc
 935              		@ args = 0, pretend = 0, frame = 24
 936              		@ frame_needed = 1, uses_anonymous_args = 0
 937 0000 B0B5     		push	{r4, r5, r7, lr}
 938              	.LCFI24:
 939              		.cfi_def_cfa_offset 16
 940              		.cfi_offset 4, -16
 941              		.cfi_offset 5, -12
 942              		.cfi_offset 7, -8
 943              		.cfi_offset 14, -4
 944 0002 86B0     		sub	sp, sp, #24
 945              	.LCFI25:
 946              		.cfi_def_cfa_offset 40
 947 0004 00AF     		add	r7, sp, #0
 948              	.LCFI26:
 949              		.cfi_def_cfa_register 7
 950 0006 7860     		str	r0, [r7, #4]
 951 0008 3960     		str	r1, [r7, #0]
 654:../Dave/Generated/src/USBCORE001/usbcore001_device.c ****   int Retval = 0;
 952              		.loc 1 654 0
 953 000a 4FF00003 		mov	r3, #0
 954 000e 7B61     		str	r3, [r7, #20]
 655:../Dave/Generated/src/USBCORE001/usbcore001_device.c ****   int EpCnt;
 656:../Dave/Generated/src/USBCORE001/usbcore001_device.c **** 
 657:../Dave/Generated/src/USBCORE001/usbcore001_device.c ****   if(!OtgDevPtr)
 955              		.loc 1 657 0
 956 0010 7B68     		ldr	r3, [r7, #4]
 957 0012 002B     		cmp	r3, #0
 958 0014 05D1     		bne	.L49
 658:../Dave/Generated/src/USBCORE001/usbcore001_device.c ****   {
 659:../Dave/Generated/src/USBCORE001/usbcore001_device.c ****     Retval = -DWC_E_NO_MEMORY;
 959              		.loc 1 659 0
 960 0016 4FF61643 		movw	r3, #64534
 961 001a CFF6FF73 		movt	r3, 65535
 962 001e 7B61     		str	r3, [r7, #20]
 660:../Dave/Generated/src/USBCORE001/usbcore001_device.c ****     goto end;
 963              		.loc 1 660 0
 964 0020 24E1     		b	.L50
 965              	.L49:
 661:../Dave/Generated/src/USBCORE001/usbcore001_device.c ****   }
 662:../Dave/Generated/src/USBCORE001/usbcore001_device.c **** 
 663:../Dave/Generated/src/USBCORE001/usbcore001_device.c ****   dwc_otg_disable_global_interrupts(OtgDevPtr->CoreIfPtr);
 966              		.loc 1 663 0
 967 0022 7B68     		ldr	r3, [r7, #4]
 968 0024 1B68     		ldr	r3, [r3, #0]
 969 0026 1846     		mov	r0, r3
 970 0028 FFF7FEFF 		bl	dwc_otg_disable_global_interrupts
 664:../Dave/Generated/src/USBCORE001/usbcore001_device.c **** 
 665:../Dave/Generated/src/USBCORE001/usbcore001_device.c ****   OtgDevPtr->PcdData.PCDPtr = dwc_otg_pcd_init(OtgDevPtr->CoreIfPtr);
 971              		.loc 1 665 0
 972 002c 7B68     		ldr	r3, [r7, #4]
 973 002e 1B68     		ldr	r3, [r3, #0]
 974 0030 1846     		mov	r0, r3
 975 0032 FFF7FEFF 		bl	dwc_otg_pcd_init
 976 0036 0246     		mov	r2, r0
 977 0038 7B68     		ldr	r3, [r7, #4]
 978 003a 5A60     		str	r2, [r3, #4]
 666:../Dave/Generated/src/USBCORE001/usbcore001_device.c **** 
 667:../Dave/Generated/src/USBCORE001/usbcore001_device.c ****   if(!OtgDevPtr->PcdData.PCDPtr)
 979              		.loc 1 667 0
 980 003c 7B68     		ldr	r3, [r7, #4]
 981 003e 5B68     		ldr	r3, [r3, #4]
 982 0040 002B     		cmp	r3, #0
 983 0042 05D1     		bne	.L51
 668:../Dave/Generated/src/USBCORE001/usbcore001_device.c ****   {
 669:../Dave/Generated/src/USBCORE001/usbcore001_device.c ****     DWC_PRINTF("ifx_usb_device_init: dwc_otg_pcd_init failed\r\n");
 670:../Dave/Generated/src/USBCORE001/usbcore001_device.c ****     Retval = -DWC_E_NO_MEMORY;
 984              		.loc 1 670 0
 985 0044 4FF61643 		movw	r3, #64534
 986 0048 CFF6FF73 		movt	r3, 65535
 987 004c 7B61     		str	r3, [r7, #20]
 671:../Dave/Generated/src/USBCORE001/usbcore001_device.c ****     goto end;
 988              		.loc 1 671 0
 989 004e 0DE1     		b	.L50
 990              	.L51:
 672:../Dave/Generated/src/USBCORE001/usbcore001_device.c ****   }
 673:../Dave/Generated/src/USBCORE001/usbcore001_device.c ****   USBCORE001_DevicePCD.GPCD = OtgDevPtr->PcdData.PCDPtr;
 991              		.loc 1 673 0
 992 0050 7B68     		ldr	r3, [r7, #4]
 993 0052 5A68     		ldr	r2, [r3, #4]
 994 0054 40F20003 		movw	r3, #:lower16:USBCORE001_DevicePCD
 995 0058 C0F20003 		movt	r3, #:upper16:USBCORE001_DevicePCD
 996 005c C3F8C822 		str	r2, [r3, #712]
 674:../Dave/Generated/src/USBCORE001/usbcore001_device.c ****   dctl_data_t data = { .d32 = 0 };
 997              		.loc 1 674 0
 998 0060 4FF00003 		mov	r3, #0
 999 0064 FB60     		str	r3, [r7, #12]
 675:../Dave/Generated/src/USBCORE001/usbcore001_device.c ****   data.d32 = DWC_READ_REG32(&OtgDevPtr->CoreIfPtr->dev_if->dev_global_regs->dctl);
 1000              		.loc 1 675 0
 1001 0066 7B68     		ldr	r3, [r7, #4]
 1002 0068 1B68     		ldr	r3, [r3, #0]
 1003 006a 9B68     		ldr	r3, [r3, #8]
 1004 006c 1B68     		ldr	r3, [r3, #0]
 1005 006e 03F10403 		add	r3, r3, #4
 1006 0072 1846     		mov	r0, r3
 1007 0074 FFF7FEFF 		bl	DWC_READ_REG32
 1008 0078 0346     		mov	r3, r0
 1009 007a FB60     		str	r3, [r7, #12]
 676:../Dave/Generated/src/USBCORE001/usbcore001_device.c ****   data.b.sftdiscon = 0; /* Connect Device */
 1010              		.loc 1 676 0
 1011 007c FB68     		ldr	r3, [r7, #12]
 1012 007e 6FF34103 		bfc	r3, #1, #1
 1013 0082 FB60     		str	r3, [r7, #12]
 677:../Dave/Generated/src/USBCORE001/usbcore001_device.c ****   DWC_WRITE_REG32(&OtgDevPtr->CoreIfPtr->dev_if->dev_global_regs->dctl,data.d32);
 1014              		.loc 1 677 0
 1015 0084 7B68     		ldr	r3, [r7, #4]
 1016 0086 1B68     		ldr	r3, [r3, #0]
 1017 0088 9B68     		ldr	r3, [r3, #8]
 1018 008a 1B68     		ldr	r3, [r3, #0]
 1019 008c 03F10402 		add	r2, r3, #4
 1020 0090 FB68     		ldr	r3, [r7, #12]
 1021 0092 1046     		mov	r0, r2
 1022 0094 1946     		mov	r1, r3
 1023 0096 FFF7FEFF 		bl	DWC_WRITE_REG32
 678:../Dave/Generated/src/USBCORE001/usbcore001_device.c ****   dwc_otg_pcd_start(OtgDevPtr->PcdData.PCDPtr,&USBCORE001_DevicePCDfops);
 1024              		.loc 1 678 0
 1025 009a 7B68     		ldr	r3, [r7, #4]
 1026 009c 5B68     		ldr	r3, [r3, #4]
 1027 009e 1846     		mov	r0, r3
 1028 00a0 40F20001 		movw	r1, #:lower16:USBCORE001_DevicePCDfops
 1029 00a4 C0F20001 		movt	r1, #:upper16:USBCORE001_DevicePCDfops
 1030 00a8 FFF7FEFF 		bl	dwc_otg_pcd_start
 679:../Dave/Generated/src/USBCORE001/usbcore001_device.c **** 
 680:../Dave/Generated/src/USBCORE001/usbcore001_device.c ****   USBCORE001_DevicePCD.USB_DeviceEvents = *USBDEventsPtr;
 1031              		.loc 1 680 0
 1032 00ac 40F20003 		movw	r3, #:lower16:USBCORE001_DevicePCD
 1033 00b0 C0F20003 		movt	r3, #:upper16:USBCORE001_DevicePCD
 1034 00b4 3A68     		ldr	r2, [r7, #0]
 1035 00b6 03F52B74 		add	r4, r3, #684
 1036 00ba 1546     		mov	r5, r2
 1037 00bc 0FCD     		ldmia	r5!, {r0, r1, r2, r3}
 1038 00be 0FC4     		stmia	r4!, {r0, r1, r2, r3}
 1039 00c0 95E80300 		ldmia	r5, {r0, r1}
 1040 00c4 84E80300 		stmia	r4, {r0, r1}
 681:../Dave/Generated/src/USBCORE001/usbcore001_device.c **** 
 682:../Dave/Generated/src/USBCORE001/usbcore001_device.c ****   /*Initialize Endpoint 0*/
 683:../Dave/Generated/src/USBCORE001/usbcore001_device.c ****   USBCORE001_DevicePCD.EndPoint0.InBuffer= DWC_ALLOC(MAX_EP0_SIZE*10);
 1041              		.loc 1 683 0
 1042 00c8 4FF00000 		mov	r0, #0
 1043 00cc 4FF42071 		mov	r1, #640
 1044 00d0 FFF7FEFF 		bl	__DWC_ALLOC
 1045 00d4 0246     		mov	r2, r0
 1046 00d6 40F20003 		movw	r3, #:lower16:USBCORE001_DevicePCD
 1047 00da C0F20003 		movt	r3, #:upper16:USBCORE001_DevicePCD
 1048 00de 5A60     		str	r2, [r3, #4]
 684:../Dave/Generated/src/USBCORE001/usbcore001_device.c ****   USBCORE001_DevicePCD.EndPoint0.OutBuffer= DWC_ALLOC(MAX_EP0_SIZE*10);
 1049              		.loc 1 684 0
 1050 00e0 4FF00000 		mov	r0, #0
 1051 00e4 4FF42071 		mov	r1, #640
 1052 00e8 FFF7FEFF 		bl	__DWC_ALLOC
 1053 00ec 0246     		mov	r2, r0
 1054 00ee 40F20003 		movw	r3, #:lower16:USBCORE001_DevicePCD
 1055 00f2 C0F20003 		movt	r3, #:upper16:USBCORE001_DevicePCD
 1056 00f6 DA60     		str	r2, [r3, #12]
 685:../Dave/Generated/src/USBCORE001/usbcore001_device.c ****   USBCORE001_DevicePCD.EndPoint0.MaxPktSz = MAX_EP0_SIZE;
 1057              		.loc 1 685 0
 1058 00f8 40F20003 		movw	r3, #:lower16:USBCORE001_DevicePCD
 1059 00fc C0F20003 		movt	r3, #:upper16:USBCORE001_DevicePCD
 1060 0100 4FF04002 		mov	r2, #64
 1061 0104 1A84     		strh	r2, [r3, #32]	@ movhi
 686:../Dave/Generated/src/USBCORE001/usbcore001_device.c ****   dwc_otg_pcd_ep_enable(USBCORE001_DevicePCD.GPCD, NULL, 
 1062              		.loc 1 686 0
 1063 0106 40F20003 		movw	r3, #:lower16:USBCORE001_DevicePCD
 1064 010a C0F20003 		movt	r3, #:upper16:USBCORE001_DevicePCD
 1065 010e D3F8C832 		ldr	r3, [r3, #712]
 1066 0112 1846     		mov	r0, r3
 1067 0114 4FF00001 		mov	r1, #0
 1068 0118 40F20002 		movw	r2, #:lower16:USBCORE001_DevicePCD
 1069 011c C0F20002 		movt	r2, #:upper16:USBCORE001_DevicePCD
 1070 0120 FFF7FEFF 		bl	dwc_otg_pcd_ep_enable
 687:../Dave/Generated/src/USBCORE001/usbcore001_device.c ****                                             &USBCORE001_DevicePCD.EndPoint0);
 688:../Dave/Generated/src/USBCORE001/usbcore001_device.c **** 
 689:../Dave/Generated/src/USBCORE001/usbcore001_device.c ****   /*Initialize In Endpoints*/
 690:../Dave/Generated/src/USBCORE001/usbcore001_device.c ****   for ( EpCnt = 0; EpCnt <= ENDPOINT_TOTAL_ENDPOINTS; EpCnt++)
 1071              		.loc 1 690 0
 1072 0124 4FF00003 		mov	r3, #0
 1073 0128 3B61     		str	r3, [r7, #16]
 1074 012a 4CE0     		b	.L52
 1075              	.L53:
 691:../Dave/Generated/src/USBCORE001/usbcore001_device.c ****   {
 692:../Dave/Generated/src/USBCORE001/usbcore001_device.c ****     USBCORE001_DevicePCD.InEps[EpCnt].EpNum = (EpCnt) | ENDPOINT_DIR_IN;
 1076              		.loc 1 692 0 discriminator 2
 1077 012c 3B69     		ldr	r3, [r7, #16]
 1078 012e DBB2     		uxtb	r3, r3
 1079 0130 63F07F03 		orn	r3, r3, #127
 1080 0134 DBB2     		uxtb	r3, r3
 1081 0136 D8B2     		uxtb	r0, r3
 1082 0138 40F20002 		movw	r2, #:lower16:USBCORE001_DevicePCD
 1083 013c C0F20002 		movt	r2, #:upper16:USBCORE001_DevicePCD
 1084 0140 3969     		ldr	r1, [r7, #16]
 1085 0142 0B46     		mov	r3, r1
 1086 0144 4FEAC303 		lsl	r3, r3, #3
 1087 0148 5B18     		adds	r3, r3, r1
 1088 014a 4FEA8303 		lsl	r3, r3, #2
 1089 014e D318     		adds	r3, r2, r3
 1090 0150 03F5B473 		add	r3, r3, #360
 1091 0154 0246     		mov	r2, r0
 1092 0156 1A70     		strb	r2, [r3, #0]
 693:../Dave/Generated/src/USBCORE001/usbcore001_device.c ****     USBCORE001_DevicePCD.InEps[EpCnt].InEp = true;
 1093              		.loc 1 693 0 discriminator 2
 1094 0158 40F20002 		movw	r2, #:lower16:USBCORE001_DevicePCD
 1095 015c C0F20002 		movt	r2, #:upper16:USBCORE001_DevicePCD
 1096 0160 3969     		ldr	r1, [r7, #16]
 1097 0162 0B46     		mov	r3, r1
 1098 0164 4FEAC303 		lsl	r3, r3, #3
 1099 0168 5B18     		adds	r3, r3, r1
 1100 016a 4FEA8303 		lsl	r3, r3, #2
 1101 016e D318     		adds	r3, r2, r3
 1102 0170 03F5B473 		add	r3, r3, #360
 1103 0174 4FF00102 		mov	r2, #1
 1104 0178 5A70     		strb	r2, [r3, #1]
 694:../Dave/Generated/src/USBCORE001/usbcore001_device.c ****     USBCORE001_DevicePCD.InEps[EpCnt].InBuffer = NULL;
 1105              		.loc 1 694 0 discriminator 2
 1106 017a 40F20002 		movw	r2, #:lower16:USBCORE001_DevicePCD
 1107 017e C0F20002 		movt	r2, #:upper16:USBCORE001_DevicePCD
 1108 0182 3969     		ldr	r1, [r7, #16]
 1109 0184 0B46     		mov	r3, r1
 1110 0186 4FEAC303 		lsl	r3, r3, #3
 1111 018a 5B18     		adds	r3, r3, r1
 1112 018c 4FEA8303 		lsl	r3, r3, #2
 1113 0190 D318     		adds	r3, r2, r3
 1114 0192 03F5B673 		add	r3, r3, #364
 1115 0196 4FF00002 		mov	r2, #0
 1116 019a 1A60     		str	r2, [r3, #0]
 695:../Dave/Generated/src/USBCORE001/usbcore001_device.c ****     USBCORE001_DevicePCD.InEps[EpCnt].OutBuffer = NULL;
 1117              		.loc 1 695 0 discriminator 2
 1118 019c 40F20002 		movw	r2, #:lower16:USBCORE001_DevicePCD
 1119 01a0 C0F20002 		movt	r2, #:upper16:USBCORE001_DevicePCD
 1120 01a4 3969     		ldr	r1, [r7, #16]
 1121 01a6 0B46     		mov	r3, r1
 1122 01a8 4FEAC303 		lsl	r3, r3, #3
 1123 01ac 5B18     		adds	r3, r3, r1
 1124 01ae 4FEA8303 		lsl	r3, r3, #2
 1125 01b2 D318     		adds	r3, r2, r3
 1126 01b4 03F5BA73 		add	r3, r3, #372
 1127 01b8 4FF00002 		mov	r2, #0
 1128 01bc 1A60     		str	r2, [r3, #0]
 690:../Dave/Generated/src/USBCORE001/usbcore001_device.c ****   for ( EpCnt = 0; EpCnt <= ENDPOINT_TOTAL_ENDPOINTS; EpCnt++)
 1129              		.loc 1 690 0 discriminator 2
 1130 01be 3B69     		ldr	r3, [r7, #16]
 1131 01c0 03F10103 		add	r3, r3, #1
 1132 01c4 3B61     		str	r3, [r7, #16]
 1133              	.L52:
 690:../Dave/Generated/src/USBCORE001/usbcore001_device.c ****   for ( EpCnt = 0; EpCnt <= ENDPOINT_TOTAL_ENDPOINTS; EpCnt++)
 1134              		.loc 1 690 0 is_stmt 0 discriminator 1
 1135 01c6 3B69     		ldr	r3, [r7, #16]
 1136 01c8 082B     		cmp	r3, #8
 1137 01ca AFDD     		ble	.L53
 696:../Dave/Generated/src/USBCORE001/usbcore001_device.c ****   }
 697:../Dave/Generated/src/USBCORE001/usbcore001_device.c **** 
 698:../Dave/Generated/src/USBCORE001/usbcore001_device.c ****   /*Initialize Out Endpoints*/
 699:../Dave/Generated/src/USBCORE001/usbcore001_device.c ****   for ( EpCnt = 0; EpCnt <= ENDPOINT_TOTAL_ENDPOINTS; EpCnt++)
 1138              		.loc 1 699 0 is_stmt 1
 1139 01cc 4FF00003 		mov	r3, #0
 1140 01d0 3B61     		str	r3, [r7, #16]
 1141 01d2 48E0     		b	.L54
 1142              	.L55:
 700:../Dave/Generated/src/USBCORE001/usbcore001_device.c ****   {
 701:../Dave/Generated/src/USBCORE001/usbcore001_device.c ****     USBCORE001_DevicePCD.OutEps[EpCnt].EpNum = (EpCnt);
 1143              		.loc 1 701 0 discriminator 2
 1144 01d4 3B69     		ldr	r3, [r7, #16]
 1145 01d6 D8B2     		uxtb	r0, r3
 1146 01d8 40F20002 		movw	r2, #:lower16:USBCORE001_DevicePCD
 1147 01dc C0F20002 		movt	r2, #:upper16:USBCORE001_DevicePCD
 1148 01e0 3969     		ldr	r1, [r7, #16]
 1149 01e2 0B46     		mov	r3, r1
 1150 01e4 4FEAC303 		lsl	r3, r3, #3
 1151 01e8 5B18     		adds	r3, r3, r1
 1152 01ea 4FEA8303 		lsl	r3, r3, #2
 1153 01ee D318     		adds	r3, r2, r3
 1154 01f0 03F12003 		add	r3, r3, #32
 1155 01f4 0246     		mov	r2, r0
 1156 01f6 1A71     		strb	r2, [r3, #4]
 702:../Dave/Generated/src/USBCORE001/usbcore001_device.c ****     USBCORE001_DevicePCD.OutEps[EpCnt].InEp = false;
 1157              		.loc 1 702 0 discriminator 2
 1158 01f8 40F20002 		movw	r2, #:lower16:USBCORE001_DevicePCD
 1159 01fc C0F20002 		movt	r2, #:upper16:USBCORE001_DevicePCD
 1160 0200 3969     		ldr	r1, [r7, #16]
 1161 0202 0B46     		mov	r3, r1
 1162 0204 4FEAC303 		lsl	r3, r3, #3
 1163 0208 5B18     		adds	r3, r3, r1
 1164 020a 4FEA8303 		lsl	r3, r3, #2
 1165 020e D318     		adds	r3, r2, r3
 1166 0210 03F12003 		add	r3, r3, #32
 1167 0214 4FF00002 		mov	r2, #0
 1168 0218 5A71     		strb	r2, [r3, #5]
 703:../Dave/Generated/src/USBCORE001/usbcore001_device.c ****     USBCORE001_DevicePCD.OutEps[EpCnt].InBuffer = NULL;
 1169              		.loc 1 703 0 discriminator 2
 1170 021a 40F20002 		movw	r2, #:lower16:USBCORE001_DevicePCD
 1171 021e C0F20002 		movt	r2, #:upper16:USBCORE001_DevicePCD
 1172 0222 3969     		ldr	r1, [r7, #16]
 1173 0224 0B46     		mov	r3, r1
 1174 0226 4FEAC303 		lsl	r3, r3, #3
 1175 022a 5B18     		adds	r3, r3, r1
 1176 022c 4FEA8303 		lsl	r3, r3, #2
 1177 0230 D318     		adds	r3, r2, r3
 1178 0232 03F12803 		add	r3, r3, #40
 1179 0236 4FF00002 		mov	r2, #0
 1180 023a 1A60     		str	r2, [r3, #0]
 704:../Dave/Generated/src/USBCORE001/usbcore001_device.c ****     USBCORE001_DevicePCD.OutEps[EpCnt].OutBuffer = NULL;
 1181              		.loc 1 704 0 discriminator 2
 1182 023c 40F20002 		movw	r2, #:lower16:USBCORE001_DevicePCD
 1183 0240 C0F20002 		movt	r2, #:upper16:USBCORE001_DevicePCD
 1184 0244 3969     		ldr	r1, [r7, #16]
 1185 0246 0B46     		mov	r3, r1
 1186 0248 4FEAC303 		lsl	r3, r3, #3
 1187 024c 5B18     		adds	r3, r3, r1
 1188 024e 4FEA8303 		lsl	r3, r3, #2
 1189 0252 D318     		adds	r3, r2, r3
 1190 0254 03F13003 		add	r3, r3, #48
 1191 0258 4FF00002 		mov	r2, #0
 1192 025c 1A60     		str	r2, [r3, #0]
 699:../Dave/Generated/src/USBCORE001/usbcore001_device.c ****   for ( EpCnt = 0; EpCnt <= ENDPOINT_TOTAL_ENDPOINTS; EpCnt++)
 1193              		.loc 1 699 0 discriminator 2
 1194 025e 3B69     		ldr	r3, [r7, #16]
 1195 0260 03F10103 		add	r3, r3, #1
 1196 0264 3B61     		str	r3, [r7, #16]
 1197              	.L54:
 699:../Dave/Generated/src/USBCORE001/usbcore001_device.c ****   for ( EpCnt = 0; EpCnt <= ENDPOINT_TOTAL_ENDPOINTS; EpCnt++)
 1198              		.loc 1 699 0 is_stmt 0 discriminator 1
 1199 0266 3B69     		ldr	r3, [r7, #16]
 1200 0268 082B     		cmp	r3, #8
 1201 026a B3DD     		ble	.L55
 1202              	.L50:
 705:../Dave/Generated/src/USBCORE001/usbcore001_device.c ****   }
 706:../Dave/Generated/src/USBCORE001/usbcore001_device.c **** 
 707:../Dave/Generated/src/USBCORE001/usbcore001_device.c **** end:
 708:../Dave/Generated/src/USBCORE001/usbcore001_device.c ****   dwc_otg_enable_global_interrupts(OtgDevPtr->CoreIfPtr);
 1203              		.loc 1 708 0 is_stmt 1
 1204 026c 7B68     		ldr	r3, [r7, #4]
 1205 026e 1B68     		ldr	r3, [r3, #0]
 1206 0270 1846     		mov	r0, r3
 1207 0272 FFF7FEFF 		bl	dwc_otg_enable_global_interrupts
 709:../Dave/Generated/src/USBCORE001/usbcore001_device.c ****   return Retval;
 1208              		.loc 1 709 0
 1209 0276 7B69     		ldr	r3, [r7, #20]
 710:../Dave/Generated/src/USBCORE001/usbcore001_device.c **** }
 1210              		.loc 1 710 0
 1211 0278 1846     		mov	r0, r3
 1212 027a 07F11807 		add	r7, r7, #24
 1213 027e BD46     		mov	sp, r7
 1214 0280 B0BD     		pop	{r4, r5, r7, pc}
 1215              		.cfi_endproc
 1216              	.LFE148:
 1218 0282 00BF     		.section	.text.Endpoint_IsSETUPReceived,"ax",%progbits
 1219              		.align	2
 1220              		.global	Endpoint_IsSETUPReceived
 1221              		.thumb
 1222              		.thumb_func
 1224              	Endpoint_IsSETUPReceived:
 1225              	.LFB149:
 711:../Dave/Generated/src/USBCORE001/usbcore001_device.c **** 
 712:../Dave/Generated/src/USBCORE001/usbcore001_device.c **** 
 713:../Dave/Generated/src/USBCORE001/usbcore001_device.c **** /* Checks whether a SETUP packet was received or not */
 714:../Dave/Generated/src/USBCORE001/usbcore001_device.c **** uint8_t Endpoint_IsSETUPReceived(void)
 715:../Dave/Generated/src/USBCORE001/usbcore001_device.c **** {
 1226              		.loc 1 715 0
 1227              		.cfi_startproc
 1228              		@ args = 0, pretend = 0, frame = 0
 1229              		@ frame_needed = 1, uses_anonymous_args = 0
 1230              		@ link register save eliminated.
 1231 0000 80B4     		push	{r7}
 1232              	.LCFI27:
 1233              		.cfi_def_cfa_offset 4
 1234              		.cfi_offset 7, -4
 1235 0002 00AF     		add	r7, sp, #0
 1236              	.LCFI28:
 1237              		.cfi_def_cfa_register 7
 716:../Dave/Generated/src/USBCORE001/usbcore001_device.c ****   return USBCORE001_DevicePCD.USB_SetupReceived;
 1238              		.loc 1 716 0
 1239 0004 40F20003 		movw	r3, #:lower16:USBCORE001_DevicePCD
 1240 0008 C0F20003 		movt	r3, #:upper16:USBCORE001_DevicePCD
 1241 000c 93F8C432 		ldrb	r3, [r3, #708]	@ zero_extendqisi2
 717:../Dave/Generated/src/USBCORE001/usbcore001_device.c **** }
 1242              		.loc 1 717 0
 1243 0010 1846     		mov	r0, r3
 1244 0012 BD46     		mov	sp, r7
 1245 0014 80BC     		pop	{r7}
 1246 0016 7047     		bx	lr
 1247              		.cfi_endproc
 1248              	.LFE149:
 1250              		.section	.text.Endpoint_ClearSETUP,"ax",%progbits
 1251              		.align	2
 1252              		.global	Endpoint_ClearSETUP
 1253              		.thumb
 1254              		.thumb_func
 1256              	Endpoint_ClearSETUP:
 1257              	.LFB150:
 718:../Dave/Generated/src/USBCORE001/usbcore001_device.c **** 
 719:../Dave/Generated/src/USBCORE001/usbcore001_device.c **** /* Clears the SETUP packet */
 720:../Dave/Generated/src/USBCORE001/usbcore001_device.c **** void Endpoint_ClearSETUP(void)
 721:../Dave/Generated/src/USBCORE001/usbcore001_device.c **** {
 1258              		.loc 1 721 0
 1259              		.cfi_startproc
 1260              		@ args = 0, pretend = 0, frame = 0
 1261              		@ frame_needed = 1, uses_anonymous_args = 0
 1262              		@ link register save eliminated.
 1263 0000 80B4     		push	{r7}
 1264              	.LCFI29:
 1265              		.cfi_def_cfa_offset 4
 1266              		.cfi_offset 7, -4
 1267 0002 00AF     		add	r7, sp, #0
 1268              	.LCFI30:
 1269              		.cfi_def_cfa_register 7
 722:../Dave/Generated/src/USBCORE001/usbcore001_device.c ****   USBCORE001_DevicePCD.USB_SetupReceived = false;
 1270              		.loc 1 722 0
 1271 0004 40F20003 		movw	r3, #:lower16:USBCORE001_DevicePCD
 1272 0008 C0F20003 		movt	r3, #:upper16:USBCORE001_DevicePCD
 1273 000c 4FF00002 		mov	r2, #0
 1274 0010 83F8C422 		strb	r2, [r3, #708]
 723:../Dave/Generated/src/USBCORE001/usbcore001_device.c ****   return;
 1275              		.loc 1 723 0
 1276 0014 00BF     		nop
 724:../Dave/Generated/src/USBCORE001/usbcore001_device.c **** }
 1277              		.loc 1 724 0
 1278 0016 BD46     		mov	sp, r7
 1279 0018 80BC     		pop	{r7}
 1280 001a 7047     		bx	lr
 1281              		.cfi_endproc
 1282              	.LFE150:
 1284              		.section	.text.Endpoint_ClearOUT,"ax",%progbits
 1285              		.align	2
 1286              		.global	Endpoint_ClearOUT
 1287              		.thumb
 1288              		.thumb_func
 1290              	Endpoint_ClearOUT:
 1291              	.LFB151:
 725:../Dave/Generated/src/USBCORE001/usbcore001_device.c **** 
 726:../Dave/Generated/src/USBCORE001/usbcore001_device.c **** /* Clears the OUT endpoint. */
 727:../Dave/Generated/src/USBCORE001/usbcore001_device.c **** void Endpoint_ClearOUT(void)
 728:../Dave/Generated/src/USBCORE001/usbcore001_device.c **** {
 1292              		.loc 1 728 0
 1293              		.cfi_startproc
 1294              		@ args = 0, pretend = 0, frame = 8
 1295              		@ frame_needed = 1, uses_anonymous_args = 0
 1296 0000 90B5     		push	{r4, r7, lr}
 1297              	.LCFI31:
 1298              		.cfi_def_cfa_offset 12
 1299              		.cfi_offset 4, -12
 1300              		.cfi_offset 7, -8
 1301              		.cfi_offset 14, -4
 1302 0002 87B0     		sub	sp, sp, #28
 1303              	.LCFI32:
 1304              		.cfi_def_cfa_offset 40
 1305 0004 04AF     		add	r7, sp, #16
 1306              	.LCFI33:
 1307              		.cfi_def_cfa 7, 24
 729:../Dave/Generated/src/USBCORE001/usbcore001_device.c ****   USBCORE001_DeivceEndpoint *EndPoint;
 730:../Dave/Generated/src/USBCORE001/usbcore001_device.c **** 
 731:../Dave/Generated/src/USBCORE001/usbcore001_device.c ****   if(USBCORE001_DevicePCD.CurEpNum)
 1308              		.loc 1 731 0
 1309 0006 40F20003 		movw	r3, #:lower16:USBCORE001_DevicePCD
 1310 000a C0F20003 		movt	r3, #:upper16:USBCORE001_DevicePCD
 1311 000e 93F8D032 		ldrb	r3, [r3, #720]	@ zero_extendqisi2
 1312 0012 002B     		cmp	r3, #0
 1313 0014 4BD0     		beq	.L62
 732:../Dave/Generated/src/USBCORE001/usbcore001_device.c ****   {
 733:../Dave/Generated/src/USBCORE001/usbcore001_device.c ****     EndPoint = &USBCORE001_DevicePCD.OutEps[USBCORE001_DevicePCD.CurEpNum];
 1314              		.loc 1 733 0
 1315 0016 40F20003 		movw	r3, #:lower16:USBCORE001_DevicePCD
 1316 001a C0F20003 		movt	r3, #:upper16:USBCORE001_DevicePCD
 1317 001e 93F8D032 		ldrb	r3, [r3, #720]	@ zero_extendqisi2
 1318 0022 1A46     		mov	r2, r3
 1319 0024 1346     		mov	r3, r2
 1320 0026 4FEAC303 		lsl	r3, r3, #3
 1321 002a 9B18     		adds	r3, r3, r2
 1322 002c 4FEA8303 		lsl	r3, r3, #2
 1323 0030 03F12002 		add	r2, r3, #32
 1324 0034 40F20003 		movw	r3, #:lower16:USBCORE001_DevicePCD
 1325 0038 C0F20003 		movt	r3, #:upper16:USBCORE001_DevicePCD
 1326 003c D318     		adds	r3, r2, r3
 1327 003e 03F10403 		add	r3, r3, #4
 1328 0042 7B60     		str	r3, [r7, #4]
 734:../Dave/Generated/src/USBCORE001/usbcore001_device.c **** 
 735:../Dave/Generated/src/USBCORE001/usbcore001_device.c ****     if(!EndPoint->OutBufferInUse)
 1329              		.loc 1 735 0
 1330 0044 7B68     		ldr	r3, [r7, #4]
 1331 0046 1B7C     		ldrb	r3, [r3, #16]
 1332 0048 DBB2     		uxtb	r3, r3
 1333 004a 002B     		cmp	r3, #0
 1334 004c 34D1     		bne	.L65
 736:../Dave/Generated/src/USBCORE001/usbcore001_device.c ****     {
 737:../Dave/Generated/src/USBCORE001/usbcore001_device.c ****       EndPoint->BytesAvailableOut = 0;
 1335              		.loc 1 737 0
 1336 004e 7B68     		ldr	r3, [r7, #4]
 1337 0050 4FF00002 		mov	r2, #0
 1338 0054 5A82     		strh	r2, [r3, #18]	@ movhi
 738:../Dave/Generated/src/USBCORE001/usbcore001_device.c ****       EndPoint->CurrentOutIndex = 0;
 1339              		.loc 1 738 0
 1340 0056 7B68     		ldr	r3, [r7, #4]
 1341 0058 4FF00002 		mov	r2, #0
 1342 005c 5A83     		strh	r2, [r3, #26]	@ movhi
 739:../Dave/Generated/src/USBCORE001/usbcore001_device.c ****       EndPoint->OutBufferInUse = true;
 1343              		.loc 1 739 0
 1344 005e 7B68     		ldr	r3, [r7, #4]
 1345 0060 4FF00102 		mov	r2, #1
 1346 0064 1A74     		strb	r2, [r3, #16]
 740:../Dave/Generated/src/USBCORE001/usbcore001_device.c **** 
 741:../Dave/Generated/src/USBCORE001/usbcore001_device.c ****       /*Queue the buffer again*/
 742:../Dave/Generated/src/USBCORE001/usbcore001_device.c ****       dwc_otg_pcd_ep_queue(USBCORE001_DevicePCD.GPCD, EndPoint,
 1347              		.loc 1 742 0
 1348 0066 40F20003 		movw	r3, #:lower16:USBCORE001_DevicePCD
 1349 006a C0F20003 		movt	r3, #:upper16:USBCORE001_DevicePCD
 1350 006e D3F8C812 		ldr	r1, [r3, #712]
 743:../Dave/Generated/src/USBCORE001/usbcore001_device.c ****       (uint8_t *)EndPoint->OutBuffer, (int)EndPoint->OutBuffer, 
 1351              		.loc 1 743 0
 1352 0072 7B68     		ldr	r3, [r7, #4]
 742:../Dave/Generated/src/USBCORE001/usbcore001_device.c ****       dwc_otg_pcd_ep_queue(USBCORE001_DevicePCD.GPCD, EndPoint,
 1353              		.loc 1 742 0
 1354 0074 DA68     		ldr	r2, [r3, #12]
 1355              		.loc 1 743 0
 1356 0076 7B68     		ldr	r3, [r7, #4]
 1357 0078 DB68     		ldr	r3, [r3, #12]
 744:../Dave/Generated/src/USBCORE001/usbcore001_device.c ****       EndPoint->MaxPktSz, 0, EndPoint->OutBuffer, 0);
 1358              		.loc 1 744 0
 1359 007a 7868     		ldr	r0, [r7, #4]
 1360 007c 008C     		ldrh	r0, [r0, #32]
 742:../Dave/Generated/src/USBCORE001/usbcore001_device.c ****       dwc_otg_pcd_ep_queue(USBCORE001_DevicePCD.GPCD, EndPoint,
 1361              		.loc 1 742 0
 1362 007e 0446     		mov	r4, r0
 1363              		.loc 1 744 0
 1364 0080 7868     		ldr	r0, [r7, #4]
 1365 0082 C068     		ldr	r0, [r0, #12]
 742:../Dave/Generated/src/USBCORE001/usbcore001_device.c ****       dwc_otg_pcd_ep_queue(USBCORE001_DevicePCD.GPCD, EndPoint,
 1366              		.loc 1 742 0
 1367 0084 0094     		str	r4, [sp, #0]
 1368 0086 4FF00004 		mov	r4, #0
 1369 008a 0194     		str	r4, [sp, #4]
 1370 008c 0290     		str	r0, [sp, #8]
 1371 008e 4FF00000 		mov	r0, #0
 1372 0092 0390     		str	r0, [sp, #12]
 1373 0094 0846     		mov	r0, r1
 1374 0096 7968     		ldr	r1, [r7, #4]
 1375 0098 FFF7FEFF 		bl	dwc_otg_pcd_ep_queue
 745:../Dave/Generated/src/USBCORE001/usbcore001_device.c **** 
 746:../Dave/Generated/src/USBCORE001/usbcore001_device.c ****       if(EndPoint->MaxPktSz > 16)
 1376              		.loc 1 746 0
 1377 009c 7B68     		ldr	r3, [r7, #4]
 1378 009e 1B8C     		ldrh	r3, [r3, #32]
 1379 00a0 102B     		cmp	r3, #16
 1380 00a2 09D9     		bls	.L65
 747:../Dave/Generated/src/USBCORE001/usbcore001_device.c ****       {
 748:../Dave/Generated/src/USBCORE001/usbcore001_device.c ****         USB_1msDelay(2500);/*1.25 ms (count 2500) before next packet*/
 1381              		.loc 1 748 0
 1382 00a4 40F6C410 		movw	r0, #2500
 1383 00a8 FFF7FEFF 		bl	USB_1msDelay
 749:../Dave/Generated/src/USBCORE001/usbcore001_device.c ****       }
 750:../Dave/Generated/src/USBCORE001/usbcore001_device.c **** 
 751:../Dave/Generated/src/USBCORE001/usbcore001_device.c ****     }
 752:../Dave/Generated/src/USBCORE001/usbcore001_device.c ****   }
 753:../Dave/Generated/src/USBCORE001/usbcore001_device.c ****   else
 754:../Dave/Generated/src/USBCORE001/usbcore001_device.c ****   {
 755:../Dave/Generated/src/USBCORE001/usbcore001_device.c ****     EndPoint = &USBCORE001_DevicePCD.EndPoint0;
 756:../Dave/Generated/src/USBCORE001/usbcore001_device.c ****   }
 757:../Dave/Generated/src/USBCORE001/usbcore001_device.c **** 
 758:../Dave/Generated/src/USBCORE001/usbcore001_device.c ****   return;
 1384              		.loc 1 758 0
 1385 00ac 04E0     		b	.L65
 1386              	.L62:
 755:../Dave/Generated/src/USBCORE001/usbcore001_device.c ****     EndPoint = &USBCORE001_DevicePCD.EndPoint0;
 1387              		.loc 1 755 0
 1388 00ae 40F20003 		movw	r3, #:lower16:USBCORE001_DevicePCD
 1389 00b2 C0F20003 		movt	r3, #:upper16:USBCORE001_DevicePCD
 1390 00b6 7B60     		str	r3, [r7, #4]
 1391              	.L65:
 1392              		.loc 1 758 0
 1393 00b8 00BF     		nop
 1394              	.L61:
 759:../Dave/Generated/src/USBCORE001/usbcore001_device.c **** }
 1395              		.loc 1 759 0
 1396 00ba 07F10C07 		add	r7, r7, #12
 1397 00be BD46     		mov	sp, r7
 1398 00c0 90BD     		pop	{r4, r7, pc}
 1399              		.cfi_endproc
 1400              	.LFE151:
 1402 00c2 00BF     		.section	.text.USB_1msDelay,"ax",%progbits
 1403              		.align	2
 1404              		.global	USB_1msDelay
 1405              		.thumb
 1406              		.thumb_func
 1408              	USB_1msDelay:
 1409              	.LFB152:
 760:../Dave/Generated/src/USBCORE001/usbcore001_device.c **** 
 761:../Dave/Generated/src/USBCORE001/usbcore001_device.c **** void USB_1msDelay(uint32_t delay_count)
 762:../Dave/Generated/src/USBCORE001/usbcore001_device.c **** {
 1410              		.loc 1 762 0
 1411              		.cfi_startproc
 1412              		@ args = 0, pretend = 0, frame = 16
 1413              		@ frame_needed = 1, uses_anonymous_args = 0
 1414              		@ link register save eliminated.
 1415 0000 80B4     		push	{r7}
 1416              	.LCFI34:
 1417              		.cfi_def_cfa_offset 4
 1418              		.cfi_offset 7, -4
 1419 0002 85B0     		sub	sp, sp, #20
 1420              	.LCFI35:
 1421              		.cfi_def_cfa_offset 24
 1422 0004 00AF     		add	r7, sp, #0
 1423              	.LCFI36:
 1424              		.cfi_def_cfa_register 7
 1425 0006 7860     		str	r0, [r7, #4]
 763:../Dave/Generated/src/USBCORE001/usbcore001_device.c ****     volatile uint32_t i;
 764:../Dave/Generated/src/USBCORE001/usbcore001_device.c ****     for (i = (uint32_t)delay_count; i > (uint32_t)0; i--)
 1426              		.loc 1 764 0
 1427 0008 7B68     		ldr	r3, [r7, #4]
 1428 000a FB60     		str	r3, [r7, #12]
 1429 000c 07E0     		b	.L67
 1430              	.L68:
 1431              	.LBB13:
 1432              	.LBB14:
 1433              		.file 2 "C:\\DAVE-3.1.10\\eclipse\\/../CMSIS/Include/core_cmInstr.h"
   1:C:\DAVE-3.1.10\eclipse\/../CMSIS/Include\core_cmInstr.h **** /**************************************************************************//**
   2:C:\DAVE-3.1.10\eclipse\/../CMSIS/Include\core_cmInstr.h ****  * @file     core_cmInstr.h
   3:C:\DAVE-3.1.10\eclipse\/../CMSIS/Include\core_cmInstr.h ****  * @brief    CMSIS Cortex-M Core Instruction Access Header File
   4:C:\DAVE-3.1.10\eclipse\/../CMSIS/Include\core_cmInstr.h ****  * @version  V3.20
   5:C:\DAVE-3.1.10\eclipse\/../CMSIS/Include\core_cmInstr.h ****  * @date     05. March 2013
   6:C:\DAVE-3.1.10\eclipse\/../CMSIS/Include\core_cmInstr.h ****  *
   7:C:\DAVE-3.1.10\eclipse\/../CMSIS/Include\core_cmInstr.h ****  * @note
   8:C:\DAVE-3.1.10\eclipse\/../CMSIS/Include\core_cmInstr.h ****  *
   9:C:\DAVE-3.1.10\eclipse\/../CMSIS/Include\core_cmInstr.h ****  ******************************************************************************/
  10:C:\DAVE-3.1.10\eclipse\/../CMSIS/Include\core_cmInstr.h **** /* Copyright (c) 2009 - 2013 ARM LIMITED
  11:C:\DAVE-3.1.10\eclipse\/../CMSIS/Include\core_cmInstr.h **** 
  12:C:\DAVE-3.1.10\eclipse\/../CMSIS/Include\core_cmInstr.h ****    All rights reserved.
  13:C:\DAVE-3.1.10\eclipse\/../CMSIS/Include\core_cmInstr.h ****    Redistribution and use in source and binary forms, with or without
  14:C:\DAVE-3.1.10\eclipse\/../CMSIS/Include\core_cmInstr.h ****    modification, are permitted provided that the following conditions are met:
  15:C:\DAVE-3.1.10\eclipse\/../CMSIS/Include\core_cmInstr.h ****    - Redistributions of source code must retain the above copyright
  16:C:\DAVE-3.1.10\eclipse\/../CMSIS/Include\core_cmInstr.h ****      notice, this list of conditions and the following disclaimer.
  17:C:\DAVE-3.1.10\eclipse\/../CMSIS/Include\core_cmInstr.h ****    - Redistributions in binary form must reproduce the above copyright
  18:C:\DAVE-3.1.10\eclipse\/../CMSIS/Include\core_cmInstr.h ****      notice, this list of conditions and the following disclaimer in the
  19:C:\DAVE-3.1.10\eclipse\/../CMSIS/Include\core_cmInstr.h ****      documentation and/or other materials provided with the distribution.
  20:C:\DAVE-3.1.10\eclipse\/../CMSIS/Include\core_cmInstr.h ****    - Neither the name of ARM nor the names of its contributors may be used
  21:C:\DAVE-3.1.10\eclipse\/../CMSIS/Include\core_cmInstr.h ****      to endorse or promote products derived from this software without
  22:C:\DAVE-3.1.10\eclipse\/../CMSIS/Include\core_cmInstr.h ****      specific prior written permission.
  23:C:\DAVE-3.1.10\eclipse\/../CMSIS/Include\core_cmInstr.h ****    *
  24:C:\DAVE-3.1.10\eclipse\/../CMSIS/Include\core_cmInstr.h ****    THIS SOFTWARE IS PROVIDED BY THE COPYRIGHT HOLDERS AND CONTRIBUTORS "AS IS"
  25:C:\DAVE-3.1.10\eclipse\/../CMSIS/Include\core_cmInstr.h ****    AND ANY EXPRESS OR IMPLIED WARRANTIES, INCLUDING, BUT NOT LIMITED TO, THE
  26:C:\DAVE-3.1.10\eclipse\/../CMSIS/Include\core_cmInstr.h ****    IMPLIED WARRANTIES OF MERCHANTABILITY AND FITNESS FOR A PARTICULAR PURPOSE
  27:C:\DAVE-3.1.10\eclipse\/../CMSIS/Include\core_cmInstr.h ****    ARE DISCLAIMED. IN NO EVENT SHALL COPYRIGHT HOLDERS AND CONTRIBUTORS BE
  28:C:\DAVE-3.1.10\eclipse\/../CMSIS/Include\core_cmInstr.h ****    LIABLE FOR ANY DIRECT, INDIRECT, INCIDENTAL, SPECIAL, EXEMPLARY, OR
  29:C:\DAVE-3.1.10\eclipse\/../CMSIS/Include\core_cmInstr.h ****    CONSEQUENTIAL DAMAGES (INCLUDING, BUT NOT LIMITED TO, PROCUREMENT OF
  30:C:\DAVE-3.1.10\eclipse\/../CMSIS/Include\core_cmInstr.h ****    SUBSTITUTE GOODS OR SERVICES; LOSS OF USE, DATA, OR PROFITS; OR BUSINESS
  31:C:\DAVE-3.1.10\eclipse\/../CMSIS/Include\core_cmInstr.h ****    INTERRUPTION) HOWEVER CAUSED AND ON ANY THEORY OF LIABILITY, WHETHER IN
  32:C:\DAVE-3.1.10\eclipse\/../CMSIS/Include\core_cmInstr.h ****    CONTRACT, STRICT LIABILITY, OR TORT (INCLUDING NEGLIGENCE OR OTHERWISE)
  33:C:\DAVE-3.1.10\eclipse\/../CMSIS/Include\core_cmInstr.h ****    ARISING IN ANY WAY OUT OF THE USE OF THIS SOFTWARE, EVEN IF ADVISED OF THE
  34:C:\DAVE-3.1.10\eclipse\/../CMSIS/Include\core_cmInstr.h ****    POSSIBILITY OF SUCH DAMAGE.
  35:C:\DAVE-3.1.10\eclipse\/../CMSIS/Include\core_cmInstr.h ****    ---------------------------------------------------------------------------*/
  36:C:\DAVE-3.1.10\eclipse\/../CMSIS/Include\core_cmInstr.h **** 
  37:C:\DAVE-3.1.10\eclipse\/../CMSIS/Include\core_cmInstr.h **** 
  38:C:\DAVE-3.1.10\eclipse\/../CMSIS/Include\core_cmInstr.h **** #ifndef __CORE_CMINSTR_H
  39:C:\DAVE-3.1.10\eclipse\/../CMSIS/Include\core_cmInstr.h **** #define __CORE_CMINSTR_H
  40:C:\DAVE-3.1.10\eclipse\/../CMSIS/Include\core_cmInstr.h **** 
  41:C:\DAVE-3.1.10\eclipse\/../CMSIS/Include\core_cmInstr.h **** 
  42:C:\DAVE-3.1.10\eclipse\/../CMSIS/Include\core_cmInstr.h **** /* ##########################  Core Instruction Access  ######################### */
  43:C:\DAVE-3.1.10\eclipse\/../CMSIS/Include\core_cmInstr.h **** /** \defgroup CMSIS_Core_InstructionInterface CMSIS Core Instruction Interface
  44:C:\DAVE-3.1.10\eclipse\/../CMSIS/Include\core_cmInstr.h ****   Access to dedicated instructions
  45:C:\DAVE-3.1.10\eclipse\/../CMSIS/Include\core_cmInstr.h ****   @{
  46:C:\DAVE-3.1.10\eclipse\/../CMSIS/Include\core_cmInstr.h **** */
  47:C:\DAVE-3.1.10\eclipse\/../CMSIS/Include\core_cmInstr.h **** 
  48:C:\DAVE-3.1.10\eclipse\/../CMSIS/Include\core_cmInstr.h **** #if   defined ( __CC_ARM ) /*------------------RealView Compiler -----------------*/
  49:C:\DAVE-3.1.10\eclipse\/../CMSIS/Include\core_cmInstr.h **** /* ARM armcc specific functions */
  50:C:\DAVE-3.1.10\eclipse\/../CMSIS/Include\core_cmInstr.h **** 
  51:C:\DAVE-3.1.10\eclipse\/../CMSIS/Include\core_cmInstr.h **** #if (__ARMCC_VERSION < 400677)
  52:C:\DAVE-3.1.10\eclipse\/../CMSIS/Include\core_cmInstr.h ****   #error "Please use ARM Compiler Toolchain V4.0.677 or later!"
  53:C:\DAVE-3.1.10\eclipse\/../CMSIS/Include\core_cmInstr.h **** #endif
  54:C:\DAVE-3.1.10\eclipse\/../CMSIS/Include\core_cmInstr.h **** 
  55:C:\DAVE-3.1.10\eclipse\/../CMSIS/Include\core_cmInstr.h **** 
  56:C:\DAVE-3.1.10\eclipse\/../CMSIS/Include\core_cmInstr.h **** /** \brief  No Operation
  57:C:\DAVE-3.1.10\eclipse\/../CMSIS/Include\core_cmInstr.h **** 
  58:C:\DAVE-3.1.10\eclipse\/../CMSIS/Include\core_cmInstr.h ****     No Operation does nothing. This instruction can be used for code alignment purposes.
  59:C:\DAVE-3.1.10\eclipse\/../CMSIS/Include\core_cmInstr.h ****  */
  60:C:\DAVE-3.1.10\eclipse\/../CMSIS/Include\core_cmInstr.h **** #define __NOP                             __nop
  61:C:\DAVE-3.1.10\eclipse\/../CMSIS/Include\core_cmInstr.h **** 
  62:C:\DAVE-3.1.10\eclipse\/../CMSIS/Include\core_cmInstr.h **** 
  63:C:\DAVE-3.1.10\eclipse\/../CMSIS/Include\core_cmInstr.h **** /** \brief  Wait For Interrupt
  64:C:\DAVE-3.1.10\eclipse\/../CMSIS/Include\core_cmInstr.h **** 
  65:C:\DAVE-3.1.10\eclipse\/../CMSIS/Include\core_cmInstr.h ****     Wait For Interrupt is a hint instruction that suspends execution
  66:C:\DAVE-3.1.10\eclipse\/../CMSIS/Include\core_cmInstr.h ****     until one of a number of events occurs.
  67:C:\DAVE-3.1.10\eclipse\/../CMSIS/Include\core_cmInstr.h ****  */
  68:C:\DAVE-3.1.10\eclipse\/../CMSIS/Include\core_cmInstr.h **** #define __WFI                             __wfi
  69:C:\DAVE-3.1.10\eclipse\/../CMSIS/Include\core_cmInstr.h **** 
  70:C:\DAVE-3.1.10\eclipse\/../CMSIS/Include\core_cmInstr.h **** 
  71:C:\DAVE-3.1.10\eclipse\/../CMSIS/Include\core_cmInstr.h **** /** \brief  Wait For Event
  72:C:\DAVE-3.1.10\eclipse\/../CMSIS/Include\core_cmInstr.h **** 
  73:C:\DAVE-3.1.10\eclipse\/../CMSIS/Include\core_cmInstr.h ****     Wait For Event is a hint instruction that permits the processor to enter
  74:C:\DAVE-3.1.10\eclipse\/../CMSIS/Include\core_cmInstr.h ****     a low-power state until one of a number of events occurs.
  75:C:\DAVE-3.1.10\eclipse\/../CMSIS/Include\core_cmInstr.h ****  */
  76:C:\DAVE-3.1.10\eclipse\/../CMSIS/Include\core_cmInstr.h **** #define __WFE                             __wfe
  77:C:\DAVE-3.1.10\eclipse\/../CMSIS/Include\core_cmInstr.h **** 
  78:C:\DAVE-3.1.10\eclipse\/../CMSIS/Include\core_cmInstr.h **** 
  79:C:\DAVE-3.1.10\eclipse\/../CMSIS/Include\core_cmInstr.h **** /** \brief  Send Event
  80:C:\DAVE-3.1.10\eclipse\/../CMSIS/Include\core_cmInstr.h **** 
  81:C:\DAVE-3.1.10\eclipse\/../CMSIS/Include\core_cmInstr.h ****     Send Event is a hint instruction. It causes an event to be signaled to the CPU.
  82:C:\DAVE-3.1.10\eclipse\/../CMSIS/Include\core_cmInstr.h ****  */
  83:C:\DAVE-3.1.10\eclipse\/../CMSIS/Include\core_cmInstr.h **** #define __SEV                             __sev
  84:C:\DAVE-3.1.10\eclipse\/../CMSIS/Include\core_cmInstr.h **** 
  85:C:\DAVE-3.1.10\eclipse\/../CMSIS/Include\core_cmInstr.h **** 
  86:C:\DAVE-3.1.10\eclipse\/../CMSIS/Include\core_cmInstr.h **** /** \brief  Instruction Synchronization Barrier
  87:C:\DAVE-3.1.10\eclipse\/../CMSIS/Include\core_cmInstr.h **** 
  88:C:\DAVE-3.1.10\eclipse\/../CMSIS/Include\core_cmInstr.h ****     Instruction Synchronization Barrier flushes the pipeline in the processor,
  89:C:\DAVE-3.1.10\eclipse\/../CMSIS/Include\core_cmInstr.h ****     so that all instructions following the ISB are fetched from cache or
  90:C:\DAVE-3.1.10\eclipse\/../CMSIS/Include\core_cmInstr.h ****     memory, after the instruction has been completed.
  91:C:\DAVE-3.1.10\eclipse\/../CMSIS/Include\core_cmInstr.h ****  */
  92:C:\DAVE-3.1.10\eclipse\/../CMSIS/Include\core_cmInstr.h **** #define __ISB()                           __isb(0xF)
  93:C:\DAVE-3.1.10\eclipse\/../CMSIS/Include\core_cmInstr.h **** 
  94:C:\DAVE-3.1.10\eclipse\/../CMSIS/Include\core_cmInstr.h **** 
  95:C:\DAVE-3.1.10\eclipse\/../CMSIS/Include\core_cmInstr.h **** /** \brief  Data Synchronization Barrier
  96:C:\DAVE-3.1.10\eclipse\/../CMSIS/Include\core_cmInstr.h **** 
  97:C:\DAVE-3.1.10\eclipse\/../CMSIS/Include\core_cmInstr.h ****     This function acts as a special kind of Data Memory Barrier.
  98:C:\DAVE-3.1.10\eclipse\/../CMSIS/Include\core_cmInstr.h ****     It completes when all explicit memory accesses before this instruction complete.
  99:C:\DAVE-3.1.10\eclipse\/../CMSIS/Include\core_cmInstr.h ****  */
 100:C:\DAVE-3.1.10\eclipse\/../CMSIS/Include\core_cmInstr.h **** #define __DSB()                           __dsb(0xF)
 101:C:\DAVE-3.1.10\eclipse\/../CMSIS/Include\core_cmInstr.h **** 
 102:C:\DAVE-3.1.10\eclipse\/../CMSIS/Include\core_cmInstr.h **** 
 103:C:\DAVE-3.1.10\eclipse\/../CMSIS/Include\core_cmInstr.h **** /** \brief  Data Memory Barrier
 104:C:\DAVE-3.1.10\eclipse\/../CMSIS/Include\core_cmInstr.h **** 
 105:C:\DAVE-3.1.10\eclipse\/../CMSIS/Include\core_cmInstr.h ****     This function ensures the apparent order of the explicit memory operations before
 106:C:\DAVE-3.1.10\eclipse\/../CMSIS/Include\core_cmInstr.h ****     and after the instruction, without ensuring their completion.
 107:C:\DAVE-3.1.10\eclipse\/../CMSIS/Include\core_cmInstr.h ****  */
 108:C:\DAVE-3.1.10\eclipse\/../CMSIS/Include\core_cmInstr.h **** #define __DMB()                           __dmb(0xF)
 109:C:\DAVE-3.1.10\eclipse\/../CMSIS/Include\core_cmInstr.h **** 
 110:C:\DAVE-3.1.10\eclipse\/../CMSIS/Include\core_cmInstr.h **** 
 111:C:\DAVE-3.1.10\eclipse\/../CMSIS/Include\core_cmInstr.h **** /** \brief  Reverse byte order (32 bit)
 112:C:\DAVE-3.1.10\eclipse\/../CMSIS/Include\core_cmInstr.h **** 
 113:C:\DAVE-3.1.10\eclipse\/../CMSIS/Include\core_cmInstr.h ****     This function reverses the byte order in integer value.
 114:C:\DAVE-3.1.10\eclipse\/../CMSIS/Include\core_cmInstr.h **** 
 115:C:\DAVE-3.1.10\eclipse\/../CMSIS/Include\core_cmInstr.h ****     \param [in]    value  Value to reverse
 116:C:\DAVE-3.1.10\eclipse\/../CMSIS/Include\core_cmInstr.h ****     \return               Reversed value
 117:C:\DAVE-3.1.10\eclipse\/../CMSIS/Include\core_cmInstr.h ****  */
 118:C:\DAVE-3.1.10\eclipse\/../CMSIS/Include\core_cmInstr.h **** #define __REV                             __rev
 119:C:\DAVE-3.1.10\eclipse\/../CMSIS/Include\core_cmInstr.h **** 
 120:C:\DAVE-3.1.10\eclipse\/../CMSIS/Include\core_cmInstr.h **** 
 121:C:\DAVE-3.1.10\eclipse\/../CMSIS/Include\core_cmInstr.h **** /** \brief  Reverse byte order (16 bit)
 122:C:\DAVE-3.1.10\eclipse\/../CMSIS/Include\core_cmInstr.h **** 
 123:C:\DAVE-3.1.10\eclipse\/../CMSIS/Include\core_cmInstr.h ****     This function reverses the byte order in two unsigned short values.
 124:C:\DAVE-3.1.10\eclipse\/../CMSIS/Include\core_cmInstr.h **** 
 125:C:\DAVE-3.1.10\eclipse\/../CMSIS/Include\core_cmInstr.h ****     \param [in]    value  Value to reverse
 126:C:\DAVE-3.1.10\eclipse\/../CMSIS/Include\core_cmInstr.h ****     \return               Reversed value
 127:C:\DAVE-3.1.10\eclipse\/../CMSIS/Include\core_cmInstr.h ****  */
 128:C:\DAVE-3.1.10\eclipse\/../CMSIS/Include\core_cmInstr.h **** #ifndef __NO_EMBEDDED_ASM
 129:C:\DAVE-3.1.10\eclipse\/../CMSIS/Include\core_cmInstr.h **** __attribute__((section(".rev16_text"))) __STATIC_INLINE __ASM uint32_t __REV16(uint32_t value)
 130:C:\DAVE-3.1.10\eclipse\/../CMSIS/Include\core_cmInstr.h **** {
 131:C:\DAVE-3.1.10\eclipse\/../CMSIS/Include\core_cmInstr.h ****   rev16 r0, r0
 132:C:\DAVE-3.1.10\eclipse\/../CMSIS/Include\core_cmInstr.h ****   bx lr
 133:C:\DAVE-3.1.10\eclipse\/../CMSIS/Include\core_cmInstr.h **** }
 134:C:\DAVE-3.1.10\eclipse\/../CMSIS/Include\core_cmInstr.h **** #endif
 135:C:\DAVE-3.1.10\eclipse\/../CMSIS/Include\core_cmInstr.h **** 
 136:C:\DAVE-3.1.10\eclipse\/../CMSIS/Include\core_cmInstr.h **** /** \brief  Reverse byte order in signed short value
 137:C:\DAVE-3.1.10\eclipse\/../CMSIS/Include\core_cmInstr.h **** 
 138:C:\DAVE-3.1.10\eclipse\/../CMSIS/Include\core_cmInstr.h ****     This function reverses the byte order in a signed short value with sign extension to integer.
 139:C:\DAVE-3.1.10\eclipse\/../CMSIS/Include\core_cmInstr.h **** 
 140:C:\DAVE-3.1.10\eclipse\/../CMSIS/Include\core_cmInstr.h ****     \param [in]    value  Value to reverse
 141:C:\DAVE-3.1.10\eclipse\/../CMSIS/Include\core_cmInstr.h ****     \return               Reversed value
 142:C:\DAVE-3.1.10\eclipse\/../CMSIS/Include\core_cmInstr.h ****  */
 143:C:\DAVE-3.1.10\eclipse\/../CMSIS/Include\core_cmInstr.h **** #ifndef __NO_EMBEDDED_ASM
 144:C:\DAVE-3.1.10\eclipse\/../CMSIS/Include\core_cmInstr.h **** __attribute__((section(".revsh_text"))) __STATIC_INLINE __ASM int32_t __REVSH(int32_t value)
 145:C:\DAVE-3.1.10\eclipse\/../CMSIS/Include\core_cmInstr.h **** {
 146:C:\DAVE-3.1.10\eclipse\/../CMSIS/Include\core_cmInstr.h ****   revsh r0, r0
 147:C:\DAVE-3.1.10\eclipse\/../CMSIS/Include\core_cmInstr.h ****   bx lr
 148:C:\DAVE-3.1.10\eclipse\/../CMSIS/Include\core_cmInstr.h **** }
 149:C:\DAVE-3.1.10\eclipse\/../CMSIS/Include\core_cmInstr.h **** #endif
 150:C:\DAVE-3.1.10\eclipse\/../CMSIS/Include\core_cmInstr.h **** 
 151:C:\DAVE-3.1.10\eclipse\/../CMSIS/Include\core_cmInstr.h **** 
 152:C:\DAVE-3.1.10\eclipse\/../CMSIS/Include\core_cmInstr.h **** /** \brief  Rotate Right in unsigned value (32 bit)
 153:C:\DAVE-3.1.10\eclipse\/../CMSIS/Include\core_cmInstr.h **** 
 154:C:\DAVE-3.1.10\eclipse\/../CMSIS/Include\core_cmInstr.h ****     This function Rotate Right (immediate) provides the value of the contents of a register rotated
 155:C:\DAVE-3.1.10\eclipse\/../CMSIS/Include\core_cmInstr.h **** 
 156:C:\DAVE-3.1.10\eclipse\/../CMSIS/Include\core_cmInstr.h ****     \param [in]    value  Value to rotate
 157:C:\DAVE-3.1.10\eclipse\/../CMSIS/Include\core_cmInstr.h ****     \param [in]    value  Number of Bits to rotate
 158:C:\DAVE-3.1.10\eclipse\/../CMSIS/Include\core_cmInstr.h ****     \return               Rotated value
 159:C:\DAVE-3.1.10\eclipse\/../CMSIS/Include\core_cmInstr.h ****  */
 160:C:\DAVE-3.1.10\eclipse\/../CMSIS/Include\core_cmInstr.h **** #define __ROR                             __ror
 161:C:\DAVE-3.1.10\eclipse\/../CMSIS/Include\core_cmInstr.h **** 
 162:C:\DAVE-3.1.10\eclipse\/../CMSIS/Include\core_cmInstr.h **** 
 163:C:\DAVE-3.1.10\eclipse\/../CMSIS/Include\core_cmInstr.h **** /** \brief  Breakpoint
 164:C:\DAVE-3.1.10\eclipse\/../CMSIS/Include\core_cmInstr.h **** 
 165:C:\DAVE-3.1.10\eclipse\/../CMSIS/Include\core_cmInstr.h ****     This function causes the processor to enter Debug state.
 166:C:\DAVE-3.1.10\eclipse\/../CMSIS/Include\core_cmInstr.h ****     Debug tools can use this to investigate system state when the instruction at a particular addre
 167:C:\DAVE-3.1.10\eclipse\/../CMSIS/Include\core_cmInstr.h **** 
 168:C:\DAVE-3.1.10\eclipse\/../CMSIS/Include\core_cmInstr.h ****     \param [in]    value  is ignored by the processor.
 169:C:\DAVE-3.1.10\eclipse\/../CMSIS/Include\core_cmInstr.h ****                    If required, a debugger can use it to store additional information about the bre
 170:C:\DAVE-3.1.10\eclipse\/../CMSIS/Include\core_cmInstr.h ****  */
 171:C:\DAVE-3.1.10\eclipse\/../CMSIS/Include\core_cmInstr.h **** #define __BKPT(value)                       __breakpoint(value)
 172:C:\DAVE-3.1.10\eclipse\/../CMSIS/Include\core_cmInstr.h **** 
 173:C:\DAVE-3.1.10\eclipse\/../CMSIS/Include\core_cmInstr.h **** 
 174:C:\DAVE-3.1.10\eclipse\/../CMSIS/Include\core_cmInstr.h **** #if       (__CORTEX_M >= 0x03)
 175:C:\DAVE-3.1.10\eclipse\/../CMSIS/Include\core_cmInstr.h **** 
 176:C:\DAVE-3.1.10\eclipse\/../CMSIS/Include\core_cmInstr.h **** /** \brief  Reverse bit order of value
 177:C:\DAVE-3.1.10\eclipse\/../CMSIS/Include\core_cmInstr.h **** 
 178:C:\DAVE-3.1.10\eclipse\/../CMSIS/Include\core_cmInstr.h ****     This function reverses the bit order of the given value.
 179:C:\DAVE-3.1.10\eclipse\/../CMSIS/Include\core_cmInstr.h **** 
 180:C:\DAVE-3.1.10\eclipse\/../CMSIS/Include\core_cmInstr.h ****     \param [in]    value  Value to reverse
 181:C:\DAVE-3.1.10\eclipse\/../CMSIS/Include\core_cmInstr.h ****     \return               Reversed value
 182:C:\DAVE-3.1.10\eclipse\/../CMSIS/Include\core_cmInstr.h ****  */
 183:C:\DAVE-3.1.10\eclipse\/../CMSIS/Include\core_cmInstr.h **** #define __RBIT                            __rbit
 184:C:\DAVE-3.1.10\eclipse\/../CMSIS/Include\core_cmInstr.h **** 
 185:C:\DAVE-3.1.10\eclipse\/../CMSIS/Include\core_cmInstr.h **** 
 186:C:\DAVE-3.1.10\eclipse\/../CMSIS/Include\core_cmInstr.h **** /** \brief  LDR Exclusive (8 bit)
 187:C:\DAVE-3.1.10\eclipse\/../CMSIS/Include\core_cmInstr.h **** 
 188:C:\DAVE-3.1.10\eclipse\/../CMSIS/Include\core_cmInstr.h ****     This function performs a exclusive LDR command for 8 bit value.
 189:C:\DAVE-3.1.10\eclipse\/../CMSIS/Include\core_cmInstr.h **** 
 190:C:\DAVE-3.1.10\eclipse\/../CMSIS/Include\core_cmInstr.h ****     \param [in]    ptr  Pointer to data
 191:C:\DAVE-3.1.10\eclipse\/../CMSIS/Include\core_cmInstr.h ****     \return             value of type uint8_t at (*ptr)
 192:C:\DAVE-3.1.10\eclipse\/../CMSIS/Include\core_cmInstr.h ****  */
 193:C:\DAVE-3.1.10\eclipse\/../CMSIS/Include\core_cmInstr.h **** #define __LDREXB(ptr)                     ((uint8_t ) __ldrex(ptr))
 194:C:\DAVE-3.1.10\eclipse\/../CMSIS/Include\core_cmInstr.h **** 
 195:C:\DAVE-3.1.10\eclipse\/../CMSIS/Include\core_cmInstr.h **** 
 196:C:\DAVE-3.1.10\eclipse\/../CMSIS/Include\core_cmInstr.h **** /** \brief  LDR Exclusive (16 bit)
 197:C:\DAVE-3.1.10\eclipse\/../CMSIS/Include\core_cmInstr.h **** 
 198:C:\DAVE-3.1.10\eclipse\/../CMSIS/Include\core_cmInstr.h ****     This function performs a exclusive LDR command for 16 bit values.
 199:C:\DAVE-3.1.10\eclipse\/../CMSIS/Include\core_cmInstr.h **** 
 200:C:\DAVE-3.1.10\eclipse\/../CMSIS/Include\core_cmInstr.h ****     \param [in]    ptr  Pointer to data
 201:C:\DAVE-3.1.10\eclipse\/../CMSIS/Include\core_cmInstr.h ****     \return        value of type uint16_t at (*ptr)
 202:C:\DAVE-3.1.10\eclipse\/../CMSIS/Include\core_cmInstr.h ****  */
 203:C:\DAVE-3.1.10\eclipse\/../CMSIS/Include\core_cmInstr.h **** #define __LDREXH(ptr)                     ((uint16_t) __ldrex(ptr))
 204:C:\DAVE-3.1.10\eclipse\/../CMSIS/Include\core_cmInstr.h **** 
 205:C:\DAVE-3.1.10\eclipse\/../CMSIS/Include\core_cmInstr.h **** 
 206:C:\DAVE-3.1.10\eclipse\/../CMSIS/Include\core_cmInstr.h **** /** \brief  LDR Exclusive (32 bit)
 207:C:\DAVE-3.1.10\eclipse\/../CMSIS/Include\core_cmInstr.h **** 
 208:C:\DAVE-3.1.10\eclipse\/../CMSIS/Include\core_cmInstr.h ****     This function performs a exclusive LDR command for 32 bit values.
 209:C:\DAVE-3.1.10\eclipse\/../CMSIS/Include\core_cmInstr.h **** 
 210:C:\DAVE-3.1.10\eclipse\/../CMSIS/Include\core_cmInstr.h ****     \param [in]    ptr  Pointer to data
 211:C:\DAVE-3.1.10\eclipse\/../CMSIS/Include\core_cmInstr.h ****     \return        value of type uint32_t at (*ptr)
 212:C:\DAVE-3.1.10\eclipse\/../CMSIS/Include\core_cmInstr.h ****  */
 213:C:\DAVE-3.1.10\eclipse\/../CMSIS/Include\core_cmInstr.h **** #define __LDREXW(ptr)                     ((uint32_t ) __ldrex(ptr))
 214:C:\DAVE-3.1.10\eclipse\/../CMSIS/Include\core_cmInstr.h **** 
 215:C:\DAVE-3.1.10\eclipse\/../CMSIS/Include\core_cmInstr.h **** 
 216:C:\DAVE-3.1.10\eclipse\/../CMSIS/Include\core_cmInstr.h **** /** \brief  STR Exclusive (8 bit)
 217:C:\DAVE-3.1.10\eclipse\/../CMSIS/Include\core_cmInstr.h **** 
 218:C:\DAVE-3.1.10\eclipse\/../CMSIS/Include\core_cmInstr.h ****     This function performs a exclusive STR command for 8 bit values.
 219:C:\DAVE-3.1.10\eclipse\/../CMSIS/Include\core_cmInstr.h **** 
 220:C:\DAVE-3.1.10\eclipse\/../CMSIS/Include\core_cmInstr.h ****     \param [in]  value  Value to store
 221:C:\DAVE-3.1.10\eclipse\/../CMSIS/Include\core_cmInstr.h ****     \param [in]    ptr  Pointer to location
 222:C:\DAVE-3.1.10\eclipse\/../CMSIS/Include\core_cmInstr.h ****     \return          0  Function succeeded
 223:C:\DAVE-3.1.10\eclipse\/../CMSIS/Include\core_cmInstr.h ****     \return          1  Function failed
 224:C:\DAVE-3.1.10\eclipse\/../CMSIS/Include\core_cmInstr.h ****  */
 225:C:\DAVE-3.1.10\eclipse\/../CMSIS/Include\core_cmInstr.h **** #define __STREXB(value, ptr)              __strex(value, ptr)
 226:C:\DAVE-3.1.10\eclipse\/../CMSIS/Include\core_cmInstr.h **** 
 227:C:\DAVE-3.1.10\eclipse\/../CMSIS/Include\core_cmInstr.h **** 
 228:C:\DAVE-3.1.10\eclipse\/../CMSIS/Include\core_cmInstr.h **** /** \brief  STR Exclusive (16 bit)
 229:C:\DAVE-3.1.10\eclipse\/../CMSIS/Include\core_cmInstr.h **** 
 230:C:\DAVE-3.1.10\eclipse\/../CMSIS/Include\core_cmInstr.h ****     This function performs a exclusive STR command for 16 bit values.
 231:C:\DAVE-3.1.10\eclipse\/../CMSIS/Include\core_cmInstr.h **** 
 232:C:\DAVE-3.1.10\eclipse\/../CMSIS/Include\core_cmInstr.h ****     \param [in]  value  Value to store
 233:C:\DAVE-3.1.10\eclipse\/../CMSIS/Include\core_cmInstr.h ****     \param [in]    ptr  Pointer to location
 234:C:\DAVE-3.1.10\eclipse\/../CMSIS/Include\core_cmInstr.h ****     \return          0  Function succeeded
 235:C:\DAVE-3.1.10\eclipse\/../CMSIS/Include\core_cmInstr.h ****     \return          1  Function failed
 236:C:\DAVE-3.1.10\eclipse\/../CMSIS/Include\core_cmInstr.h ****  */
 237:C:\DAVE-3.1.10\eclipse\/../CMSIS/Include\core_cmInstr.h **** #define __STREXH(value, ptr)              __strex(value, ptr)
 238:C:\DAVE-3.1.10\eclipse\/../CMSIS/Include\core_cmInstr.h **** 
 239:C:\DAVE-3.1.10\eclipse\/../CMSIS/Include\core_cmInstr.h **** 
 240:C:\DAVE-3.1.10\eclipse\/../CMSIS/Include\core_cmInstr.h **** /** \brief  STR Exclusive (32 bit)
 241:C:\DAVE-3.1.10\eclipse\/../CMSIS/Include\core_cmInstr.h **** 
 242:C:\DAVE-3.1.10\eclipse\/../CMSIS/Include\core_cmInstr.h ****     This function performs a exclusive STR command for 32 bit values.
 243:C:\DAVE-3.1.10\eclipse\/../CMSIS/Include\core_cmInstr.h **** 
 244:C:\DAVE-3.1.10\eclipse\/../CMSIS/Include\core_cmInstr.h ****     \param [in]  value  Value to store
 245:C:\DAVE-3.1.10\eclipse\/../CMSIS/Include\core_cmInstr.h ****     \param [in]    ptr  Pointer to location
 246:C:\DAVE-3.1.10\eclipse\/../CMSIS/Include\core_cmInstr.h ****     \return          0  Function succeeded
 247:C:\DAVE-3.1.10\eclipse\/../CMSIS/Include\core_cmInstr.h ****     \return          1  Function failed
 248:C:\DAVE-3.1.10\eclipse\/../CMSIS/Include\core_cmInstr.h ****  */
 249:C:\DAVE-3.1.10\eclipse\/../CMSIS/Include\core_cmInstr.h **** #define __STREXW(value, ptr)              __strex(value, ptr)
 250:C:\DAVE-3.1.10\eclipse\/../CMSIS/Include\core_cmInstr.h **** 
 251:C:\DAVE-3.1.10\eclipse\/../CMSIS/Include\core_cmInstr.h **** 
 252:C:\DAVE-3.1.10\eclipse\/../CMSIS/Include\core_cmInstr.h **** /** \brief  Remove the exclusive lock
 253:C:\DAVE-3.1.10\eclipse\/../CMSIS/Include\core_cmInstr.h **** 
 254:C:\DAVE-3.1.10\eclipse\/../CMSIS/Include\core_cmInstr.h ****     This function removes the exclusive lock which is created by LDREX.
 255:C:\DAVE-3.1.10\eclipse\/../CMSIS/Include\core_cmInstr.h **** 
 256:C:\DAVE-3.1.10\eclipse\/../CMSIS/Include\core_cmInstr.h ****  */
 257:C:\DAVE-3.1.10\eclipse\/../CMSIS/Include\core_cmInstr.h **** #define __CLREX                           __clrex
 258:C:\DAVE-3.1.10\eclipse\/../CMSIS/Include\core_cmInstr.h **** 
 259:C:\DAVE-3.1.10\eclipse\/../CMSIS/Include\core_cmInstr.h **** 
 260:C:\DAVE-3.1.10\eclipse\/../CMSIS/Include\core_cmInstr.h **** /** \brief  Signed Saturate
 261:C:\DAVE-3.1.10\eclipse\/../CMSIS/Include\core_cmInstr.h **** 
 262:C:\DAVE-3.1.10\eclipse\/../CMSIS/Include\core_cmInstr.h ****     This function saturates a signed value.
 263:C:\DAVE-3.1.10\eclipse\/../CMSIS/Include\core_cmInstr.h **** 
 264:C:\DAVE-3.1.10\eclipse\/../CMSIS/Include\core_cmInstr.h ****     \param [in]  value  Value to be saturated
 265:C:\DAVE-3.1.10\eclipse\/../CMSIS/Include\core_cmInstr.h ****     \param [in]    sat  Bit position to saturate to (1..32)
 266:C:\DAVE-3.1.10\eclipse\/../CMSIS/Include\core_cmInstr.h ****     \return             Saturated value
 267:C:\DAVE-3.1.10\eclipse\/../CMSIS/Include\core_cmInstr.h ****  */
 268:C:\DAVE-3.1.10\eclipse\/../CMSIS/Include\core_cmInstr.h **** #define __SSAT                            __ssat
 269:C:\DAVE-3.1.10\eclipse\/../CMSIS/Include\core_cmInstr.h **** 
 270:C:\DAVE-3.1.10\eclipse\/../CMSIS/Include\core_cmInstr.h **** 
 271:C:\DAVE-3.1.10\eclipse\/../CMSIS/Include\core_cmInstr.h **** /** \brief  Unsigned Saturate
 272:C:\DAVE-3.1.10\eclipse\/../CMSIS/Include\core_cmInstr.h **** 
 273:C:\DAVE-3.1.10\eclipse\/../CMSIS/Include\core_cmInstr.h ****     This function saturates an unsigned value.
 274:C:\DAVE-3.1.10\eclipse\/../CMSIS/Include\core_cmInstr.h **** 
 275:C:\DAVE-3.1.10\eclipse\/../CMSIS/Include\core_cmInstr.h ****     \param [in]  value  Value to be saturated
 276:C:\DAVE-3.1.10\eclipse\/../CMSIS/Include\core_cmInstr.h ****     \param [in]    sat  Bit position to saturate to (0..31)
 277:C:\DAVE-3.1.10\eclipse\/../CMSIS/Include\core_cmInstr.h ****     \return             Saturated value
 278:C:\DAVE-3.1.10\eclipse\/../CMSIS/Include\core_cmInstr.h ****  */
 279:C:\DAVE-3.1.10\eclipse\/../CMSIS/Include\core_cmInstr.h **** #define __USAT                            __usat
 280:C:\DAVE-3.1.10\eclipse\/../CMSIS/Include\core_cmInstr.h **** 
 281:C:\DAVE-3.1.10\eclipse\/../CMSIS/Include\core_cmInstr.h **** 
 282:C:\DAVE-3.1.10\eclipse\/../CMSIS/Include\core_cmInstr.h **** /** \brief  Count leading zeros
 283:C:\DAVE-3.1.10\eclipse\/../CMSIS/Include\core_cmInstr.h **** 
 284:C:\DAVE-3.1.10\eclipse\/../CMSIS/Include\core_cmInstr.h ****     This function counts the number of leading zeros of a data value.
 285:C:\DAVE-3.1.10\eclipse\/../CMSIS/Include\core_cmInstr.h **** 
 286:C:\DAVE-3.1.10\eclipse\/../CMSIS/Include\core_cmInstr.h ****     \param [in]  value  Value to count the leading zeros
 287:C:\DAVE-3.1.10\eclipse\/../CMSIS/Include\core_cmInstr.h ****     \return             number of leading zeros in value
 288:C:\DAVE-3.1.10\eclipse\/../CMSIS/Include\core_cmInstr.h ****  */
 289:C:\DAVE-3.1.10\eclipse\/../CMSIS/Include\core_cmInstr.h **** #define __CLZ                             __clz
 290:C:\DAVE-3.1.10\eclipse\/../CMSIS/Include\core_cmInstr.h **** 
 291:C:\DAVE-3.1.10\eclipse\/../CMSIS/Include\core_cmInstr.h **** #endif /* (__CORTEX_M >= 0x03) */
 292:C:\DAVE-3.1.10\eclipse\/../CMSIS/Include\core_cmInstr.h **** 
 293:C:\DAVE-3.1.10\eclipse\/../CMSIS/Include\core_cmInstr.h **** 
 294:C:\DAVE-3.1.10\eclipse\/../CMSIS/Include\core_cmInstr.h **** 
 295:C:\DAVE-3.1.10\eclipse\/../CMSIS/Include\core_cmInstr.h **** #elif defined ( __ICCARM__ ) /*------------------ ICC Compiler -------------------*/
 296:C:\DAVE-3.1.10\eclipse\/../CMSIS/Include\core_cmInstr.h **** /* IAR iccarm specific functions */
 297:C:\DAVE-3.1.10\eclipse\/../CMSIS/Include\core_cmInstr.h **** 
 298:C:\DAVE-3.1.10\eclipse\/../CMSIS/Include\core_cmInstr.h **** #include <cmsis_iar.h>
 299:C:\DAVE-3.1.10\eclipse\/../CMSIS/Include\core_cmInstr.h **** 
 300:C:\DAVE-3.1.10\eclipse\/../CMSIS/Include\core_cmInstr.h **** 
 301:C:\DAVE-3.1.10\eclipse\/../CMSIS/Include\core_cmInstr.h **** #elif defined ( __TMS470__ ) /*---------------- TI CCS Compiler ------------------*/
 302:C:\DAVE-3.1.10\eclipse\/../CMSIS/Include\core_cmInstr.h **** /* TI CCS specific functions */
 303:C:\DAVE-3.1.10\eclipse\/../CMSIS/Include\core_cmInstr.h **** 
 304:C:\DAVE-3.1.10\eclipse\/../CMSIS/Include\core_cmInstr.h **** #include <cmsis_ccs.h>
 305:C:\DAVE-3.1.10\eclipse\/../CMSIS/Include\core_cmInstr.h **** 
 306:C:\DAVE-3.1.10\eclipse\/../CMSIS/Include\core_cmInstr.h **** 
 307:C:\DAVE-3.1.10\eclipse\/../CMSIS/Include\core_cmInstr.h **** #elif defined ( __GNUC__ ) /*------------------ GNU Compiler ---------------------*/
 308:C:\DAVE-3.1.10\eclipse\/../CMSIS/Include\core_cmInstr.h **** /* GNU gcc specific functions */
 309:C:\DAVE-3.1.10\eclipse\/../CMSIS/Include\core_cmInstr.h **** 
 310:C:\DAVE-3.1.10\eclipse\/../CMSIS/Include\core_cmInstr.h **** /* Define macros for porting to both thumb1 and thumb2.
 311:C:\DAVE-3.1.10\eclipse\/../CMSIS/Include\core_cmInstr.h ****  * For thumb1, use low register (r0-r7), specified by constrant "l"
 312:C:\DAVE-3.1.10\eclipse\/../CMSIS/Include\core_cmInstr.h ****  * Otherwise, use general registers, specified by constrant "r" */
 313:C:\DAVE-3.1.10\eclipse\/../CMSIS/Include\core_cmInstr.h **** #if defined (__thumb__) && !defined (__thumb2__)
 314:C:\DAVE-3.1.10\eclipse\/../CMSIS/Include\core_cmInstr.h **** #define __CMSIS_GCC_OUT_REG(r) "=l" (r)
 315:C:\DAVE-3.1.10\eclipse\/../CMSIS/Include\core_cmInstr.h **** #define __CMSIS_GCC_USE_REG(r) "l" (r)
 316:C:\DAVE-3.1.10\eclipse\/../CMSIS/Include\core_cmInstr.h **** #else
 317:C:\DAVE-3.1.10\eclipse\/../CMSIS/Include\core_cmInstr.h **** #define __CMSIS_GCC_OUT_REG(r) "=r" (r)
 318:C:\DAVE-3.1.10\eclipse\/../CMSIS/Include\core_cmInstr.h **** #define __CMSIS_GCC_USE_REG(r) "r" (r)
 319:C:\DAVE-3.1.10\eclipse\/../CMSIS/Include\core_cmInstr.h **** #endif
 320:C:\DAVE-3.1.10\eclipse\/../CMSIS/Include\core_cmInstr.h **** 
 321:C:\DAVE-3.1.10\eclipse\/../CMSIS/Include\core_cmInstr.h **** /** \brief  No Operation
 322:C:\DAVE-3.1.10\eclipse\/../CMSIS/Include\core_cmInstr.h **** 
 323:C:\DAVE-3.1.10\eclipse\/../CMSIS/Include\core_cmInstr.h ****     No Operation does nothing. This instruction can be used for code alignment purposes.
 324:C:\DAVE-3.1.10\eclipse\/../CMSIS/Include\core_cmInstr.h ****  */
 325:C:\DAVE-3.1.10\eclipse\/../CMSIS/Include\core_cmInstr.h **** __attribute__( ( always_inline ) ) __STATIC_INLINE void __NOP(void)
 326:C:\DAVE-3.1.10\eclipse\/../CMSIS/Include\core_cmInstr.h **** {
 327:C:\DAVE-3.1.10\eclipse\/../CMSIS/Include\core_cmInstr.h ****   __ASM volatile ("nop");
 1434              		.loc 2 327 0
 1435              	@ 327 "C:\DAVE-3.1.10\eclipse\/../CMSIS/Include/core_cmInstr.h" 1
 1436 000e 00BF     		nop
 1437              	@ 0 "" 2
 1438              		.thumb
 1439              	.LBE14:
 1440              	.LBE13:
 1441              	.LBB15:
 1442              	.LBB16:
 1443              	@ 327 "C:\DAVE-3.1.10\eclipse\/../CMSIS/Include/core_cmInstr.h" 1
 1444 0010 00BF     		nop
 1445              	@ 0 "" 2
 1446              		.thumb
 1447              	.LBE16:
 1448              	.LBE15:
 1449              	.LBB17:
 1450              	.LBB18:
 1451              	@ 327 "C:\DAVE-3.1.10\eclipse\/../CMSIS/Include/core_cmInstr.h" 1
 1452 0012 00BF     		nop
 1453              	@ 0 "" 2
 1454              		.thumb
 1455              	.LBE18:
 1456              	.LBE17:
 1457              	.LBB19:
 1458              	.LBB20:
 1459              	@ 327 "C:\DAVE-3.1.10\eclipse\/../CMSIS/Include/core_cmInstr.h" 1
 1460 0014 00BF     		nop
 1461              	@ 0 "" 2
 1462              		.thumb
 1463              	.LBE20:
 1464              	.LBE19:
 1465              		.loc 1 764 0
 1466 0016 FB68     		ldr	r3, [r7, #12]
 1467 0018 03F1FF33 		add	r3, r3, #-1
 1468 001c FB60     		str	r3, [r7, #12]
 1469              	.L67:
 1470              		.loc 1 764 0 is_stmt 0 discriminator 1
 1471 001e FB68     		ldr	r3, [r7, #12]
 1472 0020 002B     		cmp	r3, #0
 1473 0022 F4D1     		bne	.L68
 765:../Dave/Generated/src/USBCORE001/usbcore001_device.c ****     {
 766:../Dave/Generated/src/USBCORE001/usbcore001_device.c ****     	__NOP();
 767:../Dave/Generated/src/USBCORE001/usbcore001_device.c ****     	__NOP();
 768:../Dave/Generated/src/USBCORE001/usbcore001_device.c ****     	__NOP();
 769:../Dave/Generated/src/USBCORE001/usbcore001_device.c ****     	__NOP();
 770:../Dave/Generated/src/USBCORE001/usbcore001_device.c **** 
 771:../Dave/Generated/src/USBCORE001/usbcore001_device.c ****     }
 772:../Dave/Generated/src/USBCORE001/usbcore001_device.c **** }
 1474              		.loc 1 772 0 is_stmt 1
 1475 0024 07F11407 		add	r7, r7, #20
 1476 0028 BD46     		mov	sp, r7
 1477 002a 80BC     		pop	{r7}
 1478 002c 7047     		bx	lr
 1479              		.cfi_endproc
 1480              	.LFE152:
 1482 002e 00BF     		.section	.text.USB_Device_ProcessControlRequest,"ax",%progbits
 1483              		.align	2
 1484              		.global	USB_Device_ProcessControlRequest
 1485              		.thumb
 1486              		.thumb_func
 1488              	USB_Device_ProcessControlRequest:
 1489              	.LFB153:
 773:../Dave/Generated/src/USBCORE001/usbcore001_device.c **** 
 774:../Dave/Generated/src/USBCORE001/usbcore001_device.c **** /* This function is Device task routine. To avoid deadlocks caused by ISR going 
 775:../Dave/Generated/src/USBCORE001/usbcore001_device.c ****  * directly to the application, this routine makes the function asynchronous. 
 776:../Dave/Generated/src/USBCORE001/usbcore001_device.c ****  * ISRs (except for GET_DESCRIPTOR and SET_CONFIGURATION, SET_INTERFACE control
 777:../Dave/Generated/src/USBCORE001/usbcore001_device.c ****  * requests, just cache the information, and this routine sends it to the 
 778:../Dave/Generated/src/USBCORE001/usbcore001_device.c ****  * application. Any application thats using the device stack should be also 
 779:../Dave/Generated/src/USBCORE001/usbcore001_device.c ****  * making use of this call frequently to ensure that no notifications are 
 780:../Dave/Generated/src/USBCORE001/usbcore001_device.c ****  * missed.
 781:../Dave/Generated/src/USBCORE001/usbcore001_device.c ****  */
 782:../Dave/Generated/src/USBCORE001/usbcore001_device.c **** void USB_Device_ProcessControlRequest(void)
 783:../Dave/Generated/src/USBCORE001/usbcore001_device.c **** {
 1490              		.loc 1 783 0
 1491              		.cfi_startproc
 1492              		@ args = 0, pretend = 0, frame = 8
 1493              		@ frame_needed = 1, uses_anonymous_args = 0
 1494 0000 80B5     		push	{r7, lr}
 1495              	.LCFI37:
 1496              		.cfi_def_cfa_offset 8
 1497              		.cfi_offset 7, -8
 1498              		.cfi_offset 14, -4
 1499 0002 82B0     		sub	sp, sp, #8
 1500              	.LCFI38:
 1501              		.cfi_def_cfa_offset 16
 1502 0004 00AF     		add	r7, sp, #0
 1503              	.LCFI39:
 1504              		.cfi_def_cfa_register 7
 784:../Dave/Generated/src/USBCORE001/usbcore001_device.c ****   
 785:../Dave/Generated/src/USBCORE001/usbcore001_device.c ****   if(USBCORE001_DevicePCD.USB_SetupReceived)
 1505              		.loc 1 785 0
 1506 0006 40F20003 		movw	r3, #:lower16:USBCORE001_DevicePCD
 1507 000a C0F20003 		movt	r3, #:upper16:USBCORE001_DevicePCD
 1508 000e 93F8C432 		ldrb	r3, [r3, #708]	@ zero_extendqisi2
 1509 0012 002B     		cmp	r3, #0
 1510 0014 28D0     		beq	.L72
 786:../Dave/Generated/src/USBCORE001/usbcore001_device.c ****   {
 787:../Dave/Generated/src/USBCORE001/usbcore001_device.c ****     if (USBCORE001_DevicePCD.USB_DeviceEvents.ControlRequest)
 1511              		.loc 1 787 0
 1512 0016 40F20003 		movw	r3, #:lower16:USBCORE001_DevicePCD
 1513 001a C0F20003 		movt	r3, #:upper16:USBCORE001_DevicePCD
 1514 001e D3F8B832 		ldr	r3, [r3, #696]
 1515 0022 002B     		cmp	r3, #0
 1516 0024 20D0     		beq	.L72
 1517              	.LBB21:
 788:../Dave/Generated/src/USBCORE001/usbcore001_device.c ****     {
 789:../Dave/Generated/src/USBCORE001/usbcore001_device.c ****       uint8_t PrevEp = USBCORE001_DevicePCD.CurEpNum;
 1518              		.loc 1 789 0
 1519 0026 40F20003 		movw	r3, #:lower16:USBCORE001_DevicePCD
 1520 002a C0F20003 		movt	r3, #:upper16:USBCORE001_DevicePCD
 1521 002e 93F8D032 		ldrb	r3, [r3, #720]
 1522 0032 FB71     		strb	r3, [r7, #7]
 790:../Dave/Generated/src/USBCORE001/usbcore001_device.c ****       USBCORE001_DevicePCD.CurEpNum = 0;
 1523              		.loc 1 790 0
 1524 0034 40F20003 		movw	r3, #:lower16:USBCORE001_DevicePCD
 1525 0038 C0F20003 		movt	r3, #:upper16:USBCORE001_DevicePCD
 1526 003c 4FF00002 		mov	r2, #0
 1527 0040 83F8D022 		strb	r2, [r3, #720]
 791:../Dave/Generated/src/USBCORE001/usbcore001_device.c ****       USBCORE001_DevicePCD.USB_DeviceEvents.ControlRequest(&USBCORE001_DeviceCurrentControlRequest)
 1528              		.loc 1 791 0
 1529 0044 40F20003 		movw	r3, #:lower16:USBCORE001_DevicePCD
 1530 0048 C0F20003 		movt	r3, #:upper16:USBCORE001_DevicePCD
 1531 004c D3F8B832 		ldr	r3, [r3, #696]
 1532 0050 40F20000 		movw	r0, #:lower16:USBCORE001_DeviceCurrentControlRequest
 1533 0054 C0F20000 		movt	r0, #:upper16:USBCORE001_DeviceCurrentControlRequest
 1534 0058 9847     		blx	r3
 792:../Dave/Generated/src/USBCORE001/usbcore001_device.c ****       USBCORE001_DevicePCD.CurEpNum = PrevEp;
 1535              		.loc 1 792 0
 1536 005a 40F20003 		movw	r3, #:lower16:USBCORE001_DevicePCD
 1537 005e C0F20003 		movt	r3, #:upper16:USBCORE001_DevicePCD
 1538 0062 FA79     		ldrb	r2, [r7, #7]
 1539 0064 83F8D022 		strb	r2, [r3, #720]
 1540              	.L72:
 1541              	.LBE21:
 793:../Dave/Generated/src/USBCORE001/usbcore001_device.c ****     }
 794:../Dave/Generated/src/USBCORE001/usbcore001_device.c ****   }
 795:../Dave/Generated/src/USBCORE001/usbcore001_device.c ****   return;
 1542              		.loc 1 795 0
 1543 0068 00BF     		nop
 1544              	.L69:
 796:../Dave/Generated/src/USBCORE001/usbcore001_device.c **** }
 1545              		.loc 1 796 0
 1546 006a 07F10807 		add	r7, r7, #8
 1547 006e BD46     		mov	sp, r7
 1548 0070 80BD     		pop	{r7, pc}
 1549              		.cfi_endproc
 1550              	.LFE153:
 1552 0072 00BF     		.section	.text.Endpoint_ClearIN,"ax",%progbits
 1553              		.align	2
 1554              		.global	Endpoint_ClearIN
 1555              		.thumb
 1556              		.thumb_func
 1558              	Endpoint_ClearIN:
 1559              	.LFB154:
 797:../Dave/Generated/src/USBCORE001/usbcore001_device.c **** 
 798:../Dave/Generated/src/USBCORE001/usbcore001_device.c **** 
 799:../Dave/Generated/src/USBCORE001/usbcore001_device.c **** /* Clears the IN endpoint */
 800:../Dave/Generated/src/USBCORE001/usbcore001_device.c **** void Endpoint_ClearIN(void)
 801:../Dave/Generated/src/USBCORE001/usbcore001_device.c **** {
 1560              		.loc 1 801 0
 1561              		.cfi_startproc
 1562              		@ args = 0, pretend = 0, frame = 8
 1563              		@ frame_needed = 1, uses_anonymous_args = 0
 1564 0000 90B5     		push	{r4, r7, lr}
 1565              	.LCFI40:
 1566              		.cfi_def_cfa_offset 12
 1567              		.cfi_offset 4, -12
 1568              		.cfi_offset 7, -8
 1569              		.cfi_offset 14, -4
 1570 0002 87B0     		sub	sp, sp, #28
 1571              	.LCFI41:
 1572              		.cfi_def_cfa_offset 40
 1573 0004 04AF     		add	r7, sp, #16
 1574              	.LCFI42:
 1575              		.cfi_def_cfa 7, 24
 802:../Dave/Generated/src/USBCORE001/usbcore001_device.c ****   USBCORE001_DeivceEndpoint *EndPoint;
 803:../Dave/Generated/src/USBCORE001/usbcore001_device.c ****   uint8_t       Bytes;
 804:../Dave/Generated/src/USBCORE001/usbcore001_device.c ****   if(USBCORE001_DevicePCD.CurEpNum)
 1576              		.loc 1 804 0
 1577 0006 40F20003 		movw	r3, #:lower16:USBCORE001_DevicePCD
 1578 000a C0F20003 		movt	r3, #:upper16:USBCORE001_DevicePCD
 1579 000e 93F8D032 		ldrb	r3, [r3, #720]	@ zero_extendqisi2
 1580 0012 002B     		cmp	r3, #0
 1581 0014 15D0     		beq	.L74
 805:../Dave/Generated/src/USBCORE001/usbcore001_device.c ****   {
 806:../Dave/Generated/src/USBCORE001/usbcore001_device.c ****     EndPoint = &USBCORE001_DevicePCD.InEps[USBCORE001_DevicePCD.CurEpNum];
 1582              		.loc 1 806 0
 1583 0016 40F20003 		movw	r3, #:lower16:USBCORE001_DevicePCD
 1584 001a C0F20003 		movt	r3, #:upper16:USBCORE001_DevicePCD
 1585 001e 93F8D032 		ldrb	r3, [r3, #720]	@ zero_extendqisi2
 1586 0022 1A46     		mov	r2, r3
 1587 0024 1346     		mov	r3, r2
 1588 0026 4FEAC303 		lsl	r3, r3, #3
 1589 002a 9B18     		adds	r3, r3, r2
 1590 002c 4FEA8303 		lsl	r3, r3, #2
 1591 0030 03F5B472 		add	r2, r3, #360
 1592 0034 40F20003 		movw	r3, #:lower16:USBCORE001_DevicePCD
 1593 0038 C0F20003 		movt	r3, #:upper16:USBCORE001_DevicePCD
 1594 003c D318     		adds	r3, r2, r3
 1595 003e 7B60     		str	r3, [r7, #4]
 807:../Dave/Generated/src/USBCORE001/usbcore001_device.c ****   }
 808:../Dave/Generated/src/USBCORE001/usbcore001_device.c ****   else
 809:../Dave/Generated/src/USBCORE001/usbcore001_device.c ****   {
 810:../Dave/Generated/src/USBCORE001/usbcore001_device.c ****     EndPoint = &USBCORE001_DevicePCD.EndPoint0;
 811:../Dave/Generated/src/USBCORE001/usbcore001_device.c ****   }
 812:../Dave/Generated/src/USBCORE001/usbcore001_device.c **** 
 813:../Dave/Generated/src/USBCORE001/usbcore001_device.c ****   while(EndPoint->InFlush)
 1596              		.loc 1 813 0
 1597 0040 12E0     		b	.L76
 1598              	.L74:
 810:../Dave/Generated/src/USBCORE001/usbcore001_device.c ****     EndPoint = &USBCORE001_DevicePCD.EndPoint0;
 1599              		.loc 1 810 0
 1600 0042 40F20003 		movw	r3, #:lower16:USBCORE001_DevicePCD
 1601 0046 C0F20003 		movt	r3, #:upper16:USBCORE001_DevicePCD
 1602 004a 7B60     		str	r3, [r7, #4]
 1603              		.loc 1 813 0
 1604 004c 0CE0     		b	.L76
 1605              	.L77:
 814:../Dave/Generated/src/USBCORE001/usbcore001_device.c ****   {
 815:../Dave/Generated/src/USBCORE001/usbcore001_device.c ****     USBCORE001_Waitval++;
 1606              		.loc 1 815 0
 1607 004e 40F20003 		movw	r3, #:lower16:USBCORE001_Waitval
 1608 0052 C0F20003 		movt	r3, #:upper16:USBCORE001_Waitval
 1609 0056 1B88     		ldrh	r3, [r3, #0]
 1610 0058 03F10103 		add	r3, r3, #1
 1611 005c 9AB2     		uxth	r2, r3
 1612 005e 40F20003 		movw	r3, #:lower16:USBCORE001_Waitval
 1613 0062 C0F20003 		movt	r3, #:upper16:USBCORE001_Waitval
 1614 0066 1A80     		strh	r2, [r3, #0]	@ movhi
 1615              	.L76:
 813:../Dave/Generated/src/USBCORE001/usbcore001_device.c ****   while(EndPoint->InFlush)
 1616              		.loc 1 813 0 discriminator 1
 1617 0068 7B68     		ldr	r3, [r7, #4]
 1618 006a 9B7F     		ldrb	r3, [r3, #30]
 1619 006c DBB2     		uxtb	r3, r3
 1620 006e 002B     		cmp	r3, #0
 1621 0070 EDD1     		bne	.L77
 816:../Dave/Generated/src/USBCORE001/usbcore001_device.c ****   }
 817:../Dave/Generated/src/USBCORE001/usbcore001_device.c **** 
 818:../Dave/Generated/src/USBCORE001/usbcore001_device.c ****   USBCORE001_Waitval = 0;
 1622              		.loc 1 818 0
 1623 0072 40F20003 		movw	r3, #:lower16:USBCORE001_Waitval
 1624 0076 C0F20003 		movt	r3, #:upper16:USBCORE001_Waitval
 1625 007a 4FF00002 		mov	r2, #0
 1626 007e 1A80     		strh	r2, [r3, #0]	@ movhi
 819:../Dave/Generated/src/USBCORE001/usbcore001_device.c ****   
 820:../Dave/Generated/src/USBCORE001/usbcore001_device.c ****   if(EndPoint->BytesAvailableIn)
 1627              		.loc 1 820 0
 1628 0080 7B68     		ldr	r3, [r7, #4]
 1629 0082 9B8B     		ldrh	r3, [r3, #28]	@ movhi
 1630 0084 9BB2     		uxth	r3, r3
 1631 0086 002B     		cmp	r3, #0
 1632 0088 00F0A280 		beq	.L85
 821:../Dave/Generated/src/USBCORE001/usbcore001_device.c ****   {
 822:../Dave/Generated/src/USBCORE001/usbcore001_device.c ****     EndPoint->InFlush = true;
 1633              		.loc 1 822 0
 1634 008c 7B68     		ldr	r3, [r7, #4]
 1635 008e 4FF00102 		mov	r2, #1
 1636 0092 9A77     		strb	r2, [r3, #30]
 823:../Dave/Generated/src/USBCORE001/usbcore001_device.c ****     Bytes = EndPoint->BytesAvailableIn;
 1637              		.loc 1 823 0
 1638 0094 7B68     		ldr	r3, [r7, #4]
 1639 0096 9B8B     		ldrh	r3, [r3, #28]	@ movhi
 1640 0098 9BB2     		uxth	r3, r3
 1641 009a FB70     		strb	r3, [r7, #3]
 824:../Dave/Generated/src/USBCORE001/usbcore001_device.c ****     dwc_otg_pcd_ep_queue(USBCORE001_DevicePCD.GPCD, EndPoint, 
 1642              		.loc 1 824 0
 1643 009c 40F20003 		movw	r3, #:lower16:USBCORE001_DevicePCD
 1644 00a0 C0F20003 		movt	r3, #:upper16:USBCORE001_DevicePCD
 1645 00a4 D3F8C812 		ldr	r1, [r3, #712]
 825:../Dave/Generated/src/USBCORE001/usbcore001_device.c ****     (uint8_t *)EndPoint->InBuffer, (int)EndPoint->InBuffer, Bytes, 0,
 1646              		.loc 1 825 0
 1647 00a8 7B68     		ldr	r3, [r7, #4]
 824:../Dave/Generated/src/USBCORE001/usbcore001_device.c ****     dwc_otg_pcd_ep_queue(USBCORE001_DevicePCD.GPCD, EndPoint, 
 1648              		.loc 1 824 0
 1649 00aa 5A68     		ldr	r2, [r3, #4]
 1650              		.loc 1 825 0
 1651 00ac 7B68     		ldr	r3, [r7, #4]
 1652 00ae 5B68     		ldr	r3, [r3, #4]
 824:../Dave/Generated/src/USBCORE001/usbcore001_device.c ****     dwc_otg_pcd_ep_queue(USBCORE001_DevicePCD.GPCD, EndPoint, 
 1653              		.loc 1 824 0
 1654 00b0 FC78     		ldrb	r4, [r7, #3]	@ zero_extendqisi2
 826:../Dave/Generated/src/USBCORE001/usbcore001_device.c ****     EndPoint->InBuffer, 0);
 1655              		.loc 1 826 0
 1656 00b2 7868     		ldr	r0, [r7, #4]
 1657 00b4 4068     		ldr	r0, [r0, #4]
 824:../Dave/Generated/src/USBCORE001/usbcore001_device.c ****     dwc_otg_pcd_ep_queue(USBCORE001_DevicePCD.GPCD, EndPoint, 
 1658              		.loc 1 824 0
 1659 00b6 0094     		str	r4, [sp, #0]
 1660 00b8 4FF00004 		mov	r4, #0
 1661 00bc 0194     		str	r4, [sp, #4]
 1662 00be 0290     		str	r0, [sp, #8]
 1663 00c0 4FF00000 		mov	r0, #0
 1664 00c4 0390     		str	r0, [sp, #12]
 1665 00c6 0846     		mov	r0, r1
 1666 00c8 7968     		ldr	r1, [r7, #4]
 1667 00ca FFF7FEFF 		bl	dwc_otg_pcd_ep_queue
 827:../Dave/Generated/src/USBCORE001/usbcore001_device.c **** 
 828:../Dave/Generated/src/USBCORE001/usbcore001_device.c ****     if((zlp_flag == true) && (EndPoint->EpNum != 0))
 1668              		.loc 1 828 0
 1669 00ce 40F20003 		movw	r3, #:lower16:zlp_flag
 1670 00d2 C0F20003 		movt	r3, #:upper16:zlp_flag
 1671 00d6 1B78     		ldrb	r3, [r3, #0]
 1672 00d8 DBB2     		uxtb	r3, r3
 1673 00da 012B     		cmp	r3, #1
 1674 00dc 3DD1     		bne	.L79
 1675              		.loc 1 828 0 is_stmt 0 discriminator 1
 1676 00de 7B68     		ldr	r3, [r7, #4]
 1677 00e0 1B78     		ldrb	r3, [r3, #0]	@ zero_extendqisi2
 1678 00e2 002B     		cmp	r3, #0
 1679 00e4 39D0     		beq	.L79
 829:../Dave/Generated/src/USBCORE001/usbcore001_device.c ****     {
 830:../Dave/Generated/src/USBCORE001/usbcore001_device.c ****     	/*Send a ZLP from here*/
 831:../Dave/Generated/src/USBCORE001/usbcore001_device.c **** 	  while(EndPoint->InFlush)
 1680              		.loc 1 831 0 is_stmt 1
 1681 00e6 0CE0     		b	.L80
 1682              	.L81:
 832:../Dave/Generated/src/USBCORE001/usbcore001_device.c **** 	  {
 833:../Dave/Generated/src/USBCORE001/usbcore001_device.c **** 		USBCORE001_Waitval++;
 1683              		.loc 1 833 0
 1684 00e8 40F20003 		movw	r3, #:lower16:USBCORE001_Waitval
 1685 00ec C0F20003 		movt	r3, #:upper16:USBCORE001_Waitval
 1686 00f0 1B88     		ldrh	r3, [r3, #0]
 1687 00f2 03F10103 		add	r3, r3, #1
 1688 00f6 9AB2     		uxth	r2, r3
 1689 00f8 40F20003 		movw	r3, #:lower16:USBCORE001_Waitval
 1690 00fc C0F20003 		movt	r3, #:upper16:USBCORE001_Waitval
 1691 0100 1A80     		strh	r2, [r3, #0]	@ movhi
 1692              	.L80:
 831:../Dave/Generated/src/USBCORE001/usbcore001_device.c **** 	  while(EndPoint->InFlush)
 1693              		.loc 1 831 0 discriminator 1
 1694 0102 7B68     		ldr	r3, [r7, #4]
 1695 0104 9B7F     		ldrb	r3, [r3, #30]
 1696 0106 DBB2     		uxtb	r3, r3
 1697 0108 002B     		cmp	r3, #0
 1698 010a EDD1     		bne	.L81
 834:../Dave/Generated/src/USBCORE001/usbcore001_device.c **** 	  }
 835:../Dave/Generated/src/USBCORE001/usbcore001_device.c **** 	  EndPoint->InFlush = true;
 1699              		.loc 1 835 0
 1700 010c 7B68     		ldr	r3, [r7, #4]
 1701 010e 4FF00102 		mov	r2, #1
 1702 0112 9A77     		strb	r2, [r3, #30]
 836:../Dave/Generated/src/USBCORE001/usbcore001_device.c **** 	  dwc_otg_pcd_ep_queue(USBCORE001_DevicePCD.GPCD, EndPoint, NULL, 0, 0, 1,
 1703              		.loc 1 836 0
 1704 0114 40F20003 		movw	r3, #:lower16:USBCORE001_DevicePCD
 1705 0118 C0F20003 		movt	r3, #:upper16:USBCORE001_DevicePCD
 1706 011c D3F8C832 		ldr	r3, [r3, #712]
 837:../Dave/Generated/src/USBCORE001/usbcore001_device.c **** 														EndPoint->InBuffer, 0);
 1707              		.loc 1 837 0
 1708 0120 7A68     		ldr	r2, [r7, #4]
 1709 0122 5268     		ldr	r2, [r2, #4]
 836:../Dave/Generated/src/USBCORE001/usbcore001_device.c **** 	  dwc_otg_pcd_ep_queue(USBCORE001_DevicePCD.GPCD, EndPoint, NULL, 0, 0, 1,
 1710              		.loc 1 836 0
 1711 0124 4FF00001 		mov	r1, #0
 1712 0128 0091     		str	r1, [sp, #0]
 1713 012a 4FF00101 		mov	r1, #1
 1714 012e 0191     		str	r1, [sp, #4]
 1715 0130 0292     		str	r2, [sp, #8]
 1716 0132 4FF00002 		mov	r2, #0
 1717 0136 0392     		str	r2, [sp, #12]
 1718 0138 1846     		mov	r0, r3
 1719 013a 7968     		ldr	r1, [r7, #4]
 1720 013c 4FF00002 		mov	r2, #0
 1721 0140 4FF00003 		mov	r3, #0
 1722 0144 FFF7FEFF 		bl	dwc_otg_pcd_ep_queue
 838:../Dave/Generated/src/USBCORE001/usbcore001_device.c **** 	  zlp_flag = false;
 1723              		.loc 1 838 0
 1724 0148 40F20003 		movw	r3, #:lower16:zlp_flag
 1725 014c C0F20003 		movt	r3, #:upper16:zlp_flag
 1726 0150 4FF00002 		mov	r2, #0
 1727 0154 1A70     		strb	r2, [r3, #0]
 839:../Dave/Generated/src/USBCORE001/usbcore001_device.c ****     }
 840:../Dave/Generated/src/USBCORE001/usbcore001_device.c ****     else if((Bytes == EndPoint->MaxPktSz) && (EndPoint->EpNum == 0))
 841:../Dave/Generated/src/USBCORE001/usbcore001_device.c ****     {
 842:../Dave/Generated/src/USBCORE001/usbcore001_device.c ****       /*Send a ZLP from here*/
 843:../Dave/Generated/src/USBCORE001/usbcore001_device.c ****       while(EndPoint->InFlush)
 844:../Dave/Generated/src/USBCORE001/usbcore001_device.c ****       {
 845:../Dave/Generated/src/USBCORE001/usbcore001_device.c ****         USBCORE001_Waitval++;
 846:../Dave/Generated/src/USBCORE001/usbcore001_device.c ****       }
 847:../Dave/Generated/src/USBCORE001/usbcore001_device.c ****       EndPoint->InFlush = true;
 848:../Dave/Generated/src/USBCORE001/usbcore001_device.c ****       dwc_otg_pcd_ep_queue(USBCORE001_DevicePCD.GPCD, EndPoint, NULL, 0, 0, 1, 
 849:../Dave/Generated/src/USBCORE001/usbcore001_device.c ****                                                         EndPoint->InBuffer, 0);
 850:../Dave/Generated/src/USBCORE001/usbcore001_device.c **** 
 851:../Dave/Generated/src/USBCORE001/usbcore001_device.c ****     }
 852:../Dave/Generated/src/USBCORE001/usbcore001_device.c ****     else
 853:../Dave/Generated/src/USBCORE001/usbcore001_device.c ****     {
 854:../Dave/Generated/src/USBCORE001/usbcore001_device.c **** 
 855:../Dave/Generated/src/USBCORE001/usbcore001_device.c ****     }
 856:../Dave/Generated/src/USBCORE001/usbcore001_device.c **** 
 857:../Dave/Generated/src/USBCORE001/usbcore001_device.c ****   }
 858:../Dave/Generated/src/USBCORE001/usbcore001_device.c ****   return;
 1728              		.loc 1 858 0
 1729 0156 00BF     		nop
 1730 0158 3AE0     		b	.L85
 1731              	.L79:
 840:../Dave/Generated/src/USBCORE001/usbcore001_device.c ****     else if((Bytes == EndPoint->MaxPktSz) && (EndPoint->EpNum == 0))
 1732              		.loc 1 840 0
 1733 015a FB78     		ldrb	r3, [r7, #3]	@ zero_extendqisi2
 1734 015c 9AB2     		uxth	r2, r3
 1735 015e 7B68     		ldr	r3, [r7, #4]
 1736 0160 1B8C     		ldrh	r3, [r3, #32]
 1737 0162 9A42     		cmp	r2, r3
 1738 0164 34D1     		bne	.L85
 840:../Dave/Generated/src/USBCORE001/usbcore001_device.c ****     else if((Bytes == EndPoint->MaxPktSz) && (EndPoint->EpNum == 0))
 1739              		.loc 1 840 0 is_stmt 0 discriminator 1
 1740 0166 7B68     		ldr	r3, [r7, #4]
 1741 0168 1B78     		ldrb	r3, [r3, #0]	@ zero_extendqisi2
 1742 016a 002B     		cmp	r3, #0
 1743 016c 30D1     		bne	.L85
 843:../Dave/Generated/src/USBCORE001/usbcore001_device.c ****       while(EndPoint->InFlush)
 1744              		.loc 1 843 0 is_stmt 1
 1745 016e 0CE0     		b	.L82
 1746              	.L83:
 845:../Dave/Generated/src/USBCORE001/usbcore001_device.c ****         USBCORE001_Waitval++;
 1747              		.loc 1 845 0
 1748 0170 40F20003 		movw	r3, #:lower16:USBCORE001_Waitval
 1749 0174 C0F20003 		movt	r3, #:upper16:USBCORE001_Waitval
 1750 0178 1B88     		ldrh	r3, [r3, #0]
 1751 017a 03F10103 		add	r3, r3, #1
 1752 017e 9AB2     		uxth	r2, r3
 1753 0180 40F20003 		movw	r3, #:lower16:USBCORE001_Waitval
 1754 0184 C0F20003 		movt	r3, #:upper16:USBCORE001_Waitval
 1755 0188 1A80     		strh	r2, [r3, #0]	@ movhi
 1756              	.L82:
 843:../Dave/Generated/src/USBCORE001/usbcore001_device.c ****       while(EndPoint->InFlush)
 1757              		.loc 1 843 0 discriminator 1
 1758 018a 7B68     		ldr	r3, [r7, #4]
 1759 018c 9B7F     		ldrb	r3, [r3, #30]
 1760 018e DBB2     		uxtb	r3, r3
 1761 0190 002B     		cmp	r3, #0
 1762 0192 EDD1     		bne	.L83
 847:../Dave/Generated/src/USBCORE001/usbcore001_device.c ****       EndPoint->InFlush = true;
 1763              		.loc 1 847 0
 1764 0194 7B68     		ldr	r3, [r7, #4]
 1765 0196 4FF00102 		mov	r2, #1
 1766 019a 9A77     		strb	r2, [r3, #30]
 848:../Dave/Generated/src/USBCORE001/usbcore001_device.c ****       dwc_otg_pcd_ep_queue(USBCORE001_DevicePCD.GPCD, EndPoint, NULL, 0, 0, 1, 
 1767              		.loc 1 848 0
 1768 019c 40F20003 		movw	r3, #:lower16:USBCORE001_DevicePCD
 1769 01a0 C0F20003 		movt	r3, #:upper16:USBCORE001_DevicePCD
 1770 01a4 D3F8C832 		ldr	r3, [r3, #712]
 849:../Dave/Generated/src/USBCORE001/usbcore001_device.c ****                                                         EndPoint->InBuffer, 0);
 1771              		.loc 1 849 0
 1772 01a8 7A68     		ldr	r2, [r7, #4]
 1773 01aa 5268     		ldr	r2, [r2, #4]
 848:../Dave/Generated/src/USBCORE001/usbcore001_device.c ****       dwc_otg_pcd_ep_queue(USBCORE001_DevicePCD.GPCD, EndPoint, NULL, 0, 0, 1, 
 1774              		.loc 1 848 0
 1775 01ac 4FF00001 		mov	r1, #0
 1776 01b0 0091     		str	r1, [sp, #0]
 1777 01b2 4FF00101 		mov	r1, #1
 1778 01b6 0191     		str	r1, [sp, #4]
 1779 01b8 0292     		str	r2, [sp, #8]
 1780 01ba 4FF00002 		mov	r2, #0
 1781 01be 0392     		str	r2, [sp, #12]
 1782 01c0 1846     		mov	r0, r3
 1783 01c2 7968     		ldr	r1, [r7, #4]
 1784 01c4 4FF00002 		mov	r2, #0
 1785 01c8 4FF00003 		mov	r3, #0
 1786 01cc FFF7FEFF 		bl	dwc_otg_pcd_ep_queue
 1787              	.L85:
 1788              		.loc 1 858 0
 1789 01d0 00BF     		nop
 1790              	.L73:
 859:../Dave/Generated/src/USBCORE001/usbcore001_device.c **** }
 1791              		.loc 1 859 0
 1792 01d2 07F10C07 		add	r7, r7, #12
 1793 01d6 BD46     		mov	sp, r7
 1794 01d8 90BD     		pop	{r4, r7, pc}
 1795              		.cfi_endproc
 1796              	.LFE154:
 1798 01da 00BF     		.section	.text.Endpoint_Write_Control_Stream_LE,"ax",%progbits
 1799              		.align	2
 1800              		.global	Endpoint_Write_Control_Stream_LE
 1801              		.thumb
 1802              		.thumb_func
 1804              	Endpoint_Write_Control_Stream_LE:
 1805              	.LFB155:
 860:../Dave/Generated/src/USBCORE001/usbcore001_device.c **** 
 861:../Dave/Generated/src/USBCORE001/usbcore001_device.c **** 
 862:../Dave/Generated/src/USBCORE001/usbcore001_device.c **** /*
 863:../Dave/Generated/src/USBCORE001/usbcore001_device.c ****  * This function Writes the given number of bytes to the control endpoint from 
 864:../Dave/Generated/src/USBCORE001/usbcore001_device.c ****  * the given buffer in little endian sending full packets to the host as needed.
 865:../Dave/Generated/src/USBCORE001/usbcore001_device.c ****  * The host OUT acknowledgment is not automatically cleared in both failure and
 866:../Dave/Generated/src/USBCORE001/usbcore001_device.c ****  * success states; The user is responsible manually clearing the setup OUT to 
 867:../Dave/Generated/src/USBCORE001/usbcore001_device.c ****  * finalize the transfer via the Endpoint_ClearOUT macro.
 868:../Dave/Generated/src/USBCORE001/usbcore001_device.c ****  */
 869:../Dave/Generated/src/USBCORE001/usbcore001_device.c **** uint8_t Endpoint_Write_Control_Stream_LE(const void* const Buffer,
 870:../Dave/Generated/src/USBCORE001/usbcore001_device.c ****                                                                 uint16_t Length)
 871:../Dave/Generated/src/USBCORE001/usbcore001_device.c **** {
 1806              		.loc 1 871 0
 1807              		.cfi_startproc
 1808              		@ args = 0, pretend = 0, frame = 8
 1809              		@ frame_needed = 1, uses_anonymous_args = 0
 1810 0000 80B5     		push	{r7, lr}
 1811              	.LCFI43:
 1812              		.cfi_def_cfa_offset 8
 1813              		.cfi_offset 7, -8
 1814              		.cfi_offset 14, -4
 1815 0002 82B0     		sub	sp, sp, #8
 1816              	.LCFI44:
 1817              		.cfi_def_cfa_offset 16
 1818 0004 00AF     		add	r7, sp, #0
 1819              	.LCFI45:
 1820              		.cfi_def_cfa_register 7
 1821 0006 7860     		str	r0, [r7, #4]
 1822 0008 0B46     		mov	r3, r1
 1823 000a 7B80     		strh	r3, [r7, #2]	@ movhi
 872:../Dave/Generated/src/USBCORE001/usbcore001_device.c ****   return Endpoint_Write_Control_Stream_BE(Buffer,Length);
 1824              		.loc 1 872 0
 1825 000c 7B88     		ldrh	r3, [r7, #2]
 1826 000e 7868     		ldr	r0, [r7, #4]
 1827 0010 1946     		mov	r1, r3
 1828 0012 FFF7FEFF 		bl	Endpoint_Write_Control_Stream_BE
 1829 0016 0346     		mov	r3, r0
 873:../Dave/Generated/src/USBCORE001/usbcore001_device.c **** }
 1830              		.loc 1 873 0
 1831 0018 1846     		mov	r0, r3
 1832 001a 07F10807 		add	r7, r7, #8
 1833 001e BD46     		mov	sp, r7
 1834 0020 80BD     		pop	{r7, pc}
 1835              		.cfi_endproc
 1836              	.LFE155:
 1838 0022 00BF     		.section	.text.Endpoint_Write_Control_Stream_BE,"ax",%progbits
 1839              		.align	2
 1840              		.global	Endpoint_Write_Control_Stream_BE
 1841              		.thumb
 1842              		.thumb_func
 1844              	Endpoint_Write_Control_Stream_BE:
 1845              	.LFB156:
 874:../Dave/Generated/src/USBCORE001/usbcore001_device.c **** 
 875:../Dave/Generated/src/USBCORE001/usbcore001_device.c **** /*
 876:../Dave/Generated/src/USBCORE001/usbcore001_device.c ****  * This function Writes the given number of bytes to the control endpoint from 
 877:../Dave/Generated/src/USBCORE001/usbcore001_device.c ****  * the given buffer in big endian sending full packets to the host as needed. 
 878:../Dave/Generated/src/USBCORE001/usbcore001_device.c ****  * The host OUT acknowledgment is not automatically cleared in both failure and 
 879:../Dave/Generated/src/USBCORE001/usbcore001_device.c ****  * success states; The user is responsible manually clearing the setup OUT to
 880:../Dave/Generated/src/USBCORE001/usbcore001_device.c ****  * finalize the transfer via the Endpoint_ClearOUT macro.
 881:../Dave/Generated/src/USBCORE001/usbcore001_device.c ****  */
 882:../Dave/Generated/src/USBCORE001/usbcore001_device.c **** uint8_t Endpoint_Write_Control_Stream_BE(const void* const Buffer,
 883:../Dave/Generated/src/USBCORE001/usbcore001_device.c ****                                                                 uint16_t Length)
 884:../Dave/Generated/src/USBCORE001/usbcore001_device.c **** {
 1846              		.loc 1 884 0
 1847              		.cfi_startproc
 1848              		@ args = 0, pretend = 0, frame = 16
 1849              		@ frame_needed = 1, uses_anonymous_args = 0
 1850 0000 80B5     		push	{r7, lr}
 1851              	.LCFI46:
 1852              		.cfi_def_cfa_offset 8
 1853              		.cfi_offset 7, -8
 1854              		.cfi_offset 14, -4
 1855 0002 84B0     		sub	sp, sp, #16
 1856              	.LCFI47:
 1857              		.cfi_def_cfa_offset 24
 1858 0004 00AF     		add	r7, sp, #0
 1859              	.LCFI48:
 1860              		.cfi_def_cfa_register 7
 1861 0006 7860     		str	r0, [r7, #4]
 1862 0008 0B46     		mov	r3, r1
 1863 000a 7B80     		strh	r3, [r7, #2]	@ movhi
 885:../Dave/Generated/src/USBCORE001/usbcore001_device.c ****   USBCORE001_DeivceEndpoint *EndPoint = &USBCORE001_DevicePCD.EndPoint0;
 1864              		.loc 1 885 0
 1865 000c 40F20003 		movw	r3, #:lower16:USBCORE001_DevicePCD
 1866 0010 C0F20003 		movt	r3, #:upper16:USBCORE001_DevicePCD
 1867 0014 FB60     		str	r3, [r7, #12]
 886:../Dave/Generated/src/USBCORE001/usbcore001_device.c ****   uint8_t      PrevEp = USBCORE001_DevicePCD.CurEpNum;
 1868              		.loc 1 886 0
 1869 0016 40F20003 		movw	r3, #:lower16:USBCORE001_DevicePCD
 1870 001a C0F20003 		movt	r3, #:upper16:USBCORE001_DevicePCD
 1871 001e 93F8D032 		ldrb	r3, [r3, #720]
 1872 0022 FB72     		strb	r3, [r7, #11]
 887:../Dave/Generated/src/USBCORE001/usbcore001_device.c ****   USBCORE001_DevicePCD.CurEpNum = 0;
 1873              		.loc 1 887 0
 1874 0024 40F20003 		movw	r3, #:lower16:USBCORE001_DevicePCD
 1875 0028 C0F20003 		movt	r3, #:upper16:USBCORE001_DevicePCD
 1876 002c 4FF00002 		mov	r2, #0
 1877 0030 83F8D022 		strb	r2, [r3, #720]
 888:../Dave/Generated/src/USBCORE001/usbcore001_device.c **** 
 889:../Dave/Generated/src/USBCORE001/usbcore001_device.c ****   while(EndPoint->BytesAvailableIn)
 1878              		.loc 1 889 0
 1879 0034 01E0     		b	.L89
 1880              	.L90:
 890:../Dave/Generated/src/USBCORE001/usbcore001_device.c ****   {
 891:../Dave/Generated/src/USBCORE001/usbcore001_device.c ****     Endpoint_ClearIN();
 1881              		.loc 1 891 0
 1882 0036 FFF7FEFF 		bl	Endpoint_ClearIN
 1883              	.L89:
 889:../Dave/Generated/src/USBCORE001/usbcore001_device.c ****   while(EndPoint->BytesAvailableIn)
 1884              		.loc 1 889 0 discriminator 1
 1885 003a FB68     		ldr	r3, [r7, #12]
 1886 003c 9B8B     		ldrh	r3, [r3, #28]	@ movhi
 1887 003e 9BB2     		uxth	r3, r3
 1888 0040 002B     		cmp	r3, #0
 1889 0042 F8D1     		bne	.L90
 892:../Dave/Generated/src/USBCORE001/usbcore001_device.c ****   }
 893:../Dave/Generated/src/USBCORE001/usbcore001_device.c **** 
 894:../Dave/Generated/src/USBCORE001/usbcore001_device.c ****   memcpy(EndPoint->InBuffer,Buffer,Length);
 1890              		.loc 1 894 0
 1891 0044 FB68     		ldr	r3, [r7, #12]
 1892 0046 5A68     		ldr	r2, [r3, #4]
 1893 0048 7B88     		ldrh	r3, [r7, #2]
 1894 004a 1046     		mov	r0, r2
 1895 004c 7968     		ldr	r1, [r7, #4]
 1896 004e 1A46     		mov	r2, r3
 1897 0050 FFF7FEFF 		bl	memcpy
 895:../Dave/Generated/src/USBCORE001/usbcore001_device.c ****   EndPoint->BytesAvailableIn += Length;
 1898              		.loc 1 895 0
 1899 0054 FB68     		ldr	r3, [r7, #12]
 1900 0056 9B8B     		ldrh	r3, [r3, #28]	@ movhi
 1901 0058 9AB2     		uxth	r2, r3
 1902 005a 7B88     		ldrh	r3, [r7, #2]	@ movhi
 1903 005c D318     		adds	r3, r2, r3
 1904 005e 9AB2     		uxth	r2, r3
 1905 0060 FB68     		ldr	r3, [r7, #12]
 1906 0062 9A83     		strh	r2, [r3, #28]	@ movhi
 896:../Dave/Generated/src/USBCORE001/usbcore001_device.c ****   EndPoint->CurrentInIndex += Length;
 1907              		.loc 1 896 0
 1908 0064 FB68     		ldr	r3, [r7, #12]
 1909 0066 1A8B     		ldrh	r2, [r3, #24]
 1910 0068 7B88     		ldrh	r3, [r7, #2]	@ movhi
 1911 006a D318     		adds	r3, r2, r3
 1912 006c 9AB2     		uxth	r2, r3
 1913 006e FB68     		ldr	r3, [r7, #12]
 1914 0070 1A83     		strh	r2, [r3, #24]	@ movhi
 897:../Dave/Generated/src/USBCORE001/usbcore001_device.c **** 
 898:../Dave/Generated/src/USBCORE001/usbcore001_device.c ****   USBCORE001_DevicePCD.CurEpNum = PrevEp;
 1915              		.loc 1 898 0
 1916 0072 40F20003 		movw	r3, #:lower16:USBCORE001_DevicePCD
 1917 0076 C0F20003 		movt	r3, #:upper16:USBCORE001_DevicePCD
 1918 007a FA7A     		ldrb	r2, [r7, #11]
 1919 007c 83F8D022 		strb	r2, [r3, #720]
 899:../Dave/Generated/src/USBCORE001/usbcore001_device.c **** 
 900:../Dave/Generated/src/USBCORE001/usbcore001_device.c ****   return ENDPOINT_RWCSTREAM_NoError;
 1920              		.loc 1 900 0
 1921 0080 4FF00003 		mov	r3, #0
 901:../Dave/Generated/src/USBCORE001/usbcore001_device.c **** }
 1922              		.loc 1 901 0
 1923 0084 1846     		mov	r0, r3
 1924 0086 07F11007 		add	r7, r7, #16
 1925 008a BD46     		mov	sp, r7
 1926 008c 80BD     		pop	{r7, pc}
 1927              		.cfi_endproc
 1928              	.LFE156:
 1930 008e 00BF     		.section	.text.Endpoint_Read_Control_Stream_BE,"ax",%progbits
 1931              		.align	2
 1932              		.global	Endpoint_Read_Control_Stream_BE
 1933              		.thumb
 1934              		.thumb_func
 1936              	Endpoint_Read_Control_Stream_BE:
 1937              	.LFB157:
 902:../Dave/Generated/src/USBCORE001/usbcore001_device.c **** 
 903:../Dave/Generated/src/USBCORE001/usbcore001_device.c **** /*
 904:../Dave/Generated/src/USBCORE001/usbcore001_device.c ****  * This function Reads the given number of bytes from the control endpoint to 
 905:../Dave/Generated/src/USBCORE001/usbcore001_device.c ****  * the given buffer in big endian sending full packets to the host as needed.
 906:../Dave/Generated/src/USBCORE001/usbcore001_device.c ****  * The host OUT acknowledgment is not automatically cleared in both failure and
 907:../Dave/Generated/src/USBCORE001/usbcore001_device.c ****  * success states; The user is responsible manually clearing the setup OUT to 
 908:../Dave/Generated/src/USBCORE001/usbcore001_device.c ****  * finalize the transfer via the Endpoint_ClearOUT macro.
 909:../Dave/Generated/src/USBCORE001/usbcore001_device.c ****  */
 910:../Dave/Generated/src/USBCORE001/usbcore001_device.c **** uint8_t Endpoint_Read_Control_Stream_BE(void* const Buffer,uint16_t Length)
 911:../Dave/Generated/src/USBCORE001/usbcore001_device.c **** {
 1938              		.loc 1 911 0
 1939              		.cfi_startproc
 1940              		@ args = 0, pretend = 0, frame = 16
 1941              		@ frame_needed = 1, uses_anonymous_args = 0
 1942 0000 80B5     		push	{r7, lr}
 1943              	.LCFI49:
 1944              		.cfi_def_cfa_offset 8
 1945              		.cfi_offset 7, -8
 1946              		.cfi_offset 14, -4
 1947 0002 84B0     		sub	sp, sp, #16
 1948              	.LCFI50:
 1949              		.cfi_def_cfa_offset 24
 1950 0004 00AF     		add	r7, sp, #0
 1951              	.LCFI51:
 1952              		.cfi_def_cfa_register 7
 1953 0006 7860     		str	r0, [r7, #4]
 1954 0008 0B46     		mov	r3, r1
 1955 000a 7B80     		strh	r3, [r7, #2]	@ movhi
 912:../Dave/Generated/src/USBCORE001/usbcore001_device.c ****   volatile USBCORE001_DeivceEndpoint *EndPoint = 
 1956              		.loc 1 912 0
 1957 000c 40F20003 		movw	r3, #:lower16:USBCORE001_DevicePCD
 1958 0010 C0F20003 		movt	r3, #:upper16:USBCORE001_DevicePCD
 1959 0014 BB60     		str	r3, [r7, #8]
 913:../Dave/Generated/src/USBCORE001/usbcore001_device.c ****                                               &USBCORE001_DevicePCD.EndPoint0;
 914:../Dave/Generated/src/USBCORE001/usbcore001_device.c ****   bool Success = false;
 1960              		.loc 1 914 0
 1961 0016 4FF00003 		mov	r3, #0
 1962 001a FB73     		strb	r3, [r7, #15]
 1963              	.L95:
 915:../Dave/Generated/src/USBCORE001/usbcore001_device.c **** 
 916:../Dave/Generated/src/USBCORE001/usbcore001_device.c ****   if(DEVICE_STATE_Addressed == DEVICE_STATE_Unattached)
 917:../Dave/Generated/src/USBCORE001/usbcore001_device.c ****   {
 918:../Dave/Generated/src/USBCORE001/usbcore001_device.c ****     return ENDPOINT_RWCSTREAM_DeviceDisconnected;
 919:../Dave/Generated/src/USBCORE001/usbcore001_device.c ****   }
 920:../Dave/Generated/src/USBCORE001/usbcore001_device.c ****   else if (DEVICE_STATE_Addressed == DEVICE_STATE_Suspended)
 921:../Dave/Generated/src/USBCORE001/usbcore001_device.c ****   {
 922:../Dave/Generated/src/USBCORE001/usbcore001_device.c ****     return ENDPOINT_RWCSTREAM_BusSuspended;
 923:../Dave/Generated/src/USBCORE001/usbcore001_device.c ****   }
 924:../Dave/Generated/src/USBCORE001/usbcore001_device.c **** 
 925:../Dave/Generated/src/USBCORE001/usbcore001_device.c ****   do
 926:../Dave/Generated/src/USBCORE001/usbcore001_device.c ****   {
 927:../Dave/Generated/src/USBCORE001/usbcore001_device.c ****     if(Length <= EndPoint->BytesAvailableOut)
 1964              		.loc 1 927 0
 1965 001c BB68     		ldr	r3, [r7, #8]
 1966 001e 5B8A     		ldrh	r3, [r3, #18]	@ movhi
 1967 0020 9BB2     		uxth	r3, r3
 1968 0022 7A88     		ldrh	r2, [r7, #2]
 1969 0024 9A42     		cmp	r2, r3
 1970 0026 28D8     		bhi	.L93
 928:../Dave/Generated/src/USBCORE001/usbcore001_device.c ****     {
 929:../Dave/Generated/src/USBCORE001/usbcore001_device.c ****       memcpy(Buffer,(void *)(EndPoint->OutBuffer + EndPoint->CurrentOutIndex),
 1971              		.loc 1 929 0
 1972 0028 BB68     		ldr	r3, [r7, #8]
 1973 002a DA68     		ldr	r2, [r3, #12]
 1974 002c BB68     		ldr	r3, [r7, #8]
 1975 002e 5B8B     		ldrh	r3, [r3, #26]	@ movhi
 1976 0030 9BB2     		uxth	r3, r3
 1977 0032 D218     		adds	r2, r2, r3
 1978 0034 7B88     		ldrh	r3, [r7, #2]
 1979 0036 7868     		ldr	r0, [r7, #4]
 1980 0038 1146     		mov	r1, r2
 1981 003a 1A46     		mov	r2, r3
 1982 003c FFF7FEFF 		bl	memcpy
 930:../Dave/Generated/src/USBCORE001/usbcore001_device.c ****                                                                         Length);
 931:../Dave/Generated/src/USBCORE001/usbcore001_device.c ****       EndPoint->BytesAvailableOut -= Length;
 1983              		.loc 1 931 0
 1984 0040 BB68     		ldr	r3, [r7, #8]
 1985 0042 5B8A     		ldrh	r3, [r3, #18]	@ movhi
 1986 0044 9AB2     		uxth	r2, r3
 1987 0046 7B88     		ldrh	r3, [r7, #2]	@ movhi
 1988 0048 D31A     		subs	r3, r2, r3
 1989 004a 9AB2     		uxth	r2, r3
 1990 004c BB68     		ldr	r3, [r7, #8]
 1991 004e 5A82     		strh	r2, [r3, #18]	@ movhi
 932:../Dave/Generated/src/USBCORE001/usbcore001_device.c **** 
 933:../Dave/Generated/src/USBCORE001/usbcore001_device.c ****       if(EndPoint->BytesAvailableOut)
 1992              		.loc 1 933 0
 1993 0050 BB68     		ldr	r3, [r7, #8]
 1994 0052 5B8A     		ldrh	r3, [r3, #18]	@ movhi
 1995 0054 9BB2     		uxth	r3, r3
 1996 0056 002B     		cmp	r3, #0
 1997 0058 08D0     		beq	.L94
 934:../Dave/Generated/src/USBCORE001/usbcore001_device.c ****       {
 935:../Dave/Generated/src/USBCORE001/usbcore001_device.c ****         EndPoint->CurrentOutIndex += Length;
 1998              		.loc 1 935 0
 1999 005a BB68     		ldr	r3, [r7, #8]
 2000 005c 5B8B     		ldrh	r3, [r3, #26]	@ movhi
 2001 005e 9AB2     		uxth	r2, r3
 2002 0060 7B88     		ldrh	r3, [r7, #2]	@ movhi
 2003 0062 D318     		adds	r3, r2, r3
 2004 0064 9AB2     		uxth	r2, r3
 2005 0066 BB68     		ldr	r3, [r7, #8]
 2006 0068 5A83     		strh	r2, [r3, #26]	@ movhi
 2007 006a 06E0     		b	.L93
 2008              	.L94:
 936:../Dave/Generated/src/USBCORE001/usbcore001_device.c ****       }
 937:../Dave/Generated/src/USBCORE001/usbcore001_device.c ****       else
 938:../Dave/Generated/src/USBCORE001/usbcore001_device.c ****       {
 939:../Dave/Generated/src/USBCORE001/usbcore001_device.c ****         EndPoint->CurrentOutIndex = 0;
 2009              		.loc 1 939 0
 2010 006c BB68     		ldr	r3, [r7, #8]
 2011 006e 4FF00002 		mov	r2, #0
 2012 0072 5A83     		strh	r2, [r3, #26]	@ movhi
 940:../Dave/Generated/src/USBCORE001/usbcore001_device.c ****         Success = true;
 2013              		.loc 1 940 0
 2014 0074 4FF00103 		mov	r3, #1
 2015 0078 FB73     		strb	r3, [r7, #15]
 2016              	.L93:
 941:../Dave/Generated/src/USBCORE001/usbcore001_device.c ****       }
 942:../Dave/Generated/src/USBCORE001/usbcore001_device.c ****     }
 943:../Dave/Generated/src/USBCORE001/usbcore001_device.c ****   }while(!Success);
 2017              		.loc 1 943 0
 2018 007a FB7B     		ldrb	r3, [r7, #15]	@ zero_extendqisi2
 2019 007c 002B     		cmp	r3, #0
 2020 007e CDD0     		beq	.L95
 944:../Dave/Generated/src/USBCORE001/usbcore001_device.c **** 
 945:../Dave/Generated/src/USBCORE001/usbcore001_device.c ****   return ENDPOINT_RWCSTREAM_NoError;
 2021              		.loc 1 945 0
 2022 0080 4FF00003 		mov	r3, #0
 946:../Dave/Generated/src/USBCORE001/usbcore001_device.c **** }
 2023              		.loc 1 946 0
 2024 0084 1846     		mov	r0, r3
 2025 0086 07F11007 		add	r7, r7, #16
 2026 008a BD46     		mov	sp, r7
 2027 008c 80BD     		pop	{r7, pc}
 2028              		.cfi_endproc
 2029              	.LFE157:
 2031 008e 00BF     		.section	.text.Endpoint_Read_Control_Stream_LE,"ax",%progbits
 2032              		.align	2
 2033              		.global	Endpoint_Read_Control_Stream_LE
 2034              		.thumb
 2035              		.thumb_func
 2037              	Endpoint_Read_Control_Stream_LE:
 2038              	.LFB158:
 947:../Dave/Generated/src/USBCORE001/usbcore001_device.c **** 
 948:../Dave/Generated/src/USBCORE001/usbcore001_device.c **** /*
 949:../Dave/Generated/src/USBCORE001/usbcore001_device.c ****  * This function Reads the given number of bytes from the control endpoint to 
 950:../Dave/Generated/src/USBCORE001/usbcore001_device.c ****  * the given buffer in little endian sending full packets to the host as needed.
 951:../Dave/Generated/src/USBCORE001/usbcore001_device.c ****  * The host OUT acknowledgment is not automatically cleared in both failure and 
 952:../Dave/Generated/src/USBCORE001/usbcore001_device.c ****  * success states; The user is responsible manually clearing the setup OUT to 
 953:../Dave/Generated/src/USBCORE001/usbcore001_device.c ****  * finalize the transfer via the Endpoint_ClearOUT macro.
 954:../Dave/Generated/src/USBCORE001/usbcore001_device.c ****  */
 955:../Dave/Generated/src/USBCORE001/usbcore001_device.c **** uint8_t Endpoint_Read_Control_Stream_LE(void* const Buffer,uint16_t Length)
 956:../Dave/Generated/src/USBCORE001/usbcore001_device.c **** {
 2039              		.loc 1 956 0
 2040              		.cfi_startproc
 2041              		@ args = 0, pretend = 0, frame = 8
 2042              		@ frame_needed = 1, uses_anonymous_args = 0
 2043 0000 80B5     		push	{r7, lr}
 2044              	.LCFI52:
 2045              		.cfi_def_cfa_offset 8
 2046              		.cfi_offset 7, -8
 2047              		.cfi_offset 14, -4
 2048 0002 82B0     		sub	sp, sp, #8
 2049              	.LCFI53:
 2050              		.cfi_def_cfa_offset 16
 2051 0004 00AF     		add	r7, sp, #0
 2052              	.LCFI54:
 2053              		.cfi_def_cfa_register 7
 2054 0006 7860     		str	r0, [r7, #4]
 2055 0008 0B46     		mov	r3, r1
 2056 000a 7B80     		strh	r3, [r7, #2]	@ movhi
 957:../Dave/Generated/src/USBCORE001/usbcore001_device.c ****   return Endpoint_Read_Control_Stream_BE(Buffer,Length);
 2057              		.loc 1 957 0
 2058 000c 7B88     		ldrh	r3, [r7, #2]
 2059 000e 7868     		ldr	r0, [r7, #4]
 2060 0010 1946     		mov	r1, r3
 2061 0012 FFF7FEFF 		bl	Endpoint_Read_Control_Stream_BE
 2062 0016 0346     		mov	r3, r0
 958:../Dave/Generated/src/USBCORE001/usbcore001_device.c **** }
 2063              		.loc 1 958 0
 2064 0018 1846     		mov	r0, r3
 2065 001a 07F10807 		add	r7, r7, #8
 2066 001e BD46     		mov	sp, r7
 2067 0020 80BD     		pop	{r7, pc}
 2068              		.cfi_endproc
 2069              	.LFE158:
 2071 0022 00BF     		.section	.text.Endpoint_ClearStatusStage,"ax",%progbits
 2072              		.align	2
 2073              		.global	Endpoint_ClearStatusStage
 2074              		.thumb
 2075              		.thumb_func
 2077              	Endpoint_ClearStatusStage:
 2078              	.LFB159:
 959:../Dave/Generated/src/USBCORE001/usbcore001_device.c **** 
 960:../Dave/Generated/src/USBCORE001/usbcore001_device.c **** /*
 961:../Dave/Generated/src/USBCORE001/usbcore001_device.c ****  * This function Completes the status of a control transfer on a CONTROL type
 962:../Dave/Generated/src/USBCORE001/usbcore001_device.c ****  * endpoint automatically with respect to the data direction. This is a 
 963:../Dave/Generated/src/USBCORE001/usbcore001_device.c ****  * convenience function which can be used to simplify user control request 
 964:../Dave/Generated/src/USBCORE001/usbcore001_device.c ****  * handling.
 965:../Dave/Generated/src/USBCORE001/usbcore001_device.c ****  */
 966:../Dave/Generated/src/USBCORE001/usbcore001_device.c **** void Endpoint_ClearStatusStage(void)
 967:../Dave/Generated/src/USBCORE001/usbcore001_device.c **** {
 2079              		.loc 1 967 0
 2080              		.cfi_startproc
 2081              		@ args = 0, pretend = 0, frame = 0
 2082              		@ frame_needed = 1, uses_anonymous_args = 0
 2083              		@ link register save eliminated.
 2084 0000 80B4     		push	{r7}
 2085              	.LCFI55:
 2086              		.cfi_def_cfa_offset 4
 2087              		.cfi_offset 7, -4
 2088 0002 00AF     		add	r7, sp, #0
 2089              	.LCFI56:
 2090              		.cfi_def_cfa_register 7
 968:../Dave/Generated/src/USBCORE001/usbcore001_device.c ****   return;
 2091              		.loc 1 968 0
 2092 0004 00BF     		nop
 969:../Dave/Generated/src/USBCORE001/usbcore001_device.c **** }
 2093              		.loc 1 969 0
 2094 0006 BD46     		mov	sp, r7
 2095 0008 80BC     		pop	{r7}
 2096 000a 7047     		bx	lr
 2097              		.cfi_endproc
 2098              	.LFE159:
 2100              		.section	.text.Endpoint_SelectEndpoint,"ax",%progbits
 2101              		.align	2
 2102              		.global	Endpoint_SelectEndpoint
 2103              		.thumb
 2104              		.thumb_func
 2106              	Endpoint_SelectEndpoint:
 2107              	.LFB160:
 970:../Dave/Generated/src/USBCORE001/usbcore001_device.c **** 
 971:../Dave/Generated/src/USBCORE001/usbcore001_device.c **** 
 972:../Dave/Generated/src/USBCORE001/usbcore001_device.c **** /* This function Selects the current endpoint */
 973:../Dave/Generated/src/USBCORE001/usbcore001_device.c **** void Endpoint_SelectEndpoint(const uint8_t EndpointNumber, 
 974:../Dave/Generated/src/USBCORE001/usbcore001_device.c ****                                                         const uint8_t Direction)
 975:../Dave/Generated/src/USBCORE001/usbcore001_device.c **** {
 2108              		.loc 1 975 0
 2109              		.cfi_startproc
 2110              		@ args = 0, pretend = 0, frame = 8
 2111              		@ frame_needed = 1, uses_anonymous_args = 0
 2112              		@ link register save eliminated.
 2113 0000 80B4     		push	{r7}
 2114              	.LCFI57:
 2115              		.cfi_def_cfa_offset 4
 2116              		.cfi_offset 7, -4
 2117 0002 83B0     		sub	sp, sp, #12
 2118              	.LCFI58:
 2119              		.cfi_def_cfa_offset 16
 2120 0004 00AF     		add	r7, sp, #0
 2121              	.LCFI59:
 2122              		.cfi_def_cfa_register 7
 2123 0006 0246     		mov	r2, r0
 2124 0008 0B46     		mov	r3, r1
 2125 000a FA71     		strb	r2, [r7, #7]
 2126 000c BB71     		strb	r3, [r7, #6]
 976:../Dave/Generated/src/USBCORE001/usbcore001_device.c ****   USBCORE001_DevicePCD.CurEpNum = EndpointNumber;
 2127              		.loc 1 976 0
 2128 000e 40F20003 		movw	r3, #:lower16:USBCORE001_DevicePCD
 2129 0012 C0F20003 		movt	r3, #:upper16:USBCORE001_DevicePCD
 2130 0016 FA79     		ldrb	r2, [r7, #7]
 2131 0018 83F8D022 		strb	r2, [r3, #720]
 977:../Dave/Generated/src/USBCORE001/usbcore001_device.c ****   USBCORE001_DevicePCD.CurEpDir = Direction;
 2132              		.loc 1 977 0
 2133 001c 40F20003 		movw	r3, #:lower16:USBCORE001_DevicePCD
 2134 0020 C0F20003 		movt	r3, #:upper16:USBCORE001_DevicePCD
 2135 0024 BA79     		ldrb	r2, [r7, #6]
 2136 0026 83F8D122 		strb	r2, [r3, #721]
 978:../Dave/Generated/src/USBCORE001/usbcore001_device.c ****   return;
 2137              		.loc 1 978 0
 2138 002a 00BF     		nop
 979:../Dave/Generated/src/USBCORE001/usbcore001_device.c **** }
 2139              		.loc 1 979 0
 2140 002c 07F10C07 		add	r7, r7, #12
 2141 0030 BD46     		mov	sp, r7
 2142 0032 80BC     		pop	{r7}
 2143 0034 7047     		bx	lr
 2144              		.cfi_endproc
 2145              	.LFE160:
 2147 0036 00BF     		.section	.text.Endpoint_GetCurrentEndpoint,"ax",%progbits
 2148              		.align	2
 2149              		.global	Endpoint_GetCurrentEndpoint
 2150              		.thumb
 2151              		.thumb_func
 2153              	Endpoint_GetCurrentEndpoint:
 2154              	.LFB161:
 980:../Dave/Generated/src/USBCORE001/usbcore001_device.c **** 
 981:../Dave/Generated/src/USBCORE001/usbcore001_device.c **** /* This function Returns the current endpoint */
 982:../Dave/Generated/src/USBCORE001/usbcore001_device.c **** void Endpoint_GetCurrentEndpoint(uint8_t *EndpointNumber, uint8_t *Direction)
 983:../Dave/Generated/src/USBCORE001/usbcore001_device.c **** {
 2155              		.loc 1 983 0
 2156              		.cfi_startproc
 2157              		@ args = 0, pretend = 0, frame = 8
 2158              		@ frame_needed = 1, uses_anonymous_args = 0
 2159              		@ link register save eliminated.
 2160 0000 80B4     		push	{r7}
 2161              	.LCFI60:
 2162              		.cfi_def_cfa_offset 4
 2163              		.cfi_offset 7, -4
 2164 0002 83B0     		sub	sp, sp, #12
 2165              	.LCFI61:
 2166              		.cfi_def_cfa_offset 16
 2167 0004 00AF     		add	r7, sp, #0
 2168              	.LCFI62:
 2169              		.cfi_def_cfa_register 7
 2170 0006 7860     		str	r0, [r7, #4]
 2171 0008 3960     		str	r1, [r7, #0]
 984:../Dave/Generated/src/USBCORE001/usbcore001_device.c **** 	*EndpointNumber = USBCORE001_DevicePCD.CurEpNum;
 2172              		.loc 1 984 0
 2173 000a 40F20003 		movw	r3, #:lower16:USBCORE001_DevicePCD
 2174 000e C0F20003 		movt	r3, #:upper16:USBCORE001_DevicePCD
 2175 0012 93F8D022 		ldrb	r2, [r3, #720]	@ zero_extendqisi2
 2176 0016 7B68     		ldr	r3, [r7, #4]
 2177 0018 1A70     		strb	r2, [r3, #0]
 985:../Dave/Generated/src/USBCORE001/usbcore001_device.c **** 	*Direction = USBCORE001_DevicePCD.CurEpDir;
 2178              		.loc 1 985 0
 2179 001a 40F20003 		movw	r3, #:lower16:USBCORE001_DevicePCD
 2180 001e C0F20003 		movt	r3, #:upper16:USBCORE001_DevicePCD
 2181 0022 93F8D122 		ldrb	r2, [r3, #721]	@ zero_extendqisi2
 2182 0026 3B68     		ldr	r3, [r7, #0]
 2183 0028 1A70     		strb	r2, [r3, #0]
 986:../Dave/Generated/src/USBCORE001/usbcore001_device.c **** }
 2184              		.loc 1 986 0
 2185 002a 07F10C07 		add	r7, r7, #12
 2186 002e BD46     		mov	sp, r7
 2187 0030 80BC     		pop	{r7}
 2188 0032 7047     		bx	lr
 2189              		.cfi_endproc
 2190              	.LFE161:
 2192              		.section	.text.Endpoint_BytesInEndpoint,"ax",%progbits
 2193              		.align	2
 2194              		.global	Endpoint_BytesInEndpoint
 2195              		.thumb
 2196              		.thumb_func
 2198              	Endpoint_BytesInEndpoint:
 2199              	.LFB162:
 987:../Dave/Generated/src/USBCORE001/usbcore001_device.c **** 
 988:../Dave/Generated/src/USBCORE001/usbcore001_device.c **** /* 
 989:../Dave/Generated/src/USBCORE001/usbcore001_device.c ****  * This function Returns the number of bytes available in 
 990:../Dave/Generated/src/USBCORE001/usbcore001_device.c ****  * the selected endpoint.
 991:../Dave/Generated/src/USBCORE001/usbcore001_device.c ****  */
 992:../Dave/Generated/src/USBCORE001/usbcore001_device.c **** uint16_t Endpoint_BytesInEndpoint(void)
 993:../Dave/Generated/src/USBCORE001/usbcore001_device.c **** {
 2200              		.loc 1 993 0
 2201              		.cfi_startproc
 2202              		@ args = 0, pretend = 0, frame = 8
 2203              		@ frame_needed = 1, uses_anonymous_args = 0
 2204              		@ link register save eliminated.
 2205 0000 80B4     		push	{r7}
 2206              	.LCFI63:
 2207              		.cfi_def_cfa_offset 4
 2208              		.cfi_offset 7, -4
 2209 0002 83B0     		sub	sp, sp, #12
 2210              	.LCFI64:
 2211              		.cfi_def_cfa_offset 16
 2212 0004 00AF     		add	r7, sp, #0
 2213              	.LCFI65:
 2214              		.cfi_def_cfa_register 7
 994:../Dave/Generated/src/USBCORE001/usbcore001_device.c ****   USBCORE001_DeivceEndpoint *EndPoint;
 995:../Dave/Generated/src/USBCORE001/usbcore001_device.c ****   uint16_t Bytes = 0;
 2215              		.loc 1 995 0
 2216 0006 4FF00003 		mov	r3, #0
 2217 000a FB80     		strh	r3, [r7, #6]	@ movhi
 996:../Dave/Generated/src/USBCORE001/usbcore001_device.c **** 
 997:../Dave/Generated/src/USBCORE001/usbcore001_device.c ****   if(!USBCORE001_DevicePCD.CurEpNum)
 2218              		.loc 1 997 0
 2219 000c 40F20003 		movw	r3, #:lower16:USBCORE001_DevicePCD
 2220 0010 C0F20003 		movt	r3, #:upper16:USBCORE001_DevicePCD
 2221 0014 93F8D032 		ldrb	r3, [r3, #720]	@ zero_extendqisi2
 2222 0018 002B     		cmp	r3, #0
 2223 001a 05D1     		bne	.L105
 998:../Dave/Generated/src/USBCORE001/usbcore001_device.c ****   {
 999:../Dave/Generated/src/USBCORE001/usbcore001_device.c ****     EndPoint = &USBCORE001_DevicePCD.EndPoint0;
 2224              		.loc 1 999 0
 2225 001c 40F20003 		movw	r3, #:lower16:USBCORE001_DevicePCD
 2226 0020 C0F20003 		movt	r3, #:upper16:USBCORE001_DevicePCD
 2227 0024 3B60     		str	r3, [r7, #0]
 2228 0026 3AE0     		b	.L106
 2229              	.L105:
1000:../Dave/Generated/src/USBCORE001/usbcore001_device.c ****   }
1001:../Dave/Generated/src/USBCORE001/usbcore001_device.c ****   else if(USBCORE001_DevicePCD.CurEpDir)
 2230              		.loc 1 1001 0
 2231 0028 40F20003 		movw	r3, #:lower16:USBCORE001_DevicePCD
 2232 002c C0F20003 		movt	r3, #:upper16:USBCORE001_DevicePCD
 2233 0030 93F8D132 		ldrb	r3, [r3, #721]	@ zero_extendqisi2
 2234 0034 002B     		cmp	r3, #0
 2235 0036 18D0     		beq	.L107
1002:../Dave/Generated/src/USBCORE001/usbcore001_device.c ****   {
1003:../Dave/Generated/src/USBCORE001/usbcore001_device.c ****     EndPoint = &USBCORE001_DevicePCD.InEps[USBCORE001_DevicePCD.CurEpNum];
 2236              		.loc 1 1003 0
 2237 0038 40F20003 		movw	r3, #:lower16:USBCORE001_DevicePCD
 2238 003c C0F20003 		movt	r3, #:upper16:USBCORE001_DevicePCD
 2239 0040 93F8D032 		ldrb	r3, [r3, #720]	@ zero_extendqisi2
 2240 0044 1A46     		mov	r2, r3
 2241 0046 1346     		mov	r3, r2
 2242 0048 4FEAC303 		lsl	r3, r3, #3
 2243 004c 9B18     		adds	r3, r3, r2
 2244 004e 4FEA8303 		lsl	r3, r3, #2
 2245 0052 03F5B472 		add	r2, r3, #360
 2246 0056 40F20003 		movw	r3, #:lower16:USBCORE001_DevicePCD
 2247 005a C0F20003 		movt	r3, #:upper16:USBCORE001_DevicePCD
 2248 005e D318     		adds	r3, r2, r3
 2249 0060 3B60     		str	r3, [r7, #0]
1004:../Dave/Generated/src/USBCORE001/usbcore001_device.c ****     Bytes = EndPoint->BytesAvailableIn;
 2250              		.loc 1 1004 0
 2251 0062 3B68     		ldr	r3, [r7, #0]
 2252 0064 9B8B     		ldrh	r3, [r3, #28]	@ movhi
 2253 0066 FB80     		strh	r3, [r7, #6]	@ movhi
 2254 0068 19E0     		b	.L106
 2255              	.L107:
1005:../Dave/Generated/src/USBCORE001/usbcore001_device.c ****   }
1006:../Dave/Generated/src/USBCORE001/usbcore001_device.c ****   else
1007:../Dave/Generated/src/USBCORE001/usbcore001_device.c ****   {
1008:../Dave/Generated/src/USBCORE001/usbcore001_device.c ****     EndPoint = &USBCORE001_DevicePCD.OutEps[USBCORE001_DevicePCD.CurEpNum];
 2256              		.loc 1 1008 0
 2257 006a 40F20003 		movw	r3, #:lower16:USBCORE001_DevicePCD
 2258 006e C0F20003 		movt	r3, #:upper16:USBCORE001_DevicePCD
 2259 0072 93F8D032 		ldrb	r3, [r3, #720]	@ zero_extendqisi2
 2260 0076 1A46     		mov	r2, r3
 2261 0078 1346     		mov	r3, r2
 2262 007a 4FEAC303 		lsl	r3, r3, #3
 2263 007e 9B18     		adds	r3, r3, r2
 2264 0080 4FEA8303 		lsl	r3, r3, #2
 2265 0084 03F12002 		add	r2, r3, #32
 2266 0088 40F20003 		movw	r3, #:lower16:USBCORE001_DevicePCD
 2267 008c C0F20003 		movt	r3, #:upper16:USBCORE001_DevicePCD
 2268 0090 D318     		adds	r3, r2, r3
 2269 0092 03F10403 		add	r3, r3, #4
 2270 0096 3B60     		str	r3, [r7, #0]
1009:../Dave/Generated/src/USBCORE001/usbcore001_device.c ****     Bytes = EndPoint->BytesAvailableOut;
 2271              		.loc 1 1009 0
 2272 0098 3B68     		ldr	r3, [r7, #0]
 2273 009a 5B8A     		ldrh	r3, [r3, #18]	@ movhi
 2274 009c FB80     		strh	r3, [r7, #6]	@ movhi
 2275              	.L106:
1010:../Dave/Generated/src/USBCORE001/usbcore001_device.c ****   }
1011:../Dave/Generated/src/USBCORE001/usbcore001_device.c **** 
1012:../Dave/Generated/src/USBCORE001/usbcore001_device.c ****   return Bytes;
 2276              		.loc 1 1012 0
 2277 009e FB88     		ldrh	r3, [r7, #6]
1013:../Dave/Generated/src/USBCORE001/usbcore001_device.c **** }
 2278              		.loc 1 1013 0
 2279 00a0 1846     		mov	r0, r3
 2280 00a2 07F10C07 		add	r7, r7, #12
 2281 00a6 BD46     		mov	sp, r7
 2282 00a8 80BC     		pop	{r7}
 2283 00aa 7047     		bx	lr
 2284              		.cfi_endproc
 2285              	.LFE162:
 2287              		.section	.text.Endpoint_IsOUTReceived,"ax",%progbits
 2288              		.align	2
 2289              		.global	Endpoint_IsOUTReceived
 2290              		.thumb
 2291              		.thumb_func
 2293              	Endpoint_IsOUTReceived:
 2294              	.LFB163:
1014:../Dave/Generated/src/USBCORE001/usbcore001_device.c **** 
1015:../Dave/Generated/src/USBCORE001/usbcore001_device.c **** /* 
1016:../Dave/Generated/src/USBCORE001/usbcore001_device.c ****  * This function Determines if the selected OUT endpoint 
1017:../Dave/Generated/src/USBCORE001/usbcore001_device.c ****  * has received new packet.
1018:../Dave/Generated/src/USBCORE001/usbcore001_device.c ****  */
1019:../Dave/Generated/src/USBCORE001/usbcore001_device.c **** uint8_t Endpoint_IsOUTReceived(void)
1020:../Dave/Generated/src/USBCORE001/usbcore001_device.c **** {
 2295              		.loc 1 1020 0
 2296              		.cfi_startproc
 2297              		@ args = 0, pretend = 0, frame = 8
 2298              		@ frame_needed = 1, uses_anonymous_args = 0
 2299              		@ link register save eliminated.
 2300 0000 80B4     		push	{r7}
 2301              	.LCFI66:
 2302              		.cfi_def_cfa_offset 4
 2303              		.cfi_offset 7, -4
 2304 0002 83B0     		sub	sp, sp, #12
 2305              	.LCFI67:
 2306              		.cfi_def_cfa_offset 16
 2307 0004 00AF     		add	r7, sp, #0
 2308              	.LCFI68:
 2309              		.cfi_def_cfa_register 7
1021:../Dave/Generated/src/USBCORE001/usbcore001_device.c ****   bool Status = false;
 2310              		.loc 1 1021 0
 2311 0006 4FF00003 		mov	r3, #0
 2312 000a FB71     		strb	r3, [r7, #7]
1022:../Dave/Generated/src/USBCORE001/usbcore001_device.c **** 
1023:../Dave/Generated/src/USBCORE001/usbcore001_device.c ****   USBCORE001_DeivceEndpoint *EndPoint;
1024:../Dave/Generated/src/USBCORE001/usbcore001_device.c **** 
1025:../Dave/Generated/src/USBCORE001/usbcore001_device.c ****   if(USBCORE001_DevicePCD.CurEpNum)
 2313              		.loc 1 1025 0
 2314 000c 40F20003 		movw	r3, #:lower16:USBCORE001_DevicePCD
 2315 0010 C0F20003 		movt	r3, #:upper16:USBCORE001_DevicePCD
 2316 0014 93F8D032 		ldrb	r3, [r3, #720]	@ zero_extendqisi2
 2317 0018 002B     		cmp	r3, #0
 2318 001a 17D0     		beq	.L110
1026:../Dave/Generated/src/USBCORE001/usbcore001_device.c ****   {
1027:../Dave/Generated/src/USBCORE001/usbcore001_device.c ****     EndPoint = &USBCORE001_DevicePCD.OutEps[USBCORE001_DevicePCD.CurEpNum];
 2319              		.loc 1 1027 0
 2320 001c 40F20003 		movw	r3, #:lower16:USBCORE001_DevicePCD
 2321 0020 C0F20003 		movt	r3, #:upper16:USBCORE001_DevicePCD
 2322 0024 93F8D032 		ldrb	r3, [r3, #720]	@ zero_extendqisi2
 2323 0028 1A46     		mov	r2, r3
 2324 002a 1346     		mov	r3, r2
 2325 002c 4FEAC303 		lsl	r3, r3, #3
 2326 0030 9B18     		adds	r3, r3, r2
 2327 0032 4FEA8303 		lsl	r3, r3, #2
 2328 0036 03F12002 		add	r2, r3, #32
 2329 003a 40F20003 		movw	r3, #:lower16:USBCORE001_DevicePCD
 2330 003e C0F20003 		movt	r3, #:upper16:USBCORE001_DevicePCD
 2331 0042 D318     		adds	r3, r2, r3
 2332 0044 03F10403 		add	r3, r3, #4
 2333 0048 3B60     		str	r3, [r7, #0]
 2334 004a 04E0     		b	.L111
 2335              	.L110:
1028:../Dave/Generated/src/USBCORE001/usbcore001_device.c ****   }
1029:../Dave/Generated/src/USBCORE001/usbcore001_device.c ****   else
1030:../Dave/Generated/src/USBCORE001/usbcore001_device.c ****   {
1031:../Dave/Generated/src/USBCORE001/usbcore001_device.c ****     EndPoint = &USBCORE001_DevicePCD.EndPoint0;
 2336              		.loc 1 1031 0
 2337 004c 40F20003 		movw	r3, #:lower16:USBCORE001_DevicePCD
 2338 0050 C0F20003 		movt	r3, #:upper16:USBCORE001_DevicePCD
 2339 0054 3B60     		str	r3, [r7, #0]
 2340              	.L111:
1032:../Dave/Generated/src/USBCORE001/usbcore001_device.c ****   }
1033:../Dave/Generated/src/USBCORE001/usbcore001_device.c **** 
1034:../Dave/Generated/src/USBCORE001/usbcore001_device.c ****   if (!EndPoint->InEp)
 2341              		.loc 1 1034 0
 2342 0056 3B68     		ldr	r3, [r7, #0]
 2343 0058 5B78     		ldrb	r3, [r3, #1]	@ zero_extendqisi2
 2344 005a 002B     		cmp	r3, #0
 2345 005c 08D1     		bne	.L112
1035:../Dave/Generated/src/USBCORE001/usbcore001_device.c ****   {
1036:../Dave/Generated/src/USBCORE001/usbcore001_device.c ****     Status = EndPoint->BytesAvailableOut ? true : false;
 2346              		.loc 1 1036 0
 2347 005e 3B68     		ldr	r3, [r7, #0]
 2348 0060 5B8A     		ldrh	r3, [r3, #18]	@ movhi
 2349 0062 9BB2     		uxth	r3, r3
 2350 0064 002B     		cmp	r3, #0
 2351 0066 0CBF     		ite	eq
 2352 0068 0023     		moveq	r3, #0
 2353 006a 0123     		movne	r3, #1
 2354 006c DBB2     		uxtb	r3, r3
 2355 006e FB71     		strb	r3, [r7, #7]
 2356              	.L112:
1037:../Dave/Generated/src/USBCORE001/usbcore001_device.c ****   }
1038:../Dave/Generated/src/USBCORE001/usbcore001_device.c **** 
1039:../Dave/Generated/src/USBCORE001/usbcore001_device.c ****   return Status;
 2357              		.loc 1 1039 0
 2358 0070 FB79     		ldrb	r3, [r7, #7]	@ zero_extendqisi2
1040:../Dave/Generated/src/USBCORE001/usbcore001_device.c **** }
 2359              		.loc 1 1040 0
 2360 0072 1846     		mov	r0, r3
 2361 0074 07F10C07 		add	r7, r7, #12
 2362 0078 BD46     		mov	sp, r7
 2363 007a 80BC     		pop	{r7}
 2364 007c 7047     		bx	lr
 2365              		.cfi_endproc
 2366              	.LFE163:
 2368 007e 00BF     		.section	.text.Endpoint_Read_8,"ax",%progbits
 2369              		.align	2
 2370              		.global	Endpoint_Read_8
 2371              		.thumb
 2372              		.thumb_func
 2374              	Endpoint_Read_8:
 2375              	.LFB164:
1041:../Dave/Generated/src/USBCORE001/usbcore001_device.c **** 
1042:../Dave/Generated/src/USBCORE001/usbcore001_device.c **** /*This function Reads one byte from the current endpoint.*/
1043:../Dave/Generated/src/USBCORE001/usbcore001_device.c **** uint8_t Endpoint_Read_8(void)
1044:../Dave/Generated/src/USBCORE001/usbcore001_device.c **** {
 2376              		.loc 1 1044 0
 2377              		.cfi_startproc
 2378              		@ args = 0, pretend = 0, frame = 8
 2379              		@ frame_needed = 1, uses_anonymous_args = 0
 2380              		@ link register save eliminated.
 2381 0000 80B4     		push	{r7}
 2382              	.LCFI69:
 2383              		.cfi_def_cfa_offset 4
 2384              		.cfi_offset 7, -4
 2385 0002 83B0     		sub	sp, sp, #12
 2386              	.LCFI70:
 2387              		.cfi_def_cfa_offset 16
 2388 0004 00AF     		add	r7, sp, #0
 2389              	.LCFI71:
 2390              		.cfi_def_cfa_register 7
1045:../Dave/Generated/src/USBCORE001/usbcore001_device.c ****   USBCORE001_DeivceEndpoint *EndPoint;
1046:../Dave/Generated/src/USBCORE001/usbcore001_device.c ****   uint8_t  Byte;
1047:../Dave/Generated/src/USBCORE001/usbcore001_device.c ****   bool Success = false;
 2391              		.loc 1 1047 0
 2392 0006 4FF00003 		mov	r3, #0
 2393 000a BB70     		strb	r3, [r7, #2]
1048:../Dave/Generated/src/USBCORE001/usbcore001_device.c **** 
1049:../Dave/Generated/src/USBCORE001/usbcore001_device.c ****   if(USBCORE001_DevicePCD.CurEpNum)
 2394              		.loc 1 1049 0
 2395 000c 40F20003 		movw	r3, #:lower16:USBCORE001_DevicePCD
 2396 0010 C0F20003 		movt	r3, #:upper16:USBCORE001_DevicePCD
 2397 0014 93F8D032 		ldrb	r3, [r3, #720]	@ zero_extendqisi2
 2398 0018 002B     		cmp	r3, #0
 2399 001a 17D0     		beq	.L115
1050:../Dave/Generated/src/USBCORE001/usbcore001_device.c ****   {
1051:../Dave/Generated/src/USBCORE001/usbcore001_device.c ****     EndPoint = &USBCORE001_DevicePCD.OutEps[USBCORE001_DevicePCD.CurEpNum];
 2400              		.loc 1 1051 0
 2401 001c 40F20003 		movw	r3, #:lower16:USBCORE001_DevicePCD
 2402 0020 C0F20003 		movt	r3, #:upper16:USBCORE001_DevicePCD
 2403 0024 93F8D032 		ldrb	r3, [r3, #720]	@ zero_extendqisi2
 2404 0028 1A46     		mov	r2, r3
 2405 002a 1346     		mov	r3, r2
 2406 002c 4FEAC303 		lsl	r3, r3, #3
 2407 0030 9B18     		adds	r3, r3, r2
 2408 0032 4FEA8303 		lsl	r3, r3, #2
 2409 0036 03F12002 		add	r2, r3, #32
 2410 003a 40F20003 		movw	r3, #:lower16:USBCORE001_DevicePCD
 2411 003e C0F20003 		movt	r3, #:upper16:USBCORE001_DevicePCD
 2412 0042 D318     		adds	r3, r2, r3
 2413 0044 03F10403 		add	r3, r3, #4
 2414 0048 7B60     		str	r3, [r7, #4]
 2415 004a 04E0     		b	.L116
 2416              	.L115:
1052:../Dave/Generated/src/USBCORE001/usbcore001_device.c ****   }
1053:../Dave/Generated/src/USBCORE001/usbcore001_device.c ****   else
1054:../Dave/Generated/src/USBCORE001/usbcore001_device.c ****   {
1055:../Dave/Generated/src/USBCORE001/usbcore001_device.c ****     EndPoint = &USBCORE001_DevicePCD.EndPoint0;
 2417              		.loc 1 1055 0
 2418 004c 40F20003 		movw	r3, #:lower16:USBCORE001_DevicePCD
 2419 0050 C0F20003 		movt	r3, #:upper16:USBCORE001_DevicePCD
 2420 0054 7B60     		str	r3, [r7, #4]
 2421              	.L116:
1056:../Dave/Generated/src/USBCORE001/usbcore001_device.c ****   }
1057:../Dave/Generated/src/USBCORE001/usbcore001_device.c **** 
1058:../Dave/Generated/src/USBCORE001/usbcore001_device.c ****   do
1059:../Dave/Generated/src/USBCORE001/usbcore001_device.c ****   {
1060:../Dave/Generated/src/USBCORE001/usbcore001_device.c ****     if(EndPoint->BytesAvailableOut)
 2422              		.loc 1 1060 0
 2423 0056 7B68     		ldr	r3, [r7, #4]
 2424 0058 5B8A     		ldrh	r3, [r3, #18]	@ movhi
 2425 005a 9BB2     		uxth	r3, r3
 2426 005c 002B     		cmp	r3, #0
 2427 005e 21D0     		beq	.L117
1061:../Dave/Generated/src/USBCORE001/usbcore001_device.c ****     {
1062:../Dave/Generated/src/USBCORE001/usbcore001_device.c ****       Byte = EndPoint->OutBuffer[EndPoint->CurrentOutIndex];
 2428              		.loc 1 1062 0
 2429 0060 7B68     		ldr	r3, [r7, #4]
 2430 0062 DA68     		ldr	r2, [r3, #12]
 2431 0064 7B68     		ldr	r3, [r7, #4]
 2432 0066 5B8B     		ldrh	r3, [r3, #26]
 2433 0068 D318     		adds	r3, r2, r3
 2434 006a 1B78     		ldrb	r3, [r3, #0]
 2435 006c FB70     		strb	r3, [r7, #3]
1063:../Dave/Generated/src/USBCORE001/usbcore001_device.c ****       EndPoint->CurrentOutIndex++;
 2436              		.loc 1 1063 0
 2437 006e 7B68     		ldr	r3, [r7, #4]
 2438 0070 5B8B     		ldrh	r3, [r3, #26]
 2439 0072 03F10103 		add	r3, r3, #1
 2440 0076 9AB2     		uxth	r2, r3
 2441 0078 7B68     		ldr	r3, [r7, #4]
 2442 007a 5A83     		strh	r2, [r3, #26]	@ movhi
1064:../Dave/Generated/src/USBCORE001/usbcore001_device.c ****       EndPoint->BytesAvailableOut--;
 2443              		.loc 1 1064 0
 2444 007c 7B68     		ldr	r3, [r7, #4]
 2445 007e 5B8A     		ldrh	r3, [r3, #18]	@ movhi
 2446 0080 9BB2     		uxth	r3, r3
 2447 0082 03F1FF33 		add	r3, r3, #-1
 2448 0086 9AB2     		uxth	r2, r3
 2449 0088 7B68     		ldr	r3, [r7, #4]
 2450 008a 5A82     		strh	r2, [r3, #18]	@ movhi
1065:../Dave/Generated/src/USBCORE001/usbcore001_device.c ****     
1066:../Dave/Generated/src/USBCORE001/usbcore001_device.c ****       if(!EndPoint->BytesAvailableOut)
 2451              		.loc 1 1066 0
 2452 008c 7B68     		ldr	r3, [r7, #4]
 2453 008e 5B8A     		ldrh	r3, [r3, #18]	@ movhi
 2454 0090 9BB2     		uxth	r3, r3
 2455 0092 002B     		cmp	r3, #0
 2456 0094 03D1     		bne	.L118
1067:../Dave/Generated/src/USBCORE001/usbcore001_device.c ****       {
1068:../Dave/Generated/src/USBCORE001/usbcore001_device.c ****         EndPoint->CurrentOutIndex = 0;
 2457              		.loc 1 1068 0
 2458 0096 7B68     		ldr	r3, [r7, #4]
 2459 0098 4FF00002 		mov	r2, #0
 2460 009c 5A83     		strh	r2, [r3, #26]	@ movhi
 2461              	.L118:
1069:../Dave/Generated/src/USBCORE001/usbcore001_device.c ****       }
1070:../Dave/Generated/src/USBCORE001/usbcore001_device.c ****       Success = true;
 2462              		.loc 1 1070 0
 2463 009e 4FF00103 		mov	r3, #1
 2464 00a2 BB70     		strb	r3, [r7, #2]
 2465              	.L117:
1071:../Dave/Generated/src/USBCORE001/usbcore001_device.c ****     }
1072:../Dave/Generated/src/USBCORE001/usbcore001_device.c ****   }while(!Success);
 2466              		.loc 1 1072 0
 2467 00a4 BB78     		ldrb	r3, [r7, #2]	@ zero_extendqisi2
 2468 00a6 002B     		cmp	r3, #0
 2469 00a8 D5D0     		beq	.L116
1073:../Dave/Generated/src/USBCORE001/usbcore001_device.c **** 
1074:../Dave/Generated/src/USBCORE001/usbcore001_device.c ****   return Byte;
 2470              		.loc 1 1074 0
 2471 00aa FB78     		ldrb	r3, [r7, #3]	@ zero_extendqisi2
1075:../Dave/Generated/src/USBCORE001/usbcore001_device.c **** }
 2472              		.loc 1 1075 0
 2473 00ac 1846     		mov	r0, r3
 2474 00ae 07F10C07 		add	r7, r7, #12
 2475 00b2 BD46     		mov	sp, r7
 2476 00b4 80BC     		pop	{r7}
 2477 00b6 7047     		bx	lr
 2478              		.cfi_endproc
 2479              	.LFE164:
 2481              		.section	.text.Endpoint_ConfigureEndpoint,"ax",%progbits
 2482              		.align	2
 2483              		.global	Endpoint_ConfigureEndpoint
 2484              		.thumb
 2485              		.thumb_func
 2487              	Endpoint_ConfigureEndpoint:
 2488              	.LFB165:
1076:../Dave/Generated/src/USBCORE001/usbcore001_device.c **** 
1077:../Dave/Generated/src/USBCORE001/usbcore001_device.c **** /*This function Configures the specified endpoint*/
1078:../Dave/Generated/src/USBCORE001/usbcore001_device.c **** uint8_t Endpoint_ConfigureEndpoint(const uint8_t Number,
1079:../Dave/Generated/src/USBCORE001/usbcore001_device.c ****   const uint8_t Type,
1080:../Dave/Generated/src/USBCORE001/usbcore001_device.c ****   const uint8_t Direction,
1081:../Dave/Generated/src/USBCORE001/usbcore001_device.c ****   const uint16_t Size,
1082:../Dave/Generated/src/USBCORE001/usbcore001_device.c ****   const uint8_t Banks)
1083:../Dave/Generated/src/USBCORE001/usbcore001_device.c **** {
 2489              		.loc 1 1083 0
 2490              		.cfi_startproc
 2491              		@ args = 4, pretend = 0, frame = 24
 2492              		@ frame_needed = 1, uses_anonymous_args = 0
 2493 0000 90B5     		push	{r4, r7, lr}
 2494              	.LCFI72:
 2495              		.cfi_def_cfa_offset 12
 2496              		.cfi_offset 4, -12
 2497              		.cfi_offset 7, -8
 2498              		.cfi_offset 14, -4
 2499 0002 8BB0     		sub	sp, sp, #44
 2500              	.LCFI73:
 2501              		.cfi_def_cfa_offset 56
 2502 0004 04AF     		add	r7, sp, #16
 2503              	.LCFI74:
 2504              		.cfi_def_cfa 7, 40
 2505 0006 F871     		strb	r0, [r7, #7]
 2506 0008 B971     		strb	r1, [r7, #6]
 2507 000a 7A71     		strb	r2, [r7, #5]
 2508 000c 7B80     		strh	r3, [r7, #2]	@ movhi
1084:../Dave/Generated/src/USBCORE001/usbcore001_device.c ****   USBCORE001_DeivceEndpoint *EndPoint;
1085:../Dave/Generated/src/USBCORE001/usbcore001_device.c ****   usb_endpoint_descriptor_t Desc;
1086:../Dave/Generated/src/USBCORE001/usbcore001_device.c **** 
1087:../Dave/Generated/src/USBCORE001/usbcore001_device.c ****   if(!Number)
 2509              		.loc 1 1087 0
 2510 000e FB79     		ldrb	r3, [r7, #7]	@ zero_extendqisi2
 2511 0010 002B     		cmp	r3, #0
 2512 0012 02D1     		bne	.L121
1088:../Dave/Generated/src/USBCORE001/usbcore001_device.c ****   {
1089:../Dave/Generated/src/USBCORE001/usbcore001_device.c ****     return false;
 2513              		.loc 1 1089 0
 2514 0014 4FF00003 		mov	r3, #0
 2515 0018 B3E0     		b	.L128
 2516              	.L121:
1090:../Dave/Generated/src/USBCORE001/usbcore001_device.c ****   }
1091:../Dave/Generated/src/USBCORE001/usbcore001_device.c **** 
1092:../Dave/Generated/src/USBCORE001/usbcore001_device.c ****   if(Direction)
 2517              		.loc 1 1092 0
 2518 001a 7B79     		ldrb	r3, [r7, #5]	@ zero_extendqisi2
 2519 001c 002B     		cmp	r3, #0
 2520 001e 1CD0     		beq	.L123
1093:../Dave/Generated/src/USBCORE001/usbcore001_device.c ****   {
1094:../Dave/Generated/src/USBCORE001/usbcore001_device.c ****     EndPoint = &USBCORE001_DevicePCD.InEps[Number];
 2521              		.loc 1 1094 0
 2522 0020 FA79     		ldrb	r2, [r7, #7]	@ zero_extendqisi2
 2523 0022 1346     		mov	r3, r2
 2524 0024 4FEAC303 		lsl	r3, r3, #3
 2525 0028 9B18     		adds	r3, r3, r2
 2526 002a 4FEA8303 		lsl	r3, r3, #2
 2527 002e 03F5B472 		add	r2, r3, #360
 2528 0032 40F20003 		movw	r3, #:lower16:USBCORE001_DevicePCD
 2529 0036 C0F20003 		movt	r3, #:upper16:USBCORE001_DevicePCD
 2530 003a D318     		adds	r3, r2, r3
 2531 003c 7B61     		str	r3, [r7, #20]
1095:../Dave/Generated/src/USBCORE001/usbcore001_device.c ****     if(!EndPoint->InBuffer)
 2532              		.loc 1 1095 0
 2533 003e 7B69     		ldr	r3, [r7, #20]
 2534 0040 5B68     		ldr	r3, [r3, #4]
 2535 0042 002B     		cmp	r3, #0
 2536 0044 27D1     		bne	.L124
1096:../Dave/Generated/src/USBCORE001/usbcore001_device.c ****     {
1097:../Dave/Generated/src/USBCORE001/usbcore001_device.c ****       EndPoint->InBuffer = (uint8_t *)DWC_ALLOC(Size);
 2537              		.loc 1 1097 0
 2538 0046 7B88     		ldrh	r3, [r7, #2]
 2539 0048 4FF00000 		mov	r0, #0
 2540 004c 1946     		mov	r1, r3
 2541 004e FFF7FEFF 		bl	__DWC_ALLOC
 2542 0052 0246     		mov	r2, r0
 2543 0054 7B69     		ldr	r3, [r7, #20]
 2544 0056 5A60     		str	r2, [r3, #4]
 2545 0058 1DE0     		b	.L124
 2546              	.L123:
1098:../Dave/Generated/src/USBCORE001/usbcore001_device.c ****     }
1099:../Dave/Generated/src/USBCORE001/usbcore001_device.c ****   }
1100:../Dave/Generated/src/USBCORE001/usbcore001_device.c ****   else
1101:../Dave/Generated/src/USBCORE001/usbcore001_device.c ****   {
1102:../Dave/Generated/src/USBCORE001/usbcore001_device.c ****     EndPoint = &USBCORE001_DevicePCD.OutEps[Number];
 2547              		.loc 1 1102 0
 2548 005a FA79     		ldrb	r2, [r7, #7]	@ zero_extendqisi2
 2549 005c 1346     		mov	r3, r2
 2550 005e 4FEAC303 		lsl	r3, r3, #3
 2551 0062 9B18     		adds	r3, r3, r2
 2552 0064 4FEA8303 		lsl	r3, r3, #2
 2553 0068 03F12002 		add	r2, r3, #32
 2554 006c 40F20003 		movw	r3, #:lower16:USBCORE001_DevicePCD
 2555 0070 C0F20003 		movt	r3, #:upper16:USBCORE001_DevicePCD
 2556 0074 D318     		adds	r3, r2, r3
 2557 0076 03F10403 		add	r3, r3, #4
 2558 007a 7B61     		str	r3, [r7, #20]
1103:../Dave/Generated/src/USBCORE001/usbcore001_device.c ****     if(!EndPoint->OutBuffer)
 2559              		.loc 1 1103 0
 2560 007c 7B69     		ldr	r3, [r7, #20]
 2561 007e DB68     		ldr	r3, [r3, #12]
 2562 0080 002B     		cmp	r3, #0
 2563 0082 08D1     		bne	.L124
1104:../Dave/Generated/src/USBCORE001/usbcore001_device.c ****     {
1105:../Dave/Generated/src/USBCORE001/usbcore001_device.c ****       EndPoint->OutBuffer = (uint8_t *)DWC_ALLOC(Size);
 2564              		.loc 1 1105 0
 2565 0084 7B88     		ldrh	r3, [r7, #2]
 2566 0086 4FF00000 		mov	r0, #0
 2567 008a 1946     		mov	r1, r3
 2568 008c FFF7FEFF 		bl	__DWC_ALLOC
 2569 0090 0246     		mov	r2, r0
 2570 0092 7B69     		ldr	r3, [r7, #20]
 2571 0094 DA60     		str	r2, [r3, #12]
 2572              	.L124:
1106:../Dave/Generated/src/USBCORE001/usbcore001_device.c ****     }
1107:../Dave/Generated/src/USBCORE001/usbcore001_device.c ****   }
1108:../Dave/Generated/src/USBCORE001/usbcore001_device.c **** 
1109:../Dave/Generated/src/USBCORE001/usbcore001_device.c ****   /*In case the EP was previously enabled, disable it*/
1110:../Dave/Generated/src/USBCORE001/usbcore001_device.c ****   if(EndPoint->EpEnabled)
 2573              		.loc 1 1110 0
 2574 0096 7B69     		ldr	r3, [r7, #20]
 2575 0098 93F82230 		ldrb	r3, [r3, #34]	@ zero_extendqisi2
 2576 009c 002B     		cmp	r3, #0
 2577 009e 09D0     		beq	.L125
1111:../Dave/Generated/src/USBCORE001/usbcore001_device.c ****   {
1112:../Dave/Generated/src/USBCORE001/usbcore001_device.c ****     dwc_otg_pcd_ep_disable(USBCORE001_DevicePCD.GPCD, EndPoint);
 2578              		.loc 1 1112 0
 2579 00a0 40F20003 		movw	r3, #:lower16:USBCORE001_DevicePCD
 2580 00a4 C0F20003 		movt	r3, #:upper16:USBCORE001_DevicePCD
 2581 00a8 D3F8C832 		ldr	r3, [r3, #712]
 2582 00ac 1846     		mov	r0, r3
 2583 00ae 7969     		ldr	r1, [r7, #20]
 2584 00b0 FFF7FEFF 		bl	dwc_otg_pcd_ep_disable
 2585              	.L125:
1113:../Dave/Generated/src/USBCORE001/usbcore001_device.c ****   }
1114:../Dave/Generated/src/USBCORE001/usbcore001_device.c **** 
1115:../Dave/Generated/src/USBCORE001/usbcore001_device.c ****   /*Enable the EP*/
1116:../Dave/Generated/src/USBCORE001/usbcore001_device.c ****   Desc.bLength = sizeof(Desc);
 2586              		.loc 1 1116 0
 2587 00b4 4FF00703 		mov	r3, #7
 2588 00b8 3B73     		strb	r3, [r7, #12]
1117:../Dave/Generated/src/USBCORE001/usbcore001_device.c ****   Desc.bDescriptorType = UDESC_ENDPOINT;
 2589              		.loc 1 1117 0
 2590 00ba 4FF00503 		mov	r3, #5
 2591 00be 7B73     		strb	r3, [r7, #13]
1118:../Dave/Generated/src/USBCORE001/usbcore001_device.c ****   Desc.bEndpointAddress = Number | Direction;
 2592              		.loc 1 1118 0
 2593 00c0 FA79     		ldrb	r2, [r7, #7]
 2594 00c2 7B79     		ldrb	r3, [r7, #5]
 2595 00c4 1343     		orrs	r3, r3, r2
 2596 00c6 DBB2     		uxtb	r3, r3
 2597 00c8 BB73     		strb	r3, [r7, #14]
1119:../Dave/Generated/src/USBCORE001/usbcore001_device.c ****   Desc.bmAttributes = Type;
 2598              		.loc 1 1119 0
 2599 00ca BB79     		ldrb	r3, [r7, #6]
 2600 00cc FB73     		strb	r3, [r7, #15]
1120:../Dave/Generated/src/USBCORE001/usbcore001_device.c ****   USETW(Desc.wMaxPacketSize, Size);
 2601              		.loc 1 1120 0
 2602 00ce 7B88     		ldrh	r3, [r7, #2]	@ movhi
 2603 00d0 DBB2     		uxtb	r3, r3
 2604 00d2 3B74     		strb	r3, [r7, #16]
 2605 00d4 7B88     		ldrh	r3, [r7, #2]
 2606 00d6 4FEA1323 		lsr	r3, r3, #8
 2607 00da 9BB2     		uxth	r3, r3
 2608 00dc DBB2     		uxtb	r3, r3
 2609 00de 7B74     		strb	r3, [r7, #17]
1121:../Dave/Generated/src/USBCORE001/usbcore001_device.c ****   dwc_otg_pcd_ep_enable(USBCORE001_DevicePCD.GPCD,(uint8_t*)&Desc, EndPoint);
 2610              		.loc 1 1121 0
 2611 00e0 40F20003 		movw	r3, #:lower16:USBCORE001_DevicePCD
 2612 00e4 C0F20003 		movt	r3, #:upper16:USBCORE001_DevicePCD
 2613 00e8 D3F8C822 		ldr	r2, [r3, #712]
 2614 00ec 07F10C03 		add	r3, r7, #12
 2615 00f0 1046     		mov	r0, r2
 2616 00f2 1946     		mov	r1, r3
 2617 00f4 7A69     		ldr	r2, [r7, #20]
 2618 00f6 FFF7FEFF 		bl	dwc_otg_pcd_ep_enable
1122:../Dave/Generated/src/USBCORE001/usbcore001_device.c **** 
1123:../Dave/Generated/src/USBCORE001/usbcore001_device.c ****   EndPoint->EpEnabled = true;
 2619              		.loc 1 1123 0
 2620 00fa 7B69     		ldr	r3, [r7, #20]
 2621 00fc 4FF00102 		mov	r2, #1
 2622 0100 83F82220 		strb	r2, [r3, #34]
1124:../Dave/Generated/src/USBCORE001/usbcore001_device.c ****   /*
1125:../Dave/Generated/src/USBCORE001/usbcore001_device.c ****   *@note If OUT Endpoint, queue the buffer so that we can 
1126:../Dave/Generated/src/USBCORE001/usbcore001_device.c ****   *recieve data
1127:../Dave/Generated/src/USBCORE001/usbcore001_device.c ****   */
1128:../Dave/Generated/src/USBCORE001/usbcore001_device.c ****   EndPoint->MaxPktSz = Size;
 2623              		.loc 1 1128 0
 2624 0104 7B69     		ldr	r3, [r7, #20]
 2625 0106 7A88     		ldrh	r2, [r7, #2]	@ movhi
 2626 0108 1A84     		strh	r2, [r3, #32]	@ movhi
1129:../Dave/Generated/src/USBCORE001/usbcore001_device.c ****   EndPoint->InEp = true;
 2627              		.loc 1 1129 0
 2628 010a 7B69     		ldr	r3, [r7, #20]
 2629 010c 4FF00102 		mov	r2, #1
 2630 0110 5A70     		strb	r2, [r3, #1]
1130:../Dave/Generated/src/USBCORE001/usbcore001_device.c ****   if(!Direction)
 2631              		.loc 1 1130 0
 2632 0112 7B79     		ldrb	r3, [r7, #5]	@ zero_extendqisi2
 2633 0114 002B     		cmp	r3, #0
 2634 0116 32D1     		bne	.L126
1131:../Dave/Generated/src/USBCORE001/usbcore001_device.c ****   {
1132:../Dave/Generated/src/USBCORE001/usbcore001_device.c ****     if(EndPoint->OutBufferInUse)
 2635              		.loc 1 1132 0
 2636 0118 7B69     		ldr	r3, [r7, #20]
 2637 011a 1B7C     		ldrb	r3, [r3, #16]
 2638 011c DBB2     		uxtb	r3, r3
 2639 011e 002B     		cmp	r3, #0
 2640 0120 0CD0     		beq	.L127
1133:../Dave/Generated/src/USBCORE001/usbcore001_device.c ****     {
1134:../Dave/Generated/src/USBCORE001/usbcore001_device.c ****       dwc_otg_pcd_ep_dequeue(USBCORE001_DevicePCD.GPCD, EndPoint,
 2641              		.loc 1 1134 0
 2642 0122 40F20003 		movw	r3, #:lower16:USBCORE001_DevicePCD
 2643 0126 C0F20003 		movt	r3, #:upper16:USBCORE001_DevicePCD
 2644 012a D3F8C822 		ldr	r2, [r3, #712]
1135:../Dave/Generated/src/USBCORE001/usbcore001_device.c ****                       (uint8_t *)EndPoint->OutBuffer);
 2645              		.loc 1 1135 0
 2646 012e 7B69     		ldr	r3, [r7, #20]
 2647 0130 DB68     		ldr	r3, [r3, #12]
1134:../Dave/Generated/src/USBCORE001/usbcore001_device.c ****       dwc_otg_pcd_ep_dequeue(USBCORE001_DevicePCD.GPCD, EndPoint,
 2648              		.loc 1 1134 0
 2649 0132 1046     		mov	r0, r2
 2650 0134 7969     		ldr	r1, [r7, #20]
 2651 0136 1A46     		mov	r2, r3
 2652 0138 FFF7FEFF 		bl	dwc_otg_pcd_ep_dequeue
 2653              	.L127:
1136:../Dave/Generated/src/USBCORE001/usbcore001_device.c ****     }
1137:../Dave/Generated/src/USBCORE001/usbcore001_device.c **** 
1138:../Dave/Generated/src/USBCORE001/usbcore001_device.c ****     dwc_otg_pcd_ep_queue(USBCORE001_DevicePCD.GPCD, EndPoint, 
 2654              		.loc 1 1138 0
 2655 013c 40F20003 		movw	r3, #:lower16:USBCORE001_DevicePCD
 2656 0140 C0F20003 		movt	r3, #:upper16:USBCORE001_DevicePCD
 2657 0144 D3F8C812 		ldr	r1, [r3, #712]
1139:../Dave/Generated/src/USBCORE001/usbcore001_device.c ****                       (uint8_t *)EndPoint->OutBuffer,
 2658              		.loc 1 1139 0
 2659 0148 7B69     		ldr	r3, [r7, #20]
1138:../Dave/Generated/src/USBCORE001/usbcore001_device.c ****     dwc_otg_pcd_ep_queue(USBCORE001_DevicePCD.GPCD, EndPoint, 
 2660              		.loc 1 1138 0
 2661 014a DA68     		ldr	r2, [r3, #12]
1140:../Dave/Generated/src/USBCORE001/usbcore001_device.c ****                      (int)EndPoint->OutBuffer, Size, 0, EndPoint->OutBuffer, 0);
 2662              		.loc 1 1140 0
 2663 014c 7B69     		ldr	r3, [r7, #20]
 2664 014e DB68     		ldr	r3, [r3, #12]
1138:../Dave/Generated/src/USBCORE001/usbcore001_device.c ****     dwc_otg_pcd_ep_queue(USBCORE001_DevicePCD.GPCD, EndPoint, 
 2665              		.loc 1 1138 0
 2666 0150 7C88     		ldrh	r4, [r7, #2]
 2667              		.loc 1 1140 0
 2668 0152 7869     		ldr	r0, [r7, #20]
 2669 0154 C068     		ldr	r0, [r0, #12]
1138:../Dave/Generated/src/USBCORE001/usbcore001_device.c ****     dwc_otg_pcd_ep_queue(USBCORE001_DevicePCD.GPCD, EndPoint, 
 2670              		.loc 1 1138 0
 2671 0156 0094     		str	r4, [sp, #0]
 2672 0158 4FF00004 		mov	r4, #0
 2673 015c 0194     		str	r4, [sp, #4]
 2674 015e 0290     		str	r0, [sp, #8]
 2675 0160 4FF00000 		mov	r0, #0
 2676 0164 0390     		str	r0, [sp, #12]
 2677 0166 0846     		mov	r0, r1
 2678 0168 7969     		ldr	r1, [r7, #20]
 2679 016a FFF7FEFF 		bl	dwc_otg_pcd_ep_queue
1141:../Dave/Generated/src/USBCORE001/usbcore001_device.c ****     EndPoint->OutBufferInUse = true;
 2680              		.loc 1 1141 0
 2681 016e 7B69     		ldr	r3, [r7, #20]
 2682 0170 4FF00102 		mov	r2, #1
 2683 0174 1A74     		strb	r2, [r3, #16]
1142:../Dave/Generated/src/USBCORE001/usbcore001_device.c ****     EndPoint->InEp = false;
 2684              		.loc 1 1142 0
 2685 0176 7B69     		ldr	r3, [r7, #20]
 2686 0178 4FF00002 		mov	r2, #0
 2687 017c 5A70     		strb	r2, [r3, #1]
 2688              	.L126:
1143:../Dave/Generated/src/USBCORE001/usbcore001_device.c ****   }
1144:../Dave/Generated/src/USBCORE001/usbcore001_device.c **** 
1145:../Dave/Generated/src/USBCORE001/usbcore001_device.c ****   return true;
 2689              		.loc 1 1145 0
 2690 017e 4FF00103 		mov	r3, #1
 2691              	.L128:
1146:../Dave/Generated/src/USBCORE001/usbcore001_device.c **** }
 2692              		.loc 1 1146 0
 2693 0182 1846     		mov	r0, r3
 2694 0184 07F11C07 		add	r7, r7, #28
 2695 0188 BD46     		mov	sp, r7
 2696 018a 90BD     		pop	{r4, r7, pc}
 2697              		.cfi_endproc
 2698              	.LFE165:
 2700              		.section	.text.Endpoint_Write_Stream_LE,"ax",%progbits
 2701              		.align	2
 2702              		.global	Endpoint_Write_Stream_LE
 2703              		.thumb
 2704              		.thumb_func
 2706              	Endpoint_Write_Stream_LE:
 2707              	.LFB166:
1147:../Dave/Generated/src/USBCORE001/usbcore001_device.c **** 
1148:../Dave/Generated/src/USBCORE001/usbcore001_device.c **** /* This function Writes the given number of bytes to the current endpoint. */
1149:../Dave/Generated/src/USBCORE001/usbcore001_device.c **** uint8_t Endpoint_Write_Stream_LE(const void* Buffer, uint16_t Length, 
1150:../Dave/Generated/src/USBCORE001/usbcore001_device.c ****                                                   uint16_t*const BytesProcessed)
1151:../Dave/Generated/src/USBCORE001/usbcore001_device.c **** {
 2708              		.loc 1 1151 0
 2709              		.cfi_startproc
 2710              		@ args = 0, pretend = 0, frame = 32
 2711              		@ frame_needed = 1, uses_anonymous_args = 0
 2712 0000 80B5     		push	{r7, lr}
 2713              	.LCFI75:
 2714              		.cfi_def_cfa_offset 8
 2715              		.cfi_offset 7, -8
 2716              		.cfi_offset 14, -4
 2717 0002 88B0     		sub	sp, sp, #32
